(dp0
S'/html/body/div/div/div/div/div/div/table/tr/td/div/a/span'
p1
F4.262456287196168
sS'/html/body/div/div/div/div/form/fieldset/input'
p2
F0.1980244146011699
sS'/html/body/div/div/div/div/div/div/div/div/div/a'
p3
F1.7632236605008962
sS'/html/body/div/div/div/div/div/ul/ul/li/span'
p4
F7.377933504616104
sS'/html/body/div/div/div/div/div/div/div/div/a/img'
p5
F2.181536291812601
sS'/html/body/div/div/div/div/div/div/div/div/div/div/div/h3/span/div'
p6
F7.377933504616104
sS'/html/body/div/div/div/div/div/span/br'
p7
F3.962896005337261
sS'/html/body/div/div/div/div/div/div/p/br'
p8
F8.96289600533726
sS'/html/body/div/div/div/div/div/div/div/header/p'
p9
F7.962896005337261
sS'/html/body/div/div/h1/h1/span'
p10
F7.962896005337261
sS'/html/body/div/div/div/div/div/p/a'
p11
F2.0203814999980207
sS'/html/body/div/div/div/div/div/div/div/div/h3/span/a'
p12
F8.96289600533726
sS'/html/body/div/div/div/div/div/div/div/div/h3/div/a/img'
p13
F2.6961094646423596
sS'/html/body/div/div/div/div/div/div/div/h3/div/a/img'
p14
F4.377933504616104
sS'/html/body/div/div/div/div/div/ul/li/dl/dd/div/span'
p15
F8.96289600533726
sS'/html/body/div/div/div/div/div/div/div/div/div/div/div/div/span/a'
p16
F2.6591152571601575
sS'/html/body/div/div/div/div/div/div/table/tr/td/a'
p17
F6.640967910449898
sS'/html/body/div/div/div/div/div/div/div/div/div/div/dl/dd/span/a'
p18
F6.377933504616104
sS'/html/body/header/div/div/div/div/a'
p19
F6.962896005337261
sS'/html/body/div/div/div/p/span'
p20
F7.377933504616104
sS'/html/body/rss/channel/item/link'
p21
F4.714968491893675
sS'/html/body/div/div/div/div/div/div/div/div/div/div/p/br'
p22
F3.471042909007586
sS'/html/body/div/div/div/span/a'
p23
F6.962896005337261
sS'/html/body/div/div/div/img'
p24
F8.96289600533726
sS'/html/body/div/div/div/a'
p25
F0.18481887580190248
sS'/html/body/div/div/div/div/div/div/div/div/div/span'
p26
F1.2834159058318144
sS'/html/body/div/div/div/div/div/div/div/span/input'
p27
F2.6591152571601575
sS'/html/body/div/div/div/div/ol/li/div/div/div/p/br'
p28
F8.96289600533726
sS'/html/head/meta'
p29
F0.062029197356511946
sS'/html/body/div/div/div/div/div/div/div/div/div/p'
p30
F8.96289600533726
sS'/html/body/div/div/div/div/ul/li/div/br'
p31
F7.962896005337261
sS'/html/body/header/div/div/div/div/img'
p32
F6.962896005337261
sS'/html/body/div/div/div/div/div/div/ul/li/ul/li/a'
p33
F5.262456287196168
sS'/html/body/div/div/div/form/div/p/label'
p34
F4.056005409728742
sS'/html/body/div/div/div/div/div/table/thead/tr/td'
p35
F5.503464386699964
sS'/html/body/div/div/div/div/div/div/div/div/div/strong'
p36
F2.6591152571601575
sS'/html/body/div/div/div/div/div/div/div/h4/span'
p37
F8.96289600533726
sS'/html/body/div/div/div/div/div/div/div/p/a/wbr'
p38
F6.377933504616104
sS'/html/body/div/div/div/div/div/ul/li/dd/a'
p39
F6.962896005337261
sS'/html/body/div/div/div/div/div/div/div/form/input'
p40
F6.155541083279656
sS'/html/body/div/div/div/div/div/div/div/div/div/span/em'
p41
F2.792971003894948
sS'/html/body/div/div/div/div/p/a'
p42
F1.6774937864750123
sS'/html/body/div/div/div/div/div/div/div/ul/li/span/a'
p43
F4.5705785825585
sS'/html/body/div/div/div/div/div/div/div/div/div/div/div/div/span'
p44
F8.96289600533726
sS'/html/body/div/div/div/div/div/div/ul/li/div/img'
p45
F8.96289600533726
sS'/html/body/div/div/div/div/ul/li/div/a'
p46
F4.056005409728742
sS'/html/head/script'
p47
F0.08025295597541923
sS'/html/body/div/div/div/div/div/div/div/div/div/div/div/span/a'
p48
F1.823344652938467
sS'/html/body/div/div/div/div/div/ul/li/div/div/ul/li'
p49
F6.962896005337261
sS'/html/body/div/div/div/div/div/table/tbody/tr/td/a'
p50
F5.503464386699964
sS'/html/body/div/div/div/div/div/div/ul/li/div/span/a'
p51
F5.503464386699964
sS'/html/body/div/div/div/div/div/div/div/script'
p52
F2.792971003894948
sS'/html/body/div/div/div/div/div/form/div/div/div'
p53
F8.96289600533726
sS'/html/body/div/div/div/form/div/input'
p54
F4.056005409728742
sS'/html/body/div/div/div/div/div/div/div/div/div/div/div/div/a'
p55
F5.503464386699964
sS'/html/body/div/div/div/div/div/div/div/div/span'
p56
F1.5965737910914448
sS'/html/body/div/div/div/div/div/button'
p57
F4.503464386699964
sS'/html/body/div/div/div/div/div/div/div/form/div/div/input'
p58
F6.155541083279656
sS'/html/body/div/div/div/div/div/div/div/div/div/div/p/a'
p59
F7.962896005337261
sS'/html/body/div/div/div/div/div/div/ul/li/div/div/div/p'
p60
F6.640967910449898
sS'/html/body/div/div/div/div/div/div/a/div'
p61
F8.96289600533726
sS'/html/body/div/div/div/div/div/div/div/div/div/span/link'
p62
F4.962896005337261
sS'/html/body/div/div/div/div/div/div/ul/li/ul/li/span'
p63
F5.262456287196168
sS'/html/body/div/div/div/div/div/div/a/div/div/p'
p64
F8.96289600533726
sS'/html/body/div/div/div/div/div/div/div/div/div/div/a'
p65
F2.290470663365765
sS'/html/body/div/div/div/div/h2/span/a'
p66
F6.962896005337261
sS'/html/body/div/div/div/div/div/div/div/div/div/div/p'
p67
F1.8648639223767338
sS'/html/body/div/div/div/div/div/span/div/span/a'
p68
F4.439334049280248
sS'/html/body/div/div/div/div/div/div/ul/li/div'
p69
F7.962896005337261
sS'/html/body/div/div/div/div/div/div/div/div/span/a'
p70
F2.290470663365765
sS'/html/body/div/div/div/div/div/div/link'
p71
F4.319039815562536
sS'/html/body/div/div/div/div/br'
p72
F1.9971117206751734
sS'/html/body/div/div/div/div/div/div/div/p/a/span'
p73
F2.792971003894948
sS'/html/body/div/div/div/div/div/table/tbody/tr/td/span'
p74
F6.640967910449898
sS'/html/body/div/div/div/div/div/ul/li/span/a'
p75
F5.155541083279656
sS'/html/body/rss/channel/copyright'
p76
F4.5705785825585
sS'/html/body/div/div/div/div/div/span/link'
p77
F4.155541083279657
sS'/html/body/div/div/div/div/div/div/ul/li/ul/li/div/a'
p78
F8.96289600533726
sS'/html/body/div/div/div/div/div/div/div/form/div/div/button'
p79
F6.155541083279656
sS'/html/body/div/div/div/div/div/div/p/strong'
p80
F4.319039815562536
sS'/html/body/div/div/div/div/ol/li/div/div/div/div/span'
p81
F8.96289600533726
sS'/html/body/rss/channel/item/description'
p82
F4.714968491893675
sS'/html/body/div/div/div/div/div/div/table/tr/td/div/a'
p83
F4.377933504616104
sS'/html/body/div/div/div/div/div/div/div/div/ul/li/a/em'
p84
F4.377933504616104
sS'/html/body/div/div/div/div/div/div/div/div/dl/dt'
p85
F5.96289600533726
sS'/html/body/div/div/div/div/div/div/table/tr/td/div/p'
p86
F8.96289600533726
sS'/html/body/div/div/div/div/div/div/div/div/p/a/wbr'
p87
F6.377933504616104
sS'/html/body/div/div/div/div/div/div/span'
p88
F2.5034643866999637
sS'/html/body/div/div/div/div/div/div/dl/dd/a'
p89
F2.7340773148413797
sS'/html/body/div/div/div/div/div/ul/li/h3/div/a/img'
p90
F7.377933504616104
sS'/html/body/div/div/div/div/div/p/img'
p91
F8.96289600533726
sS'/html/body/div/div/div/div/div/a/span'
p92
F4.962896005337261
sS'/html/body/div/div/div/div/div/div/table/tr/td/a/img'
p93
F4.262456287196168
sS'/html/body/div/div/div/div/div/div/dl/dd/p'
p94
F8.96289600533726
sS'/html/body/div/div/div/div/div/div/div/div/div/div/div/span/div'
p95
F8.96289600533726
sS'/html/body/div/div/div/div/div/div/div/ul/li/a'
p96
F2.519952509488532
sS'/html/body/div/div/div/div/div/div/img'
p97
F6.640967910449898
sS'/html/body/div/div/div/div/div/div/table/tr/td/p'
p98
F4.319039815562536
sS'/html/body/div/div/div/div/div/div/h1/span'
p99
F6.962896005337261
sS'/html/body/div/div/div/div/div/div/div/div/div/h3/a/img'
p100
F5.262456287196168
sS'/html/body/div/div/div/div/div/div/div/div/div/dl/dt'
p101
F8.96289600533726
sS'/html/body/div/div/div/div/ul/li/a/img'
p102
F3.833612988392294
sS'/html/body/div/div/div/div/div/div/ul/li/ul/li/span/a'
p103
F6.640967910449898
sS'/html/body/rss/channel/item/creator'
p104
F4.714968491893675
sS'/html/body/div/div/div/div/div/div/span/ul/li/a'
p105
F8.96289600533726
sS'/html/body/div/div/div/div/div/ul/li/div/span/div/a/img'
p106
F7.377933504616104
sS'/html/body/div/div/div/div/div/div/div/div/form/div/input'
p107
F5.377933504616105
sS'/html/body/div/div/div/div/div/div/dl/dt/a/img'
p108
F2.7340773148413797
sS'/html/body/div/div/div/div/div/p/span/a'
p109
F6.640967910449898
sS'/html/body/div/div/div/div/div/div/a/div/img'
p110
F5.640967910449898
sS'/html/body/div/div/div/div/div/div/div/p'
p111
F3.130005991172519
sS'/html/body/div/div/div/div/div/div/div/div/h4/span'
p112
F5.377933504616105
sS'/html/body/div/div/div/form/div/div/div/p/a'
p113
F7.377933504616104
sS'/html/body/div/div/div/div/div/div/div/a'
p114
F0.9799024306429505
sS'/html/body/div/div/div/div/div/div/div/div/div/div/h3/span/span'
p115
F2.7340773148413797
sS'/html/body/div/div/div/div/div/div/ul/li/div/div/span'
p116
F6.640967910449898
sS'/html/body/div/div/div/div/div/div/div/div/div/div/br'
p117
F7.377933504616104
sS'/html/body/div/div/div/div/div/div/div/div/div/div/div/div/div/ul/script'
p118
F8.96289600533726
sS'/html/body/div/div/div/div/form/fieldset/legend'
p119
F0.1980244146011699
sS'/html/body/div/div/div/div/div/div/ul/li'
p120
F1.4630501182540552
sS'/html/body/div/div/div/div/div/div/div/div/p/a'
p121
F5.262456287196168
sS'/html/body/div/div/div/div/div/div/div'
p122
F2.2486504876711377
sS'/html/body/div/div/div/div/ol/li/div/div/em'
p123
F8.96289600533726
sS'/html/body/div/div/div/div/div/ul/li/div/p'
p124
F6.962896005337261
sS'/html/body/div/div/div/div/div/div/div/div/br'
p125
F1.8648639223767338
sS'/html/body/div/div/div/div/div/div/em/span'
p126
F8.96289600533726
sS'/html/body/div/div/div/div/div/div/ul/li/h3'
p127
F5.262456287196168
sS'/html/body/div/div/div/div/form/textarea'
p128
F6.962896005337261
sS'/html/body/div/div/div/div/div/div/h3/a'
p129
F4.962896005337261
sS'/html/body/div/div/div/div/div/div/h2/i'
p130
F2.6591152571601575
sS'/html/body/rss/channel/item/pubdate'
p131
F4.714968491893675
sS'/html/body/div/div/div/div/div/div/h2/a'
p132
F5.640967910449898
sS'/html/body/div/div/div/div/div/ul/li/div'
p133
F7.377933504616104
sS'/html/body/div/div/div/div/div/div/div/div/div/div/div/div/ul/li/a'
p134
F5.262456287196168
sS'/html/body/div/div/div/form/div/div/input'
p135
F7.377933504616104
sS'/html/body/div/div/div/div/div/div/script'
p136
F1.9516687499140066
sS'/html/body/div/div/div/div/div/h2/span/a'
p137
F2.553505069199559
sS'/html/body/div/div/div/div/div/div/h2/span'
p138
F7.962896005337261
sS'/html/body/div/div/div/div/div/div/strong'
p139
F4.377933504616104
sS'/html/body/div/div/div/div/div/div/ul/li/img'
p140
F2.553505069199559
sS'/html/body/div/div/div/div/div/span/span/br'
p141
F8.96289600533726
sS'/html/body/div/div/div/div/div/div/div/div/div/a/span'
p142
F8.96289600533726
sS'/html/body/div/div/div/div/div/div/span/a'
p143
F1.2555368732563779
sS'/html/body/div/div/div/div/div/div/p'
p144
F3.792971003894948
sS'/html/body/div/div/div/div/ul/li/div'
p145
F3.918501885978807
sS'/html/body/div/div/div/div/div/div/div/dl/dd/a'
p146
F6.962896005337261
sS'/html/body/div/div/div/div/div/form/div/span'
p147
F8.96289600533726
sS'/html/body/div/div/div/div/div/div/div/div/div/div/span'
p148
F2.487162574370863
sS'/html/body/header/div/span'
p149
F6.962896005337261
sS'/html/body/div/div/div/div/div/div/div/div/div/dl/dd/span/a'
p150
F8.96289600533726
sS'/html/body/div/div/div/div/div/div/a'
p151
F0.9460877176507066
sS'/html/body/div/div/div/div/div/div/ul/li/script'
p152
F2.6591152571601575
sS'/html/body/div/div/div/div/div/ul/li/div/p/a'
p153
F6.962896005337261
sS'/html/body/div/div/div/div/div/div/div/header/a'
p154
F7.962896005337261
sS'/html/body/div/div/div/div/div/div/div/span/span/a/img'
p155
F2.6591152571601575
sS'/html/body/div/div/div/div/div/span/div/span/script'
p156
F4.439334049280248
sS'/html/body/div/div/div/div/div/div/div/div/div/div/ul/li'
p157
F2.792971003894948
sS'/html/body/div/div/div/div/div/div/div/div/p/a/span'
p158
F5.377933504616105
sS'/html/body/div/div/div/div/div/div/ul/li/ul/li'
p159
F8.96289600533726
sS'/html/body/div/div/div/form/div/script'
p160
F4.056005409728742
sS'/html/body/div/div/div/div/div/div/div/div/div/div/div/span/em'
p161
F2.6961094646423596
sS'/html/body/div/div/div/div/div/div/div/table/thead/tr/td'
p162
F5.640967910449898
sS'/html/body/div/div/div/div/div/div/div/span'
p163
F3.5705785825585004
sS'/html/body/div/div/div/div/div/div/table/tr/td/div/span'
p164
F8.96289600533726
sS'/html/body/div/div/div/div/form/div/span'
p165
F8.96289600533726
sS'/html/body/div/span/img'
p166
F8.96289600533726
sS'/html/body/div/div/div/div/div/div/div/ul/li/h3/a'
p167
F2.813148885832579
sS'/html/body/div/div/div/div/div/h4'
p168
F7.377933504616104
sS'/html/body/div/div/div/div/div/h3'
p169
F8.96289600533726
sS'/html/body/div/div/div/div/div/h2'
p170
F1.7437274848750992
sS'/html/body/div/div/div/div/div/h1'
p171
F7.962896005337261
sS'/html/body/div/div/div/div/div/div/table/tbody/tr/td/img'
p172
F8.96289600533726
sS'/html/body/div/div/div/div/input'
p173
F6.962896005337261
sS'/html/body/div/div/div/div/div/style'
p174
F3.7534426397083105
sS'/html/body/div/div/div/h1/a'
p175
F7.377933504616104
sS'/html/body/div/div/div/ul/li/img'
p176
F5.792971003894949
sS'/html/body/div/div/div/div/form/div/div/div'
p177
F8.96289600533726
sS'/html/body/div/div/div/form/div/a/img'
p178
F4.056005409728742
sS'/html/body/div/div/div/div/p/span/a'
p179
F2.1684801389871544
sS'/html/body/div/div/div/div/div/div/div/div/span/div/a/img'
p180
F5.262456287196168
sS'/html/body/div/div/div/div/h2/span'
p181
F8.96289600533726
sS'/html/body/div/div/div/div/div/div/div/div/ul/li/a'
p182
F5.96289600533726
sS'/html/body/rss/channel/title'
p183
F4.5705785825585
sS'/html/body/div/div/div/div/div/div/div/input'
p184
F5.96289600533726
sS'/html/body/div/div/div/div/div/div/span/p/span'
p185
F3.605344000719177
sS'/html/body/div/div/div/div/div/div/div/div/div/div/dl/dt'
p186
F6.377933504616104
sS'/html/head/link'
p187
F0.15554108327965654
sS'/html/body/div/div/div/div/div/div/div/div/div/div/p/a/wbr'
p188
F5.262456287196168
sS'/html/body/div/div/div/div/div/div/div/div/div/div/div/span'
p189
F2.3930403970063128
sS'/html/body/div/div/div/div/div/p/span/span/a'
p190
F4.377933504616104
sS'/html/body/div/div/div/div/div/div/div/form/div/p/strong'
p191
F6.155541083279656
sS'/html/body/div/div/div/div/div/div/div/div/div/span/div/a/img'
p192
F4.262456287196168
sS'/html/body/div/div/div/div/div/div/span/span/a/wbr'
p193
F8.96289600533726
sS'/html/body/div/div/div/div/ol/li/div/div/div/a/span'
p194
F8.96289600533726
sS'/html/body/div/div/div/div/div/div/div/div/span/div'
p195
F4.377933504616104
sS'/html/body/div/div/div/div/div/div/span/a/span'
p196
F8.96289600533726
sS'/html/body/div/div/div/div/div/div/ul/li/a/img'
p197
F4.439334049280248
sS'/html/body/div/div/div/div/div/div/dl/dd/img'
p198
F8.96289600533726
sS'/html/body/div/div/div/div/div/div/div/form/div/div'
p199
F6.155541083279656
sS'/html/body/img'
p200
F6.640967910449898
sS'/html/body/div/div/div/div/div/div/div/div/p/br'
p201
F5.262456287196168
sS'/html/body/div/div/ul/li/div/table/tbody/tr/td/a'
p202
F7.962896005337261
sS'/html/body/div/div/div/div/div/div/span/br'
p203
F3.3190398155625362
sS'/html/body/div/div/div/div/div/div/div/div/div/div/div/div/span/em'
p204
F5.262456287196168
sS'/html/body/div/div/div/div/div/div/table/tr/td/div/div/span'
p205
F8.96289600533726
sS'/html/body/div/div/div/div/div/span'
p206
F0.20134477289278113
sS'/html/body/div/div/div/div/ol/li/div/div/div/p/span'
p207
F8.96289600533726
sS'/html/body/div/div/div/div/div/div/span/span'
p208
F4.056005409728742
sS'/html/body/div/div/div/div/link'
p209
F3.677493786475013
sS'/html/body/div/div/h1/a'
p210
F4.377933504616104
sS'/html/body/div/div/div/div/div/div/div/div'
p211
F3.2349755507740614
sS'/html/body/div/div/div/form/div/div/div/span'
p212
F7.377933504616104
sS'/html/body/div/div/div/div/span/a'
p213
F6.962896005337261
sS'/html/body/div/div/div/div/div/div/ul/li/ul/li/a/img'
p214
F6.377933504616104
sS'/html/body/div/div/div/div/div/div/table/tbody/tr/td/div/span'
p215
F8.96289600533726
sS'/html/body/div/div/div/div/div/div/div/h3/span/a'
p216
F6.155541083279656
sS'/html/body/div/div/div/div/div/div/div/div/div/div/div/div/div/span/em'
p217
F8.96289600533726
sS'/html/body/div/div/div/div/div/ul/li/div/a'
p218
F2.553505069199559
sS'/html/body/div/div/div/div/div/p/span'
p219
F4.377933504616104
sS'/html/body/div/div/a'
p220
F0.10802762207702417
sS'/html/body/div/div/div/div/div/div/div/div/div/div/div/div'
p221
F2.714968491893675
sS'/html/body/div/div/div/div/div/div/a/em'
p222
F5.262456287196168
sS'/html/body/div/div/div/div/div/div/div/div/form/div/select/option'
p223
F5.377933504616105
sS'/html/body/div/div/p'
p224
F7.377933504616104
sS'/html/body/div/div/div/div/div/div/ul/li/ul/li/div/p/span'
p225
F8.96289600533726
sS'/html/body/div/div/div/div/div/div/div/p/a/img'
p226
F2.6591152571601575
sS'/html/body/div/div/div/div/a'
p227
F0.18481887580190248
sS'/html/body/div/div/div/div/div/ul/li/a/img'
p228
F2.423737194229229
sS'/html/body/div/div/div/div/table/tbody/tr/td/a'
p229
F8.96289600533726
sS'/html/body/div/div/div/div/div/div/table/tbody/tr/td/div/span/span'
p230
F8.96289600533726
sS'/html/body/div/div/div/div/div/span/input'
p231
F8.96289600533726
sS'/html/body/div/div/div/div/ul'
p232
F6.962896005337261
sS'/html/body/div/div/div/div/p'
p233
F0.1881089457360871
sS'/html/body/div/div/div/div/div/div/form/input'
p234
F5.262456287196168
sS'/html/body/div/div/script'
p235
F3.875433164086921
sS'/html/body/div/div/div/div/div/form/div/div/input'
p236
F8.96289600533726
sS'/html/body/div/div/div/div/div/div/ul/li/span'
p237
F1.5535050691995587
sS'/html/body/div/div/div/div/div/div/div/div/div/div/h4'
p238
F4.377933504616104
sS'/html/body/div/div/div/div/div/div/div/div/div/div/div/div/div/div/div/div/span/a'
p239
F7.962896005337261
sS'/html/body/div/div/div/div/div/div/div/div/div/div/div/h3/span/a'
p240
F7.377933504616104
sS'/html/body/div/div/div/div/div/div/p/a'
p241
F2.553505069199559
sS'/html/body/div/div/div/div/div/div/ul/li/div/em'
p242
F5.262456287196168
sS'/html/body/div/div/div/div/div/div/div/table/tbody/tr/td/span'
p243
F5.792971003894949
sS'/html/body/div/div/div/div/div/ul/li/span/span/a'
p244
F7.377933504616104
sS'/html/body/div/div/div/div/div/ul/li/span/span'
p245
F4.714968491893675
sS'/html/body/div/div/ul/li/a/span'
p246
F7.962896005337261
sS'/html/body/div/div/div/div/form/input'
p247
F7.962896005337261
sS'/html/body/div/div/div/div/h2/span/span'
p248
F6.962896005337261
sS'/html/body/div/div/div/div/div/div/div/span/script'
p249
F3.875433164086921
sS'/html/body/div/div/div/div/h2/a'
p250
F2.8543715485590915
sS'/html/body/div/div/div/div/div/ul/li/span'
p251
F1.9742113185650947
sS'/html/body/div/div/div/h1'
p252
F7.962896005337261
sS'/html/body/div/div/div/div/h2/i'
p253
F5.640967910449898
sS'/html/body/rss/channel/language'
p254
F4.5705785825585
sS'/html/body/div/div/div/div/div/div'
p255
F1.8860804082864295
sS'/html/body/div/div/div/div/div/div/div/div/p/span/br'
p256
F6.377933504616104
sS'/html/body/div/div/div/div/div/div/div/div/div/div/div/ul/script'
p257
F2.6961094646423596
sS'/html/body/div/div/span/a'
p258
F0.10180909934186665
sS'/html/body/div/script'
p259
F4.056005409728742
sS'/html/body/div/div/div/div/img'
p260
F6.377933504616104
sS'/html/body/div/div/div/div/h4'
p261
F6.962896005337261
sS'/html/body/div/div/div/div/h3'
p262
F6.640967910449898
sS'/html/body/div/div/div/div/h2'
p263
F2.333539385257651
sS'/html/body/div/div/div/div/div/ul/ul/li/a'
p264
F4.155541083279657
sS'/html/body/div/div/div/div/ul/li/div/img'
p265
F8.96289600533726
sS'/html/body/div/div/div/div/div/div/ul/li/a'
p266
F2.0802529559754195
sS'/html/body/div/div/div/form/div/label'
p267
F4.056005409728742
sS'/html/body/div/div/div/div/div/div/div/span/span'
p268
F2.640967910449898
sS'/html/body/div/div/div/ul/li/a'
p269
F0.1980244146011699
sS'/html/body/div/div/div/div/div/a/div/img'
p270
F6.155541083279656
sS'/html/body/div/div/div/form/div/a'
p271
F4.056005409728742
sS'/html/body/div/div/div/div/div/div/div/div/div/div/a/img'
p272
F4.377933504616104
sS'/html/body/div/div/div/div/div/div/ul/li/div/a'
p273
F5.155541083279656
sS'/html/body/div/div/div/a/img'
p274
F8.96289600533726
sS'/html/body/div/div/div/p/a'
p275
F6.155541083279656
sS'/html/body/div/div/div/div/ul/li/a/span'
p276
F8.96289600533726
sS'/html/body/div/div/div/div/div/div/div/div/form/div/div/input'
p277
F5.377933504616105
sS'/html/body/div/div/div/div/div/div/div/div/dl/dd/br'
p278
F8.96289600533726
sS'/html/body/div/div/div/div/div/div/table/tbody/tr/td/div/div/h3/a'
p279
F8.96289600533726
sS'/html/body/div/div/div/div/div/div/div/div/div/h3/div/a/img'
p280
F5.262456287196168
sS'/html/body/div/div/div/div/div/div/div/ul'
p281
F7.962896005337261
sS'/html/body/div/div/div/div/div/div/div/div/span/a/b'
p282
F8.96289600533726
sS'/html/body/div/div/div/div/div/div/table/tbody/tr/td/div/div/h2/a'
p283
F8.96289600533726
sS'/html/body/div/div/div/div/button'
p284
F4.503464386699964
sS'/html/body/header/div'
p285
F7.377933504616104
sS'/html/body/div/div/div/div/div/div/div/header/span'
p286
F7.962896005337261
sS'/html/body/div/div/div/div/div/div/ul/li/p/a'
p287
F6.155541083279656
sS'/html/body/div/div/div/div/div/div/div/div/div/div/img'
p288
F4.439334049280248
sS'/html/body/div/div/div/div/form/button'
p289
F6.962896005337261
sS'/html/body/div/div/div/div/div/div/div/h3/a/img'
p290
F4.377933504616104
sS'/html/body/div/div/div/form/div/div/div/p/label'
p291
F7.377933504616104
sS'/html/body/div/div/div/div/div/div/div/ul/li'
p292
F8.96289600533726
sS'/html/body/div/div/div/div/div/div/div/div/div/div/div/h3/span/input'
p293
F7.377933504616104
sS'/html/body/header/div/div/span'
p294
F6.962896005337261
sS'/html/body/div/div/div/div/div/strong'
p295
F4.503464386699964
sS'/html/body/div/div/div/div/div/div/dl/dt'
p296
F8.96289600533726
sS'/html/body/div/div/div/div/div/div/div/div/div/div/span/a'
p297
F2.290470663365765
sS'/html/body/div/div/div/div/div/div/div/div/div/script'
p298
F7.962896005337261
sS'/html/body/div/div/div/div/ul/li/div/a/img'
p299
F4.008699694950385
sS'/html/body/div/div/div/div/div/div/div/div/a'
p300
F1.843954932613753
sS'/html/body/div/div/div/div/div/div/div/div/div/a/img'
p301
F6.962896005337261
sS'/html/body/div/div/div/div/div/div/div/div/div/div/span/script'
p302
F2.792971003894948
sS'/html/body/div/div/div/div/div/div/div/div/h3/span/input'
p303
F8.96289600533726
sS'/html/body/div/div/div/div/div/div/div/h3/a'
p304
F4.377933504616104
sS'/html/body/div/div/div/div/div/ul/li/div/a/img'
p305
F6.962896005337261
sS'/html/body/div/div/div/div/div/div/ul/div'
p306
F6.155541083279656
sS'/html/body/div/div/h1/span'
p307
F1.4393340492802478
sS'/html/body/rss/channel/item/encoded/br'
p308
F4.714968491893675
sS'/html/body/div/div/div/div/div/div/div/div/span/script'
p309
F3.918501885978807
sS'/html/body/div/div/div/div/div/span/span'
p310
F3.833612988392294
sS'/html/body/div/div/div/div/div/div/div/table/tbody/tr/td/a'
p311
F5.640967910449898
sS'/html/body/div/div/div/div/div/div/div/h2/a'
p312
F8.96289600533726
sS'/html/body/div/img'
p313
F8.96289600533726
sS'/html/body/div/div/div/div/div/div/div/div/dl/dt/a/img'
p314
F8.96289600533726
sS'/html/body/div/div/div/div/div/table/tr/td/a'
p315
F7.377933504616104
sS'/html/body/div/div/div/div/ul/li/br'
p316
F7.962896005337261
sS'/html/body/div/div/div/div/p/span'
p317
F7.962896005337261
sS'/html/body/div/div/div/div/div/div/div/div/span/span/a'
p318
F2.6591152571601575
sS'/html/body/div/div/div/div/div/div/div/img'
p319
F8.96289600533726
sS'/html/body/div/div/div/div/div/ul/li/a/div/img'
p320
F6.640967910449898
sS'/html/body/div/div/div/div/div/ul/li/dl/dd/h6/span'
p321
F8.96289600533726
sS'/html/body/div/div/div/div/div/ul/li'
p322
F1.5965737910914448
sS'/html/body/div/div/div/div/div/div/div/div/div/div/span/em'
p323
F4.377933504616104
sS'/html/body/div/div/div/div/div/div/div/div/ul/li/a/strong'
p324
F4.377933504616104
sS'/html/body/div/div/div/div/div/div/div/div/div/br'
p325
F2.792971003894948
sS'/html/body/div/div/div/div/div/div/div/div/div/address/a'
p326
F8.96289600533726
sS'/html/body/div/div/div/div/a/img'
p327
F0.5620165690550762
sS'/html/body/div/div/div/form/input'
p328
F4.056005409728742
sS'/html/body/div/div/div/div/div/div/h2/span/a'
p329
F2.1684801389871544
sS'/html/body/div/div/div/ul/li/div/table/tr/td/a'
p330
F0.2046727906105357
sS'/html/body/div/div/div/div/form/fieldset/label'
p331
F0.1980244146011699
sS'/html/body/div/div/div/div/div/div/div/table/tbody/tr/td'
p332
F5.640967910449898
sS'/html/body/div/div/div/div/div/h2/img'
p333
F8.96289600533726
sS'/html/body/rss/channel/link'
p334
F4.5705785825585
sS'/html/body/div/div/div/div/div/div/div/div/span/span'
p335
F2.6591152571601575
sS'/html/body/div/div/div/div/div/div/div/div/div/div/div/ul/li'
p336
F6.962896005337261
sS'/html/body/div/div/div/div/div/div/div/div/p/span'
p337
F4.714968491893675
sS'/html/body/div/div/div/div/div/div/div/div/div/div/div/div/div/div/div/div'
p338
F7.962896005337261
sS'/html/body/div/div/div/div/div/div/label/input'
p339
F4.962896005337261
sS'/html/body/div/div/div/div/form/div/div/span'
p340
F8.96289600533726
sS'/html/body/div/div/div/div/div/div/table/tr/td'
p341
F6.640967910449898
sS'/html/body/div/div/div/div/div/br'
p342
F3.5705785825585004
sS'/html/body/div/div/div/div/div/form/div/div'
p343
F8.96289600533726
sS'/html/body/div/div/div/div/div/ul/li/dt'
p344
F6.962896005337261
sS'/html/body/div/div/div/div/div/div/div/ul/li/span'
p345
F2.4393340492802476
sS'/html/body/div/div/div/div/style'
p346
F0.4831157413081608
sS'/html/body/div/div/div/div/div/div/a/div/b'
p347
F8.96289600533726
sS'/html/body/div/div/div/div/div/div/div/div/div/div/button'
p348
F7.962896005337261
sS'/html/body/div/div/div/div/div/ul/li/div/div'
p349
F2.9405281923088062
sS'/html/body/div/div/div/div/div/ul/li/p'
p350
F4.503464386699964
sS'/html/body/div/div/ul/li/a'
p351
F3.962896005337261
sS'/html/body/div/div/div/div/div/div/div/div/div/div/div/div/div/a'
p352
F8.96289600533726
sS'/html/body/div/div/div/div/div/div/style'
p353
F6.640967910449898
sS'/html/body/div/div/div/div/div/ul/li/a'
p354
F1.2834159058318144
sS'/html/body/div/div/div/div/div/div/div/div/div/div/div/form/input'
p355
F7.377933504616104
sS'/html/body/div/div/div/div/div'
p356
F0.6186000974214436
sS'/html/body/div/div/div/div/div/div/ul/li/span/div'
p357
F8.96289600533726
sS'/html/body/div/div/div/div/div/div/div/div/div/span/a'
p358
F2.471042909007586
sS'/html/body/div/div/div/div/div/div/div/div/dl/dd/a'
p359
F8.96289600533726
sS'/html/body/div/div/div/div/ol/li/div/div/div/span'
p360
F8.96289600533726
sS'/html/body/div/div/div/div/div/div/br'
p361
F3.6409679104498984
sS'/html/body/div/div/div/div/div/form/div/div/span'
p362
F8.96289600533726
sS'/html/body/div/div/div/div/div/div/div/div/p/span/a'
p363
F6.155541083279656
sS'/html/body/div/div/div/div/div/div/ul/li/ul/li/h2/b'
p364
F8.96289600533726
sS'/html/body/div/div/div/div/div/div/div/div/div/div/span/div'
p365
F5.262456287196168
sS'/html/body/div/div/div/div/div/div/ul/li/ul/li/h2/a'
p366
F8.96289600533726
sS'/html/body/div/div/div/div'
p367
F0.3816954234123034
sS'/html/body/div/div/div/div/div/div/ul/li/p/span'
p368
F6.155541083279656
sS'/html/body/div/div/div/div/h2/a/span'
p369
F4.104915010209688
sS'/html/body/div/div/div/div/div/div/div/div/div/div/h3/a/img'
p370
F8.96289600533726
sS'/html/body/div/div/div/div/div/div/div/div/div/div/div/span/form/input'
p371
F2.9856160818373443
sS'/html/body/div/div/div/div/div/div/ul/li/a/span'
p372
F6.155541083279656
sS'/html/body/div/div/div/div/div/div/div/div/div/div/div/div/div/div/span'
p373
F7.962896005337261
sS'/html/body/div/div/div/div/div/div/div/div/div/div/span/div/a/img'
p374
F6.962896005337261
sS'/html/body/div/div/div/div/div/ul/li/h3/a'
p375
F4.319039815562536
sS'/html/body/div/div/div/div/div/div/div/a/img'
p376
F1.6682752564456336
sS'/html/body/div/div/div/div/div/span/a'
p377
F2.423737194229229
sS'/html/body/div/div/span'
p378
F0.10180909934186665
sS'/html/body/div/div/div/div/div/div/div/div/div/span/form/input'
p379
F4.503464386699964
sS'/html/body/div/div/div/div/div/a/img'
p380
F3.677493786475013
sS'/html/body/div/div/div/div/div/div/div/div/div/h4/a'
p381
F8.96289600533726
sS'/html/body/rss/channel/item/title'
p382
F4.714968491893675
sS'/html/body/div/div/div/div/div/div/ul/li/span/a'
p383
F2.6591152571601575
sS'/html/body/div/div/div/div/div/div/span/link'
p384
F5.377933504616105
sS'/html/body/div/div/div/div/div/span/span/a'
p385
F4.439334049280248
sS'/html/body/div/div/div/div/div/div/a/span'
p386
F2.5705785825585004
sS'/html/body/div/div/div/div/div/ul/li/dl/dd/dl/dt'
p387
F8.96289600533726
sS'/html/body/div/div/div/div/div/div/div/div/div/div/div/h3/span/span'
p388
F7.377933504616104
sS'/html/body/rss/channel/item/encoded/a'
p389
F4.714968491893675
sS'/html/body/div/div/div/div/div/div/div/div/form/input'
p390
F5.377933504616105
sS'/html/body/div/div/div/div/div/div/span/span/a'
p391
F4.262456287196168
sS'/html/body/div/div/div/form/div/p/a'
p392
F3.918501885978807
sS'/html/body/div/div/div/div/div/div/div/div/div/div/div/div/div/div/span/a'
p393
F8.96289600533726
sS'/html/body/div/div/div/div/div/ul/li/dl/dd/dl/dd'
p394
F8.96289600533726
sS'/html/body/div/div/div/div/div/span/script'
p395
F4.503464386699964
sS'/html/body/div/div/div/div/div/div/table/tr/td/p/span'
p396
F4.377933504616104
sS'/html/head/style'
p397
F0.10180909934186665
sS'/html/body/div/div/h1'
p398
F1.014528773752583
sS'/html/body/header/div/img'
p399
F8.96289600533726
sS'/html/body/div/div/div/div/div/div/div/div/div/div/div/a'
p400
F1.8131488858325786
sS'/html/body/div/div/div/div/div/div/table/tbody/tr/td/div/div'
p401
F8.96289600533726
sS'/html/body/div/div/div/div/div/div/div/div/div/div/h3/span/input'
p402
F2.7340773148413797
sS'/html/body/div/div/div/div/div/div/div/div/div/div/div/p'
p403
F7.377933504616104
sS'/html/body/div/div/div/div/div/div/div/div/p'
p404
F4.262456287196168
sS'/html/body/div/div/div/div/div/ul/li/a/span'
p405
F2.6591152571601575
sS'/html/body/header/div/a/img'
p406
F6.962896005337261
sS'/html/body/div/div/div/div/div/div/div/div/div/span/div'
p407
F2.6961094646423596
sS'/html/body/div/div/div/div/div/table/tbody/tr/td'
p408
F5.503464386699964
sS'/html/body/div/div/div'
p409
F0.20800850317379196
sS'/html/body/div/div/div/span'
p410
F6.962896005337261
sS'/html/body/div/div/div/div/div/ul/li/dl/dt/a/img'
p411
F8.96289600533726
sS'/html/body/div/div/div/div/div/div/div/div/h2/span/a'
p412
F8.96289600533726
sS'/html/body/header/div/a'
p413
F6.962896005337261
sS'/html/body/div/div/div/div/div/script'
p414
F2.0203814999980207
sS'/html/body/div/div/div/div/a/h2'
p415
F8.96289600533726
sS'/html/body/div/div/div/div/div/ul/li/dl/dd/h6/a'
p416
F8.96289600533726
sS'/html/body/div/div/div/div/h1/img'
p417
F6.962896005337261
sS'/html/body/div/div/div/div/div/ul/li/div/a/span'
p418
F7.377933504616104
sS'/html/body/div/div/div/div/div/div/div/div/dl/dd/span/a'
p419
F5.96289600533726
sS'/html/body/div/div/a/img'
p420
F7.377933504616104
sS'/html/body/div/div/div/div/div/div/div/div/input'
p421
F6.377933504616104
sS'/html/body/div/div/div/div/div/div/div/div/h3/a'
p422
F2.605344000719177
sS'/html/body/div/div/div/div/div/ul/li/div/span/div'
p423
F7.377933504616104
sS'/html/body/div/div/div/div/ol/li/div/div/a/img'
p424
F8.96289600533726
sS'/html/body/div/div/div/div/div/div/ul/li/div/div/div/a/h3'
p425
F6.640967910449898
sS'/html/body/div'
p426
F6.377933504616104
sS'/html/body/div/div/div/div/div/div/div/div/div/div/h3/div/a/img'
p427
F8.96289600533726
sS'/html/body/div/div/div/div/div/div/div/div/div/div/div/div/div/span/a'
p428
F5.262456287196168
sS'/html/body/rss/channel/pubdate'
p429
F4.5705785825585
sS'/html/body/div/div/div/form/div/p/input'
p430
F4.056005409728742
sS'/html/body/div/div/div/div/div/div/div/div/div/div/p/a/img'
p431
F4.792971003894948
sS'/html/body/div/div/div/div/div/div/div/dl/dt'
p432
F6.962896005337261
sS'/html/body/div/div/div/div/div/div/div/div/div/h3/a'
p433
F5.262456287196168
sS'/html/body/div/div/div/div/div/div/table/tbody/tr/td/div/div/div'
p434
F8.96289600533726
sS'/html/body/div/div/div/div/div/div/div/h2/span/a'
p435
F4.503464386699964
sS'/html/body/div/div/div/form/div/img'
p436
F4.056005409728742
sS'/html/body/div/div/div/div/div/div/div/div/h3/a/img'
p437
F2.6961094646423596
sS'/html/body/div/div/div/div/div/div/div/div/dl/dd/span'
p438
F8.96289600533726
sS'/html/body/div/div/div/div/p/br'
p439
F2.1684801389871544
sS'/html/body/div/div/div/div/div/div/div/div/div/div/ul/li/a'
p440
F4.377933504616104
sS'/html/body/div/div/div/div/div/div/div/div/div/div/div/div/div/div/div/span'
p441
F7.962896005337261
sS'/html/body/div/div/div/div/div/div/a/div/span'
p442
F5.792971003894949
sS'/html/body/div/div/div/div/ul/li/span'
p443
F3.833612988392294
sS'/html/body/div/div/div/div/div/div/div/br'
p444
F8.96289600533726
sS'/html/body/div/div/div/div/div/div/span/p/a'
p445
F3.605344000719177
sS'/html/body/div/div/div/div/div/div/ul'
p446
F4.714968491893675
sS'/html/body/div/div/div/ul/li/a/span'
p447
F0.2046727906105357
sS'/html/body/div/div/div/div/div/ul/li/div/div/span'
p448
F3.0086996949503853
sS'/html/body/div/div/div/div/div/div/div/div/span/form/input'
p449
F4.104915010209688
sS'/html/body/div/div/div/div/div/div/a/img'
p450
F2.408307153659623
sS'/html/body/div/div/div/div/div/div/div/div/form/textarea'
p451
F5.377933504616105
sS'/html/body/div/div/div/div/form/div/div/input'
p452
F8.96289600533726
sS'/html/body/div/div/div/div/h1'
p453
F4.503464386699964
sS'/html/body/div/div/div/div/form/fieldset/div/input'
p454
F0.1980244146011699
sS'/html/body/div/div/div/div/div/div/div/div/div/div/div/div/div/ul/li/a'
p455
F8.96289600533726
sS'/html/body/div/div/div/div/div/span/div/span'
p456
F8.96289600533726
sS'/html/body/div/div/div/div/div/div/ul/li/div/a/img'
p457
F4.792971003894948
sS'/html/body/div/div/div/div/ul/li/p'
p458
F7.962896005337261
sS'/html/body/div/div/div/div/div/div/span/span/br'
p459
F5.503464386699964
sS'/html/head/title'
p460
F0.062029197356511946
sS'/html/body/div/div/div/div/div/div/div/div/h3/span/span'
p461
F8.96289600533726
sS'/html/body/div/div/div/div/div/div/div/h3/span/input'
p462
F6.155541083279656
sS'/html/body/div/div/div/div/div/div/h4'
p463
F7.377933504616104
sS'/html/body/div/div/div/div/div/div/div/div/div/div/h3/span/a'
p464
F2.7340773148413797
sS'/html/body/div/div/div/div/ul/li'
p465
F4.008699694950385
sS'/html/body/div/div/div/div/div/div/p/span/a'
p466
F4.962896005337261
sS'/html/body/div/div/div/div/div/div/div/h3/span/span'
p467
F6.155541083279656
sS'/html/body/div/div/div/div/div/div/div/div/div/div/ul/script'
p468
F4.377933504616104
sS'/html/body/div/div/div/div/div/div/div/span/a'
p469
F2.875433164086921
sS'/html/body/div/div/div/div/div/div/div/form/div/div/label/input'
p470
F6.155541083279656
sS'/html/body/rss/channel/description'
p471
F4.5705785825585
sS'/html/body/div/div/div/div/div/div/div/div/a/span'
p472
F6.640967910449898
sS'/html/body/div/div/div/div/div/div/div/form/div/input'
p473
F6.155541083279656
sS'/html/body/div/div/div/div/div/ul/li/div/div/a'
p474
F6.962896005337261
sS'/html/body/div/div/div/div/div/h1/a'
p475
F7.377933504616104
sS'/html/body/div/div/div/div/div/table/thead/tr/td/a'
p476
F6.377933504616104
sS'/html/body/div/div/div/div/div/div/div/div/div/div/div/form/span/input'
p477
F7.377933504616104
sS'/html/body/div/div/div/div/div/h3/b'
p478
F8.96289600533726
sS'/html/body/div/div/div/div/div/h3/a'
p479
F8.96289600533726
sS'/html/body/div/div/div/div/script'
p480
F1.6141678511061832
sS'/html/body/div/div/div/div/div/h2/a'
p481
F7.377933504616104
sS'/html/body/div/div/div/div/div/div/div/span/link'
p482
F5.640967910449898
sS'/html/body/div/div/div/div/div/ul'
p483
F5.792971003894949
sS'/html/body/div/div/div/div/div/h2/i'
p484
F2.519952509488532
sS'/html/body/div/div/div/div/div/div/div/div/div/div/div/div/div/div/ul/li'
p485
F7.962896005337261
sS'/html/body/div/div/div/div/div/div/div/div/div/div/div/a/span'
p486
F2.130005991172519
sS'/html/body/div/div/div/div/div/div/span/a/wbr'
p487
F8.96289600533726
sS'/html/body/div/div/div/div/div/div/div/div/h4/a'
p488
F5.262456287196168
sS'/html/body/div/div/div/div/div/div/div/h3'
p489
F6.155541083279656
sS'/html/body/div/div/div/div/div/div/div/h2'
p490
F2.7340773148413797
sS'/html/body/link'
p491
F0.2349755507740613
sS'/html/body/script'
p492
F0.10180909934186665
sS'/html/body/div/div/div/div/div/div/div/div/ul/li/a/img'
p493
F4.377933504616104
sS'/html/body/div/div/img'
p494
F3.875433164086921
sS'/html/body/div/div/div/div/div/div/ul/li/a/strong/em'
p495
F6.155541083279656
sS'/html/body/rss/channel/item/guid'
p496
F4.714968491893675
sS'/html/body/div/div/div/div/div/div/div/header/a/span'
p497
F7.962896005337261
sS'/html/body/div/div/div/div/div/div/div/ul/li/a/img'
p498
F3.875433164086921
sS'/html/body/div/div/div/div/div/div/div/div/p/a/img'
p499
F8.96289600533726
sS'/html/body/div/div/div/div/div/div/div/p/br'
p500
F5.503464386699964
sS'/html/body/div/div/div/div/div/div/div/div/div/div/div/ul/li/a'
p501
F2.587856573990336
sS'/html/body/header/div/div/div/div/script'
p502
F6.962896005337261
sS'/html/body/div/div/div/div/div/ul/li/div/span'
p503
F6.962896005337261
sS'/html/body/div/div/div/div/div/div/ul/li/ul/li/h2/span'
p504
F8.96289600533726
sS'/html/body/div/div/div/div/div/div/div/div/div/div/h3/a'
p505
F8.96289600533726
sS'/html/body/div/div/div/div/div/div/span/script'
p506
F2.587856573990336
sS'/html/body/div/div/div/div/div/div/ul/li/div/div'
p507
F5.262456287196168
sS'/html/body/div/div/div/div/div/div/p/span'
p508
F3.5705785825585004
sS'/html/body/div/div/div/div/div/h3/img'
p509
F7.377933504616104
sS'/html/body/div/div/div/div/div/div/div/div/div/div/div'
p510
F1.7929710038949482
sS'/html/body/div/div/div/form/div/div/div/p/span/img'
p511
F7.377933504616104
sS'/html/body/div/div/div/div/form/div/div'
p512
F8.96289600533726
sS'/html/body/div/div/div/div/div/p'
p513
F3.471042909007586
sS'/html/body/div/div/div/div/div/div/div/p/span'
p514
F2.792971003894948
sS'/html/body/div/div/div/div/div/div/div/div/div'
p515
F1.2904706633657652
sS'/html/body/div/div/div/div/div/div/h5'
p516
F6.962896005337261
sS'/html/body/div/div/div/div/div/a'
p517
F0.2046727906105357
sS'/html/body/div/div/div/div/div/div/h3'
p518
F7.377933504616104
sS'/html/body/div/div/div/div/div/div/h2'
p519
F3.875433164086921
sS'/html/body/div/div/div/div/div/div/h1'
p520
F8.96289600533726
sS'/html/body/div/div/div/div/div/i'
p521
F7.377933504616104
sS'/html/body/div/div/div/div/ul/li/a'
p522
F3.7534426397083105
sS'/html/body/div/div/div/div/div/div/div/div/div/div'
p523
F1.705508162644609
sS'/html/body/div/div/div/form/div/div/div/a'
p524
F7.377933504616104
sS'/html/body/div/div/div/script'
p525
F6.962896005337261
sS'/html/body/div/div/div/form/div/div/div/p/input'
p526
F7.377933504616104
sS'/html/body/div/div/div/div/div/div/div/p/a'
p527
F4.5705785825585
sS'/html/body/div/div/div/div/div/img'
p528
F6.640967910449898
sS'/html/body/div/div/div/div/form/a'
p529
F6.962896005337261
sS'/html/body/div/div/div/div/div/a/div/span'
p530
F6.155541083279656
sS'/html/body/div/div/div/div/div/h1/span'
p531
F8.96289600533726
sS'/html/body/div/div/div/div/div/div/div/div/div/div/div/div/ul/script'
p532
F5.262456287196168
sS'/html/body/div/div/div/div/div/div/div/div/script'
p533
F4.377933504616104
s.