(dp0
S'/html/body/div/div/div/div/div/div/table/tr/td/div/a/span'
p1
F4.293358942690592
sS'/html/body/div/div/div/p/a'
p2
F5.643856189774724
sS'/html/body/div/div/div/div/div/div/div/div/div/a'
p3
F1.894321922105463
sS'/html/body/div/div/div/div/div/ul/ul/li/span'
p4
F6.965784284662088
sS'/html/body/div/div/div/div/div/div/div/div/a/img'
p5
F2.41119543298445
sS'/html/body/div/div/div/div/div/div/div/div/div/div/div/h3/span/div'
p6
F7.643856189774724
sS'/html/body/div/div/div/div/div/span/br'
p7
F3.9434164716336326
sS'/html/body/div/div/div/div/div/div/p/br'
p8
F9.965784284662087
sS'/html/body/div/div/div/div/div/div/div/header/p'
p9
F7.380821783940932
sS'/html/body/div/div/h1/h1/span'
p10
F7.380821783940932
sS'/html/body/div/div/div/div/div/p/a'
p11
F1.8211260418302047
sS'/html/body/div/div/div/div/div/div/div/div/h3/span/a'
p12
F9.965784284662087
sS'/html/body/div/div/div/div/div/div/div/div/h3/div/a/img'
p13
F3.011587974275212
sS'/html/body/div/div/div/div/div/div/div/h3/div/a/img'
p14
F4.380821783940931
sS'/html/body/div/div/div/div/div/ul/li/dl/dd/div/span'
p15
F8.965784284662087
sS'/html/body/div/div/div/div/div/div/div/div/div/div/div/div/span/a'
p16
F2.988504361162171
sS'/html/body/div/div/div/div/div/div/table/tr/td/a'
p17
F7.158429362604482
sS'/html/body/div/div/div/div/div/div/div/div/div/div/dl/dd/span/a'
p18
F6.795859283219775
sS'/html/body/header/div/div/div/div/a'
p19
F7.965784284662087
sS'/html/body/div/div/div/p/span'
p20
F6.643856189774725
sS'/html/body/rss/channel/item/link'
p21
F4.795859283219775
sS'/html/body/div/div/div/div/div/div/div/div/div/div/p/br'
p22
F3.2515387669959646
sS'/html/body/div/div/div/span/a'
p23
F6.380821783940931
sS'/html/body/div/div/div/img'
p24
F9.965784284662087
sS'/html/body/div/div/div/a'
p25
F0.18935125221735397
sS'/html/body/div/div/div/div/div/div/div/div/div/span'
p26
F1.3883554566263383
sS'/html/body/div/div/div/div/div/div/div/span/input'
p27
F2.954557029238833
sS'/html/body/div/div/div/div/ol/li/div/div/div/p/br'
p28
F9.965784284662087
sS'/html/head/meta'
p29
F0.05889368905356862
sS'/html/body/div/div/div/div/div/div/div/div/div/p'
p30
F7.380821783940932
sS'/html/body/div/div/div/div/ul/li/div/br'
p31
F8.965784284662087
sS'/html/body/header/div/div/div/div/img'
p32
F7.965784284662087
sS'/html/body/div/div/div/div/div/div/ul/li/ul/li/a'
p33
F5.380821783940931
sS'/html/body/div/div/div/form/div/p/label'
p34
F3.899695094204315
sS'/html/body/div/div/div/div/div/div/div/div/select/option'
p35
F9.965784284662087
sS'/html/body/div/div/div/div/div/ul/li/h3/div/a/img'
p36
F8.380821783940931
sS'/html/body/div/div/div/div/div/table/thead/tr/td'
p37
F5.107803289534515
sS'/html/body/div/div/div/div/div/div/div/div/div/strong'
p38
F2.954557029238833
sS'/html/body/div/div/div/div/div/div/div/h4/span'
p39
F9.965784284662087
sS'/html/body/div/div/div/div/div/div/div/p/a/wbr'
p40
F6.158429362604484
sS'/html/body/div/div/div/div/div/ul/li/dd/a'
p41
F6.643856189774725
sS'/html/body/div/div/div/div/div/div/div/form/input'
p42
F6.795859283219775
sS'/html/body/div/div/div/div/div/div/div/div/div/span/em'
p43
F2.77595972578207
sS'/html/body/div/div/div/div/p/a'
p44
F1.6082322800440034
sS'/html/body/div/div/div/div/div/div/div/ul/li/span/a'
p45
F4.573466861883327
sS'/html/body/div/div/div/div/div/div/div/div/div/div/div/div/span'
p46
F8.965784284662087
sS'/html/body/div/div/div/div/div/div/ul/li/div/img'
p47
F9.965784284662087
sS'/html/body/div/div/div/div/ul/li/div/a'
p48
F4.107803289534515
sS'/html/head/script'
p49
F0.07856366919370197
sS'/html/body/div/div/div/div/div/div/div/div/div/div/div/span/a'
p50
F1.926865295369785
sS'/html/body/div/div/div/div/div/ul/li/div/div/ul/li'
p51
F6.643856189774725
sS'/html/body/div/div/div/div/div/table/tbody/tr/td/a'
p52
F5.107803289534515
sS'/html/body/div/div/div/div/div/div/ul/li/div/span/a'
p53
F5.717856771218502
sS'/html/body/div/div/div/div/div/div/div/header/span'
p54
F7.380821783940932
sS'/html/body/div/div/div/div/div/table'
p55
F9.965784284662087
sS'/html/body/div/div/div/div/div/p/br'
p56
F9.965784284662087
sS'/html/body/div/div/div/div/div/form/div/div/div'
p57
F9.965784284662087
sS'/html/body/div/div/div/form/div/input'
p58
F3.899695094204315
sS'/html/body/div/div/div/div/div/div/div/div/div/div/div/div/a'
p59
F6.058893689053569
sS'/html/body/div/div/div/div/div/div/div/div/span'
p60
F1.6348674065474702
sS'/html/body/div/div/div/div/div/button'
p61
F4.539519529959989
sS'/html/body/div/div/div/div/div/div/div/form/div/div/input'
p62
F6.795859283219775
sS'/html/body/div/div/div/div/div/div/div/div/div/div/p/a'
p63
F8.965784284662087
sS'/html/body/div/div/div/div/div/div/ul/li/div/div/div/p'
p64
F7.158429362604482
sS'/html/body/div/div/div/div/div/div/div/div/div/span/link'
p65
F4.717856771218502
sS'/html/body/div/div/div/div/div/div/ul/li/ul/li/span'
p66
F5.380821783940931
sS'/html/body/div/div/div/div/div/div/a/div/div/p'
p67
F9.965784284662087
sS'/html/body/div/div/div/div/div/div/div/div/div/div/a'
p68
F2.465938397578882
sS'/html/body/div/div/div/div/h2/span/a'
p69
F6.380821783940931
sS'/html/body/div/div/div/div/div/div/div/div/div/div/p'
p70
F1.994240730711315
sS'/html/body/div/div/div/div/div/span/div/span/a'
p71
F4.50635266602479
sS'/html/body/div/div/div/div/div/div/ul/li/div'
p72
F8.380821783940931
sS'/html/body/div/div/div/div/div/div/div/div/span/a'
p73
F2.1713684183119812
sS'/html/body/div/div/div/div/div/div/link'
p74
F4.321928094887363
sS'/html/body/div/div/div/div/div/table/tr/td'
p75
F8.965784284662087
sS'/html/body/div/div/div/div/br'
p76
F2.145605322246899
sS'/html/body/div/div/div/div/div/div/div/p/a/span'
p77
F2.77595972578207
sS'/html/body/div/div/div/div/div/table/tbody/tr/td/span'
p78
F5.795859283219775
sS'/html/body/div/div/div/div/div/style'
p79
F3.9657842846620874
sS'/html/body/div/div/div/div/div/ul/li/span/a'
p80
F5.380821783940931
sS'/html/body/rss/channel/copyright'
p81
F4.643856189774724
sS'/html/body/div/div/div/div/div/span/link'
p82
F3.9657842846620874
sS'/html/body/div/div/div/div/div/div/div/div/dl/dd/a'
p83
F9.965784284662087
sS'/html/body/div/div/div/div/div/div/div/form/div/div/button'
p84
F6.795859283219775
sS'/html/body/div/div/div/div/div/div/p/strong'
p85
F4.321928094887363
sS'/html/body/div/div/div/div/ol/li/div/div/div/div/span'
p86
F9.965784284662087
sS'/html/body/rss/channel/item/description'
p87
F4.795859283219775
sS'/html/body/div/div/div/div/div/div/table/tr/td/div/a'
p88
F4.380821783940931
sS'/html/body/div/div/div/div/div/div/div/div/ul/li/a/em'
p89
F4.442222328605075
sS'/html/body/div/div/div/div/div/dl/dd/div'
p90
F9.965784284662087
sS'/html/body/div/div/div/div/div/div/div/div/dl/dt'
p91
F6.380821783940931
sS'/html/body/div/div/div/div/div/div/table/tr/td/div/p'
p92
F9.965784284662087
sS'/html/body/div/div/div/div/div/div/div/div/p/a/wbr'
p93
F6.795859283219775
sS'/html/body/div/div/div/div/div/div/span'
p94
F2.63486740654747
sS'/html/body/div/div/div/div/div/div/dl/dd/a'
p95
F3.0469210473874924
sS'/html/body/div/div/div/div/div/div/div/div/div/p/br'
p96
F9.965784284662087
sS'/html/body/div/div/div/div/div/p/img'
p97
F9.965784284662087
sS'/html/body/div/div/div/div/div/a/span'
p98
F5.011587974275212
sS'/html/body/div/div/div/div/div/div/table/tr/td/a/img'
p99
F4.293358942690592
sS'/html/body/div/div/div/div/div/div/dl/dd/p'
p100
F9.965784284662087
sS'/html/body/div/div/div/div/div/div/div/ul/li/a'
p101
F2.465938397578882
sS'/html/body/div/div/div/div/div/div/img'
p102
F6.265344566520995
sS'/html/body/div/div/div/div/div/div/table/tr/td/p'
p103
F4.321928094887363
sS'/html/body/div/div/div/div/div/div/h1/span'
p104
F6.643856189774725
sS'/html/body/div/div/div/div/div/div/div/div/div/h3/a/img'
p105
F5.795859283219775
sS'/html/body/div/div/div/div/div/div/div/div/div/dl/dt'
p106
F8.965784284662087
sS'/html/body/div/div/div/div/ul/li/a/img'
p107
F3.816037165157405
sS'/html/body/div/div/div/div/div/div/ul/li/ul/li/span/a'
p108
F7.158429362604482
sS'/html/body/rss/channel/item/creator'
p109
F4.795859283219775
sS'/html/body/div/div/div/div/div/div/span/ul/li/a'
p110
F8.965784284662087
sS'/html/body/div/div/div/div/p/label/input'
p111
F9.965784284662087
sS'/html/body/div/div/div/div/div/ul/li/div/span/div/a/img'
p112
F8.380821783940931
sS'/html/body/div/div/div/div/div/div/div/div/form/div/input'
p113
F5.210896782498619
sS'/html/body/div/div/div/div/div/div/dl/dt/a/img'
p114
F3.0469210473874924
sS'/html/body/div/div/div/div/div/p/span/a'
p115
F7.158429362604482
sS'/html/body/div/div/div/div/div/div/a/div/img'
p116
F6.158429362604484
sS'/html/body/div/div/div/div/div/div/div/p'
p117
F2.795859283219775
sS'/html/body/div/div/div/div/div/div/div/div/h4/span'
p118
F5.210896782498619
sS'/html/body/div/div/div/form/div/div/div/p/a'
p119
F6.643856189774725
sS'/html/body/div/div/div/div/div/div/div/a'
p120
F0.9742624385863918
sS'/html/body/div/div/div/div/div/div/div/div/div/div/h3/span/span'
p121
F3.0232697793228476
sS'/html/body/div/div/div/div/div/div/ul/li/div/div/span'
p122
F7.158429362604482
sS'/html/body/div/div/div/div/div/div/div/div/div/div/br'
p123
F6.965784284662088
sS'/html/body/div/div/div/div/div/div/div/div/div/div/div/div/div/ul/script'
p124
F8.965784284662087
sS'/html/body/div/div/div/div/form/fieldset/legend'
p125
F0.20756106993536205
sS'/html/body/div/div/div/div/div/div/ul/li'
p126
F1.5521563556379148
sS'/html/body/div/div/div/div/div/div/div/div/div/div/p/a/img'
p127
F5.058893689053569
sS'/html/body/div/div/div/div/div/div/div'
p128
F2.2515387669959646
sS'/html/body/div/div/div/div/ol/li/div/div/em'
p129
F9.965784284662087
sS'/html/body/div/div/div/div/div/div/div/div/div/div/div/img'
p130
F8.965784284662087
sS'/html/body/div/div/div/div/div/ul/li/div/p'
p131
F6.643856189774725
sS'/html/body/div/div/div/div/div/div/div/div/br'
p132
F2.0649174766813383
sS'/html/body/div/div/div/div'
p133
F0.42081985187284987
sS'/html/body/div/div/div/div/div/div/ul/li/h3'
p134
F5.380821783940931
sS'/html/body/div/div/div/div/form/textarea'
p135
F7.965784284662087
sS'/html/body/div/div/div/div/div/div/h3/a'
p136
F5.011587974275212
sS'/html/body/div/div/div/div/div/div/h2/i'
p137
F2.954557029238833
sS'/html/body/rss/channel/item/pubdate'
p138
F4.795859283219775
sS'/html/body/div/div/div/div/div/div/h2/a'
p139
F5.965784284662088
sS'/html/body/div/div/div/div/div/ul/li/div'
p140
F8.380821783940931
sS'/html/body/div/div/div/div/div/div/div/div/div/div/div/div/ul/li/a'
p141
F5.795859283219775
sS'/html/body/div/div/div/form/div/div/input'
p142
F6.643856189774725
sS'/html/body/div/div/div/div/div/span/img'
p143
F9.965784284662087
sS'/html/body/div/div/div/div/div/div/script'
p144
F2.107803289534515
sS'/html/body/div/div/div/div/div/h2/span/a'
p145
F2.7273795453370084
sS'/html/body/div/div/div/div/div/div/h2/span'
p146
F7.643856189774724
sS'/html/body/div/div/div/div/div/div/strong'
p147
F4.539519529959989
sS'/html/body/div/div/div/div/div/div/ul/li/img'
p148
F2.8572598278839183
sS'/html/body/div/div/div/div/div/span/span/br'
p149
F8.965784284662087
sS'/html/body/div/div/div/div/div/div/div/div/div/a/span'
p150
F6.965784284662088
sS'/html/body/div/div/div/div/div/div/p'
p151
F3.7958592832197753
sS'/html/body/div/div/div/div/ul/li/div'
p152
F3.921390165303634
sS'/html/body/div/div/div/div/div/div/div/dl/dd/a'
p153
F6.643856189774725
sS'/html/body/div/div/div/div/div/form/div/span'
p154
F9.965784284662087
sS'/html/body/div/div/div/div/div/div/div/div/div/div/span'
p155
F2.7858751946471525
sS'/html/body/header/div/span'
p156
F7.965784284662087
sS'/html/body/div/div/div/div/div/div/div/div/div/dl/dd/span/a'
p157
F8.965784284662087
sS'/html/body/div/div/div/div/div/div/a'
p158
F1.0086822430998008
sS'/html/body/div/div/div/div/div/div/ul/li/script'
p159
F2.954557029238833
sS'/html/body/div/div/div/div/div/ul/li/div/p/a'
p160
F6.643856189774725
sS'/html/body/div/div/div/div/div/div/div/span/span/a/img'
p161
F2.954557029238833
sS'/html/body/div/div/div/div/div/span/div/span/script'
p162
F4.50635266602479
sS'/html/body/div/div/div/div/div/div/div/div/div/div/ul/li'
p163
F2.77595972578207
sS'/html/body/div/div/div/div/div/div/div/div/p/a/span'
p164
F5.210896782498619
sS'/html/body/div/div/div/div/div/div/ul/li/ul/li'
p165
F8.965784284662087
sS'/html/body/div/div/div/form/div/script'
p166
F3.899695094204315
sS'/html/body/div/div/div/div/div/div/div/div/div/div/div/span/em'
p167
F3.011587974275212
sS'/html/body/div/div/div/div/div/div/div/table/thead/tr/td'
p168
F5.442222328605075
sS'/html/body/div/div/div/div/div/div/div/span'
p169
F3.5395195299599895
sS'/html/body/div/div/div/div/div/div/table/tr/td/div/span'
p170
F9.965784284662087
sS'/html/body/div/div/div/div/form/div/span'
p171
F9.965784284662087
sS'/html/body/div/span/img'
p172
F9.965784284662087
sS'/html/body/div/div/div/div/div/div/div/ul/li/h3/a'
p173
F2.7466157641999254
sS'/html/body/div/div/div/div/div/h4'
p174
F7.380821783940932
sS'/html/body/div/div/div/div/div/h3'
p175
F8.965784284662087
sS'/html/body/div/div/div/div/div/h2'
p176
F1.8416629728328995
sS'/html/body/div/div/div/div/div/h1'
p177
F7.965784284662087
sS'/html/body/div/div/div/div/div/div/table/tbody/tr/td/img'
p178
F9.965784284662087
sS'/html/body/div/div/div/div/input'
p179
F7.965784284662087
sS'/html/body/div/div/div/div/div/div/div/span/link'
p180
F5.573466861883327
sS'/html/body/div/div/div/h1/a'
p181
F6.643856189774725
sS'/html/body/div/div/div/ul/li/img'
p182
F5.878321443411747
sS'/html/body/div/div/div/div/form/div/div/div'
p183
F9.965784284662087
sS'/html/body/div/div/div/form/div/a/img'
p184
F3.899695094204315
sS'/html/body/div/div/div/div/p/span/a'
p185
F2.3658714424749596
sS'/html/body/div/div/div/div/div/div/div/div/span/div/a/img'
p186
F5.380821783940931
sS'/html/body/div/div/div/div/h2/span'
p187
F9.965784284662087
sS'/html/body/div/div/div/div/div/div/div/div/ul/li/a'
p188
F6.380821783940931
sS'/html/body/rss/channel/title'
p189
F4.643856189774724
sS'/html/body/div/div/div/div/div/div/div/input'
p190
F6.380821783940931
sS'/html/body/div/div/div/div/div/div/span/p/span'
p191
F3.7563309190331378
sS'/html/body/div/div/div/div/div/div/div/div/div/div/dl/dt'
p192
F6.795859283219775
sS'/html/head/link'
p193
F0.16326791954086411
sS'/html/body/div/div/div/div/div/div/div/div/div/div/p/a/wbr'
p194
F4.836501267717121
sS'/html/body/div/div/div/div/div/div/div/div/div/div/div/span'
p195
F2.473931188332412
sS'/html/body/div/div/div/div/div/p/span/span/a'
p196
F4.442222328605075
sS'/html/body/div/div/div/div/div/div/div/div/div/span/div/a/img'
p197
F4.878321443411748
sS'/html/body/div/div/div/div/div/div/span/span/a/wbr'
p198
F9.965784284662087
sS'/html/body/div/div/div/div/ol/li/div/div/div/a/span'
p199
F9.965784284662087
sS'/html/body/div/div/div/div/div/div/div/div/div/div/div/span/div'
p200
F8.965784284662087
sS'/html/body/div/div/div/div/div/div/span/a/span'
p201
F8.965784284662087
sS'/html/body/div/div/div/div/div/div/ul/li/a/img'
p202
F4.380821783940931
sS'/html/body/div/div/div/div/div/div/dl/dd/img'
p203
F9.965784284662087
sS'/html/body/div/div/div/div/div/div/div/form/div/div'
p204
F6.795859283219775
sS'/html/body/img'
p205
F7.380821783940932
sS'/html/body/div/div/div/div/div/div/div/div/p/br'
p206
F5.321928094887363
sS'/html/body/div/div/ul/li/div/table/tbody/tr/td/a'
p207
F8.965784284662087
sS'/html/body/div/div/div/div/div/div/span/br'
p208
F3.5734668618833267
sS'/html/body/div/div/div/div/div/div/div/div/div/div/div/div/span/em'
p209
F5.795859283219775
sS'/html/body/div/div/div/div/div/div/table/tr/td/div/div/span'
p210
F9.965784284662087
sS'/html/body/div/div/div/div/div/span'
p211
F0.20922796213800016
sS'/html/body/div/div/div/div/ol/li/div/div/div/p/span'
p212
F9.965784284662087
sS'/html/body/div/div/div/div/div/div/span/span'
p213
F4.158429362604483
sS'/html/body/div/div/div/div/link'
p214
F3.4266254735540556
sS'/html/body/div/div/h1/a'
p215
F4.442222328605075
sS'/html/body/div/div/div/div/div/div/div/div/p/a'
p216
F5.158429362604483
sS'/html/body/div/div/div/div/div/div/div/div'
p217
F2.888968687611256
sS'/html/body/div/div/div/form/div/div/div/span'
p218
F6.643856189774725
sS'/html/body/div/div/div/div/span/a'
p219
F6.643856189774725
sS'/html/body/div/div/div/div/div/div/ul/li/ul/li/a/img'
p220
F6.795859283219775
sS'/html/body/div/div/div/div/div/div/table/tbody/tr/td/div/span'
p221
F9.965784284662087
sS'/html/body/div/div/div/div/div/div/div/h3/span/a'
p222
F6.643856189774725
sS'/html/body/div/div/div/div/div/div/div/div/div/div/div/div/div/span/em'
p223
F8.965784284662087
sS'/html/body/div/div/div/div/div/ul/li/div/a'
p224
F2.8677522017015606
sS'/html/body/div/div/div/div/div/p/span'
p225
F4.442222328605075
sS'/html/body/div/div/a'
p226
F0.10314692710329337
sS'/html/body/div/div/div/div/div/div/div/div/div/div/div/div'
p227
F2.6896598793878495
sS'/html/body/div/div/div/div/div/div/a/em'
p228
F5.158429362604483
sS'/html/body/div/div/div/div/div/div/div/div/form/div/select/option'
p229
F5.210896782498619
sS'/html/body/div/div/p'
p230
F6.643856189774725
sS'/html/body/div/div/div/div/div/div/ul/li/ul/li/div/p/span'
p231
F8.965784284662087
sS'/html/body/div/div/div/div/div/div/div/p/a/img'
p232
F2.680382065799839
sS'/html/body/div/div/div/div/a'
p233
F0.20091269392599628
sS'/html/body/div/div/div/div/div/ul/li/a/img'
p234
F2.7083964419694353
sS'/html/body/div/div/div/div/table/tbody/tr/td/a'
p235
F9.965784284662087
sS'/html/body/div/div/div/div/div/div/table/tbody/tr/td/div/span/span'
p236
F9.965784284662087
sS'/html/body/div/div/div/div/div/span/input'
p237
F9.965784284662087
sS'/html/body/div/div/div/div/ul'
p238
F7.643856189774724
sS'/html/body/div/div/div/div/p'
p239
F0.20257191784768683
sS'/html/body/div/div/div/div/div/div/form/input'
p240
F5.380821783940931
sS'/html/body/div/div/script'
p241
F3.816037165157405
sS'/html/body/div/div/div/div/div/form/div/div/input'
p242
F9.965784284662087
sS'/html/body/div/div/div/div/div/div/ul/li/span'
p243
F1.5907448533151625
sS'/html/body/div/div/div/div/div/div/div/div/div/div/h4'
p244
F4.442222328605075
sS'/html/body/div/div/div/div/div/div/div/div/div/div/div/div/div/div/div/div/span/a'
p245
F7.380821783940932
sS'/html/body/div/div/div/div/div/div/div/div/div/div/div/h3/span/a'
p246
F7.643856189774724
sS'/html/body/div/div/div/div/div/div/p/a'
p247
F2.8677522017015606
sS'/html/body/div/div/div/div/div/div/ul/li/div/em'
p248
F5.380821783940931
sS'/html/body/div/div/div/div/div/div/div/table/tbody/tr/td/span'
p249
F5.878321443411747
sS'/html/body/div/div/div/div/div/div/em/span'
p250
F8.965784284662087
sS'/html/body/div/div/div/div/div/ul/li/span/span'
p251
F4.756330919033137
sS'/html/body/div/div/ul/li/a/span'
p252
F8.965784284662087
sS'/html/body/div/div/div/div/form/input'
p253
F8.965784284662087
sS'/html/body/div/div/div/div/h2/span/span'
p254
F6.643856189774725
sS'/html/body/div/div/div/div/div/div/div/span/script'
p255
F3.9657842846620874
sS'/html/body/div/div/div/div/h2/a'
p256
F3.237863830098888
sS'/html/body/div/div/div/div/div/ul/li/span'
p257
F2.0954195650786827
sS'/html/body/div/div/div/h1'
p258
F8.965784284662087
sS'/html/body/div/div/div/div/h2/i'
p259
F5.321928094887363
sS'/html/body/rss/channel/language'
p260
F4.643856189774724
sS'/html/body/div/div/div/div/div/div'
p261
F1.8211260418302047
sS'/html/body/div/div/div/div/div/div/div/div/p/span/br'
p262
F6.643856189774725
sS'/html/body/div/div/div/div/div/div/div/div/div/div/div/ul/script'
p263
F3.011587974275212
sS'/html/body/div/div/div/div/div/div/div/div/div/div/div/p/a/img'
p264
F9.965784284662087
sS'/html/body/div/div/span/a'
p265
F0.10005101381032834
sS'/html/body/div/script'
p266
F3.899695094204315
sS'/html/body/div/div/div/div/img'
p267
F6.265344566520995
sS'/html/body/div/div/div/div/h4'
p268
F7.965784284662087
sS'/html/body/div/div/div/div/h3'
p269
F6.50635266602479
sS'/html/body/div/div/div/div/h2'
p270
F2.343732465205711
sS'/html/body/div/div/div/div/div/ul/ul/li/a'
p271
F4.107803289534515
sS'/html/body/div/div/div/div/div/div/div/div/div/div/script'
p272
F7.965784284662087
sS'/html/body/div/div/div/div/ul/li/div/img'
p273
F9.965784284662087
sS'/html/body/div/div/div/div/div/div/ul/li/a'
p274
F2.265344566520995
sS'/html/body/div/div/div/form/div/label'
p275
F3.899695094204315
sS'/html/body/div/div/div/div/div/div/div/span/span'
p276
F2.9434164716336326
sS'/html/body/div/div/div/ul/li/a'
p277
F0.20756106993536205
sS'/html/body/div/div/div/div/div/a/div/img'
p278
F6.965784284662088
sS'/html/body/div/div/div/form/div/a'
p279
F3.899695094204315
sS'/html/body/div/div/div/div/div/div/div/div/div/div/a/img'
p280
F4.442222328605075
sS'/html/body/div/div/div/div/div/div/ul/li/div/a'
p281
F5.321928094887363
sS'/html/body/div/div/div/a/img'
p282
F9.965784284662087
sS'/html/body/div/div/div/div/div/div/p/span'
p283
F3.6082322800440036
sS'/html/body/div/div/div/div/ul/li/a/span'
p284
F9.965784284662087
sS'/html/body/div/div/div/div/div/div/div/div/form/div/div/input'
p285
F5.210896782498619
sS'/html/body/div/div/div/div/div/div/div/div/dl/dd/br'
p286
F9.965784284662087
sS'/html/body/div/div/div/div/div/div/table/tbody/tr/td/div/div/h3/a'
p287
F9.965784284662087
sS'/html/body/div/div/div/div/div/div/div/div/div/h3/div/a/img'
p288
F5.795859283219775
sS'/html/body/div/div/div/div/div/div/div/ul'
p289
F8.380821783940931
sS'/html/body/div/div/div/div/div/div/div/header/a'
p290
F7.380821783940932
sS'/html/body/div/div/div/div/div/div/table/tbody/tr/td/div/div/h2/a'
p291
F9.965784284662087
sS'/html/body/div/div/div/div/button'
p292
F4.539519529959989
sS'/html/body/header/div'
p293
F8.380821783940931
sS'/html/body/div/div/div/div/div/div/div/script'
p294
F2.77595972578207
sS'/html/body/div/div/div/div/div/div/ul/li/p/a'
p295
F6.158429362604484
sS'/html/body/div/div/div/div/div/div/div/div/div/div/img'
p296
F4.50635266602479
sS'/html/body/div/div/div/div/form/button'
p297
F7.965784284662087
sS'/html/body/div/div/div/div/div/div/div/h3/a/img'
p298
F4.380821783940931
sS'/html/body/div/div/div/form/div/div/div/p/label'
p299
F6.643856189774725
sS'/html/body/div/div/div/div/div/div/div/ul/li'
p300
F8.380821783940931
sS'/html/body/div/div/div/div/div/div/div/div/div/div/div/h3/span/input'
p301
F7.643856189774724
sS'/html/body/header/div/div/span'
p302
F7.965784284662087
sS'/html/body/div/div/div/div/div/strong'
p303
F4.539519529959989
sS'/html/body/div/div/div/div/div/div/dl/dt'
p304
F9.965784284662087
sS'/html/body/div/div/div/div/div/div/div/div/div/div/span/a'
p305
F2.272297327162762
sS'/html/body/div/div/div/div/div/div/div/div/div/script'
p306
F7.380821783940932
sS'/html/body/div/div/div/div/ul/li/div/a/img'
p307
F3.9657842846620874
sS'/html/body/div/div/div/div/div/div/div/div/a'
p308
F1.894321922105463
sS'/html/body/div/div/div/div/div/div/div/div/div/a/img'
p309
F6.50635266602479
sS'/html/body/div/div/div/div/div/div/div/div/div/div/span/script'
p310
F2.77595972578207
sS'/html/body/div/div/div/div/div/div/div/div/h3/span/input'
p311
F9.965784284662087
sS'/html/body/div/div/div/div/div/div/div/h3/a'
p312
F4.380821783940931
sS'/html/body/div/div/div/div/div/ul/li/div/a/img'
p313
F6.643856189774725
sS'/html/body/div/div/div/div/div/div/ul/div'
p314
F6.058893689053569
sS'/html/body/div/div/h1/span'
p315
F1.4739311883324122
sS'/html/body/rss/channel/item/encoded/br'
p316
F4.795859283219775
sS'/html/body/div/div/div/div/div/div/div/div/span/script'
p317
F3.5563933485243853
sS'/html/body/div/div/div/div/div/span/span'
p318
F3.5063526660247897
sS'/html/body/div/div/div/div/div/div/div/table/tbody/tr/td/a'
p319
F5.442222328605075
sS'/html/body/div/div/div/div/div/div/div/h2/a'
p320
F8.380821783940931
sS'/html/body/div/div/div/div/div/dl/dt/a/img'
p321
F9.965784284662087
sS'/html/body/div/img'
p322
F9.965784284662087
sS'/html/body/div/div/div/div/div/div/div/div/dl/dt/a/img'
p323
F9.965784284662087
sS'/html/body/div/div/div/div/div/table/tr/td/a'
p324
F8.380821783940931
sS'/html/body/div/div/div/div/ul/li/br'
p325
F8.965784284662087
sS'/html/body/div/div/div/div/p/span'
p326
F8.380821783940931
sS'/html/body/div/div/div/div/div/div/div/div/span/span/a'
p327
F2.965784284662087
sS'/html/body/div/div/div/div/div/div/div/img'
p328
F9.965784284662087
sS'/html/body/div/div/div/div/div/ul/li/a/div/img'
p329
F7.158429362604482
sS'/html/body/div/div/div/div/div/ul/li/dl/dd/h6/span'
p330
F8.965784284662087
sS'/html/body/div/div/div/div/div/ul/li'
p331
F1.5479317697761892
sS'/html/body/div/div/div/div/div/div/div/div/div/div/span/em'
p332
F4.380821783940931
sS'/html/body/div/div/div/div/div/div/div/div/ul/li/a/strong'
p333
F4.442222328605075
sS'/html/body/div/div/div/div/div/div/div/div/div/br'
p334
F2.7563309190331373
sS'/html/body/div/div/div/div/div/div/div/div/div/address/a'
p335
F8.965784284662087
sS'/html/body/div/div/div/div/a/img'
p336
F0.7538959901160834
sS'/html/body/div/div/div/form/input'
p337
F3.899695094204315
sS'/html/body/div/div/div/div/div/div/h2/span/a'
p338
F2.395928676331139
sS'/html/body/div/div/div/ul/li/div/table/tr/td/a'
p339
F0.21089678249861854
sS'/html/body/div/div/div/div/form/fieldset/label'
p340
F0.20756106993536205
sS'/html/body/div/div/div/div/div/div/div/table/tbody/tr/td'
p341
F5.442222328605075
sS'/html/body/div/div/div/div/div/h2/img'
p342
F9.965784284662087
sS'/html/body/rss/channel/link'
p343
F4.643856189774724
sS'/html/body/div/div/div/div/div/div/div/div/span/span'
p344
F2.965784284662087
sS'/html/body/div/div/div/div/div/div/div/div/div/div/div/ul/li'
p345
F7.643856189774724
sS'/html/body/div/div/div/div/div/div/div/div/p/span'
p346
F4.608232280044003
sS'/html/body/div/div/div/div/div/div/div/div/div/div/div/div/div/div/div/div'
p347
F7.380821783940932
sS'/html/body/div/div/div/div/div/div/label/input'
p348
F5.011587974275212
sS'/html/body/div/div/div/div/form/div/div/span'
p349
F9.965784284662087
sS'/html/body/div/div/div/div/div/div/table/tr/td'
p350
F7.158429362604482
sS'/html/body/div/div/div/div/div/br'
p351
F3.184424571137428
sS'/html/body/div/div/div/div/div/form/div/div'
p352
F9.965784284662087
sS'/html/body/div/div/div/div/div/ul/li/dt'
p353
F6.643856189774725
sS'/html/body/div/div/div/div/div/div/div/ul/li/span'
p354
F2.3883554566263383
sS'/html/body/div/div/div/div/style'
p355
F0.6126374591640045
sS'/html/body/div/div/div/div/div/div/a/div/b'
p356
F9.965784284662087
sS'/html/body/div/div/div/div/div/div/div/div/div/div/button'
p357
F7.380821783940932
sS'/html/body/div/div/div/div/div/ul/li/div/div'
p358
F3.2243172982609405
sS'/html/body/div/div/div/div/div/ul/li/p'
p359
F4.539519529959989
sS'/html/body/div/div/ul/li/a'
p360
F3.857259827883918
sS'/html/body/div/div/div/div/div/div/span/a'
p361
F1.2898272517203382
sS'/html/body/div/div/div/div/div/div/style'
p362
F7.158429362604482
sS'/html/body/div/div/div/div/div/ul/li/a'
p363
F1.3547594873547348
sS'/html/body/div/div/div/div/div/div/div/div/div/div/div/form/input'
p364
F7.643856189774724
sS'/html/body/div/div/div/div/div'
p365
F0.6259342817774622
sS'/html/body/div/div/div/div/div/div/ul/li/span/div'
p366
F9.965784284662087
sS'/html/body/div/div/div/div/div/div/div/div/div/span/a'
p367
F2.4819685073978306
sS'/html/body/div/div/div/div/ol/li/div/div/div/span'
p368
F9.965784284662087
sS'/html/body/div/div/div/div/div/div/br'
p369
F3.6620035364849843
sS'/html/body/div/div/div/div/div/form/div/div/span'
p370
F9.965784284662087
sS'/html/body/div/div/div/div/div/div/div/div/p/span/a'
p371
F6.643856189774725
sS'/html/body/div/div/div/div/div/div/ul/li/ul/li/h2/b'
p372
F8.965784284662087
sS'/html/body/div/div/div/div/div/div/div/div/div/div/span/div'
p373
F5.795859283219775
sS'/html/body/div/div/div/div/div/div/ul/li/ul/li/h2/a'
p374
F8.965784284662087
sS'/html/body/div/div/div/div/div/ul/li/span/span/a'
p375
F8.380821783940931
sS'/html/body/div/div/div/div/div/div/ul/li/p/span'
p376
F6.158429362604484
sS'/html/body/div/div/div/div/h2/a/span'
p377
F4.011587974275212
sS'/html/body/div/div/div/div/div/div/div/div/div/div/h3/a/img'
p378
F8.965784284662087
sS'/html/body/div/div/div/div/div/div/div/div/div/div/div/span/form/input'
p379
F2.954557029238833
sS'/html/body/div/div/div/div/div/div/ul/li/a/span'
p380
F6.158429362604484
sS'/html/body/div/div/div/div/div/div/div/div/div/div/div/div/div/div/span'
p381
F7.380821783940932
sS'/html/body/div/div/div/div/div/div/div/div/div/div/span/div/a/img'
p382
F7.965784284662087
sS'/html/body/div/div/div/div/div/ul/li/h3/a'
p383
F4.442222328605075
sS'/html/body/div/div/div/div/div/div/div/a/img'
p384
F1.5563933485243855
sS'/html/body/div/div/div/div/div/span/a'
p385
F2.2243172982609405
sS'/html/body/div/div/span'
p386
F0.10005101381032834
sS'/html/body/div/div/div/div/div/div/div/div/div/span/form/input'
p387
F4.50635266602479
sS'/html/body/div/div/div/div/div/a/img'
p388
F3.680382065799839
sS'/html/body/div/div/div/div/div/div/div/div/div/h4/a'
p389
F8.965784284662087
sS'/html/body/rss/channel/item/title'
p390
F4.795859283219775
sS'/html/body/div/div/div/div/div/div/ul/li/span/a'
p391
F2.954557029238833
sS'/html/body/div/div/div/div/div/div/span/link'
p392
F5.107803289534515
sS'/html/body/div/div/div/div/div/span/span/a'
p393
F4.473931188332412
sS'/html/body/div/div/div/div/div/div/a/span'
p394
F2.8677522017015606
sS'/html/body/div/div/div/div/div/ul/li/dl/dd/dl/dt'
p395
F8.965784284662087
sS'/html/body/div/div/div/div/div/div/div/div/div/div/div/h3/span/span'
p396
F7.643856189774724
sS'/html/body/rss/channel/item/encoded/a'
p397
F4.795859283219775
sS'/html/body/div/div/div/div/div/div/div/div/form/input'
p398
F5.210896782498619
sS'/html/body/div/div/div/div/div/div/span/span/a'
p399
F4.293358942690592
sS'/html/body/div/div/div/form/div/p/a'
p400
F3.6989977439671855
sS'/html/body/div/div/div/div/div/div/div/div/div/div/div/div/div/div/span/a'
p401
F8.965784284662087
sS'/html/body/div/div/div/div/div/ul/li/dl/dd/dl/dd'
p402
F8.965784284662087
sS'/html/body/div/div/div/div/div/span/script'
p403
F4.539519529959989
sS'/html/body/div/div/div/div/div/div/table/tr/td/p/span'
p404
F4.380821783940931
sS'/html/head/style'
p405
F0.10005101381032834
sS'/html/body/div/div/h1'
p406
F0.965784284662087
sS'/html/body/header/div/img'
p407
F9.965784284662087
sS'/html/body/div/div/div/div/div/div/div/div/div/div/div/a'
p408
F1.960159735468209
sS'/html/body/div/div/div/div/div/div/table/tbody/tr/td/div/div'
p409
F9.965784284662087
sS'/html/body/div/div/div/div/div/div/div/div/div/div/h3/span/input'
p410
F3.0232697793228476
sS'/html/body/div/div/div/div/div/div/div/div/div/div/div/p'
p411
F7.643856189774724
sS'/html/body/div/div/div/div/div/div/div/div/p'
p412
F4.210896782498619
sS'/html/body/div/div/div/div/div/ul/li/a/span'
p413
F2.888968687611256
sS'/html/body/header/div/a/img'
p414
F7.965784284662087
sS'/html/body/div/div/div/div/div/address/a'
p415
F9.965784284662087
sS'/html/body/div/div/div/div/div/div/div/div/div/span/div'
p416
F3.011587974275212
sS'/html/body/div/div/div/div/div/table/tbody/tr/td'
p417
F5.107803289534515
sS'/html/body/div/div/div'
p418
F0.20257191784768683
sS'/html/body/div/div/div/span'
p419
F6.380821783940931
sS'/html/body/div/div/div/div/div/ul/li/dl/dt/a/img'
p420
F8.965784284662087
sS'/html/body/div/div/div/div/div/div/span/script'
p421
F2.84684321193858
sS'/html/body/div/div/div/div/form/fieldset/input'
p422
F0.20756106993536205
sS'/html/body/div/div/div/div/div/div/div/div/h2/span/a'
p423
F9.965784284662087
sS'/html/body/header/div/a'
p424
F7.965784284662087
sS'/html/body/div/div/div/div/div/script'
p425
F2.265344566520995
sS'/html/body/div/div/div/div/a/h2'
p426
F9.965784284662087
sS'/html/body/div/div/div/div/div/ul/li/dl/dd/h6/a'
p427
F8.965784284662087
sS'/html/body/div/div/div/div/div/div/div/div/div/div/div/div/div/a'
p428
F9.965784284662087
sS'/html/body/div/div/div/div/h1/img'
p429
F7.965784284662087
sS'/html/body/div/div/div/div/div/ul/li/div/a/span'
p430
F8.380821783940931
sS'/html/body/div/div/div/div/div/div/div/div/dl/dd/span/a'
p431
F6.380821783940931
sS'/html/body/div/div/a/img'
p432
F8.380821783940931
sS'/html/body/div/div/div/div/div/div/div/div/input'
p433
F6.795859283219775
sS'/html/body/div/div/div/div/div/div/div/div/h3/a'
p434
F2.932361283124637
sS'/html/body/div/div/div/div/div/ul/li/div/span/div'
p435
F8.380821783940931
sS'/html/body/div/div/div/div/ol/li/div/div/a/img'
p436
F9.965784284662087
sS'/html/body/div/div/div/div/div/div/ul/li/div/div/div/a/h3'
p437
F7.158429362604482
sS'/html/body/div'
p438
F7.380821783940932
sS'/html/body/div/div/div/div/div/div/div/div/div/div/h3/div/a/img'
p439
F8.965784284662087
sS'/html/body/div/div/div/div/div/div/div/div/div/div/div/div/div/span/a'
p440
F5.717856771218502
sS'/html/body/rss/channel/pubdate'
p441
F4.643856189774724
sS'/html/body/div/div/div/form/div/p/input'
p442
F3.899695094204315
sS'/html/body/div/div/div/div/div/div/div/dl/dt'
p443
F6.643856189774725
sS'/html/body/div/div/div/div/div/div/div/div/div/h3/a'
p444
F5.795859283219775
sS'/html/body/div/div/div/div/div/div/table/tbody/tr/td/div/div/div'
p445
F9.965784284662087
sS'/html/body/div/div/div/div/div/div/div/h2/span/a'
p446
F4.539519529959989
sS'/html/body/div/div/div/form/div/img'
p447
F3.899695094204315
sS'/html/body/div/div/div/div/div/div/div/div/h3/a/img'
p448
F3.011587974275212
sS'/html/body/div/div/div/div/div/div/div/div/dl/dd/span'
p449
F9.965784284662087
sS'/html/body/div/div/div/div/p/br'
p450
F2.3658714424749596
sS'/html/body/div/div/div/div/div/div/div/div/div/div/ul/li/a'
p451
F4.380821783940931
sS'/html/body/div/div/div/div/div/div/div/div/div/div/div/div/div/div/div/span'
p452
F7.380821783940932
sS'/html/body/div/div/div/div/div/div/a/div/span'
p453
F6.265344566520995
sS'/html/body/div/div/div/div/ul/li/span'
p454
F3.816037165157405
sS'/html/body/div/div/div/div/div/div/div/br'
p455
F8.965784284662087
sS'/html/body/div/div/div/div/div/div/span/p/a'
p456
F3.7563309190331378
sS'/html/body/div/div/div/div/div/div/ul'
p457
F5.011587974275212
sS'/html/body/div/div/div/ul/li/a/span'
p458
F0.21089678249861854
sS'/html/body/div/div/div/div/div/ul/li/div/div/span'
p459
F3.237863830098888
sS'/html/body/div/div/div/div/div/div/div/div/span/form/input'
p460
F3.590744853315162
sS'/html/body/div/div/div/div/div/div/a/img'
p461
F2.231074664436249
sS'/html/body/noscript/iframe'
p462
F8.965784284662087
sS'/html/body/div/div/div/div/div/div/div/div/form/textarea'
p463
F5.210896782498619
sS'/html/body/div/div/div/div/form/div/div/input'
p464
F9.965784284662087
sS'/html/body/div/div/div/div/h1'
p465
F4.539519529959989
sS'/html/body/div/div/div/div/form/fieldset/div/input'
p466
F0.20756106993536205
sS'/html/body/div/div/div/div/div/div/div/div/div/div/div/div/div/ul/li/a'
p467
F8.965784284662087
sS'/html/body/div/div/div/div/div/span/div/span'
p468
F9.965784284662087
sS'/html/body/div/div/div/div/div/div/ul/li/div/a/img'
p469
F5.011587974275212
sS'/html/body/div/div/div/div/ul/li/p'
p470
F8.965784284662087
sS'/html/body/div/div/div/div/div/div/span/span/br'
p471
F5.878321443411747
sS'/html/head/title'
p472
F0.05889368905356862
sS'/html/body/div/div/div/div/div/div/div/div/h3/span/span'
p473
F9.965784284662087
sS'/html/body/div/div/div/div/div/div/div/h3/span/input'
p474
F6.643856189774725
sS'/html/body/div/div/div/div/div/div/h4'
p475
F6.643856189774725
sS'/html/body/div/div/div/div/div/div/div/div/div/div/h3/span/a'
p476
F3.0232697793228476
sS'/html/body/div/div/div/div/ul/li'
p477
F4.035046947099201
sS'/html/body/div/div/div/div/div/div/p/span/a'
p478
F5.011587974275212
sS'/html/body/div/div/div/div/div/div/div/h3/span/span'
p479
F6.643856189774725
sS'/html/body/div/div/div/div/div/div/div/div/div/div/ul/script'
p480
F4.380821783940931
sS'/html/body/div/div/div/div/div/div/div/span/a'
p481
F2.6170561304310094
sS'/html/body/div/div/div/div/div/div/div/form/div/div/label/input'
p482
F6.795859283219775
sS'/html/body/div/div/div/div/div/div/div/div/span/a/b'
p483
F8.965784284662087
sS'/html/body/rss/channel/description'
p484
F4.643856189774724
sS'/html/body/div/div/div/div/div/div/div/div/a/span'
p485
F5.643856189774724
sS'/html/body/div/div/div/div/div/div/div/form/div/input'
p486
F6.795859283219775
sS'/html/body/div/div/div/div/div/ul/li/div/div/a'
p487
F6.643856189774725
sS'/html/body/div/div/div/div/div/h1/a'
p488
F8.380821783940931
sS'/html/body/div/div/div/div/div/table/thead/tr/td/a'
p489
F5.965784284662088
sS'/html/body/div/div/div/div/div/div/div/div/div/div/div/form/span/input'
p490
F7.643856189774724
sS'/html/body/div/div/div/div/div/h3/b'
p491
F8.965784284662087
sS'/html/body/div/div/div/div/div/h3/a'
p492
F8.380821783940931
sS'/html/body/div/div/div/div/script'
p493
F1.6438561897747248
sS'/html/body/div/div/div/div/div/h2/a'
p494
F8.380821783940931
sS'/html/body/div/div/div/div/div/div/div/form/div/p/strong'
p495
F6.795859283219775
sS'/html/body/div/div/div/div/div/ul'
p496
F6.158429362604484
sS'/html/body/div/div/div/div/div/h2/i'
p497
F2.766111939825723
sS'/html/body/div/div/div/div/div/div/div/div/div/div/div/div/div/div/ul/li'
p498
F7.380821783940932
sS'/html/body/div/div/div/div/div/div/div/div/div/div/div/a/span'
p499
F2.2515387669959646
sS'/html/body/div/div/div/div/div/div/span/a/wbr'
p500
F9.965784284662087
sS'/html/body/div/div/div/div/div/dl/dd/a'
p501
F9.965784284662087
sS'/html/body/div/div/div/div/div/div/div/div/h4/a'
p502
F5.107803289534515
sS'/html/body/div/div/div/div/div/div/div/h3'
p503
F6.643856189774725
sS'/html/body/div/div/div/div/div/div/div/h2'
p504
F2.6896598793878495
sS'/html/body/link'
p505
F0.2463954637200047
sS'/html/body/script'
p506
F0.11872693857075152
sS'/html/body/div/div/div/div/div/div/ul/li/ul/li/div/a'
p507
F8.965784284662087
sS'/html/body/div/div/div/div/div/div/div/div/ul/li/a/img'
p508
F4.442222328605075
sS'/html/body/div/div/img'
p509
F3.816037165157405
sS'/html/body/div/div/div/div/div/div/ul/li/a/strong/em'
p510
F6.158429362604484
sS'/html/body/div/div/div/div/div/div/div/div/span/div'
p511
F4.380821783940931
sS'/html/body/rss/channel/item/guid'
p512
F4.795859283219775
sS'/html/body/div/div/div/div/div/div/div/header/a/span'
p513
F7.380821783940932
sS'/html/body/div/div/div/div/div/div/div/ul/li/a/img'
p514
F3.5395195299599895
sS'/html/body/div/div/div/div/div/div/div/div/p/a/img'
p515
F9.965784284662087
sS'/html/body/div/div/div/div/div/div/div/p/br'
p516
F4.795859283219775
sS'/html/body/div/div/div/div/div/div/div/div/div/div/div/ul/li/a'
p517
F2.910501849160897
sS'/html/body/header/div/div/div/div/script'
p518
F7.965784284662087
sS'/html/body/div/div/div/div/div/ul/li/div/span'
p519
F6.643856189774725
sS'/html/body/div/div/div/div/div/div/ul/li/ul/li/h2/span'
p520
F8.965784284662087
sS'/html/body/div/div/div/div/div/div/div/div/div/div/h3/a'
p521
F8.965784284662087
sS'/html/body/div/div/div/div/div/div/a/div'
p522
F9.965784284662087
sS'/html/body/div/div/div/div/div/div/ul/li/div/div'
p523
F5.380821783940931
sS'/html/body/div/div/div/div/div/h3/img'
p524
F8.380821783940931
sS'/html/body/div/div/div/div/div/div/div/div/div/div/div'
p525
F1.926865295369785
sS'/html/body/div/div/div/form/div/div/div/p/span/img'
p526
F6.643856189774725
sS'/html/body/div/div/div/div/form/div/div'
p527
F9.965784284662087
sS'/html/body/div/div/div/div/div/p'
p528
F3.5563933485243853
sS'/html/body/div/div/div/div/div/div/div/p/span'
p529
F2.77595972578207
sS'/html/body/div/div/div/div/div/div/div/div/div'
p530
F1.3770696490798233
sS'/html/body/div/div/div/div/div/h3/span'
p531
F9.965784284662087
sS'/html/body/div/div/div/div/div/div/h5'
p532
F6.965784284662088
sS'/html/body/div/div/div/div/div/a'
p533
F0.21089678249861854
sS'/html/body/div/div/div/div/div/div/h3'
p534
F8.380821783940931
sS'/html/body/div/div/div/div/div/div/h2'
p535
F3.857259827883918
sS'/html/body/div/div/div/div/div/div/h1'
p536
F8.965784284662087
sS'/html/body/div/div/div/div/div/i'
p537
F6.643856189774725
sS'/html/body/div/div/div/div/ul/li/a'
p538
F3.7369655941662066
sS'/html/body/div/div/div/div/div/div/div/div/div/div'
p539
F1.857259827883918
sS'/html/body/div/div/div/form/div/div/div/a'
p540
F6.643856189774725
sS'/html/body/div/div/div/script'
p541
F6.643856189774725
sS'/html/body/div/div/div/form/div/div/div/p/input'
p542
F6.643856189774725
sS'/html/body/div/div/div/div/div/div/div/p/a'
p543
F4.573466861883327
sS'/html/body/div/div/div/div/div/img'
p544
F7.380821783940932
sS'/html/body/div/div/div/div/form/a'
p545
F7.965784284662087
sS'/html/body/div/div/div/div/div/a/div/span'
p546
F6.965784284662088
sS'/html/body/div/div/div/div/div/h1/span'
p547
F8.965784284662087
sS'/html/body/div/div/div/div/div/div/div/div/div/div/div/div/ul/script'
p548
F5.795859283219775
sS'/html/body/div/div/div/div/div/div/div/div/script'
p549
F4.442222328605075
s.