(lp0
I142055
aI142055
aI142024
aI565539
aI47703
aI48452
aI44692
aI40966
aI43255
aI46070
aI54950
aI421105
aI203144
aI203155
aI203155
aI28526
aI14635
aI14864
aI14774
aI14946
aI2249
aI14826
aI15057
aI11968
aI193066
aI59458
aI37098
aI87715
aI32177
aI34787
aI167636
aI56433
aI35113
aI33535
aI34934
aI38867
aI73317
aI149106
aI35241
aI55314
aI34963
aI184796
aI326522
aI51572
aI156491
aI104653
aI173014
aI73243
aI160048
aI161448
aI160004
aI42477
aI65842
aI201333
aI162217
aI128660
aI170243
aI177556
aI175212
aI45088
aI30599
aI102620
aI38940
aI94996
aI31241
aI33319
aI55166
aI1090
aI1090
aI112735
aI109804
aI100380
aI99508
aI100891
aI98703
aI94521
aI98247
aI102447
aI101376
aI33932
aI420785
aI42000
aI44109
aI62372
aI36205
aI15866
aI172451
aI96892
aI99678
aI97938
aI55648
aI133724
aI133798
aI120200
aI33508
aI40724
aI45762
aI30265
aI38184
aI71946
aI61340
aI26219
aI29690
aI29996
aI15299
aI15239
aI15235
aI21131
aI21129
aI24314
aI24681
aI24294
aI22413
aI37289
aI25119
aI30480
aI45028
aI32431
aI172948
aI32970
aI38632
aI37321
aI102649
aI131829
aI108585
aI100402
aI140331
aI98689
aI99798
aI122018
aI131946
aI29041
aI54078
aI21522
aI36830
aI28909
aI169574
aI33380
aI38546
aI98272
aI96993
aI27961
aI23330
aI41528
aI36930
aI62648
aI20977
aI15866
aI167882
aI70072
aI69670
aI98214
aI119428
aI22008
aI63945
aI23770
aI15866
aI28793
aI25422
aI39317
aI133261
aI29374
aI28642
aI29378
aI21970
aI36311
aI29479
aI172519
aI31626
aI37380
aI107307
aI51263
aI63951
aI107054
aI101170
aI62187
aI133086
aI98705
aI98332
aI98481
aI33593
aI189864
aI41765
aI146266
aI25545
aI61921
aI31848
aI15862
aI168095
aI26609
aI37590
aI67144
aI56585
aI40766
aI81828
aI71490
aI75871
aI28553
aI15207
a.