(dp0
S'/html/body/div/div/div/div/div/div/div/div/div/b'
p1
F9.980139577639157
sS'/html/body/div/div/div/p/a'
p2
F8.980139577639157
sS'/html/body/div/div/div/div/div/div/div/div/div/a'
p3
F1.596435285165105
sS'/html/body/div/div/div/div/div/table/tr/th/span'
p4
F9.980139577639157
sS'/html/body/div/div/div/div/div/div/ul/li/div/li/div/div/div/div/div/span/a'
p5
F5.980139577639157
sS'/html/body/div/div/div/div/div/div/div/div/a/img'
p6
F1.9357454582807037
sS'/html/body/div/div/div/div/div/div/div/div/div/i'
p7
F6.395177076918001
sS'/html/body/div/div/div/div/div/div/ul/li/div/li/div/div/div/div/div/span/i'
p8
F5.980139577639157
sS'/html/body/div/div/div/div/div/div/div/div/ul/li/div/div/div/div/div/div/div/div/table/tbody/tr/td'
p9
F8.980139577639157
sS'/html/body/div/div/div/div/div/div/div/div/ul/li/div/li/div/li/div/li/div/li/div/li/div/div/div/a'
p10
F9.980139577639157
sS'/html/body/div/div/div/div/div/div/ul/li/div/li/div/li/div/div/div/div/span/i'
p11
F5.980139577639157
sS'/html/body/div/div/div/div/div/div/div/div/div/p'
p12
F7.6582114827517955
sS'/html/body/div/div/div/div/div/div/div/div/div/div/a/span/img'
p13
F5.025943267252282
sS'/html/body/div/div/div/div/div/div/div/div/ul/li/div/div/div/div/ul/li'
p14
F8.980139577639157
sS'/html/body/div/div/div/div/div/div/ul/li/div/li/div/li/div/li/div/li/div/div/div/div/ul/li/dl/dd/em/i'
p15
F9.980139577639157
sS'/html/body/div/div/div/div/div/div/ul/li/div/li/div/li/div/div/div/div/span/a'
p16
F5.980139577639157
sS'/html/body/div/div/div/div/div/div/div/div/div/div/div/div/ul/li/i'
p17
F7.980139577639158
sS'/html/body/table/tr/td/br'
p18
F9.980139577639157
sS'/html/body/div/div/div/div/div/div/div/div/ul/li/div/div/div/div/span/img'
p19
F6.073248982030639
sS'/html/body/div/div/div/div/div/div/div/div/ul/li/div/li/div/li/div/li/div/li/div/div/div/div/a'
p20
F9.980139577639157
sS'/html/body/div/div/div/div/div/iframe'
p21
F9.980139577639157
sS'/html/body/div/div/div/div/div/div/ul/li/div/li/div/li/div/div/div/div/div'
p22
F5.980139577639157
sS'/html/body/div/div/div/div/div/div/div/div/div/div/div/div/div/div/a/span/span'
p23
F1.653710090516854
sS'/html/body/div/div/div/div/div/div/div/div/div/div/div/div/div/div/div/p/span'
p24
F5.279699859498065
sS'/html/body/div/div/div/div/div/div/ul/li/div/li/div/li/div/div/div/ul/li/a/img'
p25
F9.980139577639157
sS'/html/body/div/div/div/div/div/div/div/div/div/div/cc/div/strong/embed/br'
p26
F9.980139577639157
sS'/html/body/div/div/div/div/div/div/div/div/ul/li/div/li/div/div/div/div/ul/li/div/a/img'
p27
F9.980139577639157
sS'/html/body/div/div/div/div/div/div/div/div/div/div/ul/li/span'
p28
F8.395177076918001
sS'/html/body/div/div/div/div/div/div/div/dl/dd/div/ul/li/div/p/img'
p29
F7.6582114827517955
sS'/html/body/div/div/div/div/div/div/div/div/span/font'
p30
F9.980139577639157
sS'/html/body/div/div/div/div/div/div/div/div/div/div/div/div/div/div/div/a/span/span'
p31
F2.205352518037984
sS'/html/body/div/div/div/div/div/form/input'
p32
F6.2796998594980655
sS'/html/body/div/div/div/div/span/em'
p33
F8.980139577639157
sS'/html/body/div/div/div/div/div/div/div/div/div/div/p/label'
p34
F9.980139577639157
sS'/html/body/div/div/div/div/div/div/div/div/ul/li/div/li/div/li/div/li/div/li/div/li/div/div/div/div/a'
p35
F9.980139577639157
sS'/html/body/div/div/div/div/div/div/div/div/ul/li/div/li/div/li/div/li/div/li/div/div/div/div/div'
p36
F9.980139577639157
sS'/html/body/div/div/div/div/div/div/ul/li/div/li/div/li/div/li/div/div/div/div/a'
p37
F6.810214576196845
sS'/html/body/div/div/div/div/div/div/div/div/ul/li/ul/li/div/div/div/div/span/img'
p38
F6.2796998594980655
sS'/html/body/div/div/div/div/div/div/div/div/div/div/div/span/select'
p39
F5.073248982030639
sS'/html/body/div/div/div/div/div/div/ul/li/div/li/div/li/div/li/div/li/div/li/div/div/div/div/div/div/div/ul/li/a/img'
p40
F8.395177076918001
sS'/html/body/div/div/div/div/div/div/div/div/div/div/div/ul/li/div/div/div/div/div/div/span/span/div'
p41
F9.980139577639157
sS'/html/body/div/div/div/div/div/div/div/dl/dd/span/span'
p42
F5.073248982030639
sS'/html/body/div/div/div/div/div/div/ul/li/div/li/div/li/div/li/div/li/div/div/div/p/em'
p43
F8.980139577639157
sS'/html/body/div/div/div/div/div/div/div/ul/li/div/div/div/div/a'
p44
F9.980139577639157
sS'/html/body/div/div/div/b'
p45
F7.980139577639158
sS'/html/body/div/div/div/img'
p46
F7.6582114827517955
sS'/html/body/div/div/div/a'
p47
F1.2119552528622308
sS'/html/body/div/div/div/div/div/div/div/div/div/div/div/ul/div/li/div/a/img'
p48
F5.073248982030639
sS'/html/body/div/div/div/div/div/div/ul/li/div/li/div/li/div/li/div/li/div/li/div/div/span'
p49
F7.6582114827517955
sS'/html/body/div/div/div/div/div/div/div/div/div/span'
p50
F2.1792396777188525
sS'/html/body/div/div/div/div/div/div/ul/li/div/li/div/li/div/li/div/li/div/div/div/div/span/a'
p51
F7.395177076918001
sS'/html/body/div/div/div/div/div/table/tr/td/span'
p52
F8.980139577639157
sS'/html/body/div/div/div/div/div/div/div/div/ul/li/div/li/div/li/div/li/div/li/div/div/div/div/div/div/div/ul/li/div/a'
p53
F9.980139577639157
sS'/html/body/div/div/div/div/div/div/div/code'
p54
F6.2796998594980655
sS'/html/body/div/div/div/div/div/div/div/div/ul/li/div/li/div/li/div/div/div/div/div/div/div/ul/li/div/div/div'
p55
F8.980139577639157
sS'/html/body/div/div/table/tr/td'
p56
F7.980139577639158
sS'/html/body/div/div/div/div/div/div/div/div/div/div/div/ul/div/li/div/span/span'
p57
F3.456577621582144
sS'/html/body/div/div/div/div/div/div/div/div/ul/li/div/li/div/div/div/div/ul/li'
p58
F9.980139577639157
sS'/html/body/div/div/div/div/div/embed'
p59
F8.980139577639157
sS'/html/head/meta'
p60
F0.0
sS'/html/body/div/div/div/div/div/div/div/div/ul/li/div/div/div/div/div/span'
p61
F6.810214576196845
sS'/html/body/div/div/div/div/div/div/div/div/ul/li/div/li/div/div'
p62
F6.980139577639157
sS'/html/body/div/div/div/div/div/div/ul/li/div/li/div/li/div/div/div/div/div/a/span/img'
p63
F9.980139577639157
sS'/html/body/div/div/div/div/div/div/div/h4/span/a'
p64
F5.025943267252282
sS'/html/body/div/div/div/div/div/div/div/div/div/div/div/a/img'
p65
F8.980139577639157
sS'/html/body/div/div/div/div/div/div/div/ul/li/button'
p66
F2.0435016386365867
sS'/html/body/div/div/table/tr/th'
p67
F7.980139577639158
sS'/html/body/div/div/div/div/div/div/ul/li/div/div/div/div/div/div/a/img'
p68
F8.395177076918001
sS'/html/body/div/div/div/div/div/div/div/div/ul/li/div/li/div/li/div/div/div/div/div/div/div/ul/li/div/li/div/img'
p69
F9.980139577639157
sS'/html/body/div/div/div/div/div/div/div/div/ul/li/div/li/div/li/div/li/div/li/div/li/div/div/div/div/div'
p70
F9.980139577639157
sS'/html/body/div/div/div/div/div/div/ul/li/ul/li/a'
p71
F9.980139577639157
sS'/html/body/div/div/div/div/span/div/span'
p72
F8.980139577639157
sS'/html/body/div/div/div/div/div/div/div/div/ul/li/div/span'
p73
F9.980139577639157
sS'/html/body/div/div/div/div/div/div/div/div/ul/li/div/div/div/div/div/a'
p74
F5.587822154860397
sS'/html/body/div/div/div/div/div/div/div/div/ul/li/div/li/div/li/div/li/div/div'
p75
F8.980139577639157
sS'/html/body/div/div/div/div/div/dl/dd'
p76
F9.980139577639157
sS'/html/body/div/table/tr/td/div/a'
p77
F8.980139577639157
sS'/html/body/div/div/div/div/div/div/div/div/div/div/div/ul/li/a/div/span'
p78
F9.980139577639157
sS'/html/body/div/div/div/div/div/div/ul/li/div/li/div/li/div/li/div/div/div/div/span/span'
p79
F6.810214576196845
sS'/html/body/div/div/div/div/div/div/ul/li/div/li/div/li/div/li/div/li/div/div/div/div/div/div/div/ul/li/div/div/div'
p80
F7.6582114827517955
sS'/html/body/div/div/div/div/div/div/div/div/ul/li/div/div/a'
p81
F3.456577621582144
sS'/html/body/div/div/div/div/div/div/div/form/input'
p82
F2.587822154860397
sS'/html/body/div/div/div/div/div/table/thead/tr/th'
p83
F6.980139577639157
sS'/html/body/div/div/div/div/p/a'
p84
F6.980139577639157
sS'/html/body/div/div/div/div/div/dl/dt'
p85
F9.980139577639157
sS'/html/body/div/div/div/div/div/div/div/div/ul/li/div/div/div/div/div/div/div/a'
p86
F8.980139577639157
sS'/html/body/div/div/div/div/h1/span'
p87
F8.980139577639157
sS'/html/body/div/div/div/div/div/div/div/div/div/div/ul/li/div/div'
p88
F9.980139577639157
sS'/html/body/div/div/div/div/div/div/div/div/div/dl/dd/a'
p89
F6.980139577639157
sS'/html/body/div/div/div/div/div/div/div/div/div/div/div/p/span'
p90
F9.980139577639157
sS'/html/body/div/div/div/div/div/div/div/div/div/div/cc/div/div/div/span/span'
p91
F8.980139577639157
sS'/html/body/div/div/div/div/div/div/ul/li/div/li/div/li/div/li/div/li/div/div/div/div/div/ul/li/i'
p92
F7.6582114827517955
sS'/html/body/div/div/div/div/div/div/div/div/div/div/div/div/span'
p93
F1.5707486415014555
sS'/html/body/div/div/div/div/div/div/div/div/ul/li/div/li/div/li/div/li/div/div/div/span'
p94
F9.980139577639157
sS'/html/body/div/div/div/div/div/div/div/div/div/div/cc/div/span/a'
p95
F8.980139577639157
sS'/html/body/div/div/div/div/div/div/div/div/ul/li/div/li/div/li/div/li/div/li/div/div/div/span'
p96
F9.980139577639157
sS'/html/body/div/div/div/div/div/div/ul/li/div/div/div/div/div/a'
p97
F2.658211482751795
sS'/html/head/script'
p98
F0.12215858251158511
sS'/html/body/div/div/div/div/div/ul/li/div/p/a/span'
p99
F6.980139577639157
sS'/html/body/div/div/div/div/div/div/ul/li/div/li/div/li/div/div/div/div/div/div/div/ul'
p100
F9.980139577639157
sS'/html/body/div/div/div/div/div/div/div/div/div/div/div/span/a'
p101
F5.073248982030639
sS'/html/body/div/div/div/div/div/div/ul/li/div/li/div/div/div/div/span/span'
p102
F4.42555072596152
sS'/html/body/div/div/div/div/div/div/div/dl/dt/span/a'
p103
F5.073248982030639
sS'/html/body/div/div/div/div/div/div/div/div/ul/li/div/li/div/li/div/li/div/li/div/div'
p104
F9.980139577639157
sS'/html/body/div/div/div/div/div/div/ul/li/div/div/div/div/div/p'
p105
F9.980139577639157
sS'/html/body/div/div/div/div/div/div/div/ul/li/a/span/span'
p106
F6.395177076918001
sS'/html/body/div/div/div/div/div/div/ul/li/div/li/div/li/div/li/div/li/div/li/div/li/div/div/div/div/div'
p107
F7.6582114827517955
sS'/html/body/div/div/div/div/div/div/div/ul/li/div/div/a/i'
p108
F7.1727846555815535
sS'/html/body/div/div/div/div/div/p/br'
p109
F6.980139577639157
sS'/html/body/div/div/div/div/div/div/div/div/div/ul/li'
p110
F1.4027107496034084
sS'/html/body/div/div/div/div/div/div/ul/li/div/li/div/div/div'
p111
F8.395177076918001
sS'/html/body/div/div/div/div/div/div/div/div/ul/li/ul/li/div/div/div/div/span/div/span/div'
p112
F9.980139577639157
sS'/html/body/div/div/div/div/div/div/ul/li/div/li/div/li/div/div/div/div/div/div/div/div/a'
p113
F7.6582114827517955
sS'/html/body/div/div/div/div/div/div/ul/li/div/div/div/i'
p114
F9.980139577639157
sS'/html/body/div/div/div/div/div/div/ul/li/div/div/div/div/div/div/div/label'
p115
F8.980139577639157
sS'/html/body/div/div/div/div/div/div/ul/li/div/div/div/div/ul/li/dl/dt/em'
p116
F9.980139577639157
sS'/html/body/div/div/div/div/div/div/ul/li/div/li/div/li/div/li/div/li/div/li/div/li/div/div/div/div/span/span'
p117
F7.6582114827517955
sS'/html/body/div/div/div/div/div/div/div/div/ul/li/div/li/div/li/div/li/div/li/div/div/div/div/div/div/div/ul/li/div'
p118
F9.980139577639157
sS'/html/body/div/div/div/div/div/div/ul/li/div/div/div/a'
p119
F4.6947373587769095
sS'/html/body/div/div/div/div/div/div/div/div/span'
p120
F1.3839498214947468
sS'/html/head/style'
p121
F1.67180054749975
sS'/html/body/div/div/div/div/div/div/div/div/div/div/p/i'
p122
F7.395177076918001
sS'/html/body/div/div/div/div/div/div/div/div/div/div/div/div/p'
p123
F9.980139577639157
sS'/html/body/div/div/div/div/div/div/div/span/a/img'
p124
F9.980139577639157
sS'/html/body/div/div/div/div/div/div/ul/li/div/div/div/h4/i'
p125
F8.980139577639157
sS'/html/body/div/div/div/div/div/div/ul/li/div/li/div/div/div/ul/li/div/div/p/a'
p126
F7.1727846555815535
sS'/html/body/div/div/div/div/div/div/div/div/div/div/p/a'
p127
F6.395177076918001
sS'/html/body/div/div/div/div/div/div/div/div/ul/li/div/div/div/div/span/div/a/div'
p128
F5.587822154860397
sS'/html/body/div/div/div/div/div/div/ul/li/div/li/div/li/div/li/div/li/div/li/div/li/div/div/div/div/div/a'
p129
F7.6582114827517955
sS'/html/body/div/div/div/div/div/div/div/div/div/div/cc/div/span/div/span/a'
p130
F9.980139577639157
sS'/html/body/div/div/div/div/div/div/ul/li/div/li/div/li/div/div/div/ul/li/div/div/p/i'
p131
F8.395177076918001
sS'/html/body/div/div/div/div/div/div/div/div/div/div/i'
p132
F4.6947373587769095
sS'/html/body/div/div/div/div/div/div/div/div/div/div/cc/div/div/div/div/span'
p133
F8.395177076918001
sS'/html/body/div/div/div/div/div/div/div/p/a/i'
p134
F8.980139577639157
sS'/html/body/div/div/div/div/span/span/a'
p135
F7.980139577639158
sS'/html/body/div/div/div/div/div/div/div/div/div/dl/dd/div/ul/li/div/div/a'
p136
F6.980139577639157
sS'/html/body/div/div/div/div/div/div/ul/li/div/li/div/li/div/div/div/div/div/div/div/div/button'
p137
F7.6582114827517955
sS'/html/body/div/div/div/div/div/h1/span/a'
p138
F2.0435016386365867
sS'/html/body/div/div/div/div/div/div/div/div/div/div/a'
p139
F1.596435285165105
sS'/html/body/div/div/div/div/div/div/ul/li/div/li/div/li/div/li/div/li/div/div/div/ul/li/a/span'
p140
F8.395177076918001
sS'/html/body/div/div/div/div/div/div/div/div/ul/li/div/li/div/div/div/div/ul/li/div/a'
p141
F9.980139577639157
sS'/html/body/div/div/div/div/div/div/ul/li/div/li/div/div/div/div/ins'
p142
F8.980139577639157
sS'/html/body/div/div/div/div/div/div/div/div/div/ul/li/span'
p143
F2.7322120641955716
sS'/html/body/div/div/div/div/div/div/div/div/div/div/cc/div/div/embed/span/a'
p144
F8.395177076918001
sS'/html/body/div/div/div/div/div/div/div/div/div/div/p'
p145
F8.980139577639157
sS'/html/body/div/div/div/div/div/div/div/div/div/ul/li/span/a'
p146
F3.2522191230759585
sS'/html/body/div/div/table/tr/td/div'
p147
F7.980139577639158
sS'/html/body/div/div/div/div/div/div/ul/li/div/li/div/li/div/li/div/li/div/li/div/li/div/div/div/div/div/a/span'
p148
F9.980139577639157
sS'/html/body/div/div/div/div/div/div/p/input'
p149
F0.6138173633933413
sS'/html/body/div/div/div/div/div/div/ul/li/div/li/div/li/div/li/div/li/div/li/div/div/div/ul/li/div/a/img'
p150
F7.6582114827517955
sS'/html/body/div/div/div/div/div/div/div/div/span/i'
p151
F9.980139577639157
sS'/html/body/div/div/div/div/div/div/div/div/div/div/div/div/div/div/div/div/div/div'
p152
F6.6582114827517955
sS'/html/body/div/div/div/div/div/div/div/div/div/div/cc/div/embed'
p153
F9.980139577639157
sS'/html/body/div/div/div/div/div/div/div/div/span/a'
p154
F3.395177076918001
sS'/html/body/div/div/div/div/div/div/div/div/div/a/img'
p155
F4.198779864114498
sS'/html/body/div/div/div/div/div/div/div/div/div/div/div/div/div/div/div/p/a'
p156
F5.336283387864433
sS'/html/body/div/div/div/div/div/div/ul/li/div/div/div/p/a'
p157
F7.1727846555815535
sS'/html/body/div/div/div/div/div/table/tr/th'
p158
F9.980139577639157
sS'/html/body/div/div/div/div/div/div/div/div/div/div/div/ul/li/div/div/div/div/div/div/span'
p159
F9.980139577639157
sS'/html/body/div/div/div/div/div/div/div/div/ul/li/div/li/div/li/div/li/div/div/div/div/div/span'
p160
F9.980139577639157
sS'/html/body/div/div/div/div/div/table/tr/td'
p161
F9.980139577639157
sS'/html/body/div/div/div/div/div/div/div/div/ul/li/div/div/div/div/span/div'
p162
F5.587822154860397
sS'/html/body/div/div/div/div/div/div/div/div/div/span/strong'
p163
F9.980139577639157
sS'/html/body/div/div/div/div/div/div/div/dl/a/dd/div/div/div/div'
p164
F8.980139577639157
sS'/html/body/div/div/div/div/div/div/ul/li/div/li/div/li/div/li/div/div/div/div/div/div/div/ul/li/div'
p165
F7.6582114827517955
sS'/html/body/div/div/div/div/div/div/div/div/ul/li/div/div/div/div/div/div/div/div/div'
p166
F5.732212064195571
sS'/html/body/div/div/div/div/div/div/div/dl/dd/div/ul/li/div/p/br'
p167
F9.980139577639157
sS'/html/body/div/div/div/div/div/div/div/div/ul/li/dl/dt/span'
p168
F9.980139577639157
sS'/html/body/div/div/p/img'
p169
F3.892676736388818
sS'/html/body/div/div/div/div/div/div/ul/li/div/div/div/ul/li/a/span'
p170
F7.1727846555815535
sS'/html/body/div/div/div/div/div/div/div/div/ul/li'
p171
F2.830392458134475
sS'/html/body/div/div/div/div/div/div/div/dl/dd/div'
p172
F5.073248982030639
sS'/html/body/div/div/div/div/div/div/div/ul/li/div/div/div/a'
p173
F9.980139577639157
sS'/html/body/div/div/div/div/div/div/div/div/div/div/div/div/div/div/div/div/div'
p174
F4.810214576196845
sS'/html/body/div/div/div/div/div/div/ul/li/div/li/div/li/div/li/div/li/div/div/div/p/span'
p175
F7.6582114827517955
sS'/html/body/div/div/div/div/div/div/div/div/a/i'
p176
F2.2252520754756886
sS'/html/body/div/div/div/div/div/div/div/div/ul/li/div/li/div/li/div/li/div/li/div/li/div/div/div/div/div/span/a'
p177
F9.980139577639157
sS'/html/body/div/div/div/div/div/div/ul/li/div/li/div/li/div/div/div/span'
p178
F6.980139577639157
sS'/html/body/div/div/div/div/div/div/div/div/ul/li/div/li/div/li/div/li/div/li/div/div/div/div/ul/li/div/a'
p179
F9.980139577639157
sS'/html/body/div/div/div/div/div/div/div/div/div/dl/dd/div/ul/li/div/p/span'
p180
F9.980139577639157
sS'/html/body/div/div/div/div/div/div/ul/li/div/li/div/div/h4/span/a'
p181
F8.395177076918001
sS'/html/body/div/div/div/div/div/div/ul/li/ul/li/div/a'
p182
F3.0376250722999174
sS'/html/body/div/div/div/div/div/form/button'
p183
F7.1727846555815535
sS'/html/body/div/div/div/div/div/div/div/div/ul/li/div/li/div/div/div/div/div/span/a'
p184
F7.6582114827517955
sS'/html/body/div/div/div/div/div/div/ul/li/div/li/div/li/div/li/div/li/div/div/div/div/div/span/a'
p185
F7.6582114827517955
sS'/html/body/div/div/div/div/div/div/div/div/ul/li/div/li/div/li/div/li/div/div/div/div/div/div/div/ul/li/img'
p186
F9.980139577639157
sS'/html/body/div/div/div/div/div/div/ul/li/div/li/div/li/div/li/div/li/div/li/div/div/div/div/span/a'
p187
F7.6582114827517955
sS'/html/body/div/div/div/div/div/div/div/div/form/div'
p188
F5.732212064195571
sS'/html/body/div/div/div/div/div/div/ul/li/div/li/div/li/div/li/div/li/div/div/div/div/span/span'
p189
F7.395177076918001
sS'/html/body/div/div/div/div/div/div/h2/span'
p190
F8.980139577639157
sS'/html/body/div/div/div/div/div/div/div/div/ul/li/img'
p191
F9.980139577639157
sS'/html/body/div/div/div/div/div/div/ul/li/div/li/div/li/div/div/div/div/div/div/div/div'
p192
F7.1727846555815535
sS'/html/body/div/div/div/div/div/div/ul/li/div/li/div/li/div/li/div/li/div/li/div/div/div/div/span/i'
p193
F7.6582114827517955
sS'/html/body/div/div/div/div/div/div/div/div/ul/li/ul/li/div/div/div/div/span/a'
p194
F6.395177076918001
sS'/html/body/div/div/div/div/div/div/div/div/ul/li/div/li/div/div/div/div/div/a'
p195
F6.810214576196845
sS'/html/body/div/div/div/div/div/div/div/div/h4/a'
p196
F7.980139577639158
sS'/html/body/div/div/div/div/div/div/div/div/ul/li/dl/dt/a'
p197
F9.980139577639157
sS'/html/body/div/div/div/div/div/div/div/ul/li/div/p/a'
p198
F6.395177076918001
sS'/html/body/div/div/div/div/div/div/div/ul/li/input'
p199
F2.0435016386365867
sS'/html/body/div/div/div/div/div/div/div/div/ul/li/div/div/div/div/div/div/div/ul/li/div/div/div'
p200
F6.810214576196845
sS'/html/body/div/div/div/div/div/div/div/div/ul/li/div/li/div/div/div/div/span/span'
p201
F6.810214576196845
sS'/html/body/div/div/div/div/div/div/div/div/div/ul/li/a/img'
p202
F7.6582114827517955
sS'/html/body/div/div/div/div/div/div/div/div/div/div/span/span'
p203
F6.980139577639157
sS'/html/body/div/div/div/div/div/div/ul/li/div/li/div/li/div/div/div/div/div/div/div/ul/li/div/a'
p204
F6.810214576196845
sS'/html/body/div/div/div/div/div/div/ul/li/div/li/div/div/h3'
p205
F7.1727846555815535
sS'/html/body/div/div/div/div/div/div/ul/div/div'
p206
F2.358087758182781
sS'/html/body/div/div/div/div/div/div/h4/a'
p207
F7.980139577639158
sS'/html/body/div/div/div/div/div/div/div/div/div/div/div/div/table/tbody/tr/td'
p208
F1.653710090516854
sS'/html/body/div/div/div/div/div/div/span'
p209
F0.568628589627086
sS'/html/body/div/p/a'
p210
F3.892676736388818
sS'/html/body/div/div/div/div/div/div/h4/i'
p211
F3.097496528277316
sS'/html/body/div/div/div/div/div/div/ul/li/div/li/div/div/div/div/div/div/div/ul/li/div/div/div'
p212
F5.980139577639157
sS'/html/body/div/div/div/div/div/div/ul/li/a/img'
p213
F2.0553270740333764
sS'/html/body/div/div/div/div/div/div/div/dl/dd/div/ul/li/div/span/a'
p214
F5.073248982030639
sS'/html/body/div/div/div/div/div/a/span'
p215
F8.395177076918001
sS'/html/body/div/div/div/div/div/div/div/div/div/div/div/ul/li/div/a'
p216
F7.395177076918001
sS'/html/body/div/div/div/div/div/div/div/ul/li/div/div/span'
p217
F6.980139577639157
sS'/html/body/div/div/div/div/div/div/ul/li/div/li/div/li/div/div/div/div/div/div/div/ul/li/div/div/div'
p218
F6.810214576196845
sS'/html/body/div/div/div/div/div/div/div/ul/li/a'
p219
F0.8873824367193047
sS'/html/body/div/div/div/div/div/div/img'
p220
F2.713353036944256
sS'/html/body/div/div/div/div/div/div/div/div/div/div/div/ul/li/div/div/div/div/a'
p221
F9.980139577639157
sS'/html/body/div/div/div/div/div/div/h1/span'
p222
F1.9857861407802995
sS'/html/body/div/div/div/div/div/div/div/div/div/div/div/ul/li/a/div/p'
p223
F9.980139577639157
sS'/html/body/div/div/div/div/div/div/ul/li/div/li/div/div/span'
p224
F4.42555072596152
sS'/html/body/div/div/div/div/div/div/ul/li/div/li/div/div/h4/span'
p225
F8.395177076918001
sS'/html/body/div/div/div/div/div/div/ul/li/div/div/div/div/div/div/div/em'
p226
F8.980139577639157
sS'/html/body/div/div/div/div/div/div/div/div/ul/li/div/li/div/li/div/li/div/div/div/div/div/div/div/div/div'
p227
F8.980139577639157
sS'/html/body/div/div/div/div/div/div/ul/div/div/ul/li/img'
p228
F4.658211482751795
sS'/html/body/div/div/div/div/div/div/ul/li/a/span/span'
p229
F7.980139577639158
sS'/html/body/div/div/div/div/div/div/ul/li/div/li/div/li/div/li/div/li/div/div/div/div/ul/li/dl/dt/em/i'
p230
F9.980139577639157
sS'/html/body/div/div/div/div/div/div/div/div/div/ul/li/div/span/div'
p231
F5.225252075475689
sS'/html/body/div/div/div/div/div/div/ul/li/div/li/div/div/div/div/div/ul/li/i'
p232
F8.395177076918001
sS'/html/body/div/div/div/div/div/div/div/div/ul/li/div/li/div/li/div/div/div/div/div/a'
p233
F7.980139577639158
sS'/html/body/div/div/div/div/div/div/div/div/div/div/cc/br'
p234
F1.3914249420568934
sS'/html/body/div/div/div/div/div/div/div/div/div/div/div/div/div/a/span'
p235
F8.395177076918001
sS'/html/body/div/div/div/div/div/div/div/div/div/div/cc/div/span/div/img'
p236
F9.980139577639157
sS'/html/body/div/div/div/div/div/div/div/div/ul/li/div/li/div/li/div/li/div/li/div/code'
p237
F9.980139577639157
sS'/html/body/div/div/div/div/div/div/div/div/div/dl/dd/div/a'
p238
F6.980139577639157
sS'/html/body/div/div/div/div/div/div/div/div/ul/li/div/li/div/li/div/div/div/div/span'
p239
F7.6582114827517955
sS'/html/body/div/div/div/div/div/div/div/div/div/div/div/ul/li/div/div/div/a'
p240
F9.980139577639157
sS'/html/body/div/div/div/div/div/div/div/dl/dd/div/ul/li/div/p/span'
p241
F9.980139577639157
sS'/html/body/div/div/div/div/div/div/ul/li/div/a'
p242
F7.6582114827517955
sS'/html/body/div/div/div/div/div/div/div/div/div/div/div/button'
p243
F2.6402895747545325
sS'/html/body/div/div/div/div/div/div/ul/li/div/li/div/li/div/li/div/li/div/li/div/div/div/div/div/div/div/div'
p244
F8.980139577639157
sS'/html/body/div/div/div/div/div/div/div/div/div/div/div/div/div/div/table/tbody/tr/td'
p245
F5.279699859498065
sS'/html/body/div/div/div/div/div/div/ul/li/div/li/div/div/div/div/span/span/a'
p246
F5.456577621582144
sS'/html/body/div/div/div/div/div/div/div/div/div/div/ul/li/div/a/img'
p247
F5.1727846555815535
sS'/html/body/div/div/div/div/div/div/div/div/div/div/cc/div/span/br'
p248
F8.395177076918001
sS'/html/body/div/div/div/div/div/div/div/p'
p249
F2.713353036944256
sS'/html/body/div/div/div/div/div/div/ul/li/div/div/div/div/span'
p250
F2.6402895747545325
sS'/html/body/div/div/div/div/div/div/ul/li/div/li/div/li/div/li/div/div/span'
p251
F6.810214576196845
sS'/html/body/div/div/div/div/div/div/ul/li/div/li/div/div/div/div/div/div/div/ul/li/div/a'
p252
F5.980139577639157
sS'/html/body/div/div/div/div/ul/li/a'
p253
F6.810214576196845
sS'/html/body/div/div/div/div/div/div/div/div/div/div/div/div/div/div/div/div/div/span'
p254
F1.5665116486149848
sS'/html/body/div/div/div/div/div/div/div/b'
p255
F3.935745458280704
sS'/html/body/div/div/div/div/div/div/div/div/div/dl/dd/div/div'
p256
F6.980139577639157
sS'/html/body/div/div/div/div/div/div/div/a'
p257
F0.1906059326687972
sS'/html/body/div/div/div/div/div/div/div/div/ul/li/div/div/div/ul/li/span'
p258
F8.980139577639157
sS'/html/body/div/div/div/div/div/div/div/div/ul/li/div/li/div/div/div/div/span/a'
p259
F6.810214576196845
sS'/html/body/div/div/div/div/div/div/ul/li/div/div/div/ul/li/a/img'
p260
F7.1727846555815535
sS'/html/body/div/div/div/div/div/div/ul/li/div/li/div/div/div/span'
p261
F7.1727846555815535
sS'/html/body/div/div/div/div/div/div/ul/li/div/li/div/div/div/div/div/div/div/ul/li/div'
p262
F4.52070795900186
sS'/html/body/div/div/div/div/div/div/div/div/ul/li/div/li/div/div/div/div/span/div'
p263
F6.980139577639157
sS'/html/body/div/div/div/div/div/div/ul/li/div/div/div/div/div/div/div/ul/li/div'
p264
F2.6855188287475302
sS'/html/body/div/div/div/div/div/div/ul/li/div/li/div/li/div/div/div/p/span'
p265
F9.980139577639157
sS'/html/body/div/div/div/div/div/div/div/div/div/span/span'
p266
F2.596435285165105
sS'/html/body/div/div/div/div/div/div/h4/span'
p267
F3.097496528277316
sS'/html/body/div/div/div/div/div/div/ul/li/div/li/div/li/div/li/div/li/div/li/div/div/div/div/span'
p268
F7.6582114827517955
sS'/html/body/div/div/div/div/div/div/div/div/ul/li/div/li/div/li/div/li/div/li/div/li/div/div/div/div/div/div/div/div/div'
p269
F9.980139577639157
sS'/html/body/div/div/div/div/div/div/div/div/ul/li/div/li/div/li/div/div/div/div/span/div/a/div'
p270
F7.6582114827517955
sS'/html/body/div/div/div/div/div/div/div/div/ul/li/div/li/div/li/div/li/div/li/div/li/div/div'
p271
F9.980139577639157
sS'/html/body/div/div/div/div/div/div/div/div/ul/li/ul/li/div/div/div/div/span/a/img'
p272
F8.980139577639157
sS'/html/body/div/div/div/link'
p273
F9.980139577639157
sS'/html/body/div/div/div/div/div/div/div/div/div/dl/dd/span'
p274
F6.980139577639157
sS'/html/body/div/div/div/div/div/div/div/div/div/button'
p275
F3.061276340364563
sS'/html/body/div/div/div/span'
p276
F1.8002304876242228
sS'/html/body/div/div/div/div/div/div/ul/li'
p277
F2.7903150187591397
sS'/html/body/div/div/div/div/div/div/div/div/ul/li/div/li/div/div/div/div/div/div/div/div/div'
p278
F7.395177076918001
sS'/html/body/div/div/div/div/div/div/div/ul/li/div/div/div/span/em'
p279
F9.980139577639157
sS'/html/body/div/div/div/div/div/div/div/div/p/a'
p280
F4.365429733523949
sS'/html/body/div/div/div/div/div/div/ul/li/div/li/div/li/div/li/div/li/div/li/div/li/div/div/div/div/div/div/div/ul/li/div'
p281
F7.6582114827517955
sS'/html/body/div/div/div/div/div/div/ul/li/div/li/div/li/div/li/div/li/div/li/div/div/div/ul/li/div/div/a'
p282
F7.6582114827517955
sS'/html/body/div/div/div/div/div/div/div'
p283
F2.3290878864602287
sS'/html/body/div/div/div/div/div/div/div/a/span'
p284
F2.025943267252282
sS'/html/body/div/div/div/div/div/div/p/label'
p285
F0.6138173633933413
sS'/html/body/div/div/div/div/div/div/ul/li/div/li/div/div/div/div/div/span'
p286
F5.980139577639157
sS'/html/body/div/div/div/div/div/div/div/div/div/div/div/img'
p287
F2.722751734946505
sS'/html/body/div/div/div/div/div/div/div/div/ul/li/div/li/div/code'
p288
F9.980139577639157
sS'/html/body/div/div/div/div'
p289
F2.2936390504559387
sS'/html/body/div/div/div/div/div/div/div/div/ul/li/div/li/div/div/div/div/div/div/a/span/span/span'
p290
F9.980139577639157
sS'/html/body/div/div/div/div/div/div/ul/li/div/li/div/li/div/div/div/div/div/div/div/ul/li/div'
p291
F6.395177076918001
sS'/html/body/div/div/div/div/div/div/ul/li/div/li/div/li/div/div/div/div/div/div/div/div/div/button'
p292
F7.6582114827517955
sS'/html/body/div/div/div/div/div/div/div/div/ul/li/ul/li/div/div/div/div/span/div/a/div'
p293
F6.520707959001861
sS'/html/body/div/div/div/div/div/div/ul/li/div/div/div/p/em'
p294
F7.395177076918001
sS'/html/body/div/div/style'
p295
F3.52070795900186
sS'/html/body/div/div/div/div/div/div/div/div/div/div/div/ul/li/i'
p296
F6.2796998594980655
sS'/html/body/div/div/div/div/div/div/ul/li/div/li/div/li/div/li/div/li/div/div/div/ul/li/div/a/img'
p297
F7.6582114827517955
sS'/html/body/div/div/div/div/div/ul/li/div'
p298
F7.6582114827517955
sS'/html/body/div/div/div/div/div/div/ul/li/div/li/div/li/div/li/div/li/div/li/div/div/div/div/div/div/div/ul/li/div/div/div'
p299
F7.6582114827517955
sS'/html/body/div/div/div/div/div/div/div/div/div/div/div/div/div/p/span'
p300
F1.653710090516854
sS'/html/body/div/div/div/div/div/div/ul/li/div/li/div/li/div/div/div/div/div/div/div/div/label/input'
p301
F7.6582114827517955
sS'/html/body/div/div/div/div/div/div/ul/li/div/li/div/li/div/div/div'
p302
F9.980139577639157
sS'/html/body/div/div/div/div/div/div/div/div/div/div/div/a/span'
p303
F4.658211482751795
sS'/html/body/div/div/div/div/div/div/ul/li/div/li/div/div/div/p/em'
p304
F8.980139577639157
sS'/html/body/div/div/div/div/div/div/script'
p305
F9.980139577639157
sS'/html/body/div/div/div/div/div/div/div/div/div/div/div/div/span/span/a'
p306
F1.5792601413569727
sS'/html/body/div/div/div/div/div/div/div/div/ul/li/div/li/div/div/div/i'
p307
F9.980139577639157
sS'/html/body/div/div/div/div/div/div/div/div/div/div/cc/div/p/span/a'
p308
F8.395177076918001
sS'/html/body/div/div/div/div/div/div/div/div/div/div/div/div/div/div/div/table/tbody/tr/td'
p309
F6.6582114827517955
sS'/html/body/div/div/div/div/div/div/div/div/div/div/ul/li/i'
p310
F5.025943267252282
sS'/html/body/div/div/div/div/div/form/i'
p311
F7.1727846555815535
sS'/html/body/div/div/div/div/div/div/div/ul/li/div/p/a/span'
p312
F9.980139577639157
sS'/html/body/div/div/div/div/div/div/ul/li/div/div/ul'
p313
F8.980139577639157
sS'/html/body/div/div/div/div/div/div/div/div/div/div/div/div/div/div/div/div/div/a/span/em'
p314
F5.980139577639157
sS'/html/body/div/div/div/div/div/ul/a'
p315
F8.980139577639157
sS'/html/body/div/div/div/div/div/div/ul/li/div/li/div/div/div/div/span/a'
p316
F4.42555072596152
sS'/html/body/div/div/div/div/div/div/ul/li/h4/span'
p317
F9.980139577639157
sS'/html/body/div/div/div/div/div/div/ul/li/div/div/div/a/i'
p318
F7.1727846555815535
sS'/html/body/div/div/div/div/div/div/ul/li/div/li/div/div/div/div/div/p/a'
p319
F9.980139577639157
sS'/html/body/div/div/div/p'
p320
F5.810214576196844
sS'/html/body/div/div/div/div/div/div/ul/li/div/li/div/div/div/div/span/i'
p321
F4.42555072596152
sS'/html/body/div/div/div/div/div/span'
p322
F1.3802267354520295
sS'/html/body/div/div/div/div/div/div/div/div/div/a/span'
p323
F2.1857237112890515
sS'/html/body/div/div/div/div/div/div/div/div/div/div/div/div/div/div/div/div/div/div/div/div/div/div/span'
p324
F6.6582114827517955
sS'/html/body/div/div/div/div/div/div/div/div/ul/li/div/div/div/div/div/div/div/ul/li/div/a'
p325
F6.810214576196845
sS'/html/body/div/div/div/div/div/div/h4/span/a'
p326
F3.097496528277316
sS'/html/body/div/div/div/div/div/div/p'
p327
F1.8716151208609881
sS'/html/body/div/div/div/div/ul/li/div'
p328
F8.980139577639157
sS'/html/body/div/div/div/div/div/div/div/dl/dd/a'
p329
F5.073248982030639
sS'/html/body/div/div/div/div/div/div/div/div/div/div/div/div/p/a'
p330
F8.980139577639157
sS'/html/body/div/div/div/div/div/div/div/span/strong'
p331
F9.980139577639157
sS'/html/body/div/div/div/div/div/div/div/div/div/div/div/div/p/b'
p332
F9.980139577639157
sS'/html/body/div/div/div/div/div/div/ul/li/div/li/div/li/div/li/div/div/div/div/div/div/div/ul/li/div/div/div'
p333
F7.395177076918001
sS'/html/body/div/div/div/div/div/div/div/div/div/div/span'
p334
F5.336283387864433
sS'/html/body/div/div/div/div/div/div/div/div/div/div/div/div/a/img'
p335
F9.980139577639157
sS'/html/body/div/div/div/div/div/div/div/div/div/div/div/div/p/i'
p336
F9.980139577639157
sS'/html/body/div/div/div/div/div/div/ul/li/div/li/div/li/div/li/div/li/div/div/div/div/span/i'
p337
F7.395177076918001
sS'/html/body/div/div/div/div/div/div/ul/li/script'
p338
F7.395177076918001
sS'/html/body/div/div/div/div/div/ul/li/div/p/a'
p339
F2.9140503871813843
sS'/html/body/div/div/div/div/div/div/div/div/ul/li/div/li/div/div/ul/li/a'
p340
F9.980139577639157
sS'/html/body/div/div/div/div/div/div/ul/div/div/div/div/span'
p341
F3.8102145761968447
sS'/html/body/div/div/div/div/div/div/div/div/div/div/ul/li/span/a'
p342
F8.395177076918001
sS'/html/body/div/div/div/div/div/div/div/div/ul/li/div/li/div/li/div/li/div/li/div/li/div/li/div/div'
p343
F9.980139577639157
sS'/html/body/div/div/div/div/div/div/div/ul'
p344
F8.395177076918001
sS'/html/body/div/div/div/div/div/div/ul/li/div/li/div/li/div/li/div/li/div/div/div'
p345
F7.6582114827517955
sS'/html/body/div/div/div/div/div/div/div/div/ul/li/ul/li/div/div/div'
p346
F6.2796998594980655
sS'/html/body/div/div/div/div/div/div/div/div/ul/li/div/li/div/li/div/li/div/li/div/div/div/div/div/div/div/ul/li/div/img'
p347
F9.980139577639157
sS'/html/body/div/div/div/div/div/div/div/div/div/dl/dd/span/span/a'
p348
F6.980139577639157
sS'/html/body/div/div/div/div/div/div/div/div/form/span/a'
p349
F3.935745458280704
sS'/html/body/div/div/div/div/div/div/div/div/ul/li/div/div/div/div/span/i'
p350
F8.980139577639157
sS'/html/body/form/p/button'
p351
F3.892676736388818
sS'/html/body/div/div/div/div/div/div/div/div/ul/li/div/script'
p352
F8.980139577639157
sS'/html/body/div/div/div/span/span/a'
p353
F6.2796998594980655
sS'/html/body/div/div/div/div/div/div/div/div/ul/li/ul/li/div/div/div/div/span/div'
p354
F6.810214576196845
sS'/html/body/div/div/div/div/div/div/div/div/ul/li/div/div/div/div/span/a'
p355
F5.587822154860397
sS'/html/body/div/div/div/div/div/div/div/div/div/div/div/div/div/div/div/div/p/a'
p356
F6.810214576196845
sS'/html/body/div/div/link'
p357
F8.395177076918001
sS'/html/body/div/div/div/p/a/img'
p358
F9.980139577639157
sS'/html/body/div/div/div/div/div/div/div/div/ul/li/div/li/div/li/div/li/div/li/div/div/div/div/span'
p359
F9.980139577639157
sS'/html/body/div/div/div/div/div/div/div/div/div/div/div/div/br'
p360
F2.440980766531126
sS'/html/body/div/div/div/div/div/div/div/div/ul/li/div/li/div/li/div/li/div/div/div/div/div'
p361
F8.980139577639157
sS'/html/body/div/div/div/div/div/div/div/div/div/div/div/div/input'
p362
F5.073248982030639
sS'/html/body/div/div/div/div/div/div/ul/li/div/li/div/li/div/li/div/li/div/div/div/div/div/div/div/ul/li/div/img'
p363
F7.6582114827517955
sS'/html/body/div/div/div/div/div/div/div/div/ul/li/div/li/div/div/div/span'
p364
F7.980139577639158
sS'/html/body/div/div/div/div/div/div/div/div/div/ul/li/a/div'
p365
F9.980139577639157
sS'/html/body/div/div/div/div/div/div/div/span'
p366
F4.307714235667662
sS'/html/body/div/div/div/div/div/div/div/div/ul/li/div/li/div/div/div/div/span/div/a/div'
p367
F7.1727846555815535
sS'/html/body/div/div/div/div/div/div/ul/li/div/div/div/div/div/div/div/ul/li/a/img'
p368
F2.6855188287475302
sS'/html/body/div/div/div/div/div/div/ul/li/div/li/div/li/div/li/div/li/div/div/div/div/div/div/div/ul/li/div'
p369
F8.980139577639157
sS'/html/body/div/div/div/div/div/div/div/div/ul/li/div/div/div/div/div/a/span/img'
p370
F8.395177076918001
sS'/html/body/div/div/div/div/div/div/div/div/ul/li/div/li/div/li/div/li/div/div/div/div/div/div/div/ul/li/div'
p371
F8.980139577639157
sS'/html/body/div/div/div/div/div/div/ul/li/div/li/div/li/div/div/div/div/div/ul/li/i'
p372
F9.980139577639157
sS'/html/body/div/div/div/div/div/div/div/div/div/div/cc/div/div/strong/br'
p373
F9.980139577639157
sS'/html/body/div/div/div/div/div/div/div/div/ul/li/div/li/div/li/div/li/div/li/div/div/div/a'
p374
F9.980139577639157
sS'/html/body/div/div/div/div/div/h1/a'
p375
F1.9302910281885957
sS'/html/body/div/div/div/div/div/div/div/div/div/div/div/div/div/div/div/a/span/em/b'
p376
F1.653710090516854
sS'/html/body/div/div/div/div/span/a/img'
p377
F8.980139577639157
sS'/html/body/div/div/div/div/div/h3'
p378
F8.980139577639157
sS'/html/body/div/div/div/div/div/h2'
p379
F9.980139577639157
sS'/html/body/div/div/div/div/div/h1'
p380
F2.0553270740333764
sS'/html/body/div/div/div/div/div/div/div/div/ul/li/div/li/div/li/div/li/div/li/div/div/div/i'
p381
F9.980139577639157
sS'/html/body/div/div/div/div/div/div/ul/li/div/div/div/div/span/span'
p382
F2.6492226995245405
sS'/html/body/div/div/div/div/div/div/ul/li/div/li/div/li/div/li/div/div/div/a'
p383
F9.980139577639157
sS'/html/body/div/div/div/div/div/form/div'
p384
F7.395177076918001
sS'/html/body/div/div/div/div/div/div/div/div/div/div/img'
p385
F7.980139577639158
sS'/html/body/div/div/div/div/div/div/ul/li/div/div/h4/a'
p386
F9.980139577639157
sS'/html/body/div/div/div/div/input'
p387
F8.980139577639157
sS'/html/body/div/div/div/div/div/div/div/dl/dd/div/ul/li/div/div/a'
p388
F5.073248982030639
sS'/html/body/div/div/img'
p389
F6.2796998594980655
sS'/html/body/div/div/div/div/div/div/ul/li/div/li/div/li/div/li/div/li/div/div/div/div/div/button'
p390
F7.6582114827517955
sS'/html/body/div/div/div/div/div/div/ul/li/ul/li/div/div/span'
p391
F3.0376250722999174
sS'/html/body/div/div/div/div/div/div/div/div/div/div/div/div/div/div/input'
p392
F8.395177076918001
sS'/html/body/div/div/div/div/div/div/div/div/div/div/cc/div/span/strong'
p393
F6.980139577639157
sS'/html/body/div/div/div/div/div/div/ul/li/div/li/div/li/div/li/div/div/div/div/div/div/div/ul/li/div/img'
p394
F7.395177076918001
sS'/html/body/div/div/div/div/div/div/div/div/ul/li/div/li/div/div/div/ul/li/a'
p395
F9.980139577639157
sS'/html/body/div/div/div/div/div/div/div/div/ul/li/div/div/div/div/a'
p396
F5.587822154860397
sS'/html/body/div/div/div/div/div/div/span/ul/li'
p397
F9.980139577639157
sS'/html/body/div/div/div/div/div/div/div/dl/dd/div/ul/li/div/div/p'
p398
F5.073248982030639
sS'/html/body/div/div/div/div/div/div/div/div/div/div/div/div/a/span/img'
p399
F7.980139577639158
sS'/html/body/div/div/div/div/div/div/ul/li/div/div/span'
p400
F2.6225875730210735
sS'/html/body/div/div/div/div/div/div/ul/li/div/li/div/div/div/div/div/div/div/ul/li/div/li/a/img'
p401
F8.395177076918001
sS'/html/body/div/div/div/div/div/div/div/div/ul/li/div/div/div/div/ul/li/div/a'
p402
F8.395177076918001
sS'/html/body/div/div/div/div/div/div/div/dl/dd/div/ul/li/div/p/a/img'
p403
F5.225252075475689
sS'/html/body/div/div/div/div/div/div/div/div/div/div/div/div/div/p/a'
p404
F9.980139577639157
sS'/html/body/div/div/div/div/div/div/ul/li/div/li/div/li/div/div/div/div/a'
p405
F5.980139577639157
sS'/html/body/div/div/div/div/div/div/ul/li/button'
p406
F2.0553270740333764
sS'/html/body/div/div/div/div/div/div/ul/li/div/li/div/li/div/div/div/div'
p407
F9.980139577639157
sS'/html/body/div/div/div/div/div/div/ul/li/div/li/div/li/div/li/div/li/div/li/div/li/div/div/div/div/div/div/div/ul/li/a/img'
p408
F7.6582114827517955
sS'/html/body/div/div/div/div/div/div/div/div/ul/li/div/li/div/li/div/div/div/div/span/div'
p409
F7.980139577639158
sS'/html/body/div/div/div/div/div/div/ul/li/div/li/div/li/div/li/div/li/div/li/div/li/div/div/div/div/div/div/div/div'
p410
F9.980139577639157
sS'/html/body/div/div/div/div/div/div/div/ul/li/div/ul'
p411
F9.980139577639157
sS'/html/head/link'
p412
F0.0014291185327997152
sS'/html/body/div/div/div/div/div/div/ul/li/div/li/div/li/div/div/div/div/div/div/div/ul/li/a'
p413
F9.980139577639157
sS'/html/body/div/div/div/div/div/div/ul/li/div/div/div/div/a/img'
p414
F8.980139577639157
sS'/html/body/div/div/div/div/div/div/div/div/div/div/cc/div/div/a/img'
p415
F7.6582114827517955
sS'/html/body/div/div/div/div/div/div/div/div/ins'
p416
F3.3219280948873626
sS'/html/body/div/div/div/div/div/div/div/div/div/div/div/span'
p417
F1.064260198803384
sS'/html/body/div/div/div/div/div/div/ul/li/div/div/h4/span/a'
p418
F7.1727846555815535
sS'/html/body/div/div/div/div/div/div/div/div/div/p/i'
p419
F6.395177076918001
sS'/html/body/div/div/div/div/div/div/ul/li/div/li/div/li/div/li/div/li/div/li/div/div/div/div/span/span/a/div'
p420
F8.395177076918001
sS'/html/body/div/div/form/span/a'
p421
F7.980139577639158
sS'/html/body/div/div/div/div/div/div/div/div/div/div/div/ul/div/li/div/a'
p422
F3.456577621582144
sS'/html/body/div/div/div/div/div/div/div/div/div/p/a'
p423
F4.365429733523949
sS'/html/body/div/div/div/div/div/div/div/div/div/dl/dd/div/ul/li/div/p/a/img'
p424
F7.1727846555815535
sS'/html/body/div/div/div/div/div/div/div/div/div/div/div/div/div/div/div/div/div/div/a/span/em/b'
p425
F7.395177076918001
sS'/html/body/div/div/div/div/div/div/div/div/div/p/b'
p426
F7.1727846555815535
sS'/html/body/div/div/div/div/div/div/ul/li/div/li/div/li/div/li/div/li/div/div/div/div/ul/li/dl/dt/a/img'
p427
F9.980139577639157
sS'/html/body/div/div/div/div/div/ul/li/div/div/a/i'
p428
F3.9577717646107025
sS'/html/body/div/div/div/div/div/div/ul/li/div/div/a/span'
p429
F8.980139577639157
sS'/html/body/div/div/div/div/div/div/ul/li/div/div/div/span'
p430
F4.980139577639157
sS'/html/body/div/div/div/div/div/div/ul/li/div/li/div/div/div/div/div/div/div/div'
p431
F4.980139577639157
sS'/html/body/div/div/div/div/div/div/ul/li/div/div/div/div/span/span/a'
p432
F3.4102839693082094
sS'/html/body/div/div/div/div/div/div/ul/li/div/li/div/div/div/div/a/img'
p433
F9.980139577639157
sS'/html/body/div/div/div/div/div/div/ul/li/div/li/div/li/div/div/span'
p434
F5.980139577639157
sS'/html/body/div/div/div/div/div/div/div/div/div/div/div/div/div/div/div/div/a/b'
p435
F2.713353036944256
sS'/html/body/div/div/div/div/div/div/span/span/a'
p436
F9.980139577639157
sS'/html/body/div/div/div/div/div/div/div/div/div/ul/li/div/a/img'
p437
F1.3765132326529652
sS'/html/body/div/div/div/div/div/div/div/dl/dt/span/img'
p438
F5.073248982030639
sS'/html/body/div/div/div/div/div/div/div/div/ul/li/div/li/div/div/div/div/span/div/span/div'
p439
F9.980139577639157
sS'/html/body/div/div/div/div/div/div/div/div/div/div/div/div/div/table/tbody/tr/td'
p440
F2.205352518037984
sS'/html/body/div/div/div/div/div/div/div/div/ul/li/div/li/div/li/div/li/div/li/div/div/div/div/span/div'
p441
F9.980139577639157
sS'/html/body/div/div/div/div/div/div/ul/li/div/li/div/div/div/div'
p442
F8.395177076918001
sS'/html/body/div/div/div/div/div/div/div/div/div/div/cc/div/br'
p443
F1.8716151208609881
sS'/html/body/div/div/div/div/div/div/div/div/div/dl/dt/span'
p444
F6.980139577639157
sS'/html/body/div/div/div/div/div/div/div/div/div/div/cc/div/div/span/strong/img'
p445
F9.980139577639157
sS'/html/body/div/div/div/div/div/div/div/div/ul/li/div/div/div/a/img'
p446
F8.395177076918001
sS'/html/body/div/div/div/div/div/div/div/div/ul/li/div/div/div/div/div/div/div/ul/li/div/img'
p447
F5.587822154860397
sS'/html/body/div/div/div/div/div/div/div/div/div/div/br'
p448
F1.3914249420568934
sS'/html/body/div/div/div/div/div/div/div/div/ul/li/div/div/div/div/span'
p449
F5.587822154860397
sS'/html/body/div/div/div/div/div/div/ul/li/div/li/div/li/div/li/div/li/div/div/div/div/a'
p450
F7.395177076918001
sS'/html/body/div/div/div/div/div/div/div/div/div/div/cc/div/strong/a'
p451
F9.980139577639157
sS'/html/body/div/div/div/div/div/div/div/div/div/ul/li/div/h6/span'
p452
F9.980139577639157
sS'/html/body/div/div/div/div/div/div/div/div/div/div/div/div/div/div/div/a/span/em'
p453
F1.653710090516854
sS'/html/body/div/div/div/a/img'
p454
F1.6225875730210735
sS'/html/body/div/div/div/div/div/div/div/div/ul'
p455
F7.980139577639158
sS'/html/body/div/div/table/tr/td/div/a/img'
p456
F7.980139577639158
sS'/html/body/div/div/div/div/div/div/ul/li/div/div/div/div/i'
p457
F3.279699859498065
sS'/html/body/div/div/div/div/div/div/ul/li/div/li/div/li/div/div/div/div/div/div/div/div/div/div'
p458
F7.6582114827517955
sS'/html/body/div/div/div/div/div/div/div/div/div/div/div/div/div/div/div'
p459
F0.8329346526969283
sS'/html/body/div/div/div/div/div/div/div/div/div/div/div/div/span/a'
p460
F2.52070795900186
sS'/html/body/div/div/div/div/div/div/span/span'
p461
F6.980139577639157
sS'/html/body/div/div/div/div/div/div/ul/li/div/div/div/div/div/div/div/div/a/span'
p462
F9.980139577639157
sS'/html/body/div/div/div/div/div/div/div/div/ul/li/div/li/div/li/div/li/div/div/div/div/div/div/div/ul/li/div/div/div'
p463
F9.980139577639157
sS'/html/body/div/div/div/div/div/div/div/div/div/div/ul/li'
p464
F6.520707959001861
sS'/html/body/div/div/div/div/div/div/div/div/ul/li/div/div/ul/li/div/a/img'
p465
F8.395177076918001
sS'/html/body/div/div/div/div/div/div/ul/li/div/li/div/li/div/div/div/div/span'
p466
F5.980139577639157
sS'/html/body/div/div/div/div/div/div/div/div/div/div/cc/div'
p467
F1.6007612105678948
sS'/html/body/div/div/div/div/div/div/div/div/ul/li/dl/dd/a/em'
p468
F5.225252075475689
sS'/html/body/div/div/div/div/div/div/div/div/ul/li/div/div/div/div/div/button'
p469
F8.395177076918001
sS'/html/body/div/div/div/div/div/div/div/div/div/div/cc/div/div'
p470
F2.658211482751795
sS'/html/body/div/div/div/div/div/div/div/div/ul/li/div/li/div/li/div/li/div/li/div/li/div/div/div/div/div/span'
p471
F9.980139577639157
sS'/html/body/div/div/div/div/div/div/div/div'
p472
F0.8405882252403636
sS'/html/body/div/div/div/div/div/div/div/dl/div/div'
p473
F5.336283387864433
sS'/html/body/div/div/div/div/div/div/div/div/ul/li/div/li/div/li/div/li/div/li/div/div/div/a/img'
p474
F9.980139577639157
sS'/html/body/div/div/div/div/div/div/ul/li/div/li/div/div/div/div/div/button'
p475
F8.395177076918001
sS'/html/body/div/div/div/div/div/div/div/div/div/div/h4/a'
p476
F6.395177076918001
sS'/html/body/div/div/div/div/div/div/div/div/ul/li/div/li/div/div/div/div/div/ul/li/i'
p477
F9.980139577639157
sS'/html/body/div/div/div/div/div/div/div/div/div/h4'
p478
F6.2796998594980655
sS'/html/body/div/div/div/div/div/div/div/div/div/h3'
p479
F8.980139577639157
sS'/html/body/div/div/div/div/div/div/ul/li/div/li/div/li/div/li/div/li/div/li/div/div/div/div/span/span'
p480
F7.6582114827517955
sS'/html/body/div/div/div/div/div/div/div/div/div/h1'
p481
F9.980139577639157
sS'/html/body/div/div/div/div/div/div/p/a/img'
p482
F4.52070795900186
sS'/html/body/div/div/div/div/div/div/div/div/ul/li/div/li/div/div/div/div/div/div/div/ul/li/div/div/div'
p483
F7.6582114827517955
sS'/html/body/div/div/div/div/div/div/ul/li/div/li/div/li/div/div/div/p/em'
p484
F9.980139577639157
sS'/html/body/div/div/div/div/div/div/div/div/div/div/p/b'
p485
F9.980139577639157
sS'/html/body/div/div/div/div/div/div/ul/li/div/li/div/li/div/div/div/div/span/span/span/div'
p486
F8.980139577639157
sS'/html/body/div/div/div/div/div/div/ul/li/div/div/div/div/div/div/div/div/a'
p487
F9.980139577639157
sS'/html/body/div/div/div/div/div/div/div/ul/li/div/ul/li/div'
p488
F9.980139577639157
sS'/html/body/div/div/div/div/div/div/ul/li/div/div/div/p/a/i'
p489
F9.980139577639157
sS'/html/body/div/div/div/div/div/div/div/div/ul/li/div/li/div/div/div/a/span/span'
p490
F9.980139577639157
sS'/html/body/div/div/div/div/div/div/ul/li/div/div/div/ul/li/a'
p491
F7.1727846555815535
sS'/html/body/div/div/div/div/div/div/ul/li/div/div/div/div/div/div/div/div/div/div'
p492
F9.980139577639157
sS'/html/body/div/div/div/div/div/div/ul/li/div/li/div/li/div/li/div/div/div/ul/li/div/a/img'
p493
F9.980139577639157
sS'/html/body/div/div/div/div/div/div/div/div/ul/li/div/li/div/div/div/ul/li/span'
p494
F9.980139577639157
sS'/html/body/div/div/div/div/div/div/div/div/div/ul/li/span/span'
p495
F3.097496528277316
sS'/html/body/div/div/div/div/div/div/div/div/div/div/div/div/label/input'
p496
F7.1727846555815535
sS'/html/body/div/div/div/div/div/div/div/div/div/div/div/div'
p497
F0.9221478548799812
sS'/html/body/div/div/div/div/div/div/div/div/div/div/div/div/div/div/div/table/thead/tr/td'
p498
F6.6582114827517955
sS'/html/body/style'
p499
F6.980139577639157
sS'/html/body/div/div/div/div/div/div/div/div/ul/li/div/div/ul/li/a'
p500
F8.395177076918001
sS'/html/body/div/div/div/div/div/div/div/div/ul/li/a/span'
p501
F2.1922370182477255
sS'/html/body/div/div/div/div/div/div/div/dl/dd/div/ul'
p502
F5.225252075475689
sS'/html/body/div/div/div/div/div/div/ul/li/ul/li/div/div/div/div/span'
p503
F3.0376250722999174
sS'/html/body/div/div/div/p/span'
p504
F9.980139577639157
sS'/html/body/div/div/p'
p505
F7.980139577639158
sS'/html/body/div/div/div/div/div/div/ul/li/div/li/div/li/div/div/div/div/div/div/div/div/div'
p506
F7.6582114827517955
sS'/html/body/div/div/div/div/div/div/div/p/em'
p507
F3.2936390504559387
sS'/html/body/div/div/div/div/div/div/ul/li/div/li/div/div/div/ul/li/a/span'
p508
F8.980139577639157
sS'/html/body/div/div/div/div/div/div/ul/li/div/li/div/li/div/li/div/li/div/li/div/li/div/div/div/div/i'
p509
F8.980139577639157
sS'/html/body/div/div/div/div/div/div/ul/li/div/div/div/ul/li/div/a/img'
p510
F4.810214576196845
sS'/html/body/div/div/div/div/div/div/div/div/ul/li/div/li/div/div/div/div/div/span'
p511
F7.6582114827517955
sS'/html/body/div/div/div/div/div/div/div/div/div/div/div/div/div/div/div/div/div/div/a/b'
p512
F7.980139577639158
sS'/html/body/div/div/div/div/div/div/div/div/div/div/a/span'
p513
F1.6402895747545325
sS'/html/body/div/div/div/div/div/ul/li/a/img'
p514
F1.7180447322689778
sS'/html/body/div/div/div/div/div/div/ul/li/div/li/div/li/div/li/div/div/div/span'
p515
F9.980139577639157
sS'/html/body/div/div/div/div/div/div/div/div/ul/li/div/li/div/div/div'
p516
F6.810214576196845
sS'/html/body/div/div/div/div/div/div/div/div/div/div/div'
p517
F0.8926767363888177
sS'/html/body/div/div/div/div/div/div/ul/li/div/li/div/li/div/li/div/div/div/div/div/div/div/ul/li/a'
p518
F9.980139577639157
sS'/html/body/div/div/div/div/div/div/ul/li/div/li/div/li/div/div/div/div/span/span'
p519
F5.980139577639157
sS'/html/body/div/div/div/div/div/div/div/div/div/hr'
p520
F7.6582114827517955
sS'/html/body/div/div/div/div/div/div/div/p/label'
p521
F2.587822154860397
sS'/html/body/div/div/div/div/div/div/ul/li/div/li/div/div/div/ul/li/a'
p522
F8.395177076918001
sS'/html/body/div/div/div/div/div/div/div/div/p/i'
p523
F9.980139577639157
sS'/html/body/div/div/div/div/p'
p524
F6.980139577639157
sS'/html/body/div/div/div/div/div/div/ul/li/div/li/div/li/div/li/div/li/div/div/div/ul/li/a/img'
p525
F7.6582114827517955
sS'/html/body/div/div/div/div/div/div/form/input'
p526
F0.2971449939574741
sS'/html/body/div/div/div/div/div/div/div/div/ul/li/div/li/div/li/div/li/div/li/div/div/div/div/span/span'
p527
F9.980139577639157
sS'/html/body/div/div/script'
p528
F0.33268115118423686
sS'/html/body/div/div/div/div/div/div/div/div/div/div/cc/div/div/a/span/span'
p529
F6.073248982030639
sS'/html/body/div/div/div/div/div/div/div/span/span'
p530
F1.653710090516854
sS'/html/body/div/div/div/div/div/div/ul/li/div/div/div/div/div/button'
p531
F7.1727846555815535
sS'/html/body/div/div/div/div/div/div/ul/li/span'
p532
F1.3544307345746918
sS'/html/body/div/div/div/div/div/div/ul/li/div/li/div/div/div/div/div/a/span/img'
p533
F8.395177076918001
sS'/html/body/div/div/div/div/div/div/ul/li/div/li/div/li/div/li/div/li/div/li/div/div/div/div/span/span/a'
p534
F9.980139577639157
sS'/html/body/div/div/div/div/div/div/div/div/ul/li/div/li/div/li/div/div/div/div/div/span/a'
p535
F8.980139577639157
sS'/html/body/div/div/div/div/div/div/div/div/ul/li/div/li/div/li/div/div/div/div/div/span'
p536
F8.980139577639157
sS'/html/body/div/div/div/div/div/div/ul/li/div/li/div/div/div/div/i'
p537
F5.6582114827517955
sS'/html/body/div/div/div/div/div/div/ul/li/div/div/div/div/div/div/div/marquee/span'
p538
F8.980139577639157
sS'/html/body/div/div/div/div/div/div/div/div/div/dl/dd/div/span'
p539
F6.980139577639157
sS'/html/body/div/div/div/div/div/div/iframe'
p540
F7.1727846555815535
sS'/html/body/div/div/div/div/div/div/div/ul/li/a/img'
p541
F2.231946728049697
sS'/html/body/div/div/div/div/div/div/ul/li/div/li/div/div/div/div/a'
p542
F4.42555072596152
sS'/html/body/div/div/div/div/div/div/ul/li/div/div/div/div'
p543
F6.2796998594980655
sS'/html/body/div/div/div/div/div/div/div/div/div/div/cc/div/p/br'
p544
F8.395177076918001
sS'/html/body/div/div/div/div/div/div/div/form/a'
p545
F2.587822154860397
sS'/html/body/div/div/div/div/div/div/ul/li/div/li/div/div/div/ul/li/div/div/a'
p546
F7.1727846555815535
sS'/html/body/div/div/div/div/div/div/div/div/ul/li/div/li/div/div/div/div/ul/li/a'
p547
F9.980139577639157
sS'/html/body/div/div/div/div/div/div/ul/li/div/li/div/li/div/div/h4/i'
p548
F9.980139577639157
sS'/html/body/div/div/div/div/div/div/ul/li/div/div/div/div/div/div/p/span'
p549
F7.980139577639158
sS'/html/body/div/div/div/div/div/div/ul/li/div/li/div/li/div/li/div/div/div/div/span/span/a'
p550
F9.980139577639157
sS'/html/body/div/div/div/div/div/div/ul/li/div/li/div/div/div/ul/li/div/a'
p551
F8.395177076918001
sS'/html/body/div/div/div/div/div/div/div/div/ul/li/a/em'
p552
F5.225252075475689
sS'/html/body/div/div/div/div/div/div/div/div/ul/li/div/li/div/li/div/li/div/div/div/div/div/a'
p553
F8.980139577639157
sS'/html/body/div/div/div/div/div/div/div/div/p/em'
p554
F5.456577621582144
sS'/html/body/h2'
p555
F8.980139577639157
sS'/html/body/div/div/div/div/div/div/div/div/div/div/div/div/img'
p556
F9.980139577639157
sS'/html/body/div/div/div/div/div/div/ul/li/div/div/div/div/ul/li/dl/dd/em/i'
p557
F9.980139577639157
sS'/html/body/div/div/div/div/div/div/ul/li/div/li/div/div/div/div/span/span/span/div'
p558
F8.395177076918001
sS'/html/body/div/div/div/div/div/div/div/div/div/div/div/div/a/span'
p559
F7.1727846555815535
sS'/html/body/div/div/div/div/div/div/div/div/ul/li/div/li/div/li/div/div/div'
p560
F7.6582114827517955
sS'/html/body/div/div/div/div/div/div/div/ul/li/div/div/div'
p561
F6.6582114827517955
sS'/html/body/div/div/div/div/div/div/div/div/ul/li/div/li/div/div/div/a/img'
p562
F9.980139577639157
sS'/html/body/div/div/div/div/div/div/div/div/div/div/a/span/span'
p563
F4.980139577639157
sS'/html/body/div/div/div/div/div/div/ul/li/div/li/div/div/div/div/span/span/a/div'
p564
F4.658211482751795
sS'/html/body/div/div/div/div/div/div/div/div/div/div/cc/div/div/p/a/span'
p565
F9.980139577639157
sS'/html/body/div/div/div/div/div/div/div/div/ul/li/ul/li/div/div/div/div/span/div/a'
p566
F8.395177076918001
sS'/html/body/div/div/div/div/div/div/div/div/div/a/span/span'
p567
F2.122158582511585
sS'/html/body/div/div/div/div/div/div/div/div/ul/li/div/li/div/li/div/div/div/div/div/div/div/ul/li/div/li/div'
p568
F9.980139577639157
sS'/html/body/div/div/div/div/div/div/div/div/ul/li/div/li/div/div/div/div/span/div/a'
p569
F8.395177076918001
sS'/html/body/div/div/div/div/div/div/div/div/ul/li/div/li/div/li/div/li/div/li/div/li/div/div/div/div/div/div/div/ul/li/div'
p570
F9.980139577639157
sS'/html/body/div/div/div/div/div/div/div/dl/dd/div/a'
p571
F5.073248982030639
sS'/html/body/div/div/div/div/div/div/ul/li/div/li/div/div/div/p/span'
p572
F8.395177076918001
sS'/html/body/div/div/div/div/div/div/div/div/div/div/div/ul/li/div/a/img'
p573
F7.980139577639158
sS'/html/body/div/div/a'
p574
F4.980139577639157
sS'/html/body/div/div/div/div/div/div/ul/li/div/li/div/li/div/li/div/li/div/div/div/div/div/div/div/ul/li/a/img'
p575
F8.980139577639157
sS'/html/body/div/script'
p576
F4.850856560694191
sS'/html/body/div/div/div/div/div/div/ul/li/div/div/span/a/i'
p577
F5.122158582511585
sS'/html/body/div/div/div/div/div/div/div/div/div/ul/li/a'
p578
F1.3112545933729103
sS'/html/body/div/div/div/div/div/div/div/div/div/dl/dd/div/ul/li/div/ul/li/span'
p579
F9.980139577639157
sS'/html/body/div/div/div/div/div/div/div/div/ul/li/div/li/div/div/div/h4'
p580
F9.980139577639157
sS'/html/body/div/div/div/div/div/div/ul/li/div/div/div/div/div/span/i'
p581
F4.42555072596152
sS'/html/body/div/div/div/div/h3'
p582
F7.1727846555815535
sS'/html/body/div/div/div/div/div/div/div/div/div/div/cc/div/div/div/ul/li'
p583
F9.980139577639157
sS'/html/body/div/div/div/div/h1'
p584
F7.1727846555815535
sS'/html/body/div/div/div/div/div/div/div/div/ul/li/dl/dt/em'
p585
F5.279699859498065
sS'/html/body/div/div/div/div/ul/li/p/a/img'
p586
F8.980139577639157
sS'/html/body/div/div/div/div/div/div/div/div/ul/li/div/li/div/li/div/li/div/li/div/li/div/div/div/div/div/a'
p587
F9.980139577639157
sS'/html/body/div/div/div/div/div/table/tr/td/div/a'
p588
F8.980139577639157
sS'/html/body/div/div/div/div/div/div/ul/li/div/li/div/div/div/div/div/div/div/ul/li/a/img'
p589
F4.52070795900186
sS'/html/body/div/div/div/div/div/div/div/div/div/div/cc/div/div/br'
p590
F4.279699859498065
sS'/html/body/div/div/div/div/div/div/div/ul/li/div/div/h6/a'
p591
F8.395177076918001
sS'/html/body/div/div/div/div/div/div/div/div/div/label/input'
p592
F8.395177076918001
sS'/html/body/div/div/div/div/div/div/ul/li/div/div/div/div/div/div/div/ul/li/div/img'
p593
F4.42555072596152
sS'/html/body/div/div/div/div/div/div/ul/li/div/li/div/li/div/li/div/li/div/li/div/div/div/div/div/span/a'
p594
F7.6582114827517955
sS'/html/body/div/div/div/div/div/div/ul/li/a'
p595
F1.052361615556815
sS'/html/body/div/div/div/div/div/div/div/div/div/div/cc/div/div/span'
p596
F8.980139577639157
sS'/html/body/form/p/img'
p597
F3.892676736388818
sS'/html/body/div/div/div/div/div/div/div/div/p/label'
p598
F3.935745458280704
sS'/html/body/div/div/div/div/div/div/ul/li/div/li/div/div/h4/i'
p599
F8.395177076918001
sS'/html/body/div/div/div/div/div/div/div/div/ul/li/div/div/div/div/div/div/div/ul/li/img'
p600
F9.980139577639157
sS'/html/body/div/div/div/div/div/div/div/div/div/div/div/div/div/div/div/div/p'
p601
F6.6582114827517955
sS'/html/body/div/div/div/div/div/div/div/div/div/div/div/div/div/div/div/div/div/div/a/span/em'
p602
F7.395177076918001
sS'/html/body/div/div/div/div/div/div/div/div/ul/li/div/li/div/li/div/li/div/li/div/li/div/div/div/div/div/div/div/ul/li/div/div/div'
p603
F9.980139577639157
sS'/html/body/div/div/div/div/div/div/code'
p604
F9.980139577639157
sS'/html/body/div/div/div/div/div/div/a/span'
p605
F9.980139577639157
sS'/html/body/div/div/div/div/div/div/div/div/ul/li/div/div/div/div/div/span/a'
p606
F6.810214576196845
sS'/html/body/div/div/div/div/div/div/ul/li/div/li/div/div/div/a/i'
p607
F8.395177076918001
sS'/html/body/div/div/div/div/div/div/div/div/div/div/a/img'
p608
F6.073248982030639
sS'/html/body/div/div/div/div/div/div/ul/li/div/p/a'
p609
F1.941220588346855
sS'/html/body/div/div/div/div/div/div/div/dl/dd/span'
p610
F5.1727846555815535
sS'/html/body/div/div/div/div/div/div/div/span/a/span'
p611
F2.448758117122845
sS'/html/body/div/span'
p612
F6.980139577639157
sS'/html/body/div/div/div/div/div/div/ul/li/div/li/div/li/div/li/div/li/div/div/div/div/div/a'
p613
F7.395177076918001
sS'/html/body/div/div/div/div/div/div/div/div/div/div/div/div/div/div/button'
p614
F8.395177076918001
sS'/html/body/div/div/div/div/div/div/div/h3'
p615
F1.8611985049156496
sS'/html/body/div/div/div/div/div/div/div/div/ul/li/div/div/div/div'
p616
F8.395177076918001
sS'/html/body/div/div/div/div/div/div/ol/li/span'
p617
F8.395177076918001
sS'/html/body/div/div/div/div/div/div/p/span'
p618
F4.6225875730210735
sS'/html/body/div/div/div/div/div/div/div/div/ul/li/style'
p619
F9.980139577639157
sS'/html/body/div/div/div/div/div/div/ul/li/div/div/div/div/span/i'
p620
F2.6402895747545325
sS'/html/body/div/div/div/div/div/div/div/div/div/div/h4'
p621
F7.980139577639158
sS'/html/body/div/div/div/div/div/div/div/div/div/div/h3'
p622
F9.980139577639157
sS'/html/body/div/div/div/div/div/div/ul/li/div/li/div/li/div/li/div/li/div/li/div/li/div/div/div/div/span/i'
p623
F7.6582114827517955
sS'/html/body/div/div/div/div/div/div/div/div/ul/li/div/div/div/div/div/div/div/ul/li/div/li/div/img'
p624
F9.980139577639157
sS'/html/body/div/div/div/div/div/div/div/div/div/dl/dd/div/ul/li/div/span/a'
p625
F7.1727846555815535
sS'/html/body/div/div/div/div/div/div/div/div/ul/li/div/li/div/li/div/li/div/li/div/div/div/h4/a'
p626
F9.980139577639157
sS'/html/body/div/div/div/div/div/div/div/dl/a/dd/img'
p627
F8.980139577639157
sS'/html/body/div/div/div/div/div/div/ul/li/div/li/div/li/div/li/div/li/div/li/div/li/div/div/div/div/span/a'
p628
F7.6582114827517955
sS'/html/body/div/div/div/div/div/div/ul/li/div/li/div/li/div/li/div/div/h3'
p629
F9.980139577639157
sS'/html/body/div/div/div/div/div/div/ul/li/div/div/div/div/div/div/div/ul'
p630
F8.395177076918001
sS'/html/body/div/div/div/div/div/div/ul/li/div/li/div/li/div/li/div/li/div/div/div/div/ins'
p631
F7.980139577639158
sS'/html/body/div/div/div/div/div/div/div/div/div/div/div/div/ul/li'
p632
F9.980139577639157
sS'/html/body/div/div/div/div/div/div/div/div/ul/li/div/li/div/li/div/li/div/li/div/div/div/div/div/div/div/div/div'
p633
F9.980139577639157
sS'/html/body/div/div/div/div/div/div/ul/li/div/li/div/li/div/li/div/li/div/li/div/div/div/div/div/div/div/ul/li/div/img'
p634
F7.6582114827517955
sS'/html/body/div/div/div/ul/li/a/img'
p635
F7.980139577639158
sS'/html/body/div/div/div/div/div/div/div/script'
p636
F1.4217188643704928
sS'/html/body/div/div/div/div/div/div/div/div/div/div/div/span/span/span'
p637
F8.395177076918001
sS'/html/body/div/div/div/div/div/div/div/div/ul/li/div/li/div/li/div/li/div/li/div/div/ul/li/div/a/img'
p638
F9.980139577639157
sS'/html/body/div/div/div/div/div/div/div/div/div/div/ul/li/div/a'
p639
F5.025943267252282
sS'/html/body/div/div/div/div/div/div/ul/li/div/li/div/div/div/div/div/a'
p640
F4.42555072596152
sS'/html/body/div/div/div/div/div/div/ul/li/div/div/div/div/div/div/div/div/div/div/span'
p641
F9.980139577639157
sS'/html/body/div/div/div/div/div/div/div/div/ul/li/div/div/div/ul/li/span/a'
p642
F8.980139577639157
sS'/html/body/div/div/div/div/div/div/ul/li/div/div/div/p/span'
p643
F7.1727846555815535
sS'/html/body/div/div/div/div/div/div/div/div/p/input'
p644
F3.935745458280704
sS'/html/body/div/div/div/div/div/div/div/dl/dd/div/div'
p645
F5.1727846555815535
sS'/html/body/div/div/div/div/div/div/div/div/div/div/div/div/div/div/div/div/div/div/div/span'
p646
F1.541347725060896
sS'/html/body/div/div/div/div/div/div/div/div/ul/li/div/li/div/li/div/li/div/div/div/div/span/div/a'
p647
F9.980139577639157
sS'/html/body/div/div/div/div/div/div/div/div/div/div/ul/li/div/p'
p648
F5.980139577639157
sS'/html/body/div/div/div/div/div/div/div/div/ul/li/div/div/div/div/div/ul/li/i'
p649
F8.395177076918001
sS'/html/body/div/div/div/div/div/div/div/div/ul/li/div/li/div/li/div/li/div/li/div/li/div/div/div/div/div/div/div/ul/li/div/a'
p650
F9.980139577639157
sS'/html/body/div/div/div/div/div/table/tr/td/a/img'
p651
F9.980139577639157
sS'/html/body/div/div/div/div/div/div/div/div/div/div/span/select'
p652
F1.7274741451889084
sS'/html/body/div/div/div/div/div/div/ul/li/div/li/div/li/div/div/div/ul/li/div/a/img'
p653
F7.980139577639158
sS'/html/body/div/div/div/div/div/div/div/ul/li/div/ul/li/img'
p654
F9.980139577639157
sS'/html/body/div/div/div/div/div/div/div/div/ul/li/div/li/div/li/div/li/div/div/div/a'
p655
F9.980139577639157
sS'/html/body/div/div/div/div/div/div/div/div/ul/li/div/li/div/li/div/li/div/li/div/div/div/div/ul/li/div/a/img'
p656
F9.980139577639157
sS'/html/body/div/div/div/div/div/div/div/div/h3'
p657
F6.1727846555815535
sS'/html/body/div/div/div/div/span'
p658
F2.2386725912380103
sS'/html/body/div/div/div/div/div/div/div/div/h1'
p659
F2.358087758182781
sS'/html/body/div/div/div/div/div/span/a/div'
p660
F3.570748641501456
sS'/html/body/div/div/div/div/div/div/ul/li/div/li/div/li/div/div/div/div/div/button'
p661
F9.980139577639157
sS'/html/body/div/div/div/div/div/div/ul/li/div/div/div/div/div/p/i'
p662
F8.980139577639157
sS'/html/body/div/div/div/div/div/div/div/div/a/div/span'
p663
F9.980139577639157
sS'/html/body/div/div/div/div/div/div/div/div/div/div/div/div/div/div/div/div/div/div/div/div/div/span'
p664
F5.279699859498065
sS'/html/body/div/div/div/div/div/div/ul/li/div/div/div/ul/li/div/i'
p665
F9.980139577639157
sS'/html/body/div/div/div/div/div/div/div/div/ul/li/div/li/div/li/div/div/div/a'
p666
F9.980139577639157
sS'/html/body/div/div/div/div/div/div/ul/li/ul/li/div/div/div/div/span/span'
p667
F3.5878221548603966
sS'/html/body/div/div/div/div/div/div/div/div/ul/li/div/div/div/div/ul/li/div/a/img'
p668
F8.395177076918001
sS'/html/body/div/div/div/div/div/div/div/div/ul/li/div/li/div/li/div/li/div/li/div/div/div/div/span/a'
p669
F9.980139577639157
sS'/html/body/div/div/div/div/div/div/div/div/div/dl/dd'
p670
F6.980139577639157
sS'/html/body/div/div/div/div/a'
p671
F0.5289284658068283
sS'/html/body/div/div/div/div/div/div/ul/li/div/div/div/div/div'
p672
F2.6402895747545325
sS'/html/body/div/div/div/div/div/div/ul/li/div/div/div/div/ul/li/dl/dd/a/em'
p673
F9.980139577639157
sS'/html/body/div/div/div/div/div/div/ul/li/div/li/div/li/div/div/div/div/i'
p674
F8.395177076918001
sS'/html/body/div/div/div/div/div/div/div/div/div/div/cc/div/span/img'
p675
F8.980139577639157
sS'/html/body/div/div/div/div/div/div/div/div/div/div/div/h3'
p676
F3.440980766531126
sS'/html/body/div/div/div/div/div/div/ul/li/div/li/div/li/div/div/h4/span/a'
p677
F9.980139577639157
sS'/html/body/div/div/div/div/div/div/ul/li/div/li/div/div/div/div/div/a/span/span'
p678
F9.980139577639157
sS'/html/body/div/div/div/div/div/div/div/ul/li/div/div/div/span/span'
p679
F9.980139577639157
sS'/html/body/div/div/div/div/div/div/div/div/div/div/span/a'
p680
F1.7274741451889084
sS'/html/body/div/div/div/div/div/div/div/div/div/div/form/span/a'
p681
F9.980139577639157
sS'/html/body/div/div/div/div/div/div/div/div/ul/li/div/div/div/div/div/div/div/ul/li/div'
p682
F5.587822154860397
sS'/html/body/div/div/div/div/div/div/ul/li/div/li/div/li/div/div/div/div/div/div/div/div/div/input'
p683
F7.6582114827517955
sS'/html/body/div/div/div/div/div/div/div/div/ul/li/ul/li/div/div/div/div/a'
p684
F6.2796998594980655
sS'/html/body/div/div/div/div/div/div/ul/li/div/li/div/li/div/li/div/li/div/li/div/div/div/span'
p685
F7.6582114827517955
sS'/html/body/div/div/div/div/div/div/div/div/div/div/div/div/div/div/div/div/div/a/span/em/b'
p686
F5.980139577639157
sS'/html/body/div/div/div/div/div/div/div/div/div/div/cc/div/div/a/span'
p687
F5.810214576196844
sS'/html/script'
p688
F0.14566852765493501
sS'/html/body/div/div/div/div/div/div/ul/li/div/li/div/div/div/div/div/p/i'
p689
F9.980139577639157
sS'/html/body/div/div/div/div/div/div/ul/li/div/li/div/li/div/li/div/div/div/div/div/span/i'
p690
F7.395177076918001
sS'/html/body/div/div/div/div/div/div/ul/li/div/li/div/li/div/div/div/p/a'
p691
F9.980139577639157
sS'/html/body/div/div/div/div/div/div/ul/li/div/li/div/div/div/ul/li/a/img'
p692
F8.395177076918001
sS'/html/body/div/div/div/div/div/div/div/div/div/dl/div/div'
p693
F7.980139577639158
sS'/html/body/div/div/div/div/div/div/div/div/div/div/cc/div/div/p/span'
p694
F9.980139577639157
sS'/html/body/div/div/div/div/div/div/ul/li/div/li/div/li/div/li/div/div/div/div/div/span/a'
p695
F7.395177076918001
sS'/html/body/div/div/div/div/div/div/ul/li/div/div/div'
p696
F6.1727846555815535
sS'/html/body/div/div/div'
p697
F1.0346957412612454
sS'/html/body/div/div/div/div/div/div/div/div/ul/li/div/li/div/li/div/li/div/li/div/div/div/div/h4/a'
p698
F9.980139577639157
sS'/html/body/div/div/div/div/div/div/div/h3/a'
p699
F4.52070795900186
sS'/html/body/div/div/div/div/div/div/div/div/div/div/ul/li/div/a/span'
p700
F5.980139577639157
sS'/html/body/div/div/div/div/div/div/div/div/ul/li/div/li/div/li/div/li/div/li/div/div/div/div/ul/li'
p701
F9.980139577639157
sS'/html/body/div/div/div/div/div/div/ul/li/div/li/div/li/div/li/div/li/div/div/div/div/div/div/div/div'
p702
F8.980139577639157
sS'/html/body/div/div/div/div/div/div/div/div/a/div/p'
p703
F4.52070795900186
sS'/html/body/div/div/div/div/div/div/div/div/div/div/button'
p704
F1.5749981145028134
sS'/html/body/div/div/div/div/div/div/div/div/ul/li/div/li/div/li/div/li/div/li/div/div/ul/li/a'
p705
F9.980139577639157
sS'/html/body/div/div/div/div/div/div/div/div/div/div/form/a'
p706
F9.980139577639157
sS'/html/body/div/div/div/div/div/div/div/div/div/div/div/div/span/select'
p707
F7.1727846555815535
sS'/html/body/div/div/div/div/div/div/div/div/div/div/div/div/a'
p708
F2.4027107496034086
sS'/html/body/div/div/div/div/div/div/div/div/div/div/cc/div/strong/br'
p709
F7.6582114827517955
sS'/html/body/div/div/div/div/div/span/span'
p710
F9.980139577639157
sS'/html/body/div/div/div/div/div/div/div/div/div/div/cc/div/div/div/ul/li/div'
p711
F8.395177076918001
sS'/html/body/div/div/div/div/div/div/div/table/tr/td/a'
p712
F8.980139577639157
sS'/html/body/div/div/div/div/div/div/div/div/ul/li/div/li/div/li/div/li/div/li/div/li/div/li/div/div/div/div/a'
p713
F9.980139577639157
sS'/html/body/div/div/div/div/img'
p714
F8.395177076918001
sS'/html/body/div/div/div/div/div/div/div/div/div/dl/dd/div/ul/li/div/ul/li/a/img'
p715
F9.980139577639157
sS'/html/body/div/div/div/div/div/div/div/div/div/div/div/ul/div/li/a/img'
p716
F3.456577621582144
sS'/html/body/div/div/div/div/p/span'
p717
F6.980139577639157
sS'/html/body/div/div/div/div/div/div/div/ul/li/div/div/img'
p718
F8.395177076918001
sS'/html/body/div/div/div/div/div/table/tbody/tr/td/div/div'
p719
F6.980139577639157
sS'/html/body/div/div/div/div/div/div/div/div/div/div/div/ul/li/div/div'
p720
F9.980139577639157
sS'/html/body/div/div/div/div/div/div/ul/li/div/li/div/div/div/ul/li/div/div/p/i'
p721
F7.1727846555815535
sS'/html/body/div/div/div/div/div/div/div/div/div/div/div/div/div/div/div/div/div/a'
p722
F5.6582114827517955
sS'/html/body/div/div/div/div/div/div/ul/li/div/div/div/div/div/div/div/div/span/select'
p723
F9.980139577639157
sS'/html/body/div/div/div/div/div/div/div/div/ul/li/div/li/div/li/div/li/div/li/div/li/div/div/div/span'
p724
F9.980139577639157
sS'/html/body/div/div/div/div/div/div/form/span/a'
p725
F0.6138173633933413
sS'/html/body/div/div/div/div/div/div/div/dl/a/dd/div/div/label'
p726
F8.980139577639157
sS'/html/body/div/div/div/div/div/table/tr/td/p'
p727
F9.980139577639157
sS'/html/body/div/div/div/div/div/div/div/div/div/div/ul/li/div/span/span'
p728
F5.980139577639157
sS'/html/body/div/div/div/div/div/div/div/img'
p729
F2.1922370182477255
sS'/html/body/div/div/div/div/div/div/div/div/ul/li/div/li/div/li/div/li/div/li/div/div/div/a/span/span'
p730
F9.980139577639157
sS'/html/body/div/div/div/div/div/div/div/div/ul/li/div/div/div/i'
p731
F8.395177076918001
sS'/html/body/div/div/div/div/div/div/div/div/div/dl/dd/div/ul/li/div/div/p'
p732
F6.980139577639157
sS'/html/body/div/div/div/div/div/a'
p733
F0.28317205140487
sS'/html/body/div/div/div/div/div/div/div/iframe'
p734
F7.980139577639158
sS'/html/body/div/div/div/div/div/div/div/h4/i'
p735
F2.1535910903482423
sS'/html/body/div/div/div/div/div/div/div/div/ul/li/div/li/div/li/div/div/div/div/div/div/div/div/div'
p736
F9.980139577639157
sS'/html/body/div/div/div/div/div/div/div/h4/a'
p737
F6.6582114827517955
sS'/html/body/div/div/div/div/div/div/ul/li/div/div/div/div/span/span/span/div'
p738
F5.456577621582144
sS'/html/body/div/div/div/div/div/div/ul/li/div/li/div/li/div/li/div/li/div/div/div/ul/li/div/a'
p739
F7.6582114827517955
sS'/html/body/div/div/div/div/div/div/div/div/div/div/ul/li/div/span'
p740
F5.980139577639157
sS'/html/body/div/div/div/div/div/div/div/div/ul/li/div/div/p/i'
p741
F3.456577621582144
sS'/html/body/div/div/div/div/div/div/div/div/div/div/div/ul/div/li/div/p'
p742
F3.456577621582144
sS'/html/body/div/iframe'
p743
F3.892676736388818
sS'/html/body/div/table/tr/td/a'
p744
F8.980139577639157
sS'/html/body/div/div/div/div/a/img'
p745
F6.980139577639157
sS'/html/body/div/div/div/div/div/div/div/div/ul/li/div/li/div/li/div/div/div/div/div/div/div/ul/li/div/img'
p746
F7.980139577639158
sS'/html/body/div/div/div/div/div/div/div/dl/a/dd/div/p/label'
p747
F8.980139577639157
sS'/html/body/div/div/div/div/ul/li/div/div/a'
p748
F9.980139577639157
sS'/html/body/div/div/div/div/div/div/div/div/ul/li/div/li/div/div/div/div/div/button'
p749
F9.980139577639157
sS'/html/body/div/div/div/div/div/div/ul/li/div/li/div/li/div/div/div/ul/li/a'
p750
F9.980139577639157
sS'/html/body/div/div/div/div/div/div/div/div/div/div/div/div/div/div/p/span'
p751
F2.205352518037984
sS'/html/body/div/div/div/div/div/div/ul/li/div/li/div/li/div/li/div/li/div/div/div/div/div'
p752
F7.395177076918001
sS'/html/body/div/div/div/div/div/div/ul/li/div/li/div/li/div/li/div/div/span/a/i'
p753
F9.980139577639157
sS'/html/body/div/div/div/div/div/div/ul/li/div/li/div/li/div/li/div/div/div/div/i'
p754
F8.395177076918001
sS'/html/body/div/div/div/div/div/div/div/div/div/form/input'
p755
F7.6582114827517955
sS'/html/body/div/div/div/div/div/div/ul/li/div/div/div/div/div/div/div/div/div'
p756
F9.980139577639157
sS'/html/body/div/div/div/div/div/div/ul/li/div/div/div/div/a'
p757
F2.6402895747545325
sS'/html/body/div/div/div/div/div/div/div/div/ul/li/div/code'
p758
F8.395177076918001
sS'/html/body/div/div/div/div/div/div/ul/li/a/span'
p759
F7.980139577639158
sS'/html/body/div/div/div/div/div/div/div/div/ul/li/div/li/div/li/div/li/div/div/div'
p760
F8.980139577639157
sS'/html/body/div/div/div/div/div/div/ul/li/div/div/div/div/div/div/div/div/div/input'
p761
F9.980139577639157
sS'/html/body/div/div/div/div/div/div/ul/li/ul/li/div/div/div/div/span/span/a'
p762
F5.456577621582144
sS'/html/body/div/div/div/div/div/div/div/div/ul/li/div/li/div/li/div/li/div/li/div/li/div/div/div/div/div/div/div/ul/li/div/img'
p763
F9.980139577639157
sS'/html/body/div/div/div/div/div/div/ul/li/div/li/div/li/div/li/div/li/div/div/div/div/span/span/a/div'
p764
F8.980139577639157
sS'/html/body/div/div/div/div/div/div/div/p/span'
p765
F2.9248571421379674
sS'/html/body/div/div/div/div/div/div/div/div/div/div/div/ul/li'
p766
F7.980139577639158
sS'/html/body/div/div/div/div/div/div/ol/li/a/img'
p767
F8.395177076918001
sS'/html/body/div/div/div/div/div/div/div/div/p/span'
p768
F4.732212064195572
sS'/html/body/div/div/div/div/div/div/div/div/div/div/div/div/button'
p769
F4.6225875730210735
sS'/html/body/div/div/div/div/div/div/div/div/ul/li/div/li/div/li/div/li/div/li/div/li/div/div/div'
p770
F9.980139577639157
sS'/html/body/div/div/div/div/div/div/div/div/ul/li/div/li/div/li/div/li/div/li/div/li/div/li/div/div/div/div/div/div/div/ul/li/div/img'
p771
F9.980139577639157
sS'/html/body/div/div/div/div/div/div/ul/li/h4/em'
p772
F9.980139577639157
sS'/html/body/div/div/div/div/div/div/div/div/div/div/cc/div/strong/span'
p773
F8.980139577639157
sS'/html/body/div/div/div/div/div/div/div/dl/dt/span'
p774
F5.073248982030639
sS'/html/body/div/div/div/div/div/div/ul/li/div/div/div/div/div/div/p'
p775
F7.980139577639158
sS'/html/body/div/div/div/div/div/table/tbody/tr/td'
p776
F6.980139577639157
sS'/html/body/div/div/form/input'
p777
F7.980139577639158
sS'/html/body/div/div/div/div/div/div/div/div/div/div/div/a/span/img'
p778
F6.2796998594980655
sS'/html/body/div/div/div/div/div/div/div/div/ul/li/div/li/div/div/div/div/div/a/span/img'
p779
F9.980139577639157
sS'/html/body/div/div/div/div/div/div/div/span/a/i'
p780
F1.8611985049156496
sS'/html/body/div/div/div/div/div/div/div/div/ul/li/div/li/div/li/div/li/div/li/div/div/div/div/ul/li/a'
p781
F9.980139577639157
sS'/html/body/div/div/div/div/div/div/div/div/ul/li/div/div'
p782
F5.587822154860397
sS'/html/body/div/div/div/div/div/div/div/div/ul/li/div/li/div/div/div/div/div'
p783
F6.810214576196845
sS'/html/body/div/div/div/div/div/table/tbody/tr/th'
p784
F6.980139577639157
sS'/html/body/div/div/div/div/div/div/ul/li/div/li/div/li/div/li/div/li/div/li/div/div/div/div/div/a'
p785
F7.6582114827517955
sS'/html/body/div/div/div/style'
p786
F8.980139577639157
sS'/html/body/div/div/div/div/div/div/ul/li/div/div/div/div/div/div/a'
p787
F7.980139577639158
sS'/html/body/div/div/div/div/div/div/div/div/ul/li/dl/dt/a/img'
p788
F5.225252075475689
sS'/html/body/div/div/div/div/div/div/div/dl/dd/div/div/span'
p789
F9.980139577639157
sS'/html/body/div/div/div/div/div/div/div/div/div/div/div/div/div/div/div/div/p/span'
p790
F6.6582114827517955
sS'/html/body/div/div/div/div/div/div/ul/li/div/li/div/li/div/li/div/li/div/div/div/p/a'
p791
F7.6582114827517955
sS'/html/body/div/div/div/div/div/div/div/div/ul/li/div/li/div/li/div/li/div/li/div/li/div/div/div/div/span/span'
p792
F9.980139577639157
sS'/html/body/div/div/div/div/div/div/ul/li/div/div/div/div/div/div/i'
p793
F8.980139577639157
sS'/html/body/div/div/div/div/div/div/div/div/ul/li/div/li/div/li/script'
p794
F9.980139577639157
sS'/html/body/div/div/div/div/div/div/div/ul/li/div/div'
p795
F7.980139577639158
sS'/html/body/div/div/div/div/div/div/div/div/div/div/div/ul/li/div/div/div/div/div/div/span/a/div'
p796
F9.980139577639157
sS'/html/body/div/div/div/div/div/div/ul/li/div/div/div/div/div/a/span/img'
p797
F7.1727846555815535
sS'/html/body/div/div/div/div/style'
p798
F7.395177076918001
sS'/html/body/div/div/div/div/div/div/div/div/div/div/div/div/div/p'
p799
F1.653710090516854
sS'/html/body/div/div/div/div/div/div/div/dl/dd/div/ul/li/div/a/img'
p800
F5.073248982030639
sS'/html/body/div/div/div/div/div/div/div/div/ul/li/div/li/div/div/div/div/a'
p801
F6.810214576196845
sS'/html/body/div/div/div/div/div/div/div/div/form/a'
p802
F3.935745458280704
sS'/html/body/div/div/div/div/div/div/ul/li/div/li/div/li/div/li/div/li/div/li/div/li/div/div/div/div/span'
p803
F7.6582114827517955
sS'/html/body/div/div/div/div/div/div/div/div/div/div/div/div/div/span/a'
p804
F8.395177076918001
sS'/html/body/div/div/div/div/div/div/div/div/span/strong'
p805
F9.980139577639157
sS'/html/body/div/div/div/div/div/div/div/div/ul/li/div/li/div/li/div/div/div/div/a'
p806
F7.6582114827517955
sS'/html/body/div/div/div/div/div/div/div/div/div/dl/dt/span/a'
p807
F6.980139577639157
sS'/html/body/div/div/div/div/div/div/div/div/ul/li/div/div/div/p'
p808
F9.980139577639157
sS'/html/body/div/div/div/div/div/div/div/div/ul/li/div/li/div/li/div/li/div/li/div/div/div/div/div/a'
p809
F9.980139577639157
sS'/html/body/div/div/div/div/div/div/p/a'
p810
F3.6051001462922327
sS'/html/body/div/div/div/div/div/div/span/a'
p811
F9.980139577639157
sS'/html/body/div/div/div/div/div/div/div/dl/dd/div/img'
p812
F9.980139577639157
sS'/html/body/div/div/div/div/div/div/ul/li/ul/li/div/div/div/div/span/span/a/div'
p813
F4.0028596541392405
sS'/html/body/div/div/div/div/div/div/div/div/div/dl/dd/div'
p814
F6.980139577639157
sS'/html/body/div/div/div/div/div/div/ul/li/div/li/div/li/div/li/div/div/div/div/div/span'
p815
F7.395177076918001
sS'/html/body/div/div/div/div/div/ul/li/a'
p816
F2.358087758182781
sS'/html/body/div/div/div/div/div/div/div/div/div/dl/dd/div/ul'
p817
F7.1727846555815535
sS'/html/body/div/div/div/div/div'
p818
F1.8611985049156496
sS'/html/body/div/div/div/div/div/div/ul/li/div/li/div/li/div/div/div/div/div/div/div/ul/li/div/img'
p819
F6.810214576196845
sS'/html/body/div/div/div/div/div/div/ul/li/div/li/div/li/div/li/div/li/div/li/div/div/div/div/a'
p820
F7.6582114827517955
sS'/html/body/div/div/div/div/div/div/div/div/ul/li/div/li/div/li/div/li/div/div/div/div/a'
p821
F8.980139577639157
sS'/html/body/div/div/div/div/div/div/div/div/div/div/div/ul/li/a'
p822
F8.395177076918001
sS'/html/body/div/div/div/div/div/script'
p823
F1.3802267354520295
sS'/html/body/div/div/div/div/div/div/div/div/ul/li/div/li/div/li/div/li/div/li/div/div/div/div/div/div/div/ul/li/div/div/div'
p824
F9.980139577639157
sS'/html/body/div/div/div/div/div/div/div/div/div/div/div/div/p/span'
p825
F9.980139577639157
sS'/html/body/div/div/div/div/div/div/div/div/div/div/div/ul/li/a/span/i'
p826
F9.980139577639157
sS'/html/body/div/div/div/div/div/div/ul/li/div/li/div/li/div/li/div/li/div/li/div/li/div/div/span'
p827
F7.6582114827517955
sS'/html/body/div/div/div/div/div/div/div/div/div/div/div/div/div/div/table/thead/tr/td'
p828
F5.279699859498065
sS'/html/body/div/div/div/div/div/div/div/div/code'
p829
F7.980139577639158
sS'/html/body/div/div/div/div/div/div/b'
p830
F2.587822154860397
sS'/html/body/div/div/div/div/div/div/div/div/div/div/div/div/div/div/div/div/div/a/b'
p831
F6.6582114827517955
sS'/html/body/div/div/div/div/div/div/div/div/div/div/div/ul/li/div/div/i'
p832
F9.980139577639157
sS'/html/body/div/div/div/div/div/div/ul/li/div/li/div/div/span/a/i'
p833
F7.1727846555815535
sS'/html/body/div/div/div/div/div/div/div/div/div/div/div/div/div/div'
p834
F0.8768517692271353
sS'/html/body/div/div/div/div/div/div/div/div/a/div/p/span'
p835
F4.52070795900186
sS'/html/body/div/div/div/div/div/div/div/div/div/div/div/div/div/div/div/div/div/a/span/span'
p836
F6.6582114827517955
sS'/html/body/div/div/div/div/div/div/ul/li/div/li/div/li/div/li/div/li/div/li/div/div/div/div/div/div/div/ul/li/div/a'
p837
F7.6582114827517955
sS'/html/body/div/div/div/div/div/div/div/div/ul/li/div/li/div/li/div/li/div/div/div/div/span'
p838
F8.980139577639157
sS'/html/body/form/p/input'
p839
F3.892676736388818
sS'/html/body/div/div/div/div/div/div/a'
p840
F0.1599606152239694
sS'/html/body/div/div/div/div/div/div/div/div/div/div/div/ul/li/div/div/a/img'
p841
F9.980139577639157
sS'/html/body/div/div/div/div/div/div/div/div/div/div/div/div/div/div/p/a'
p842
F2.722751734946505
sS'/html/body/div/div/div/div/div/div/div/div/div/div/div/div/div/input'
p843
F7.1727846555815535
sS'/html/body/div/div/div/div/div/div/div/div/ul/li/div/li/div/li/div/div/div/div/div/div/div/ul/li/div'
p844
F7.980139577639158
sS'/html/body/div/div/div/div/div/div/ul/li/div/li/div/li/div/li/div/div/div/div/div/div/div/ul/li/a/img'
p845
F7.6582114827517955
sS'/html/body/div/div/div/div/div/div/ul/li/div/div/div/div/div/a/img'
p846
F7.980139577639158
sS'/html/body/div/div/div/div/div/div/ul/li/div/li/div/li/div/li/div/li/div/li/div/div/div/div/i'
p847
F9.980139577639157
sS'/html/body/div/div/div/div/div/div/div/ul/li/a/span'
p848
F2.6051001462922323
sS'/html/body/div/div/div/div/div/div/div/div/div/div/ul/li/a/p/span'
p849
F9.980139577639157
sS'/html/body/div/div/div/div/div/div/ul/li/div/li/div/li/div/div/div/div/div/a'
p850
F5.980139577639157
sS'/html/body/div/div/div/div/div/div/ul/li/div/li/div/li/div/div/div/div/div/div/div/div/div/div/span'
p851
F7.6582114827517955
sS'/html/body/div/div/div/div/div/div/div/div/div/div/div/div/div/div/div/div/div/div/div/div/span'
p852
F2.1409357895422136
sS'/html/body/div/div/div/div/div/div/ul/li/div/li/div/li/div/div/h4/span'
p853
F9.980139577639157
sS'/html/body/div/div/div/div/div/div/ul/li/div/code'
p854
F9.980139577639157
sS'/html/body/div/div/div/div/div/div/ul/li/div/div/div/div/div/a/span'
p855
F7.980139577639158
sS'/html/body/div/div/div/div/div/div/div/dl/dd/div/div/a'
p856
F9.980139577639157
sS'/html/body/div/div/div/div/div/div/div/div/div/div/div/div/div/div/span'
p857
F0.9033239805883263
sS'/html/body/div/div/div/div/div/div/div/div/div/dl/dd/div/ul/li/div/p/br'
p858
F9.980139577639157
sS'/html/body/div/div/div/div/div/div/div/div/ul/li/div/div/div/div/ul/li/a'
p859
F8.980139577639157
sS'/html/body/div/div/div/div/div/div/ul/li/div/li/div/li/div/div/div/div/div/div/div/div/span/a'
p860
F7.6582114827517955
sS'/html/body/div/div/div/div/div/div/ul/li/div/li/div/li/div/div/span/a/i'
p861
F8.395177076918001
sS'/html/body/div/div/div/div/div/div/div/div/div/div/cc/div/div/img'
p862
F3.472344937440461
sS'/html/body/div/div/div/div/div/div/ul/div/div/div/div/a'
p863
F2.358087758182781
sS'/html/body/div/div/div/div/div/div/div/a/img'
p864
F1.6492226995245403
sS'/html/body/div/div/div/div/div/span/a'
p865
F5.980139577639157
sS'/html/body/div/div/span'
p866
F2.2386725912380103
sS'/html/body/div/div/div/div/div/div/div/div/ul/li/div/li/div/li/div/li/div/li/div/div/div/ul/li/span/a'
p867
F9.980139577639157
sS'/html/body/div/div/div/div/div/div/ul/li/div/li/div/li/div/div/div/div/div/div/div'
p868
F7.6582114827517955
sS'/html/body/div/div/div/div/div/div/ul/li/div/li/div/li/div/li/div/li/div/div/div/div/div/a/span/img'
p869
F7.6582114827517955
sS'/html/body/div/div/div/div/div/div/ul/li/div/div/div/div/div/div/div/ul/li/div/li/div'
p870
F8.395177076918001
sS'/html/body/div/div/div/div/div/table/tr/td/div/span'
p871
F9.980139577639157
sS'/html/body/div/div/div/a/div'
p872
F7.980139577639158
sS'/html/body/div/div/div/div/div/div/ul/li/div/li/div/div/div/div/div/div/div/ul/li/a'
p873
F9.980139577639157
sS'/html/body/div/div/div/div/div/div/div/div/div/div/cc/div/div/ul/li'
p874
F8.980139577639157
sS'/html/body/div/div/div/div/div/div/ul/li/div/div/div/ul/li/div/div/a'
p875
F5.122158582511585
sS'/html/body/div/div/div/div/div/div/div/div/div/div/div/div/div/div/div/div/a/span/em/b'
p876
F3.9577717646107025
sS'/html/body/div/div/div/div/div/div/div/div/ul/li/div/li/div/li/div/li/div/div/div/div/div/span/a'
p877
F9.980139577639157
sS'/html/body/div/div/p/input'
p878
F7.980139577639158
sS'/html/body/div/div/div/div/div/div/div/div/div/br'
p879
F8.980139577639157
sS'/html/body/div/div/div/div/div/a/img'
p880
F1.9357454582807037
sS'/html/body/div/div/div/div/div/div/div/div/ul/li/div/li/div/div/div/div/img'
p881
F9.980139577639157
sS'/html/body/div/div/div/div/div/div/div/div/ul/li/div/li/div/li/div/li/div/li/div/div/div/p/a'
p882
F9.980139577639157
sS'/html/body/div/div/div/div/div/div/div/div/ul/li/div/li/div/div/div/div/div/div/a/span'
p883
F9.980139577639157
sS'/html/body/div/div/div/div/div/div/ul/li/div/li/div/li/div/div/div/ul/li/div/div/a'
p884
F8.395177076918001
sS'/html/body/div/div/div/div/div/div/div/div/div/h4/a'
p885
F7.980139577639158
sS'/html/body/div/div/div/div/div/div/ul/li/div/li/div/li/div/li/div/div/div/ul/li/div/div/a'
p886
F9.980139577639157
sS'/html/body/div/div/div/div/div/div/ul/li/div/div/div/div/div/div/div/div/button'
p887
F9.980139577639157
sS'/html/body/div/div/div/div/table/tr/th'
p888
F6.980139577639157
sS'/html/body/div/div/div/div/div/div/div/div/ul/li/div/li/div/div/div/div/div/div/div/ul/li/div/img'
p889
F6.810214576196845
sS'/html/body/div/div/div/div/div/div/ul/li/div/li/div/li/div/li/div/div/div/div/span'
p890
F6.810214576196845
sS'/html/body/div/div/div/div/table/tr/td'
p891
F6.980139577639157
sS'/html/body/div/div/div/div/div/div/div/div/ul/li/dl/dd/em/i'
p892
F5.225252075475689
sS'/html/body/div/div/div/div/div/div/div/div/ul/li/div/li/div/li/div/li/div/li/div/li/div/li/div/div/div/div/span/span'
p893
F9.980139577639157
sS'/html/body/div/div/div/div/div/div/div/h4/span'
p894
F2.2252520754756886
sS'/html/body/div/div/div/div/div/span/span/a'
p895
F8.395177076918001
sS'/html/body/div/div/div/div/div/div/ol/li/div/h4/a'
p896
F8.395177076918001
sS'/html/body/div/div/div/div/div/div/ul/li/div/div/div/div/div/div'
p897
F8.395177076918001
sS'/html/body/div/div/div/div/div/div/div/ul/li/div'
p898
F7.980139577639158
sS'/html/body/div/div/div/div/div/div/div/div/div/div/cc/div/div/p'
p899
F7.980139577639158
sS'/html/body/div/div/div/div/div/div/div/div/ul/li/div/li/div/li/div/li/div/li/div/div/div/div/div/ul/li/i'
p900
F9.980139577639157
sS'/html/body/div/div/div/div/div/div/div/div/div/div/div/a/p/span'
p901
F9.980139577639157
sS'/html/body/div/div/div/div/div/div/div/div/form/input'
p902
F3.935745458280704
sS'/html/body/div/div/div/div/div/div/div/div/div/div/ul/li/div/div/a/img'
p903
F9.980139577639157
sS'/html/body/div/div/div/div/div/div/ul/li/div/div/div/div/div/span'
p904
F4.42555072596152
sS'/html/body/div/div/div/div/div/div/ul/li/div/div/h3'
p905
F5.122158582511585
sS'/html/body/div/div/div/div/div/div/ul/li/ul/li/div/div/div/div/span/a'
p906
F3.0376250722999174
sS'/html/body/div/div/div/div/iframe'
p907
F8.980139577639157
sS'/html/body/div/div/div/div/div/div/div/div/ul/li/div/div/div'
p908
F5.587822154860397
sS'/html/body/div/div/div/div/div/div/div/div/div/div/cc/div/div/a'
p909
F5.336283387864433
sS'/html/body/div/div/div/div/span/div/a'
p910
F8.980139577639157
sS'/html/body/div/div/div/div/div/div/div/div/div/div/div/ul/li/a/img'
p911
F9.980139577639157
sS'/html/body/div/div/div/div/div/div/ul/li/div/div/div/div/span/a'
p912
F2.6402895747545325
sS'/html/body/div/div/div/div/div/div/ul/li/div/div'
p913
F9.980139577639157
sS'/html/body/div/div/div/div/div/div/div/div/ul/li/div/li/div/div/div/div/div/div/div/ul/li/div/a'
p914
F7.6582114827517955
sS'/html/body/div/div/div/div/div/div/ul/li/div/li/div/li/div/div/div/div/div/span/i'
p915
F6.810214576196845
sS'/html/body/div/div/div/div/div/div/div/div/div/div/div/i'
p916
F7.980139577639158
sS'/html/body/div/div/div/div/div/div/div/div/ul/li/div/li/div/li/div/li/div/li/div/li/div/li/div/div/div/div/span/div/a/div'
p917
F9.980139577639157
sS'/html/body/div/div/div/div/div/div/ul/li/div/li/div/div/div/div/div'
p918
F4.42555072596152
sS'/html/body/div/div/div/div/div/div/div/div/div/span/select'
p919
F8.395177076918001
sS'/html/body/div/div/div/div/div/div/div/div/div/div/div/a/span/em'
p920
F2.440980766531126
sS'/html/body/div/div/div/div/div/div/ul/li/div/li/div/li/div/div/div/div/div/span/a'
p921
F6.810214576196845
sS'/html/body/div/div/div/div/div/div/div/div/div/div/div/a'
p922
F1.231946728049697
sS'/html/body/div/div/div/div/div/div/ul/li/div/div/div/div/div/div/div/ul/li/div/li/a/img'
p923
F8.395177076918001
sS'/html/body/div/div/div/div/div/div/ul/li/div/li/div/li/div/li/div/li/div/li/div/li/div/div/div/div/a'
p924
F7.6582114827517955
sS'/html/body/div/div/div/div/div/div/ul/li/div/div/div/div/span/span/a/div'
p925
F2.7417348383140783
sS'/html/body/div/div/div/div/div/div/div/div/ul/li/ul/li/div/div/div/div/span/span'
p926
F6.2796998594980655
sS'/html/body/div/div/div/div/div/div/ul/li/div/div/div/div/div/div/div/div/span/a'
p927
F9.980139577639157
sS'/html/body/div/div/div/div/div/div/div/div/img'
p928
F6.395177076918001
sS'/html/body/div/div/div/div/div/div/div/div/div/ins'
p929
F5.587822154860397
sS'/html/body/div/div/div/div/div/div/ul/li/div/li/div/li/div/div/div/ul/li/div/div/p/a'
p930
F8.395177076918001
sS'/html/body/div/div/div/div/div/div/div/div/div/div/div/p'
p931
F9.980139577639157
sS'/html/body/div/div/div/div/div/div/div/div/div/ul/li/span/a/div'
p932
F2.658211482751795
sS'/html/body/div/div/div/div/div/div/div/div/ul/li/div'
p933
F2.3435149570955085
sS'/html/body/div/div/table/tr/td/a'
p934
F7.980139577639158
sS'/html/body/div/div/div/div/div/div/form/i'
p935
F2.6402895747545325
sS'/html/body/div/div/div/div/div/div/div/div/ul/li/script'
p936
F7.6582114827517955
sS'/html/body/div/div/div/div/div/div/div/div/div/img'
p937
F3.365429733523949
sS'/html/body/div/div/div/div/div/div/div/div/p'
p938
F2.0435016386365867
sS'/html/body/div/div/div/div/div/div/ul/li/div/li/div/li/div/div/div/div/div/div/div/div/a/span'
p939
F7.6582114827517955
sS'/html/body/div/div/div/div/div/div/ul/li/div/div/a'
p940
F8.980139577639157
sS'/html/body/div/div/div/div/div/ul/li/div/div/div'
p941
F3.9577717646107025
sS'/html/body/div/div/div/div/div/div/div/div/ul/li/div/li/div/li/div/div'
p942
F7.6582114827517955
sS'/html/body/div/div/div/div/div/div/div/p/input'
p943
F2.587822154860397
sS'/html/body/div/p/span'
p944
F3.892676736388818
sS'/html/body/div/div/div/div/div/div/ul/li/div/li/div/li/div/div/div/ul/li/div/a'
p945
F9.980139577639157
sS'/html/body/div/div/div/div/div/div/div/div/ul/li/div/li/div/li/div/div/div/div/span/span'
p946
F7.6582114827517955
sS'/html/body/div/div/div/div/div/div/div/div/ul/li/div/li/div/li/div/li/div/div/div/div/span/div/a/div'
p947
F8.980139577639157
sS'/html/body/div/div/div/div/div/div/form/button'
p948
F2.6402895747545325
sS'/html/body/div/div/div/div/div/div/div/div/a/span/span'
p949
F1.653710090516854
sS'/html/body/div/div/div/h1'
p950
F5.810214576196844
sS'/html/body/div/div/div/div/div/div/div/div/ul/li/div/li/div/div/div/div/span'
p951
F6.810214576196845
sS'/html/body/div/div/div/div/div/div/ul/li/div/li/div/li/div/li/div/li/div/li/div/div/h3'
p952
F7.6582114827517955
sS'/html/body/div/div/div/div/div/div/div/div/i'
p953
F2.3728092638895464
sS'/html/body/div/div/div/div/div/div/a/img'
p954
F6.2796998594980655
sS'/html/body/div/div/div/div/div/div/form/span/span/a'
p955
F1.6492226995245403
sS'/html/body/div/div/div/div/div/div/ul/li/div/li/div/li/div/div/div/ul/li/a/span'
p956
F9.980139577639157
sS'/html/body/div/div/div/div/div/div/div/div/div/div/cc/div/div/span/a'
p957
F8.980139577639157
sS'/html/body/div/div/div/div/div/div/div/ul/li/a/div/p'
p958
F4.6225875730210735
sS'/html/body/div/div/div/div/div/div/div/div/div/div/cc/div/strong'
p959
F7.6582114827517955
sS'/html/body/div/div/div/div/div/div/ul/li/div/div/div/div/div/a/span/span'
p960
F7.980139577639158
sS'/html/body/div/div/div/div/div/div/div/div/div/div/cc/div/div/div/ul/li/img'
p961
F8.395177076918001
sS'/html/body/div/div/div/div/div/div/ul/li/div/li/div/li/div/li/div/li/div/li/div/div/div/div/div/span'
p962
F7.6582114827517955
sS'/html/body/div/div/div/div/div/div/ul/li/ul/li/div/div/div/div/span/i'
p963
F3.0376250722999174
sS'/html/body/div/div/div/div/div/div/div/div/div/ul/li/div'
p964
F7.1727846555815535
sS'/html/body/div/div/div/div/div/div/div/ul/li/div/a/div/p'
p965
F9.980139577639157
sS'/html/body/div/div/div/div/div/div/ul/li/div/li/div/li/div/li/div/li/div/div/div/div'
p966
F7.6582114827517955
sS'/html/body/div/div/div/div/div/div/div/div/ul/li/div/div/div/div/div/div/div/ul/li/div/li/div'
p967
F9.980139577639157
sS'/html/body/div/div/div/div/div/div/ul/li/div/div/div/div/ul/li/dl/dt/a/img'
p968
F9.980139577639157
sS'/html/body/div/div/div/div/div/div/div/div/ul/li/div/div/div/div/h4/a'
p969
F8.980139577639157
sS'/html/body/div/div/div/div/div/div/div/div/div/div/cc/div/p/img'
p970
F8.395177076918001
sS'/html/body/div/div/div/div/div/div/div/div/div/div/ul/li/a/img'
p971
F9.980139577639157
sS'/html/body/div/div/div/div/div/div/div/div/ul/li/dl/dd'
p972
F9.980139577639157
sS'/html/body/div/div/div/div/div/div/ul/li/div/li/div/li/div/div/div/div/div/div/div/div/div/span'
p973
F7.6582114827517955
sS'/html/body/div/div/div/div/div/div/div/div/div/div/div/div/div/div/div/div/a/span/span'
p974
F5.279699859498065
sS'/html/body/div/div/div/div/div/div/ul/li/div/li/div/div/div/div/div/div'
p975
F9.980139577639157
sS'/html/body/div/div/div/div/div/div'
p976
F0.6878179448371182
sS'/html/body/div/div/div/div/div/div/ul/li/div/div/div/div/div/p/a'
p977
F7.980139577639158
sS'/html/body/div/div/div/div/div/div/div/div/div/div/cc/div/div/div/ul/li/div/div/p'
p978
F8.395177076918001
sS'/html/body/div/div/div/div/div/div/ul/li/div/div/div/div/div/p/b'
p979
F9.980139577639157
sS'/html/body/div/div/div/div/div/div/div/div/ul/li/span'
p980
F2.6947373587769086
sS'/html/body/div/div/div/div/div/div/div/div/div/div/form/input'
p981
F9.980139577639157
sS'/html/body/div/div/div/div/div/div/ul/li/div/li/div/li/div/div/div/div/div/div/div/ul/li/a/img'
p982
F6.395177076918001
sS'/html/body/div/div/div/div/div/div/div/div/ul/li/div/i'
p983
F9.980139577639157
sS'/html/body/div/div/div/div/div/div/div/div/ul/li/div/a'
p984
F5.225252075475689
sS'/html/body/div/div/div/div/div/div/ul/li/div/li/div/li/div/li/div/div/div/div/div/div/div/div'
p985
F8.395177076918001
sS'/html/body/div/div/div/div/div/div/div/div/ul/li/div/div/div/div/div'
p986
F5.587822154860397
sS'/html/body/div/div/div/div/div/div/div/ul/li/div/div/a'
p987
F9.980139577639157
sS'/html/body/div/div/a/img'
p988
F7.395177076918001
sS'/html/body/div/div/div/div/div/div/ul/li/div/div/div/ul/li/div/div/p/a'
p989
F5.122158582511585
sS'/html/body/div/div/div/div/div/div/div/div/ul/li/div/div/div/a'
p990
F6.980139577639157
sS'/html/body/div/div/div/div/div/div/span/strong'
p991
F9.980139577639157
sS'/html/body/div/div/div/div/div/div/div/div/div/div/div/div/div/div/div/div/span'
p992
F2.4102839693082094
sS'/html/body/div/div/div/div/div/div/ul/li/ul/li/div/div/div/div/span/span/span/div'
p993
F6.2796998594980655
sS'/html/body/div/div/div/div/div/div/ul/li/div/div/div/ul/li/div/div/p/i'
p994
F5.122158582511585
sS'/html/body/div/div/div/div/div/div/div/div/div/div/div/div/div/div/div/img'
p995
F3.7903150187591397
sS'/html/body/div/div/div/div/div/div/div/div/ul/li/div/p'
p996
F2.358087758182781
sS'/html/body/div/div/div/div/div/div/div/div/ul/li/div/li/div/li/div/div/div/span'
p997
F9.980139577639157
sS'/html/body/div/div/div/div/div/div/ul/li/div/li/div/li/div/li/div/li/div/div/h4/span'
p998
F7.6582114827517955
sS'/html/body/div/div/div/div/div/div/form/a'
p999
F1.8768517692271354
sS'/html/body/div/div/div/div/div/div/ul/li/div/li/div/li/div/li/div/li/div/div/div/a/i'
p1000
F7.6582114827517955
sS'/html/body/div/div/div/div/div/div/div/div/div/div/cc/div/div/div/ul/li/span'
p1001
F8.980139577639157
sS'/html/body/div/div/div/div/div/div/div/div/div/div/div/div/div/table/thead/tr/td'
p1002
F2.205352518037984
sS'/html/body/div/div/div/div/div/div/div/div/div/ul/li/i'
p1003
F3.097496528277316
sS'/html/body/div/div/div/div/div/div/ul/li/div'
p1004
F7.395177076918001
sS'/html/body/div/div/div/div/div/div/div/dl/dd'
p1005
F5.073248982030639
sS'/html/body/div/div/div/div/div/div/div/div/ul/li/div/li/div/div/div/a'
p1006
F7.980139577639158
sS'/html/body/div'
p1007
F0.22859551855005897
sS'/html/body/div/div/div/div/div/div/div/div/div/div/cc/div/div/a/span/span/span'
p1008
F6.980139577639157
sS'/html/body/div/div/div/div/div/div/div/div/ul/li/a'
p1009
F1.300659478133711
sS'/html/body/div/div/div/div/div/ul/li'
p1010
F6.980139577639157
sS'/html/body/div/div/div/div/div/div/ul/li/div/div/div/div/ul/li/a/em'
p1011
F9.980139577639157
sS'/html/body/div/div/div/div/div/div/ul/li/div/li/div/li/div/li/div/div/div/div/span/i'
p1012
F6.810214576196845
sS'/html/body/div/div/div/div/div/div/div/div/ul/li/div/li/div/div/div/div'
p1013
F9.980139577639157
sS'/html/body/div/div/div/div/div/div/div/div/ul/li/div/li/div/div/ul/li/div/a/img'
p1014
F9.980139577639157
sS'/html/body/div/div/div/div/div/div/div/div/ul/li/dl/dt/span/a'
p1015
F9.980139577639157
sS'/html/body/div/div/div/div/div/div/ul/li/div/li/div/li/div/li/div/div/div/div/span/a'
p1016
F6.810214576196845
sS'/html/body/div/div/div/div/div/div/div/div/ul/li/div/li/div/li/div/li/div/div/div/div/span/img'
p1017
F9.980139577639157
sS'/html/body/div/div/div/div/div/div/div/h2/span/a'
p1018
F9.980139577639157
sS'/html/body/div/div/div/div/div/div/div/div/ul/li/div/li/div/div/div/div/div/div/a/span/span'
p1019
F9.980139577639157
sS'/html/body/div/div/div/div/div/div/div/div/div/div/cc/div/span/strong/br'
p1020
F9.980139577639157
sS'/html/body/div/div/div/div/div/div/ul/li/div/li/div/div/div/p/a'
p1021
F8.395177076918001
sS'/html/body/div/div/div/div/div/div/div/a/i'
p1022
F1.406492390145835
sS'/html/body/div/div/div/div/div/div/div/dl/dd/div/ul/li/div/p/a'
p1023
F5.073248982030639
sS'/html/body/div/div/div/div/div/div/ul/li/div/div/div/ul/li/div/a'
p1024
F7.1727846555815535
sS'/html/body/div/div/div/div/div/div/div/div/ul/li/div/div/div/ul/li/a'
p1025
F8.395177076918001
sS'/html/body/div/div/div/div/div/div/div/div/div/div/div/div/div/div/div/span'
p1026
F1.2252520754756886
sS'/html/body/div/div/div/div/div/div/ul/li/div/li/div/li/div/li/div/li/div/div/span'
p1027
F7.395177076918001
sS'/html/body/div/div/div/div/div/div/ul/li/div/div/div/div/div/span/a'
p1028
F4.42555072596152
sS'/html/body/div/div/div/div/ul/li/span'
p1029
F6.810214576196845
sS'/html/body/div/div/div/div/div/div/div/ul/li/span'
p1030
F1.3876825403710766
sS'/html/body/div/div/p/label'
p1031
F7.980139577639158
sS'/html/body/div/div/div/div/div/div/div/div/div/div/div/div/div/div/div/div/a/span/em'
p1032
F3.9577717646107025
sS'/html/body/div/div/div/div/div/div/div/div/div/div/cc/div/a'
p1033
F2.8611985049156496
sS'/html/body/div/div/div/div/div/div/ul/li/div/li/div/div/div/ul/li/div/a/img'
p1034
F6.6582114827517955
sS'/html/body/div/div/div/div/div/div/div/div/ul/li/div/li/div/li/div/li/div/div/div/div/div/div/div/ul/li/div/a'
p1035
F9.980139577639157
sS'/html/body/div/div/div/div/div/div/div/div/div/div/cc/div/div/span/strong/br'
p1036
F9.980139577639157
sS'/html/body/div/span/script'
p1037
F7.980139577639158
sS'/html/body/div/div/div/div/div/div/div/div/ul/li/div/li/div/li/div/div/div/div/span/a'
p1038
F7.6582114827517955
sS'/html/body/div/div/div/div/div/div/ul/div/div/div/div'
p1039
F2.4027107496034086
sS'/html/body/div/div/div/div/div/div/div/div/ul/li/div/div/div/div/span/div/a'
p1040
F6.073248982030639
sS'/html/body/div/div/div/div/div/div/div/div/ul/li/div/li/div/li/div/li/div/li/div/li/div/div/div/div/span'
p1041
F9.980139577639157
sS'/html/body/div/div/div/div/div/div/div/div/ul/li/div/div/div/div/span/div/span/div'
p1042
F7.6582114827517955
sS'/html/body/div/div/div/div/div/div/div/div/div/div/cc/div/div/div/ul/li/span/strong'
p1043
F8.395177076918001
sS'/html/body/div/div/form/span/input'
p1044
F7.980139577639158
sS'/html/body/div/div/div/div/div/div/ul/li/div/li/div/li/div/li/div/li/div/div/div/div/ul/li/dl/dd/a/em'
p1045
F9.980139577639157
sS'/html/body/div/div/div/div/div/div/div/div/ul/li/div/li/div/li/div/li/div/li/div/li/div/div/div/div/span/a'
p1046
F9.980139577639157
sS'/html/body/div/div/div/div/div/div/div/div/ul/li/div/li/div/li/div/li/div/li/div/div/div/div/div/a/span/img'
p1047
F9.980139577639157
sS'/html/body/div/div/div/div/div/div/div/div/div/div/div/div/div/div/a'
p1048
F1.5835347964572986
sS'/html/body/div/div/div/div/div/ul/li/div/div/span'
p1049
F3.9577717646107025
sS'/html/body/div/div/div/div/div/div/div/div/div/p/span'
p1050
F9.980139577639157
sS'/html/body/div/div/div/div/div/div/ul/li/div/li/div/li/div/li/div/li/div/div/div/div/ul/li/dl/dt/em'
p1051
F9.980139577639157
sS'/html/body/div/div/div/div/div/div/ul/li/div/li/div/li/div/li/div/div/div/div/div/div/div/ul/li/div/a'
p1052
F7.395177076918001
sS'/html/body/div/div/div/div/div/div/div/div/div/div/div/div/div/label/input'
p1053
F8.395177076918001
sS'/html/body/div/div/div/div/div/div/ol/li/p'
p1054
F8.395177076918001
sS'/html/body/div/div/div/div/div/div/div/div/ul/li/div/li/div/li/div/li/div/li/div/div/div/div/div/span/a'
p1055
F9.980139577639157
sS'/html/body/div/link'
p1056
F7.6582114827517955
sS'/html/body/div/div/div/div/div/div/ul/li/div/li/div/li/div/li/div/li/div/div/div/ul/li/a'
p1057
F7.6582114827517955
sS'/html/body/div/div/div/div/div/div/ul/li/ul/li/div/div/div/div/a'
p1058
F3.0376250722999174
sS'/html/body/div/div/div/div/div/div/div/div/ul/li/div/li/div/li/div/div/div/div/div/div/div/ul/li/div/a'
p1059
F8.980139577639157
sS'/html/body/div/div/div/div/div/div/ul/li/div/li/div/li/div/li/div/li/div/div/div/div/div/span'
p1060
F7.6582114827517955
sS'/html/body/div/div/div/div/div/div/div/div/div/dl/dt/span/img'
p1061
F6.980139577639157
sS'/html/body/div/div/div/div/div/div/ul/li/div/li/div/li/div/li/div/div/div/div/span/span/a/div'
p1062
F7.395177076918001
sS'/html/body/div/div/div/div/div/div/ul/li/ul/li/div/div/div/div/i'
p1063
F3.0376250722999174
sS'/html/body/div/div/div/div/div/div/div/div/ul/li/div/div/div/span'
p1064
F6.980139577639157
sS'/html/body/div/div/div/div/div/div/div/div/ul/li/div/li/div/li/div/li/div/li/div/div/div/div/span/div/a/div'
p1065
F9.980139577639157
sS'/html/body/div/div/div/div/div/div/div/form/span/a'
p1066
F2.587822154860397
sS'/html/body/div/div/div/div/div/div/ul/div/div/div'
p1067
F3.8102145761968447
sS'/html/body/div/div/div/div/div/div/div/div/ul/li/div/li/div/li/div/li/div/li/div/li/div/li/div/div/div/div/div/div/div/ul/li/div'
p1068
F9.980139577639157
sS'/html/body/div/div/div/div/div/div/div/div/ul/li/div/li/div/li/div/li/div/div/div/div/span/div/span/div'
p1069
F9.980139577639157
sS'/html/body/div/div/div/div/div/div/div/div/div/div/div/div/div/div/div/div/div/div/span'
p1070
F2.1792396777188525
sS'/html/body/div/div/div/div/div/div/ul/li/div/li/div/li/div/li/div/li/div/li/div/div/div/div/div/div/div/ul/li/div'
p1071
F8.395177076918001
sS'/html/body/div/div/div/div/div/div/div/div/ul/li/div/li/div/li/div/li/div/li/div/div/div/h4'
p1072
F9.980139577639157
sS'/html/body/div/div/div/div/div/ul/li/span/a'
p1073
F4.307714235667662
sS'/html/body/div/div/div/div/div/div/div/div/div/div/cc/div/div/span/strong'
p1074
F8.980139577639157
sS'/html/body/div/div/div/div/a/span'
p1075
F9.980139577639157
sS'/html/body/div/div/div/div/div/div/div/ul/li'
p1076
F2.7322120641955716
sS'/html/body/div/div/div/div/div/div/div/div/div/ul/li/span/span/div'
p1077
F5.336283387864433
sS'/html/body/div/div/div/div/div/div/ul/li/div/li/div/li/div/div/div/div/div/span'
p1078
F6.810214576196845
sS'/html/body/div/div/div/div/div/div/div/div/div/div/input'
p1079
F8.395177076918001
sS'/html/head/title'
p1080
F0.0
sS'/html/body/div/div/div/div/div/div/ul/li/div/li/div/li/div/li/div/li/div/div/div/div/div/span/i'
p1081
F7.6582114827517955
sS'/html/body/div/div/div/div/div/div/div/dl/dd/div/span'
p1082
F5.1727846555815535
sS'/html/body/div/div/div/div/div/div/div/div/ul/li/div/li/div/div/div/div/div/div/div/ul/li/div'
p1083
F7.1727846555815535
sS'/html/body/div/div/div/div/div/div/div/div/div/a/span/img'
p1084
F3.097496528277316
sS'/html/body/div/div/div/div/div/div/ul/li/div/div/div/div/div/div/div'
p1085
F8.980139577639157
sS'/html/body/div/div/div/div/div/div/ul/li/div/li/div/li/div/li/div/li/div/li/div/div/div/div/div/span/i'
p1086
F7.6582114827517955
sS'/html/body/div/div/div/div/div/h1/span/i'
p1087
F1.941220588346855
sS'/html/body/div/div/div/div/div/div/ul/li/div/div/div/div/div/ul/li/i'
p1088
F7.1727846555815535
sS'/html/body/div/div/div/div/div/div/ul/li/div/li/div/li/div/li/div/li/div/div/h4/a'
p1089
F9.980139577639157
sS'/html/body/div/div/div/div/div/div/div/div/div/dl/dd/div/ul/li/div/a/img'
p1090
F6.980139577639157
sS'/html/body/div/div/div/div/div/div/ul/li/div/script'
p1091
F9.980139577639157
sS'/html/body/div/div/div/div/div/div/div/div/div/div/cc/div/span/span/strong'
p1092
F9.980139577639157
sS'/html/body/div/div/div/div/div/div/div/div/ul/li/div/li/div/li/div/li/div/li/div/div/div/ul/li/span'
p1093
F9.980139577639157
sS'/html/body/div/div/div/div/div/div/div/div/ul/li/div/li/div/li/div/li/div/div/div/div/div/div/div/ul/li/div/img'
p1094
F8.980139577639157
sS'/html/body/div/div/div/div/div/div/ul/li/div/li/div/li/div/li/div/li/div/div/h4/i'
p1095
F7.6582114827517955
sS'/html/body/div/div/div/div/a/span/em'
p1096
F8.980139577639157
sS'/html/body/div/div/div/div/div/div/ul/li/div/li/div/div/div/a'
p1097
F7.1727846555815535
sS'/html/body/div/div/div/div/div/div/div/div/ul/i'
p1098
F9.980139577639157
sS'/html/body/div/div/div/div/div/div/div/ul/li/div/a/img'
p1099
F1.0376250722999172
sS'/html/body/div/div/div/div/div/div/div/div/div/div/div/div/div/div/div/div/div/div/a'
p1100
F7.980139577639158
sS'/html/body/div/div/div/div/div/div/div/div/ul/li/div/div/div/a/span/span'
p1101
F8.395177076918001
sS'/html/body/div/div/div/div/div/div/ul/li/div/li/div/li/div/div/h3'
p1102
F8.395177076918001
sS'/html/body/div/div/div/div/div/div/div/div/h4/span/span'
p1103
F9.980139577639157
sS'/html/body/div/div/div/div/div/div/link'
p1104
F9.980139577639157
sS'/html/body/div/div/div/div/div/div/div/div/div/div/p/input'
p1105
F9.980139577639157
sS'/html/body/div/div/div/div/div/div/ul/li/div/li/div/div/div/div/div/div/div/ul/li/div/img'
p1106
F5.980139577639157
sS'/html/body/div/div/div/div/div/div/ol/li/div/span'
p1107
F8.395177076918001
sS'/html/body/div/div/div/div/div/div/ul/li/div/li/div/li/div/li/div/li/div/li/div/div/div/a'
p1108
F7.6582114827517955
sS'/html/body/div/div/div/div/div/div/div/div/a/span'
p1109
F1.653710090516854
sS'/html/body/div/div/div/div/div/div/div/div/ul/li/div/li/div/li/div/li/div/li/div/div/div/div/div/button'
p1110
F9.980139577639157
sS'/html/body/div/div/div/div/div/div/div/div/ul/li/div/li/div/div/div/div/h4/a'
p1111
F9.980139577639157
sS'/html/body/div/div/div/div/div/div/ul/li/span/a'
p1112
F4.252219123075958
sS'/html/body/div/div/div/div/div/div/div/div/ul/li/div/li/div/li/div/li/div/div/div/div/span/a'
p1113
F8.980139577639157
sS'/html/body/div/div/div/div/div/div/ul/li/div/div/div/div/div/div/div/div/div/button'
p1114
F9.980139577639157
sS'/html/body/div/div/div/div/ul/li/div/a'
p1115
F8.980139577639157
sS'/html/body/div/div/div/div/div/div/div/div/ul/li/div/li/div/li/div/li/div/li/div/li/div/li/div/div/div'
p1116
F9.980139577639157
sS'/html/body/div/div/div/div/div/div/div/div/div/div/cc/div/div/strong'
p1117
F9.980139577639157
sS'/html/body/div/div/div/div/div/div/div/div/div/div/div/h4/a'
p1118
F8.395177076918001
sS'/html/body/div/div/div/div/div/div/div/ul/li/i'
p1119
F2.448758117122845
sS'/html/body/div/div/div/div/div/div/ol/li/div/p'
p1120
F8.395177076918001
sS'/html/body/div/div/div/div/div/div/div/table/tr/td/ul/li/b'
p1121
F8.980139577639157
sS'/html/body/div/div/div/div/div/div/div/table/tr/td/ul/li/a'
p1122
F8.980139577639157
sS'/html/body/div/div/div/div/div/div/div/div/ul/li/div/li/div/li/div/li/div/div/div/div/span/span'
p1123
F8.980139577639157
sS'/html/body/div/div/div/div/div/div/ul/div/div/div/span'
p1124
F2.4027107496034086
sS'/html/body/div/div/div/div/div/div/ul/li/div/li/div/li/div/li/div/li/div/div/div/div/span/span/a'
p1125
F8.980139577639157
sS'/html/body/div/div/div/div/div/div/div/ul/li/div/a'
p1126
F3.073248982030638
sS'/html/body/div/div'
p1127
F4.980139577639157
sS'/html/body/div/div/div/div/div/div/div/div/div/div/div/div/table/thead/tr/td'
p1128
F1.653710090516854
sS'/html/body/div/div/div/div/div/div/div/div/ul/li/div/div/div/div/span/span'
p1129
F5.587822154860397
sS'/html/body/div/div/div/div/div/div/ul/li/div/li/div/li/div/li/div/li/div/li/div/div/div/div/div'
p1130
F7.6582114827517955
sS'/html/body/div/div/div/div/div/div/ol/li/div/div/span'
p1131
F8.395177076918001
sS'/html/body/div/div/div/div/div/div/div/div/div/div/cc/div/div/p/a'
p1132
F9.980139577639157
sS'/html/body/div/div/div/div/script'
p1133
F7.980139577639158
sS'/html/body/div/div/div/div/div/div/ul/li/div/li/div/li/div/div/div/div/div/div/div/div/span/select'
p1134
F7.6582114827517955
sS'/html/body/div/div/div/div/div/div/div/div/a'
p1135
F0.7016901194186755
sS'/html/body/div/div/div/div/div/div/ul/li/div/li/div/li/div/li/div/div/div/ul/li/div/div/p/i'
p1136
F9.980139577639157
sS'/html/body/div/div/div/div/div/div/div/div/div/div/div/div/div/a'
p1137
F8.395177076918001
sS'/html/body/div/div/div/div/div/div/ul/div/div/div/a'
p1138
F2.4027107496034086
sS'/html/body/div/div/div/div/div/div/div/div/ul/li/div/div/div/h4'
p1139
F8.395177076918001
sS'/html/body/div/div/div/div/div/div/ul/li/div/li/div/li/div/li/div/div/div/ul/li/div/div/p/a'
p1140
F9.980139577639157
sS'/html/body/div/div/div/div/div/div/ul/li/div/div/div/div/div/div/div/ul/li/a'
p1141
F8.395177076918001
sS'/html/body/div/div/div/div/p/br'
p1142
F6.980139577639157
sS'/html/body/div/div/div/div/div/div/div/dl/a/dd/div/p/span'
p1143
F8.980139577639157
sS'/html/body/div/div/div/div/div/div/div/div/ul/li/div/div/div/div/div/div/div/div/a/img'
p1144
F8.980139577639157
sS'/html/body/div/div/div/div/div/div/div/div/h4/i'
p1145
F9.980139577639157
sS'/html/body/div/div/div/div/div/div/div/div/div/div/ul/li/a'
p1146
F5.892676736388818
sS'/html/body/div/div/div/div/div/div/div/div/ul/li/div/li/div/div/div/div/span/img'
p1147
F8.980139577639157
sS'/html/body/div/div/div/div/div/div/div/div/ul/li/div/li/div/li/div/li/div/li/div/li/div/li/div/div/div/div/span'
p1148
F9.980139577639157
sS'/html/body/div/div/div/div/div/div/div/dl/a/dd/input'
p1149
F8.980139577639157
sS'/html/body/div/div/div/div/div/div/ul/li/div/div/a/i'
p1150
F8.980139577639157
sS'/html/body/div/div/div/div/div/div/div/div/div/div/div/div/div/div/div/p'
p1151
F5.279699859498065
sS'/html/body/div/div/div/div/div/div/ul/li/div/li/div/li/div/li/div/li/div/div/div/div/div/div/div/ul/li/div/a'
p1152
F7.6582114827517955
sS'/html/body/div/div/div/div/div/div/div/div/div/dl/dd/span/span'
p1153
F6.980139577639157
sS'/html/body/div/div/div/div/div/div/ul/li/div/div/h4/i'
p1154
F7.1727846555815535
sS'/html/body/div/div/div/div/div/div/div/div/div/div/p/span'
p1155
F9.980139577639157
sS'/html/body/div/div/div/div/div/div/div/div/ul/li/div/div/div/div/img'
p1156
F9.980139577639157
sS'/html/body/div/div/div/div/div/div/div/div/ul/li/ul/li/div/div'
p1157
F6.2796998594980655
sS'/html/body/div/div/div/div/div/div/div/div/div/div/label/input'
p1158
F1.7274741451889084
sS'/html/body/div/div/div/div/div/div/div/div/ul/li/div/li/div/li/div/li/div/li/div/li/div/li/div/div/div/div/div'
p1159
F9.980139577639157
sS'/html/body/div/div/div/div/div/div/div/h2'
p1160
F9.980139577639157
sS'/html/body/div/div/div/div/div/div/div/div/ul/li/div/li/div/li/div/li/div/li/div/li/script'
p1161
F9.980139577639157
sS'/html/body/div/div/div/div/div/div/ul/li/div/li/div/div/div/div/span'
p1162
F4.42555072596152
sS'/html/body/div/div/div/div/div/div/div/div/ul/li/div/span/span/a'
p1163
F9.980139577639157
sS'/html/body/div/div/div/div/div/div/div/div/div/div/div/div/div/div/div/a'
p1164
F1.8926767363888177
sS'/html/body/link'
p1165
F1.3471443804961996
sS'/html/body/script'
p1166
F0.10515822998538267
sS'/html/body/div/div/div/div/div/div/div/div/div/div/div/div/div/span'
p1167
F1.4963238003749006
sS'/html/body/div/div/div/div/div/div/div/div/ul/li/div/li/div/li/div/li/div/li/div/div/div'
p1168
F9.980139577639157
sS'/html/body/div/div/div/div/div/div/div/div/div/div/div/div/div/i'
p1169
F9.980139577639157
sS'/html/body/div/div/div/div/div/div/div/ul/li/div/span'
p1170
F7.6582114827517955
sS'/html/body/div/div/div/div/div/span/span/div'
p1171
F7.6582114827517955
sS'/html/body/div/div/div/div/div/div/ul/li/div/div/div/div/div/div/div/ul/li/div/a'
p1172
F4.42555072596152
sS'/html/body/div/div/div/div/div/div/div/div/div/div/div/div/div/button'
p1173
F6.6582114827517955
sS'/html/body/div/div/div/div/div/div/ul/li/div/li/div/li/div/li/div/li/div/li/div/li/div/div/div/div/span/span/a/div'
p1174
F8.980139577639157
sS'/html/body/div/div/div/div/div/div/ul/li/div/li/div/li/div/div/div/a/i'
p1175
F9.980139577639157
sS'/html/body/div/div/div/div/div/div/div/div/ul/li/div/div/p/a'
p1176
F3.456577621582144
sS'/html/body/div/div/div/div/div/div/div/div/ul/li/div/a/img'
p1177
F2.9140503871813843
sS'/html/body/div/div/div/div/div/div/div/div/ul/li/div/li/div/li/div/div/div/div/div'
p1178
F7.6582114827517955
sS'/html/body/div/div/div/div/div/div/div/div/ul/li/div/li/div/li/div/li/div/li/div/li/div/li/div/div/div/div/span/a'
p1179
F9.980139577639157
sS'/html/body/div/div/p/a'
p1180
F3.892676736388818
sS'/html/body/div/div/div/div/div/div/div/div/h4/span'
p1181
F9.980139577639157
sS'/html/body/div/div/div/div/div/div/div/div/div/div/ul/li/div/a/p/span'
p1182
F5.980139577639157
sS'/html/body/div/div/div/div/div/div/div/div/div/div/cc/div/embed/br'
p1183
F8.980139577639157
sS'/html/body/div/div/div/div/div/div/ul/li/div/div/div/div/ins'
p1184
F7.395177076918001
sS'/html/body/div/div/div/div/div/div/div/div/div/div/div/ul'
p1185
F2.440980766531126
sS'/html/body/div/div/div/div/div/div/ul/li/input'
p1186
F2.0553270740333764
sS'/html/body/div/div/div/div/div/div/ul/li/div/li/div/li/div/li/div/li/div/li/div/div/div/ul/li/div/div/p/a'
p1187
F7.6582114827517955
sS'/html/body/div/div/div/div/ul/li/div/p/a'
p1188
F7.395177076918001
sS'/html/body/div/div/div/div/div/div/ul/li/div/div/div/img'
p1189
F9.980139577639157
sS'/html/body/div/div/div/div/div/div/span/div/input'
p1190
F9.980139577639157
sS'/html/body/div/div/div/div/div/div/ul/li/div/li/div/li/div/li/div/li/div/li/div/div/div/ul/li/div/div/p/i'
p1191
F7.6582114827517955
sS'/html/body/div/div/div/div/div/div/div/div/ul/li/div/li/div/li/div/li/div/div/div/div/span/div'
p1192
F9.980139577639157
sS'/html/body/div/div/div/div/div/div/div/div/div/div/div/div/div/span/select'
p1193
F8.395177076918001
sS'/html/body/div/div/div/div/div/div/div/div/div/div/cc/div/strong/img'
p1194
F8.980139577639157
sS'/html/body/div/div/div/div/div/div/div/div/div/span/a'
p1195
F5.395177076918001
sS'/html/body/div/div/div/div/div/div/div/div/div/dl/dd/div/ul/li/div/p/a'
p1196
F6.980139577639157
sS'/html/body/div/div/div/div/div/div/div/div/div/dl/dd/span/span/span'
p1197
F6.980139577639157
sS'/html/body/div/div/div/div/div/div/ul/li/div/li/div/div/div/div/div/div/div/ul/li/div/li/div'
p1198
F8.395177076918001
sS'/html/body/div/div/div/div/div/div/ul/div/div/ul/li/div'
p1199
F4.6947373587769095
sS'/html/body/div/div/div/div/div/div/ul/li/div/li/div/li/div/div/div/div/span/span/a/div'
p1200
F6.810214576196845
sS'/html/body/div/div/div/div/div/div/div/div/div/ul/li/div/a/div'
p1201
F1.3914249420568934
sS'/html/body/div/div/div/div/div/div/div/div/ul/li/div/li/div/div/div/p/a'
p1202
F9.980139577639157
sS'/html/body/div/div/div/div/div/div/ul/li/div/div/div/div/div/div/div/div/div/span'
p1203
F9.980139577639157
sS'/html/body/div/div/div/div/div/div/div/div/ul/script'
p1204
F5.732212064195571
sS'/html/body/div/div/div/div/div/div/div/div/ul/li/dl/dd/a'
p1205
F9.980139577639157
sS'/html/body/div/div/div/div/div/div/div/p/a'
p1206
F3.097496528277316
sS'/html/body/div/div/div/div/div/div/a/div'
p1207
F9.980139577639157
sS'/html/body/div/div/div/div/div/div/ul/li/div/div/div/div/ul/li/dl/dt/em/i'
p1208
F9.980139577639157
sS'/html/body/div/div/div/div/div/div/div/div/ul/li/div/li/div/li/div/li/div/li/div/li/div/li/div/div/div/div/div/a'
p1209
F9.980139577639157
sS'/html/body/div/div/div/div/div/div/ul/li/div/div/div/div/div/div/div/div'
p1210
F3.073248982030638
sS'/html/body/div/div/div/div/div/div/div/span/a'
p1211
F2.4178971534180844
sS'/html/body/div/div/div/div/div/div/div/div/div/ul/li/div/a'
p1212
F3.3362833878644325
sS'/html/body/div/div/div/div/div/div/ul/li/div/li/div/li/div/div/div/div/ins'
p1213
F9.980139577639157
sS'/html/body/div/div/div/div/div/div/div/div/div/div/div/div/div'
p1214
F1.395177076918001
sS'/html/body/div/div/div/div/div/div/div/div/div/ul/li/div/h6/a'
p1215
F9.980139577639157
sS'/html/body/div/div/div/div/div/div/ul/li/div/li/div/li/div/li/div/li/div/li/div/li/div/div/div/div/div/a/span/span'
p1216
F9.980139577639157
sS'/html/body/div/div/div/div/div/div/div/div/div/div/div/div/div/div/div/div/a'
p1217
F2.4882864813094825
sS'/html/body/div/div/div/div/div/div/div/dl/a/dd/div/div/div/label'
p1218
F8.980139577639157
sS'/html/body/div/div/div/div/div/div/div/div/div/div/div/ul/li/div/div/div/div/span'
p1219
F9.980139577639157
sS'/html/body/div/div/div/div/div/div/ul/li/div/li/div/li/div/li/div/li/div/div/div/div/span'
p1220
F7.395177076918001
sS'/html/body/div/div/div/div/div/div/div/div/div/ul/li/div/p'
p1221
F9.980139577639157
sS'/html/body/div/div/div/div/div/div/div/div/div/div/cc/div/strong/span/br'
p1222
F9.980139577639157
sS'/html/body/div/div/div/div/div/div/ul/li/div/div/div/div/div/div/div/ul/li/div/div/div'
p1223
F4.456577621582144
sS'/html/body/div/div/div/div/div/div/div/div/div/div/cc/div/div/span/br'
p1224
F9.980139577639157
sS'/html/body/div/div/div/div/div/div/div/div/ul/li/div/div/div/p/a'
p1225
F8.395177076918001
sS'/html/body/div/div/div/div/div/div/ul/li/div/div/div/ul'
p1226
F9.980139577639157
sS'/html/body/div/div/div/div/div/p'
p1227
F7.395177076918001
sS'/html/body/div/div/div/div/div/div/div/div/ul/li/dl/dt/em/i'
p1228
F5.225252075475689
sS'/html/body/div/div/div/div/div/div/ul/li/div/li/div/li/div/li/div/div/div/div/div/a'
p1229
F6.980139577639157
sS'/html/body/div/div/div/div/div/div/ul/li/div/li/div/li/div/li/div/li/div/div/div/div/ul/li/a/em'
p1230
F9.980139577639157
sS'/html/body/div/div/div/div/div/div/div/div/ul/li/div/li/script'
p1231
F8.395177076918001
sS'/html/body/div/div/div/div/div/div/div/div/div/div/div/div/div/div/p'
p1232
F2.205352518037984
sS'/html/body/div/div/div/div/div/div/div/ul/li/div/i'
p1233
F8.395177076918001
sS'/html/body/div/div/div/div/div/div/ul/li/div/li/div/li/div/li/div/div/div/div/div'
p1234
F6.810214576196845
sS'/html/body/div/div/div/div/div/div/div/div/div'
p1235
F0.7369655941662062
sS'/html/body/div/div/div/div/div/div/div/div/div/div/div/label/input'
p1236
F5.073248982030639
sS'/html/body/div/div/div/div/div/div/div/div/div/ul/li/div/span'
p1237
F3.134649526694782
sS'/html/body/div/div/div/div/div/b'
p1238
F0.6138173633933413
sS'/html/body/div/div/div/div/div/div/ul/li/div/li/div/li/div/li/div/li/div/li/div/div/span/a/i'
p1239
F7.6582114827517955
sS'/html/body/div/div/div/div/div/div/ul/li/div/li/div/li/div/div/div/a'
p1240
F6.980139577639157
sS'/html/body/div/a'
p1241
F3.0376250722999174
sS'/html/body/div/div/div/div/div/div/h2'
p1242
F7.980139577639158
sS'/html/body/div/div/div/div/div/div/h1'
p1243
F6.980139577639157
sS'/html/body/div/div/div/div/div/div/ul/li/div/li/div/li/div/li/div/li/div/div/h4/span/a'
p1244
F7.6582114827517955
sS'/html/body/div/div/div/div/div/div/div/div/div/div/cc/div/img'
p1245
F1.6181958039039157
sS'/html/body/div/div/div/div/div/div/div/div/div/div/div/a/span/span'
p1246
F6.520707959001861
sS'/html/body/div/div/div/div/div/div/ul/li/div/li/div/div/div/div/div/a/span'
p1247
F9.980139577639157
sS'/html/body/div/div/div/div/div/div/div/div/ul/li/a/img'
p1248
F4.336283387864433
sS'/html/body/div/div/div/div/div/div/div/div/div/ul/li/a/div/img'
p1249
F5.073248982030639
sS'/html/body/div/div/div/div/div/div/div/div/div/div/div/div/span/a/i'
p1250
F2.440980766531126
sS'/html/body/div/div/div/div/div/div/div/div/div/div'
p1251
F1.248820546614093
sS'/html/body/div/div/div/div/div/div/div/div/ul/li/div/li/div/li/div/li/div/li/div/div/div/div'
p1252
F9.980139577639157
sS'/html/body/div/div/div/div/div/div/div/div/ul/li/div/li/div/li/div/li/div/li/div/div/div/ul/li/a'
p1253
F9.980139577639157
sS'/html/body/div/div/div/div/div/div/div/div/div/div/cc/div/span'
p1254
F6.520707959001861
sS'/html/body/div/div/div/div/h2'
p1255
F6.980139577639157
sS'/html/body/div/div/div/div/div/div/div/div/div/div/cc/div/div/ul/li/div/a/img'
p1256
F8.980139577639157
sS'/html/body/div/div/div/script'
p1257
F2.537196081790429
sS'/html/body/div/div/div/div/div/ul/li/a/span/span'
p1258
F4.6947373587769095
sS'/html/body/div/div/div/div/div/div/ul'
p1259
F1.8873824367193046
sS'/html/body/div/div/div/div/div/img'
p1260
F8.395177076918001
sS'/html/body/div/div/div/div/div/div/div/div/div/div/div/div/div/div/div/div'
p1261
F1.9857861407802995
sS'/html/body/div/div/div/div/div/div/div/div/script'
p1262
F9.980139577639157
sS'/html/body/div/div/div/div/div/div/ul/li/div/li/div/li/div/div/div/div/span/span/a'
p1263
F7.395177076918001
sS'/html/body/div/div/div/div/div/div/div/p/i'
p1264
F7.6582114827517955
sS'/html/body/div/div/div/div/div/div/div/div/ul/li/div/li/div/li/div/li/div/li/div/div/div/div/div/span'
p1265
F9.980139577639157
sS'/html/body/div/div/div/div/div/div/div/div/ul/li/div/li/div/li/div/li/div/li/div/li/div/div/div/div/span/div/a/div'
p1266
F9.980139577639157
sS'/html/body/div/div/div/div/div/div/ul/li/div/div/h4/span'
p1267
F7.1727846555815535
sS'/html/body/div/div/div/div/div/h1/span'
p1268
F9.980139577639157
sS'/html/body/div/div/div/div/div/div/div/div/div/div/cc/div/div/div'
p1269
F8.395177076918001
sS'/html/body/div/div/div/div/div/div/div/div/div/div/div/input'
p1270
F3.085321814331214
sS'/html/body/div/div/div/div/div/div/ul/li/div/div/div/div/div/div/div/div/label/input'
p1271
F9.980139577639157
s.