(dp0
S'/html/body/div/div/div/div/div/div/table/tr/td/div/a/span'
p1
F4.836501267717121
sS'/html/body/div/div/div/div/form/fieldset/input'
p2
F0.5332423842738285
sS'/html/body/div/div/div/div/div/div/div/div/div/a'
p3
F2.217591435072627
sS'/html/body/div/div/div/div/div/div/div/div/h3/div/a/img'
p4
F2.7858751946471525
sS'/html/body/div/div/div/div/div/div/div/div/a/img'
p5
F2.5649048483799026
sS'/html/body/div/div/div/div/div/table/tbody/tr/td'
p6
F7.643856189774724
sS'/html/body/div/div/div/div/div/span/br'
p7
F5.795859283219775
sS'/html/body/div/div/div/div/div/div/p/br'
p8
F9.965784284662087
sS'/html/body/div/div/div/div/div/div/div/div/div/div/div/div/ul/li/a'
p9
F4.795859283219775
sS'/html/body/div/div/div/div/div/p/a'
p10
F2.1778817252706553
sS'/html/body/div/div/div/div/div/div/div/h3/div/a/img'
p11
F5.878321443411747
sS'/html/body/div/div/div/div/div/table/thead/tr/td/a'
p12
F9.965784284662087
sS'/html/body/div/div/div/div/div/div/div/div/div/div/div/div/span/a'
p13
F2.7563309190331373
sS'/html/body/div/div/div/div/div/div/table/tr/td/a'
p14
F8.380821783940931
sS'/html/body/div/div/div/div/div/div/div/div/div/div/dl/dd/span/a'
p15
F8.380821783940931
sS'/html/body/rss/channel/item/link'
p16
F5.878321443411747
sS'/html/body/div/div/div/div/div/div/div/div/div/div/p/br'
p17
F3.9885043611621707
sS'/html/body/div/div/div/span/a'
p18
F5.380821783940931
sS'/html/body/div/div/div/a'
p19
F0.5332423842738285
sS'/html/body/div/div/div/div/div/div/div/div/div/span'
p20
F1.857259827883918
sS'/html/body/div/div/div/div/div/div/div/span/input'
p21
F2.7563309190331373
sS'/html/head/meta'
p22
F0.02620507034739392
sS'/html/body/div/div/div/div/ul/li/div/br'
p23
F9.965784284662087
sS'/html/body/div/div/div/div/div/div/ul/li/ul/li/a'
p24
F5.965784284662088
sS'/html/body/div/div/div/div/div/div/div/div/span/div'
p25
F5.878321443411747
sS'/html/body/div/div/div/div/div/div/div/div/select/option'
p26
F7.380821783940932
sS'/html/body/div/div/div/div/div/table/thead/tr/td'
p27
F7.643856189774724
sS'/html/body/div/div/div/div/div/div/div/div/div/strong'
p28
F2.7563309190331373
sS'/html/body/div/div/div/div/div/div/div/h4/span'
p29
F9.965784284662087
sS'/html/body/div/div/div/div/div/div/div/p/a/wbr'
p30
F5.965784284662088
sS'/html/body/div/div/div/div/div/ul/li/dd/a'
p31
F7.158429362604482
sS'/html/body/div/div/div/div/div/div/div/form/input'
p32
F8.380821783940931
sS'/html/body/div/div/div/div/div/div/div/div/div/span/em'
p33
F3.5063526660247897
sS'/html/body/div/div/div/div/p/a'
p34
F2.15200309344505
sS'/html/body/div/div/div/div/div/div/div/ul/li/span/a'
p35
F3.7563309190331378
sS'/html/body/div/div/div/div/button'
p36
F3.7369655941662066
sS'/html/head/script'
p37
F0.02620507034739392
sS'/html/body/div/div/div/div/div/div/div/div/div/div/div/span/a'
p38
F2.1778817252706553
sS'/html/body/div/div/div/div/div/ul/li/div/div/ul/li'
p39
F7.965784284662087
sS'/html/body/div/div/div/div/div/table/tbody/tr/td/a'
p40
F7.643856189774724
sS'/html/body/div/div/div/div/div/div/ul/li/div/span/a'
p41
F4.158429362604483
sS'/html/body/div/div/div/div/div/p/br'
p42
F9.965784284662087
sS'/html/body/div/div/div/form/div/input'
p43
F1.780908941753803
sS'/html/body/div/div/div/div/div/div/div/div/div/div/div/div/a'
p44
F5.321928094887363
sS'/html/body/div/div/div/div/div/div/div/div/div/div/span/em'
p45
F5.878321443411747
sS'/html/body/div/div/div/div/div/button'
p46
F3.7369655941662066
sS'/html/body/div/div/div/div/div/div/div/form/div/div/input'
p47
F8.380821783940931
sS'/html/body/div/div/div/div/div/div/div/div/div/div/p/a'
p48
F8.380821783940931
sS'/html/body/div/div/div/div/div/div/ul/li/div/div/div/p'
p49
F8.380821783940931
sS'/html/body/div/div/div/div/div/div/div/div/div/span/link'
p50
F5.573466861883327
sS'/html/body/div/div/div/div/div/div/ul/li/ul/li/span'
p51
F5.965784284662088
sS'/html/body/div/div/div/div/div/div/div/br'
p52
F7.965784284662087
sS'/html/body/div/div/div/div/h2/span/a'
p53
F7.158429362604482
sS'/html/body/div/div/div/div/div/div/div/div/div/div/p'
p54
F2.139235797371172
sS'/html/body/div/div/div/div/div/span/div/span/a'
p55
F3.7369655941662066
sS'/html/body/div/div/div/div/div/div/div/div/span/a'
p56
F2.6529013293777317
sS'/html/body/div/div/div/div/div/div/link'
p57
F4.836501267717121
sS'/html/body/div/div/div/div/br'
p58
F2.4579896444633906
sS'/html/body/div/div/div/div/div/div/div/p/a/span'
p59
F3.5063526660247897
sS'/html/body/div/div/div/div/div/table/tbody/tr/td/span'
p60
F8.965784284662087
sS'/html/body/div/div/div/div/div/ul/li/span/a'
p61
F3.9885043611621707
sS'/html/body/rss/channel/copyright'
p62
F5.795859283219775
sS'/html/body/div/div/div/div/div/span/link'
p63
F5.717856771218502
sS'/html/body/div/div/div/div/div/div/div/form/div/div/button'
p64
F8.380821783940931
sS'/html/body/div/div/div/div/div/div/p/strong'
p65
F4.878321443411748
sS'/html/body/rss/channel/item/description'
p66
F5.878321443411747
sS'/html/body/div/div/div/div/div/div/table/tr/td/div/a'
p67
F4.965784284662088
sS'/html/body/div/div/div/div/div/div/div/div/ul/li/a/em'
p68
F5.878321443411747
sS'/html/body/div/div/div/div/div/div/div/div/dl/dt'
p69
F5.878321443411747
sS'/html/body/div/div/div/div/div/div/div/div/p/a/wbr'
p70
F7.158429362604482
sS'/html/body/div/div/div/div/div/div/span'
p71
F2.7563309190331373
sS'/html/body/div/div/div/div/div/div/dl/dd/a'
p72
F2.795859283219775
sS'/html/body/div/div/div/div/div/a/span'
p73
F5.643856189774724
sS'/html/body/div/div/div/div/div/div/table/tr/td/a/img'
p74
F4.836501267717121
sS'/html/body/div/div/div/div/div/div/dl/dd/p'
p75
F9.965784284662087
sS'/html/body/div/div/div/div/div/div/div/ul/li/a'
p76
F3.2515387669959646
sS'/html/body/div/div/div/div/div/div/img'
p77
F7.158429362604482
sS'/html/body/div/div/div/div/div/div/table/tr/td/p'
p78
F4.836501267717121
sS'/html/body/div/div/div/div/div/div/h1/span'
p79
F7.158429362604482
sS'/html/body/div/div/div/div/div/div/div/div/div/h3/a/img'
p80
F4.795859283219775
sS'/html/body/div/div/div/div/div/ul/li/a/img'
p81
F2.2378638300988882
sS'/html/body/div/div/div/div/ul/li/a/img'
p82
F4.9213901653036345
sS'/html/body/div/div/div/div/div/div/ul/li/ul/li/span/a'
p83
F8.380821783940931
sS'/html/body/rss/channel/item/creator'
p84
F5.878321443411747
sS'/html/body/div/div/div/div/div/div/div/div/form/div/input'
p85
F5.643856189774724
sS'/html/body/div/div/div/div/h2/a/span'
p86
F5.795859283219775
sS'/html/body/div/div/div/div/div/p/span/a'
p87
F8.380821783940931
sS'/html/body/div/div/div/div/div/div/a/div/img'
p88
F5.878321443411747
sS'/html/body/div/div/div/div/div/div/div/p'
p89
F3.107803289534515
sS'/html/body/div/div/div/div/div/div/div/div/h4/span'
p90
F5.878321443411747
sS'/html/body/div/div/div/div/div/span/div/span/script'
p91
F3.7369655941662066
sS'/html/body/div/div/div/div/div/div/div/a'
p92
F1.2108967824986185
sS'/html/body/div/div/div/div/div/div/div/div/div/div/h3/span/span'
p93
F2.7563309190331373
sS'/html/body/div/div/div/div/div/div/ul/li/div/div/span'
p94
F8.380821783940931
sS'/html/body/div/div/div/div/div/div/div/div/div/div/br'
p95
F9.965784284662087
sS'/html/body/div/div/div/div/div/div/div/div/div/div/div/div/span/em'
p96
F4.795859283219775
sS'/html/body/div/div/div/div/form/fieldset/legend'
p97
F0.5332423842738285
sS'/html/body/div/div/div/div/div/div/ul/li'
p98
F1.7273795453370082
sS'/html/body/div/div/div/div/div/div/div/div/div/div/p/a/img'
p99
F4.643856189774724
sS'/html/body/div/div/div/div/div/div/div'
p100
F2.4900508536956893
sS'/html/body/div/div/div/div/div/div/div/div/div/div/div/img'
p101
F9.965784284662087
sS'/html/body/div/div/div/div/div/ul/li/div/p'
p102
F7.158429362604482
sS'/html/body/div/div/div/div/div/div/div/div/br'
p103
F2.217591435072627
sS'/html/body/div/div/div/div'
p104
F0.8677522017015603
sS'/html/body/div/div/div/div/div/div/ul/li/h3'
p105
F3.7958592832197753
sS'/html/body/div/div/div/div/div/div/h3/a'
p106
F5.795859283219775
sS'/html/body/div/div/div/div/div/div/h2/i'
p107
F2.7563309190331373
sS'/html/body/rss/channel/item/pubdate'
p108
F5.878321443411747
sS'/html/body/div/div/div/div/div/div/h2/a'
p109
F6.795859283219775
sS'/html/body/div/div/div/div/div/span/img'
p110
F8.965784284662087
sS'/html/body/div/div/div/div/div/div/script'
p111
F1.9885043611621704
sS'/html/body/div/div/div/div/div/h2/span/a'
p112
F2.643856189774725
sS'/html/body/div/div/div/div/div/div/h2/span'
p113
F7.380821783940932
sS'/html/body/div/div/div/div/div/div/ul/li/img'
p114
F2.7273795453370084
sS'/html/body/div/div/div/div/div/div/div/div/div/a/span'
p115
F8.380821783940931
sS'/html/body/div/div/div/div/div/div/p'
p116
F4.573466861883327
sS'/html/body/div/div/div/div/ul/li/div'
p117
F5.795859283219775
sS'/html/body/div/div/div/div/div/div/div/dl/dd/a'
p118
F7.158429362604482
sS'/html/body/div/div/div/div/div/div/a/div/span'
p119
F5.878321443411747
sS'/html/body/div/div/div/div/div/div/div/div/div/div/span'
p120
F2.698997743967186
sS'/html/body/div/div/div/div/div/div/a'
p121
F1.3547594873547348
sS'/html/body/div/div/div/div/div/div/ul/li/script'
p122
F2.7563309190331373
sS'/html/body/div/div/div/div/div/ul/li/div/p/a'
p123
F7.158429362604482
sS'/html/body/div/div/div/div/div/div/div/span/span/a/img'
p124
F2.7563309190331373
sS'/html/body/div/div/div/div/link'
p125
F3.857259827883918
sS'/html/body/div/div/div/div/div/div/div/div/p/a/span'
p126
F5.878321443411747
sS'/html/body/div/div/div/form/div/script'
p127
F1.780908941753803
sS'/html/body/div/div/div/div/div/div/div/div/div/div/div/span/em'
p128
F2.7858751946471525
sS'/html/body/div/div/div/div/div/div/div/table/thead/tr/td'
p129
F5.965784284662088
sS'/html/body/div/div/div/div/div/div/div/span'
p130
F4.442222328605075
sS'/html/body/div/div/div/div/div/ul/li/div/div/a'
p131
F7.965784284662087
sS'/html/body/div/div/div/div/div/div/div/ul/li/h3/a'
p132
F3.5395195299599895
sS'/html/body/div/div/div/div/div/h4'
p133
F7.643856189774724
sS'/html/body/div/div/div/div/div/div/div/h3/span/input'
p134
F5.573466861883327
sS'/html/body/div/div/div/div/div/div/div/span/link'
p135
F7.380821783940932
sS'/html/body/div/div/div/ul/li/img'
p136
F5.965784284662088
sS'/html/body/div/div/div/form/div/a/img'
p137
F1.780908941753803
sS'/html/body/div/div/div/div/p/span/a'
p138
F2.5907448533151625
sS'/html/body/div/div/div/div/div/div/div/div/span/div/a/img'
p139
F6.965784284662088
sS'/html/body/div/div/div/div/div/div/div/div/ul/li/a'
p140
F5.878321443411747
sS'/html/body/div/div/div/div/div/div/div/input'
p141
F5.878321443411747
sS'/html/body/div/div/div/div/div/div/span/p/span'
p142
F3.77595972578207
sS'/html/body/div/div/div/div/div/div/div/div/div/div/dl/dt'
p143
F8.380821783940931
sS'/html/head/link'
p144
F0.5332423842738285
sS'/html/body/div/div/div/div/div/div/div/div/div/div/p/a/wbr'
p145
F4.836501267717121
sS'/html/body/div/div/div/div/div/div/div/div/div/div/div/span'
p146
F2.805912947883698
sS'/html/body/div/div/div/div/div/p/span/span/a'
p147
F5.878321443411747
sS'/html/body/div/div/div/div/div/div/div/div/div/span/div/a/img'
p148
F5.380821783940931
sS'/html/body/div/div/div/form/div/p/label'
p149
F1.780908941753803
sS'/html/body/div/div/div/div/div/div/ul/li/a/img'
p150
F4.321928094887363
sS'/html/body/div/div/div/div/div/div/dl/dd/img'
p151
F9.965784284662087
sS'/html/body/div/div/div/div/div/div/div/form/div/div'
p152
F8.380821783940931
sS'/html/body/img'
p153
F7.380821783940932
sS'/html/body/div/div/div/div/div/div/div/div/p/br'
p154
F6.158429362604484
sS'/html/body/div/div/ul/li/div/table/tbody/tr/td/a'
p155
F9.965784284662087
sS'/html/body/div/div/div/div/div/div/span/br'
p156
F3.1713684183119812
sS'/html/body/div/div/div/div/div/div/strong'
p157
F4.756330919033137
sS'/html/body/div/div/div/div/div/span'
p158
F0.5353317329965557
sS'/html/body/div/div/div/div/div/div/span/span'
p159
F4.680382065799838
sS'/html/body/div/div/div/div/div/div/div/div/div/div/ul/li'
p160
F3.5063526660247897
sS'/html/body/div/div/h1/a'
p161
F5.878321443411747
sS'/html/body/div/div/div/div/div/div/div/div'
p162
F3.3959286763311396
sS'/html/body/div/div/div/div/div/div/ul/li/ul/li/a/img'
p163
F8.380821783940931
sS'/html/body/div/div/div/div/div/div/div/h3/span/a'
p164
F5.573466861883327
sS'/html/body/div/div/div/div/div/ul/li/div/a'
p165
F2.7273795453370084
sS'/html/body/div/div/div/div/div/div/div/div/p/a'
p166
F5.795859283219775
sS'/html/body/div/div/a'
p167
F0.027674958442848223
sS'/html/body/div/div/div/div/div/div/div/div/div/div/div/div'
p168
F3.473931188332412
sS'/html/body/div/div/div/div/div/div/a/em'
p169
F5.795859283219775
sS'/html/body/div/div/div/div/div/div/div/div/form/div/select/option'
p170
F5.643856189774724
sS'/html/body/div/div/div/div/div/div/div/p/a/img'
p171
F3.3219280948873626
sS'/html/body/div/div/div/div/a'
p172
F0.5332423842738285
sS'/html/body/div/div/div/div/p'
p173
F0.5353317329965557
sS'/html/body/div/div/div/div/div/div/form/input'
p174
F3.7958592832197753
sS'/html/body/div/div/script'
p175
F1.780908941753803
sS'/html/body/div/div/div/div/div/div/ul/li/span'
p176
F1.639354797539784
sS'/html/body/div/div/div/div/div/br'
p177
F3.6620035364849843
sS'/html/body/div/div/div/div/div/div/div/div/div/div/div/h3/span/a'
p178
F9.965784284662087
sS'/html/body/div/div/div/div/div/div/p/a'
p179
F2.8677522017015606
sS'/html/body/div/div/div/div/div/div/style'
p180
F8.380821783940931
sS'/html/body/div/div/div/div/div/div/div/table/tbody/tr/td/span'
p181
F6.265344566520995
sS'/html/body/div/div/div/div/div/p/span'
p182
F5.795859283219775
sS'/html/body/div/div/div/div/div/div/div/div/div/div/a'
p183
F2.582079992188035
sS'/html/body/div/div/ul/li/a/span'
p184
F9.965784284662087
sS'/html/body/div/div/div/div/h2/span/span'
p185
F7.158429362604482
sS'/html/body/div/div/div/div/div/div/div/span/script'
p186
F3.5063526660247897
sS'/html/body/div/div/div/div/h2/a'
p187
F2.954557029238833
sS'/html/body/div/div/div/div/div/ul/li/span'
p188
F2.380821783940931
sS'/html/body/div/div/div/h1'
p189
F9.965784284662087
sS'/html/body/div/div/div/div/h2/i'
p190
F5.717856771218502
sS'/html/body/rss/channel/language'
p191
F5.795859283219775
sS'/html/body/div/div/div/div/div/div'
p192
F2.0469210473874924
sS'/html/body/div/div/div/div/div/div/div/div/p/span/br'
p193
F7.643856189774724
sS'/html/body/div/div/div/div/div/div/div/div/div/div/div/ul/script'
p194
F2.7858751946471525
sS'/html/body/div/div/span/a'
p195
F0.02620507034739392
sS'/html/body/div/script'
p196
F1.780908941753803
sS'/html/body/div/div/div/div/h3'
p197
F7.158429362604482
sS'/html/body/div/div/div/div/h2'
p198
F3.5395195299599895
sS'/html/body/div/div/div/div/h1'
p199
F3.7369655941662066
sS'/html/body/div/div/div/div/div/ul/li/span/span'
p200
F3.6259342817774622
sS'/html/body/div/div/div/div/div/div/ul/li/a'
p201
F1.9323612831246368
sS'/html/body/div/div/div/form/div/label'
p202
F1.780908941753803
sS'/html/body/div/div/div/div/div/div/div/span/span'
p203
F2.7466157641999254
sS'/html/body/div/div/div/ul/li/a'
p204
F0.5332423842738285
sS'/html/body/div/div/div/form/div/a'
p205
F1.780908941753803
sS'/html/body/div/div/div/div/div/div/div/div/div/div/a/img'
p206
F5.878321443411747
sS'/html/body/div/div/div/div/div/div/ul/li/div/a'
p207
F3.7958592832197753
sS'/html/body/div/div/div/p/a'
p208
F7.158429362604482
sS'/html/body/div/div/div/div/div/div/div/div/div/div/h4'
p209
F5.878321443411747
sS'/html/body/div/div/div/div/div/div/div/div/form/div/div/input'
p210
F5.643856189774724
sS'/html/body/div/div/div/div/div/div/div/div/div/h3/div/a/img'
p211
F4.795859283219775
sS'/html/body/div/div/div/div/div/div/div/ul'
p212
F9.965784284662087
sS'/html/body/div/div/div/div/ul/li/div/a'
p213
F5.878321443411747
sS'/html/body/div/div/div/div/div/div/div/script'
p214
F3.5063526660247897
sS'/html/body/div/div/div/div/div/div/ul/li/p/a'
p215
F5.878321443411747
sS'/html/body/div/div/div/div/div/div/div/div/div/div/img'
p216
F5.878321443411747
sS'/html/body/div/div/div/div/div/div/dl/dt/a/img'
p217
F2.795859283219775
sS'/html/body/div/div/div/div/div/div/div/h3/a/img'
p218
F5.878321443411747
sS'/html/body/div/div/div/div/div/div/div/div/div/div/div/h3/span/input'
p219
F9.965784284662087
sS'/html/body/div/div/div/div/div/strong'
p220
F3.7369655941662066
sS'/html/body/div/div/div/div/div/div/dl/dt'
p221
F9.965784284662087
sS'/html/body/div/div/div/div/div/div/div/div/div/div/span/a'
p222
F3.2108967824986188
sS'/html/body/div/div/div/div/ul/li/div/a/img'
p223
F5.878321443411747
sS'/html/body/div/div/div/div/div/div/div/div/div/a/img'
p224
F8.965784284662087
sS'/html/body/div/div/div/div/div/div/div/div/div/div/span/script'
p225
F3.5063526660247897
sS'/html/body/div/div/div/div/div/div/div/h3/a'
p226
F5.878321443411747
sS'/html/body/div/div/div/div/div/ul/li/div/a/img'
p227
F7.158429362604482
sS'/html/body/div/div/div/div/div/div/ul/div'
p228
F6.265344566520995
sS'/html/body/div/div/h1/span'
p229
F1.7273795453370082
sS'/html/body/rss/channel/item/encoded/br'
p230
F5.878321443411747
sS'/html/body/div/div/div/div/div/div/div/div/span/script'
p231
F3.921390165303634
sS'/html/body/div/div/div/div/div/span/span'
p232
F3.921390165303634
sS'/html/body/div/div/div/div/div/div/div/table/tbody/tr/td/a'
p233
F5.965784284662088
sS'/html/body/div/div/div/div/ul/li/br'
p234
F9.965784284662087
sS'/html/body/div/div/div/div/p/span'
p235
F9.965784284662087
sS'/html/body/div/div/div/div/div/div/div/div/span/span/a'
p236
F2.7563309190331373
sS'/html/body/div/div/div/div/div/ul/li/a/div/img'
p237
F8.380821783940931
sS'/html/body/div/div/div/div/div/ul/li'
p238
F1.5228407888133588
sS'/html/body/div/div/div/div/div/div/div/div/span'
p239
F1.8996950942043145
sS'/html/body/div/div/div/div/div/div/div/div/ul/li/a/strong'
p240
F5.878321443411747
sS'/html/body/div/div/div/div/div/div/div/div/div/br'
p241
F3.473931188332412
sS'/html/body/div/div/div/div/a/img'
p242
F0.5670405927238937
sS'/html/body/div/div/div/form/input'
p243
F1.780908941753803
sS'/html/body/div/div/div/div/div/div/h2/span/a'
p244
F2.0057823525940064
sS'/html/body/div/div/div/ul/li/div/table/tr/td/a'
p245
F0.5353317329965557
sS'/html/body/div/div/div/div/form/fieldset/label'
p246
F0.5332423842738285
sS'/html/body/div/div/div/div/div/div/ul/li/a/span'
p247
F5.878321443411747
sS'/html/body/rss/channel/link'
p248
F5.795859283219775
sS'/html/body/div/div/div/div/div/div/div/div/span/span'
p249
F2.7563309190331373
sS'/html/body/div/div/div/div/div/div/div/div/div/div/div/ul/li'
p250
F7.965784284662087
sS'/html/body/div/div/div/div/div/div/div/div/p/span'
p251
F4.836501267717121
sS'/html/body/div/div/div/div/div/div/label/input'
p252
F5.643856189774724
sS'/html/body/div/div/div/div/div/div/table/tr/td'
p253
F8.380821783940931
sS'/html/body/div/div/div/div/div/ul/li/dt'
p254
F7.158429362604482
sS'/html/body/div/div/div/div/div/div/div/ul/li/span'
p255
F2.643856189774725
sS'/html/body/div/div/div/div/style'
p256
F0.5670405927238937
sS'/html/body/div/div/div/div/div/ul/li/div/div'
p257
F3.3219280948873626
sS'/html/body/div/div/div/div/div/ul/li/p'
p258
F3.7369655941662066
sS'/html/body/div/div/ul/li/a'
p259
F1.7661119398257226
sS'/html/body/div/div/div/div/div/div/span/a'
p260
F1.2898272517203382
sS'/html/body/div/div/div/div/div/div/ul/li/div/em'
p261
F3.7958592832197753
sS'/html/body/div/div/div/div/div/ul/li/a'
p262
F1.3770696490798233
sS'/html/body/div/div/div/div/div/div/div/div/div/div/div/form/input'
p263
F8.965784284662087
sS'/html/body/div/div/div/div/div'
p264
F0.8756718649977985
sS'/html/body/div/div/div/div/div/div/div/div/div/div/div/ul/li/a'
p265
F2.63486740654747
sS'/html/body/div/div/div/div/div/div/br'
p266
F4.380821783940931
sS'/html/body/div/div/div/div/div/div/div/div/p/span/a'
p267
F5.878321443411747
sS'/html/body/div/div/div/div/div/div/div/div/div/div/span/div'
p268
F4.795859283219775
sS'/html/body/div/div/div/div/div/div/ul/li/p/span'
p269
F5.878321443411747
sS'/html/body/div/div/div/div/div/div/div/span/img'
p270
F9.965784284662087
sS'/html/body/div/div/div/div/div/div/div/div/div/div/div/span/form/input'
p271
F3.6620035364849843
sS'/html/body/div/div/div/div/div/div/div/table/tbody/tr/td'
p272
F5.965784284662088
sS'/html/body/div/div/div/div/div/div/div/div/div/div/span/div/a/img'
p273
F8.380821783940931
sS'/html/body/div/div/div/div/div/ul/li/h3/a'
p274
F3.7369655941662066
sS'/html/body/div/div/div/div/div/div/div/a/img'
p275
F2.0649174766813383
sS'/html/body/div/div/div/div/div/span/a'
p276
F2.8572598278839183
sS'/html/body/div/div/span'
p277
F0.02620507034739392
sS'/html/body/div/div/div/div/div/div/div/div/div/span/form/input'
p278
F5.878321443411747
sS'/html/body/div/div/div/div/div/a/img'
p279
F5.573466861883327
sS'/html/body/div/div/ul/li'
p280
F8.965784284662087
sS'/html/body/rss/channel/item/title'
p281
F5.878321443411747
sS'/html/body/div/div/div/div/div/div/span/link'
p282
F5.643856189774724
sS'/html/body/div/div/div/div/div/span/span/a'
p283
F3.7369655941662066
sS'/html/body/div/div/div/div/div/div/div/div/div/div/div/h3/span/span'
p284
F9.965784284662087
sS'/html/body/rss/channel/item/encoded/a'
p285
F5.878321443411747
sS'/html/body/div/div/div/div/div/div/div/div/form/input'
p286
F5.643856189774724
sS'/html/body/div/div/div/div/div/div/span/span/a'
p287
F4.836501267717121
sS'/html/body/div/div/div/form/div/p/a'
p288
F1.780908941753803
sS'/html/body/rss/channel/title'
p289
F5.795859283219775
sS'/html/body/div/div/div/div/div/span/script'
p290
F3.7369655941662066
sS'/html/body/div/div/div/div/div/div/table/tr/td/p/span'
p291
F4.9213901653036345
sS'/html/head/style'
p292
F0.02620507034739392
sS'/html/body/div/div/h1'
p293
F0.6214883767462703
sS'/html/body/div/div/div/div/div/div/div/div/div/div/div/a'
p294
F2.145605322246899
sS'/html/body/div/div/div/div/div/div/div/div/div/div/h3/span/input'
p295
F2.7563309190331373
sS'/html/body/div/div/div/div/div/div/div/div/div/div/div/p'
p296
F9.965784284662087
sS'/html/body/div/div/div/div/div/div/div/div/div/img'
p297
F8.965784284662087
sS'/html/body/div/div/div/div/div/div/div/div/p'
p298
F5.717856771218502
sS'/html/body/div/div/div/div/div/ul/li/a/span'
p299
F3.2243172982609405
sS'/html/body/div/div/div/div/div/address/a'
p300
F8.965784284662087
sS'/html/body/div/div/div/div/div/div/div/div/div/span/div'
p301
F2.7858751946471525
sS'/html/body/div/div/div/div/div/div/div/div/a'
p302
F2.089267338097087
sS'/html/body/div/div/div'
p303
F0.5670405927238937
sS'/html/body/div/div/div/span'
p304
F5.380821783940931
sS'/html/body/div/div/div/div/div/div/span/script'
p305
F2.6896598793878495
sS'/html/body/div/div/div/div/div/script'
p306
F2.380821783940931
sS'/html/body/div/div/div/div/div/div/div/div/dl/dd/span/a'
p307
F5.878321443411747
sS'/html/body/div/div/div/div/div/div/div/div/input'
p308
F8.380821783940931
sS'/html/body/div/div/div/div/div/div/div/div/h3/a'
p309
F2.7563309190331373
sS'/html/body/div/div/div/div/div/div/ul/li/div/div/div/a/h3'
p310
F8.380821783940931
sS'/html/body/div/div/div/div/div/div/div/div/div/div/div/div/div/span/a'
p311
F4.795859283219775
sS'/html/body/rss/channel/pubdate'
p312
F5.795859283219775
sS'/html/body/div/div/div/form/div/p/input'
p313
F1.780908941753803
sS'/html/body/div/div/div/div/div/div/div/dl/dt'
p314
F7.158429362604482
sS'/html/body/div/div/div/div/div/div/div/div/div/h3/a'
p315
F4.795859283219775
sS'/html/body/div/div/div/div/div/div/span/span/br'
p316
F6.380821783940931
sS'/html/body/div/div/div/div/div/div/div/h2/span/a'
p317
F3.7369655941662066
sS'/html/body/div/div/div/form/div/img'
p318
F1.780908941753803
sS'/html/body/div/div/div/div/div/div/div/div/h3/a/img'
p319
F2.7858751946471525
sS'/html/body/div/div/div/div/div/div/div/form/div/p/strong'
p320
F8.380821783940931
sS'/html/body/div/div/div/div/p/br'
p321
F2.5907448533151625
sS'/html/body/div/div/div/div/div/div/div/div/div/div/ul/li/a'
p322
F5.878321443411747
sS'/html/body/div/div/div/div/ul/li/span'
p323
F4.9213901653036345
sS'/html/body/div/div/div/div/div/div/span/p/a'
p324
F3.77595972578207
sS'/html/body/div/div/div/div/div/div/ul'
p325
F5.643856189774724
sS'/html/body/div/div/div/ul/li/a/span'
p326
F0.5353317329965557
sS'/html/body/div/div/div/div/div/ul/li/div/div/span'
p327
F2.965784284662087
sS'/html/body/div/div/div/div/div/div/div/div/span/form/input'
p328
F3.899695094204315
sS'/html/body/div/div/div/div/div/div/a/img'
p329
F2.0291463456595165
sS'/html/body/div/div/div/div/div/div/div/div/form/textarea'
p330
F5.643856189774724
sS'/html/body/div/div/div/div/div/ul/ul/li/a'
p331
F5.878321443411747
sS'/html/body/div/div/div/div/form/fieldset/div/input'
p332
F0.5332423842738285
sS'/html/body/div/div/div/div/span/a'
p333
F7.158429362604482
sS'/html/body/div/div/div/div/div/div/ul/li/div/a/img'
p334
F3.7369655941662066
sS'/html/body/div/div/div/div/ul/li/p'
p335
F9.965784284662087
sS'/html/head/title'
p336
F0.02620507034739392
sS'/html/body/div/div/div/div/div/h2'
p337
F1.741782610463982
sS'/html/body/div/div/div/div/ul/li/a'
p338
F4.878321443411748
sS'/html/body/div/div/div/div/div/div/div/div/div/div/h3/span/a'
p339
F2.7563309190331373
sS'/html/body/div/div/div/div/ul/li'
p340
F5.50635266602479
sS'/html/body/div/div/div/div/div/div/p/span/a'
p341
F5.795859283219775
sS'/html/body/div/div/div/div/div/div/div/h3/span/span'
p342
F5.573466861883327
sS'/html/body/div/div/div/div/div/div/div/div/div/div/ul/script'
p343
F5.878321443411747
sS'/html/body/div/div/div/div/div/div/div/span/a'
p344
F2.7858751946471525
sS'/html/body/div/div/div/div/div/div/div/form/div/div/label/input'
p345
F8.380821783940931
sS'/html/body/rss/channel/description'
p346
F5.795859283219775
sS'/html/body/div/div/div/div/div/div/div/div/a/span'
p347
F5.265344566520995
sS'/html/body/div/div/div/div/div/div/div/form/div/input'
p348
F8.380821783940931
sS'/html/body/div/div/div/div/div/div/ul/li/span/a'
p349
F2.7563309190331373
sS'/html/body/div/div/div/div/div/div/div/div/div/div/div/form/span/input'
p350
F8.965784284662087
sS'/html/body/div/div/div/div/div/h3/a'
p351
F8.965784284662087
sS'/html/body/div/div/div/div/script'
p352
F1.6348674065474702
sS'/html/body/div/div/div/div/div/div/a/span'
p353
F2.680382065799839
sS'/html/body/div/div/div/div/div/style'
p354
F4.878321443411748
sS'/html/body/div/div/div/div/div/ul'
p355
F5.210896782498619
sS'/html/body/div/div/div/div/div/h2/i'
p356
F2.643856189774725
sS'/html/body/div/div/div/div/div/div/div/div/div/div/div/a/span'
p357
F2.286304185156641
sS'/html/body/div/div/div/div/div/div/div/div/h4/a'
p358
F5.878321443411747
sS'/html/body/div/div/div/div/div/div/div/div/div/div/p/span'
p359
F9.965784284662087
sS'/html/body/div/div/div/div/div/div/div/h3'
p360
F5.878321443411747
sS'/html/body/div/div/div/div/div/div/div/h2'
p361
F3.4266254735540556
sS'/html/body/link'
p362
F0.5670405927238937
sS'/html/body/script'
p363
F0.02620507034739392
sS'/html/body/div/div/div/div/div/div/div/div/div/div/div/br'
p364
F9.965784284662087
sS'/html/body/div/div/img'
p365
F1.7710274302398394
sS'/html/body/div/div/div/div/div/div/ul/li/a/strong/em'
p366
F5.878321443411747
sS'/html/body/rss/channel/item/guid'
p367
F5.878321443411747
sS'/html/body/div/div/div/div/div/div/div/ul/li/a/img'
p368
F3.921390165303634
sS'/html/body/div/div/div/div/div/div/div/p/br'
p369
F4.756330919033137
sS'/html/body/div/div/div/div/div/div/div/div/div/span/a'
p370
F3.3219280948873626
sS'/html/body/div/div/div/div/div/ul/li/div/span'
p371
F7.965784284662087
sS'/html/body/div/div/div/div/div/div/ul/li/div/div'
p372
F3.9657842846620874
sS'/html/body/div/div/div/div/div/div/p/span'
p373
F4.265344566520995
sS'/html/body/div/div/div/div/div/div/div/div/div/div/div'
p374
F2.1202942337177118
sS'/html/body/div/div/div/div/div/p'
p375
F4.035046947099201
sS'/html/body/div/div/div/div/div/div/div/p/span'
p376
F3.5063526660247897
sS'/html/body/div/div/div/div/div/div/div/div/div'
p377
F1.8730271437422346
sS'/html/body/div/div/div/div/div/h3/span'
p378
F8.965784284662087
sS'/html/body/div/div/div/div/div/div/h5'
p379
F8.965784284662087
sS'/html/body/div/div/div/div/div/a'
p380
F0.5353317329965557
sS'/html/body/div/div/div/div/div/div/h2'
p381
F3.184424571137428
sS'/html/body/div/div/div/div/div/div/h1'
p382
F8.380821783940931
sS'/html/body/div/div/div/div/div/div/div/div/ul/li/a/img'
p383
F5.878321443411747
sS'/html/body/div/div/div/div/div/div/div/div/div/div'
p384
F2.1015981400078068
sS'/html/body/div/div/div/script'
p385
F7.158429362604482
sS'/html/body/div/div/div/div/div/div/div/p/a'
p386
F3.7563309190331378
sS'/html/body/div/div/div/div/div/div/div/div/div/div/div/div/ul/script'
p387
F4.795859283219775
sS'/html/body/div/div/div/div/div/div/div/div/script'
p388
F5.878321443411747
s.