(dp0
S'/html/body/div/div/div/div/div/table/tr/td/div/table/tr/td/div/div/div/span'
p1
F2.0297473433940523
sS'/html/body/div/div/div/div/div/div/div/div/div/a'
p2
F0.5378942470643775
sS'/html/body/div/div/div/noscript/div/img'
p3
F2.0297473433940523
sS'/html/body/div/div/div/div/ul/li/ul/li/a'
p4
F6.614709844115209
sS'/html/body/div/div/div/div/div/p/i'
p5
F5.029747343394052
sS'/html/body/div/div/div/div/div/div/p/br'
p6
F4.444784842672896
sS'/html/body/div/div/div/div/div/p/a'
p7
F4.444784842672896
sS'/html/body/div/div/div/div/div/p/b'
p8
F4.807354922057604
sS'/html/body/iframe'
p9
F7.6147098441152075
sS'/html/body/div/div/div/div/form/div/div/noscript/p/a'
p10
F3.8073549220576037
sS'/html/body/div/div/div/div/form/p/label/span'
p11
F7.6147098441152075
sS'/html/body/div/div/div/div/table/tr/td/div/div/span'
p12
F7.6147098441152075
sS'/html/body/div/div/div/div/div/div/div/div/div/div/ul/li/span'
p13
F2.914270125974116
sS'/html/body/div/div/div/form/div/div/div/blockquote/p'
p14
F7.6147098441152075
sS'/html/body/div/div/div/div/div/form/input'
p15
F2.444784842672896
sS'/html/body/div/div/div/div/div/div/div/div/div/div/div/div/span/span'
p16
F7.6147098441152075
sS'/html/body/div/div/div/div/div/table/tr/td/div/div/p/strong'
p17
F4.614709844115208
sS'/html/body/div/div/div/a'
p18
F0.029747343394051932
sS'/html/body/div/div/div/div/div/div/table/tbody/tr/td/a'
p19
F6.614709844115209
sS'/html/body/div/div/div/div/div/table/tr/td/div/div/p/img'
p20
F6.614709844115209
sS'/html/body/div/div/div/div/div/div/div/div/div/span'
p21
F0.8867893895520091
sS'/html/body/div/div/div/div/div/div/div/div/h2/span/a/b'
p22
F7.6147098441152075
sS'/html/body/div/div/div/div/div/table/tr/td/span'
p23
F6.614709844115209
sS'/html/body/div/div/div/div/form/div/div/div/div/a'
p24
F4.292781749227847
sS'/html/body/div/div/div/div/form/div/div/div/div/div/input'
p25
F4.292781749227847
sS'/html/body/div/div/div/div/div/table/tr/td/div/div'
p26
F6.614709844115209
sS'/html/body/div/div/div/div/table/tr/td/p/b/a'
p27
F7.6147098441152075
sS'/html/body/div/div/div/div/form/p/span'
p28
F7.6147098441152075
sS'/html/body/div/div/div/div/p/em'
p29
F7.6147098441152075
sS'/html/body/div/div/div/div/div/div/div/div/div/p'
p30
F2.914270125974116
sS'/html/body/div/div/div/div/table/tr/td/h1'
p31
F6.614709844115209
sS'/html/body/div/div/div/div/ul/li/p/em'
p32
F7.6147098441152075
sS'/html/body/div/div/div/form/table/tr/td/input'
p33
F6.029747343394052
sS'/html/body/div/div/div/div/div/div/div/ul/li/a/span'
p34
F2.8598223419517397
sS'/html/body/div/div/div/div/div/div/div/form/input'
p35
F7.6147098441152075
sS'/html/body/div/div/div/div/p/a'
p36
F4.614709844115208
sS'/html/body/div/div/div/div/p/b'
p37
F7.6147098441152075
sS'/html/body/div/div/div/div/h1/span'
p38
F7.6147098441152075
sS'/html/body/div/div/div/div/p/i'
p39
F7.6147098441152075
sS'/html/body/div/div/div/div/form/label'
p40
F5.614709844115208
sS'/html/body/div/div/div/div/div/div/div/div/div/div/div/div/span'
p41
F3.029747343394052
sS'/html/head/script'
p42
F0.029747343394051932
sS'/html/body/div/div/div/div/div/form/div/input'
p43
F2.485426827170242
sS'/html/body/div/div/div/div/b/a'
p44
F0.029747343394051932
sS'/html/body/div/div/div/div/div/div/ol/li'
p45
F2.0
sS'/html/body/div/div/br'
p46
F0.029747343394051932
sS'/html/body/feed/subtitle'
p47
F5.614709844115208
sS'/html/body/div/div/div/div/div/table'
p48
F7.6147098441152075
sS'/html/body/div/div/div/div/div/p/br'
p49
F5.029747343394052
sS'/html/body/div/div/div/div/div/table/tr/td/div/table/tbody/tr/td/div/span/code'
p50
F6.029747343394052
sS'/html/body/div/div/div/form/div/input'
p51
F5.292781749227846
sS'/html/body/div/div/div/div/div/table/tr/td/div/table/tbody/tr/td/div/a/span'
p52
F7.6147098441152075
sS'/html/body/div/div/div/form/div/div/div/div/div'
p53
F7.6147098441152075
sS'/html/body/div/div/div/div/div/div/div/div/span'
p54
F4.029747343394052
sS'/html/body/div/div/div/table/tr/td/a'
p55
F6.614709844115209
sS'/html/body/div/div/div/div/div/div/div/p/em/a'
p56
F6.614709844115209
sS'/html/body/div/div/div/div/div/table/tr/td/div/div/p/em'
p57
F4.155278225477911
sS'/html/body/div/div/div/div/div/table/tr/td/div/div/ul/li/p/code'
p58
F7.6147098441152075
sS'/html/body/div/div/div/div/div/div/div/div/div/div/i'
p59
F6.614709844115209
sS'/html/body/div/div/div/div/div/div/div/div/div/div/a'
p60
F3.1552782254779106
sS'/html/body/div/div/div/div/div/div/h3/span'
p61
F6.029747343394052
sS'/html/body/div/div/div/div/div/table/tr/td/div/div/ul/li/p/a'
p62
F7.6147098441152075
sS'/html/body/div/div/div/div/table/tr/td/span'
p63
F7.6147098441152075
sS'/html/body/div/div/div/div/div/div/div/div/div/div/p'
p64
F7.6147098441152075
sS'/html/body/div/div/div/div/div/table/tr/td/div/div/p/br'
p65
F6.614709844115209
sS'/html/body/div/div/div/div/div/div/table/tr/td/div/table/tbody/tr/td/div/span'
p66
F3.8073549220576037
sS'/html/body/div/div/div/div/form/p/select/option'
p67
F7.6147098441152075
sS'/html/body/div/div/div/form/div/div/div/div/div/script'
p68
F7.6147098441152075
sS'/html/body/div/div/div/div/table/tr/td/select/option'
p69
F6.614709844115209
sS'/html/body/feed/entry/link'
p70
F5.614709844115208
sS'/html/body/div/div/div/div/a/div/div/i'
p71
F7.6147098441152075
sS'/html/body/div/div/div/div/div/div/div/div/div/span/strong'
p72
F1.5923420310867535
sS'/html/body/div/div/div/div/br'
p73
F5.292781749227846
sS'/html/body/div/div/div/div/div/div/div/a/span'
p74
F4.614709844115208
sS'/html/body/div/div/div/div/div/div/div/h3/span'
p75
F2.914270125974116
sS'/html/body/div/div/div/div/div/form/div/div/div/div/h3/a'
p76
F2.485426827170242
sS'/html/body/div/div/div/div/div/ul/li/span/a'
p77
F7.6147098441152075
sS'/html/body/div/div/div/div/table/tr/td/span/span'
p78
F6.029747343394052
sS'/html/body/div/div/div/div/table/tr/td/div/div/a/div/img'
p79
F7.6147098441152075
sS'/html/body/feed/entry/updated'
p80
F5.614709844115208
sS'/html/body/div/div/div/table/tr/td/hr'
p81
F7.6147098441152075
sS'/html/body/div/div/div/div/div/form/div/a'
p82
F2.485426827170242
sS'/html/body/div/div/div/div/div/form/div/div/div/div/div/table/tr/td/div/input'
p83
F2.485426827170242
sS'/html/body/div/div/div/div/div/div/table/tr/td/div/a'
p84
F2.485426827170242
sS'/html/body/div/div/div/div/p/code'
p85
F7.6147098441152075
sS'/html/body/div/div/div/div/ul/li/p'
p86
F7.6147098441152075
sS'/html/body/div/div/div/div/div/div/div/div/div/div/span/span'
p87
F1.6147098441152081
sS'/html/body/div/div/div/div/div/div/table/tr/td/div/p'
p88
F2.660513533728333
sS'/html/body/div/div/div/div/div/table/tr/td/div/div/div/ul/li/span'
p89
F7.6147098441152075
sS'/html/body/div/div/div/div/div/div/span'
p90
F4.807354922057604
sS'/html/body/div/div/div/div/span'
p91
F1.5703157247567547
sS'/html/body/div/div/div/div/table/tr/td/label'
p92
F6.614709844115209
sS'/html/body/div/div/div/div/div/a/span'
p93
F0.8333501305905485
sS'/html/body/div/div/div/div/form/div/div/div/div/p'
p94
F5.614709844115208
sS'/html/body/div/div/div/div/div/div/img'
p95
F7.6147098441152075
sS'/html/body/div/div/div/div/form/p/br'
p96
F7.6147098441152075
sS'/html/body/div/div/div/div/table/tr/td/ol/li/a'
p97
F0.029747343394051932
sS'/html/body/div/div/div/div/div/div/table/tbody/tr/td/span'
p98
F6.614709844115209
sS'/html/body/div/div/div/div/div/div/div/a/div/svg'
p99
F6.614709844115209
sS'/html/body/div/div/div/div/form/div/div/div/a'
p100
F5.614709844115208
sS'/html/body/div/div/div/div/div/div/div/table/tbody/tr/td/a/span'
p101
F7.6147098441152075
sS'/html/body/div/div/div/div/div/table/tr/td/div/table/tr/td/div/div/a'
p102
F2.0297473433940523
sS'/html/body/div/div/div/div/div/div/table/tr/td/div/table/tbody/tr/td/div/a'
p103
F3.7078192485066896
sS'/html/body/div/div/div/div/div/div/a/div/img'
p104
F5.614709844115208
sS'/html/body/div/div/div/div/div/div/div/p'
p105
F3.8073549220576037
sS'/html/body/div/div/div/form/div/div/noscript/h3'
p106
F7.6147098441152075
sS'/html/body/div/div/div/table/thead/tr/th'
p107
F7.6147098441152075
sS'/html/body/div/div/div/form/div/div/div/p/a'
p108
F6.614709844115209
sS'/html/body/div/div/div/div/div/div/div/div/div/div/div/div/br'
p109
F7.6147098441152075
sS'/html/body/div/div/div/form/div/div'
p110
F5.292781749227846
sS'/html/body/div/div/div/div/div/table/tr/td/div/table/tbody/tr/td/div/span/span'
p111
F2.807354922057604
sS'/html/body/div/div/div/div/div/div/table/tbody/tr/td/span/span'
p112
F6.614709844115209
sS'/html/body/div/div/div/div/div/div/div/h3/span/span/i'
p113
F5.614709844115208
sS'/html/body/div/div/div/div/div/div/div/div/div/span/span'
p114
F2.7078192485066896
sS'/html/body/div/div/div/form/div/div/div/div/div/h3'
p115
F7.6147098441152075
sS'/html/body/div/div/div/div/form/div/a'
p116
F4.292781749227847
sS'/html/body/feed/entry/author/name'
p117
F5.614709844115208
sS'/html/body/div/div/div/div/table/tr/td/div'
p118
F5.292781749227846
sS'/html/body/div/div/div/link'
p119
F2.0297473433940523
sS'/html/body/div/div/div/div/div/p/span'
p120
F5.029747343394052
sS'/html/body/div/div/div/div/div/div/div'
p121
F1.3858911536193275
sS'/html/body/div/div/div/div/div/div/div/div/br'
p122
F6.029747343394052
sS'/html/body/div/div/div/div'
p123
F1.444784842672896
sS'/html/body/div/div/div/div/form/div/br'
p124
F4.292781749227847
sS'/html/body/div/div/div/div/div/div/h3/a'
p125
F1.6374299206152916
sS'/html/body/div/div/div/div/div/div/h2/b'
p126
F4.444784842672896
sS'/html/body/div/div/div/div/div/ul/li/div/a'
p127
F0.029747343394051932
sS'/html/body/div/div/div/div/div/ul/li/div'
p128
F2.0297473433940523
sS'/html/body/div/div/div/form/div/div/script'
p129
F7.6147098441152075
sS'/html/body/div/div/div/form/div/div/input'
p130
F5.292781749227846
sS'/html/body/div/div/div/form/div/div/div/table/tr/td/label'
p131
F5.614709844115208
sS'/html/body/div/div/div/div/div/div/h2/span/span'
p132
F4.444784842672896
sS'/html/body/div/div/div/div/form/div/div/div/div/label'
p133
F5.614709844115208
sS'/html/body/div/div/div/div/div/div/table/tr/td/div/p/em'
p134
F6.029747343394052
sS'/html/body/div/div/div/div/div/span/span'
p135
F1.8867893895520094
sS'/html/body/div/div/div/p'
p136
F6.614709844115209
sS'/html/body/div/div/div/div/div/div/div/div/div/a/span'
p137
F4.614709844115208
sS'/html/body/div/div/div/div/div/div/p'
p138
F2.1228567477855336
sS'/html/body/div/div/div/div/ul/li/div'
p139
F1.683972506552322
sS'/html/body/div/div/div/div/div/div/div/div/div/div/span'
p140
F1.5923420310867535
sS'/html/body/div/div/div/div/div/div/span/span'
p141
F6.029747343394052
sS'/html/body/div/div/div/div/div/div/b'
p142
F2.0
sS'/html/body/div/div/div/div/div/div/a'
p143
F0.029747343394051932
sS'/html/body/div/div/div/div/div/hr'
p144
F3.222392421336448
sS'/html/body/div/div/div/a/span'
p145
F0.029747343394051932
sS'/html/body/div/div/div/div/div/form/div/noscript/div/table/tr/td/div/label'
p146
F2.485426827170242
sS'/html/body/div/div/div/div/div/form/div/script'
p147
F2.485426827170242
sS'/html/body/div/div/div/div/table/tr/td/div/div/div/span'
p148
F7.6147098441152075
sS'/html/body/div/div/div/div/div/table/tr/td/div/div/p/a/img'
p149
F6.614709844115209
sS'/html/head/meta'
p150
F0.029747343394051932
sS'/html/body/div/div/div/div/div/div/div/a'
p151
F0.7198920808072646
sS'/html/body/div/div/div/form/div/script'
p152
F5.614709844115208
sS'/html/body/div/div/div/div/div/div/div/table/thead/tr/th'
p153
F7.6147098441152075
sS'/html/body/div/div/div/div/div/form/div/noscript/div/table/tr/td/div/input'
p154
F2.485426827170242
sS'/html/body/div/div/div/form/div/div/div/div/input'
p155
F7.6147098441152075
sS'/html/body/div/div/div/div/div/div/div/span'
p156
F3.0911478880581953
sS'/html/body/div/div/div/div/div/div/table/tr/td/div/span'
p157
F2.485426827170242
sS'/html/body/div/div/div/div/table/tr/td/div/div'
p158
F6.029747343394052
sS'/html/body/div/div/div/div/div/div/div/div/h2/span'
p159
F5.292781749227846
sS'/html/body/div/div/div/div/div/div/table/tr/td/div/table/tbody/tr/td/table/tbody/tr/td/span'
p160
F6.029747343394052
sS'/html/body/div/div/div/div/div/div/div/table/tr/td/div/span'
p161
F3.366782330671623
sS'/html/body/div/div/div/div/div/h4'
p162
F1.85982234195174
sS'/html/body/div/div/div/div/div/h3'
p163
F0.029747343394051932
sS'/html/body/div/div/div/div/div/h2'
p164
F5.029747343394052
sS'/html/body/div/div/div/div/div/form/div/div/div/div/script'
p165
F2.485426827170242
sS'/html/body/div/div/div/form/div/div/div/label'
p166
F6.029747343394052
sS'/html/body/div/div/div/div/form/div/div/div/div/noscript/p'
p167
F5.614709844115208
sS'/html/body/div/div/div/div/div/table/tr/td/div/div/blockquote/p'
p168
F4.807354922057604
sS'/html/body/div/div/div/div/table/tr/td/a/span'
p169
F6.029747343394052
sS'/html/body/div/div/div/div/div/div/div/div/div/div/div/div/div/div/img'
p170
F7.6147098441152075
sS'/html/body/div/div/div/div/p/span/a'
p171
F7.6147098441152075
sS'/html/body/div/div/div/div/h2/span'
p172
F6.614709844115209
sS'/html/body/div/div/div/div/form/div/div/div/input'
p173
F5.614709844115208
sS'/html/body/div/div/div/div/div/table/tr/td/div/table/tbody/tr/td/table/tbody/tr/td/span'
p174
F5.029747343394052
sS'/html/body/div/div/div/div/div/form/h2'
p175
F2.485426827170242
sS'/html/body/div/div/div/table/tr/td'
p176
F6.614709844115209
sS'/html/head/link'
p177
F0.029747343394051932
sS'/html/body/div/div/div/form/div/style'
p178
F6.614709844115209
sS'/html/body/div/div/div/table/tr/th'
p179
F7.6147098441152075
sS'/html/body/div/div/div/div/div/div/div/div/div/div/div/span'
p180
F7.6147098441152075
sS'/html/body/div/div/div/div/div/div/div/div/div/a/br'
p181
F6.614709844115209
sS'/html/body/div/div/div/div/div/div/div/table/tr/td/a/span'
p182
F7.6147098441152075
sS'/html/body/div/div/div/div/div/table/tr/td/div/table/tr/td/div/div/a/span'
p183
F2.807354922057604
sS'/html/body/div/div/div/div/div/div/div/div/div/p/a'
p184
F6.029747343394052
sS'/html/body/div/div/div/div/div/table/tr/td/div/div/b'
p185
F2.0297473433940523
sS'/html/body/div/div/div/div/div/table/tr/td/div/div/a'
p186
F1.9708536543404835
sS'/html/body/div/div/div/div/div/table/tr/td/div/table/tr/td/div/div'
p187
F4.614709844115208
sS'/html/body/div/div/div/div/div/ul/li/code'
p188
F7.6147098441152075
sS'/html/body/div/div/div/div/div/div/div/div/span/a/span'
p189
F6.614709844115209
sS'/html/body/div/div/div/div/div/form/div/noscript/h3'
p190
F2.485426827170242
sS'/html/body/div/div/div/div/div/table/tr/td/div/div/p'
p191
F2.0601209924375707
sS'/html/body/div/div/div/div/div/form/div/div/div/input'
p192
F2.485426827170242
sS'/html/body/div/div/div/div/a/div/div'
p193
F7.6147098441152075
sS'/html/body/div/div/div/div/div/div/div/table/tr/td/div/h4'
p194
F3.366782330671623
sS'/html/body/div/div/div/div/div/div/table/tr/td/table/tr/td/div/div/a/div/img'
p195
F2.485426827170242
sS'/html/body/div/div/div/div/div/span'
p196
F4.614709844115208
sS'/html/body/div/div/div/div/div/p/b/a'
p197
F7.6147098441152075
sS'/html/body/div/div/div/div/form/br'
p198
F3.7078192485066896
sS'/html/body/div/div/div/div/div/table/tr/td/div/div/div/p'
p199
F7.6147098441152075
sS'/html/body/div/div/div/div/div/div/div/div'
p200
F3.914270125974116
sS'/html/body/div/div/div/div/div/div/table/tr/td/div/table/tbody/tr/td/div/a/span'
p201
F6.614709844115209
sS'/html/body/div/div/div/div/span/a'
p202
F0.029747343394051932
sS'/html/body/div/div/div/div/div/div/p/a/img'
p203
F7.6147098441152075
sS'/html/body/div/div/div/div/div/div/div/div/h2/script'
p204
F6.614709844115209
sS'/html/body/div/div/div/div/div/div/table/tr/td/table/tr/td/div/span'
p205
F2.485426827170242
sS'/html/body/div/div/div/div/div/table/tr/td/div/div/ul/li/p'
p206
F7.6147098441152075
sS'/html/body/div/div/div/div/div/div/table/tr/td/table/tr/td/div/div/a/span'
p207
F3.914270125974116
sS'/html/body/div/div/div/div/form/div/div/div/div/div/p'
p208
F4.292781749227847
sS'/html/body/div/div/div/div/div/table/tr/td/div/ul/li/b'
p209
F6.614709844115209
sS'/html/body/div/div/div/div/div/table/tr/td/div/ul/li/a'
p210
F6.029747343394052
sS'/html/body/div/div/div/div/div/table/tr/td/div/div/ul/li/p/em'
p211
F7.6147098441152075
sS'/html/body/div/div/div/div/div/div/div/div/div/div/a/span'
p212
F6.614709844115209
sS'/html/body/div/div/div/div/div/div/div/div/div/hr'
p213
F7.6147098441152075
sS'/html/body/div/div/div/table/tr/td/span'
p214
F7.6147098441152075
sS'/html/body/div/div/script'
p215
F2.0297473433940523
sS'/html/body/div/div/div/div/div/div/table/tbody/tr/td/div'
p216
F6.614709844115209
sS'/html/body/div/div/div/div/div/form/div/div/input'
p217
F2.485426827170242
sS'/html/body/div/div/div/form/div/div/noscript/div/table/tr/td/div/input'
p218
F7.6147098441152075
sS'/html/body/div/div/div/div/div/br'
p219
F6.029747343394052
sS'/html/body/div/div/div/table/thead/tr/th/span'
p220
F7.6147098441152075
sS'/html/body/div/div/div/div/div/div/p/a'
p221
F1.8333501305905486
sS'/html/body/div/div/div/div/div/div/p/b'
p222
F6.614709844115209
sS'/html/body/div/div/div/div/hr'
p223
F7.6147098441152075
sS'/html/body/div/div/div/div/div/ol/li'
p224
F6.029747343394052
sS'/html/body/div/div/div/div/div/div/table/tr/td/table/tr/td/div/div/div/span/span'
p225
F2.6147098441152083
sS'/html/body/div/div/div/div/form/input'
p226
F0.029747343394051932
sS'/html/body/div/div/div/form/div/div/div/div/div/div/table/tr/td/div/input'
p227
F7.6147098441152075
sS'/html/body/div/div/div/div/div/table/tr/td/div/div/h3'
p228
F5.292781749227846
sS'/html/body/div/div/div/div/h2/a'
p229
F5.614709844115208
sS'/html/body/div/div/div/h2'
p230
F7.6147098441152075
sS'/html/body/div/div/div/h1'
p231
F6.614709844115209
sS'/html/body/div/div/div/div/div/div'
p232
F0.029747343394051932
sS'/html/body/div/div/div/div/div/div/table/tr/td/div/pre/code'
p233
F6.614709844115209
sS'/html/body/div/div/div/div/h1/a'
p234
F1.660513533728333
sS'/html/body/div/div/div/div/div/table/tr/td/div/p'
p235
F4.614709844115208
sS'/html/body/div/div/div/form/div/div/div/div/div/h3/a'
p236
F7.6147098441152075
sS'/html/body/div/div/div/div/h4'
p237
F1.683972506552322
sS'/html/body/div/div/div/div/h3'
p238
F7.6147098441152075
sS'/html/body/div/div/div/div/div/form/div/div/div/textarea'
p239
F2.485426827170242
sS'/html/body/div/div/div/div/h1'
p240
F1.3479233034203069
sS'/html/body/div/div/div/div/div/div/table/tr/td/div/p/code'
p241
F5.292781749227846
sS'/html/body/div/div/div/div/div/table/tr/td/div/a'
p242
F2.0297473433940523
sS'/html/body/div/div/div/div/div/p/code'
p243
F6.614709844115209
sS'/html/body/div/div/div/div/div/div/ul/li/a'
p244
F7.6147098441152075
sS'/html/body/feed/title'
p245
F5.614709844115208
sS'/html/body/div/div/div/div/div/table/tr/td/div/div/hr'
p246
F7.6147098441152075
sS'/html/body/div/div/div/div/div/div/div/span/span'
p247
F7.6147098441152075
sS'/html/body/div/div/div/div/div/div/h2/a'
p248
F4.444784842672896
sS'/html/body/div/div/div/hr'
p249
F7.6147098441152075
sS'/html/body/div/div/div/form/div/a'
p250
F5.292781749227846
sS'/html/body/div/div/div/div/p/strong'
p251
F7.6147098441152075
sS'/html/body/div/div/div/div/div/form/script'
p252
F2.485426827170242
sS'/html/body/div/div/div/div/ul/li/em'
p253
F7.6147098441152075
sS'/html/body/div/div/div/div/div/div/table/tr/td/div/table/tbody/tr/td/div/span/code'
p254
F6.614709844115209
sS'/html/body/div/div/div/div/div/table/tr/td/p/b'
p255
F2.0297473433940523
sS'/html/body/div/div/div/div/div/div/div/div/strong'
p256
F1.5923420310867535
sS'/html/body/div/div/div/div/form/p/input'
p257
F7.6147098441152075
sS'/html/body/div/div/div/div/div/table/tr/td/div/div/a/div/img'
p258
F6.614709844115209
sS'/html/body/div/div/div/div/div/div/div/h2'
p259
F3.8073549220576037
sS'/html/body/div/div/div/p/a'
p260
F6.029747343394052
sS'/html/body/div/div/div/form/div/div/div/table/tr/td/input'
p261
F5.614709844115208
sS'/html/body/div/div/div/div/div/table/tr/td/div/a/b'
p262
F5.614709844115208
sS'/html/body/div/div/div/div/div/div/table/tr/td/div/input'
p263
F2.485426827170242
sS'/html/body/div/div/div/div/div/div/div/script'
p264
F3.0911478880581953
sS'/html/body/feed/entry/rank'
p265
F5.614709844115208
sS'/html/body/div/div/div/div/span/div/div/ul/li/a/span'
p266
F0.029747343394051932
sS'/html/body/div/div/div/div/div/table/tr/td/div/h2/a'
p267
F4.444784842672896
sS'/html/body/div/div/div/div/div/div/div/table/tr/td/div/ul/li/span'
p268
F3.366782330671623
sS'/html/body/div/div/div/div/div/table/tr/td/div/h2/b'
p269
F4.444784842672896
sS'/html/body/div/div/div/div/div/div/table/tr/td/table/tr/td/div/div/div'
p270
F4.155278225477911
sS'/html/body/div/div/div/div/div/div/h2/span'
p271
F4.444784842672896
sS'/html/body/div/div/div/div/div/table/tr/td/div/h2/span/span'
p272
F4.444784842672896
sS'/html/body/div/div/div/div/div/div/div/div/h3'
p273
F7.6147098441152075
sS'/html/body/div/div/div/div/div/div/div/div/h2'
p274
F3.292781749227846
sS'/html/body/div/div/div/div/div/div/div/div/h1'
p275
F7.6147098441152075
sS'/html/body/div/div/div/div/a'
p276
F0.029747343394051932
sS'/html/body/div/div/div/div/div/div/table/tr/td/div/table/tbody/tr/td/table/tbody/tr/td'
p277
F3.6147098441152083
sS'/html/body/div/div/div/div/div/table/tr/td/div/div/div/span'
p278
F6.614709844115209
sS'/html/body/div/div/div/div/form/div/div/div/div'
p279
F3.8073549220576037
sS'/html/body/div/div/div/div/p/img'
p280
F7.6147098441152075
sS'/html/body/div/div/div/div/div/div/table/tbody/tr/td'
p281
F7.6147098441152075
sS'/html/body/div/div/div/div/div/div/div/h3/a'
p282
F6.029747343394052
sS'/html/body/div/div/div/div/div/table/tr/td/div/table/tr/td/div/div/span'
p283
F2.0297473433940523
sS'/html/body/div/div/div/div/div/div/div/a/div'
p284
F1.9142701259741162
sS'/html/body/div/div/div/form/script'
p285
F5.292781749227846
sS'/html/body/div/div/div/div/div/div/table/tr/td/div/table/tbody/tr/td/div/span/span'
p286
F3.6147098441152083
sS'/html/body/feed/entry/summary'
p287
F5.614709844115208
sS'/html/body/div/div/div/div/div/div/div/a/div/ul/li'
p288
F6.029747343394052
sS'/html/body/div/div/div/div/div/ul/li/span/span'
p289
F6.029747343394052
sS'/html/body/div/div/div/div/div/div/div/table/tbody/tr/td/b'
p290
F7.6147098441152075
sS'/html/body/div/div/div/br'
p291
F1.5486206536574356
sS'/html/body/div/div/div/div/div/div/div/table/tr/td/a'
p292
F7.6147098441152075
sS'/html/body/div/div/div/div/div/table/tr/td/div/div/ul/li'
p293
F4.614709844115208
sS'/html/body/div/div/div/div/img'
p294
F3.8073549220576037
sS'/html/body/div/div/div/div/div/a/div'
p295
F2.7567288489876365
sS'/html/body/div/div/div/div/p/span'
p296
F4.444784842672896
sS'/html/body/feed/license'
p297
F5.614709844115208
sS'/html/body/div/div/div/div/div/ul/li/strong'
p298
F7.6147098441152075
sS'/html/body/div/div/div/div/p'
p299
F1.3858911536193275
sS'/html/body/div/div/div/div/h4/i'
p300
F7.6147098441152075
sS'/html/body/div/div/div/div/div/table/tr/td/p'
p301
F2.0297473433940523
sS'/html/body/div/div/div/div/h4/a'
p302
F1.683972506552322
sS'/html/body/div/div/div/div/div/p/strong/code'
p303
F7.6147098441152075
sS'/html/body/div/div/div/div/table/tr/td/p'
p304
F7.6147098441152075
sS'/html/body/div/div/div/div/div/div/table/tr/td/div/p/br'
p305
F7.6147098441152075
sS'/html/body/div/div/div/div/div/ul/li'
p306
F7.6147098441152075
sS'/html/body/div/div/div/div/p/a/strong'
p307
F7.6147098441152075
sS'/html/body/div/div/div/div/div/div/div/div/div/br'
p308
F7.6147098441152075
sS'/html/body/div/div/div/div/div/table/tr/td/div/div/p/code'
p309
F4.444784842672896
sS'/html/body/div/div/div/div/table/tr/td/a'
p310
F5.029747343394052
sS'/html/body/div/div/div/div/p/a/img'
p311
F7.6147098441152075
sS'/html/body/div/div/div/form/input'
p312
F4.807354922057604
sS'/html/body/div/div/div/div/div/table/tr/td/div/div/p/a'
p313
F3.8073549220576037
sS'/html/body/div/div/div/div/div/table/tr/td/p/b/a'
p314
F2.485426827170242
sS'/html/body/div/div/div/div/div/div/div/table/tbody/tr/th'
p315
F7.6147098441152075
sS'/html/body/div/div/div/div/div/div/div/table/tbody/tr/td'
p316
F7.6147098441152075
sS'/html/body/div/div/div/div/div/div/div/div/span/span'
p317
F6.614709844115209
sS'/html/body/div/div/div/div/div/table/tr/td/div/table/tbody/tr/td/table/tbody/tr/td'
p318
F2.807354922057604
sS'/html/body/div/div/div/div/div/div/br'
p319
F1.4854268271702415
sS'/html/body/div/div/div/div/div/div/div/div/a/span'
p320
F6.029747343394052
sS'/html/body/div/div/div/div/div/div/table/tbody/tr/td/a/span'
p321
F6.614709844115209
sS'/html/body/div/div/div/div/form/div/div/div/div/input'
p322
F3.8073549220576037
sS'/html/body/div/div/div/div/div/div/table/tr/td'
p323
F2.3293076252529596
sS'/html/body/feed/entry/published'
p324
F5.614709844115208
sS'/html/body/div/div/div/div/div/div/div/a/div/svg/g/polyline'
p325
F7.6147098441152075
sS'/html/body/div/div/div/div/div/form/div/div'
p326
F2.485426827170242
sS'/html/body/div/div/div/div/style'
p327
F7.6147098441152075
sS'/html/body/div/div/div/div/div/div/table/tr/td/table/tr/td/div/a'
p328
F2.485426827170242
sS'/html/body/div/div/div/div/div/div/div/ul/li'
p329
F7.6147098441152075
sS'/html/body/div/div/div/form/div/h2/a'
p330
F6.614709844115209
sS'/html/body/div/div/div/div/div/div/a/span'
p331
F7.6147098441152075
sS'/html/body/noscript/div/img'
p332
F0.029747343394051932
sS'/html/body/div/div/div/div/div/ul/li/a'
p333
F2.0
sS'/html/body/div/div/div/div/div'
p334
F0.6958466068406136
sS'/html/body/div/div/div/form/div/div/div/p'
p335
F6.614709844115209
sS'/html/body/div/div/div/div/div/div/table/tr/td/div/table/tbody/tr/td/div/span/i'
p336
F7.6147098441152075
sS'/html/body/feed/updated'
p337
F5.614709844115208
sS'/html/body/div/div/div/form/div/div/div/p/em'
p338
F7.6147098441152075
sS'/html/body/div/div/div/div/div/div/table/tr/td/div/table/tbody/tr/td/div/span/a'
p339
F6.614709844115209
sS'/html/body/div/div/div/form/div/div/div/a'
p340
F7.6147098441152075
sS'/html/body/div/div/div/div/ul/li/ul/li/a/strong'
p341
F7.6147098441152075
sS'/html/body/div/div/noscript/div/img'
p342
F2.7567288489876365
sS'/html/body/div/div/div/div/div/p/strong'
p343
F7.6147098441152075
sS'/html/body/div/div/div/div/div/div/table/tr/td/div/ol/li'
p344
F6.614709844115209
sS'/html/body/div/div/div/div/div/table/tr/td/div/span/a'
p345
F6.029747343394052
sS'/html/body/div/div/div/div/div/div/div/table/tr/td/div/ul/li/a/span'
p346
F3.366782330671623
sS'/html/body/div/div/div/div/div/form/br'
p347
F7.6147098441152075
sS'/html/body/div/div/div/form/div/div/div/ul/li'
p348
F7.6147098441152075
sS'/html/body/div/div/div/div/div/div/div/br'
p349
F5.292781749227846
sS'/html/body/div/div/div/form/div/h2'
p350
F6.614709844115209
sS'/html/body/div/div/div/div/div/table/tr/td/div/span'
p351
F2.0297473433940523
sS'/html/body/div/div/div/div/form/span'
p352
F7.6147098441152075
sS'/html/body/div/div/div/form/div/div/div/div/label'
p353
F7.6147098441152075
sS'/html/body/div/div/div/div/div/table/tr/td/div/div/div/span/span'
p354
F6.614709844115209
sS'/html/body/div/div/div/script'
p355
F0.6958466068406136
sS'/html/body/div/div/div/div/div/table/tr/td/div/div/h1'
p356
F7.6147098441152075
sS'/html/body/div/div/div/div/table/tr/th'
p357
F0.029747343394051932
sS'/html/body/div/div/div/div/table/tr/td'
p358
F5.292781749227846
sS'/html/body/div/div/div/div/div/div/div/ul/li/div'
p359
F2.914270125974116
sS'/html/body/div/div/div/div/noscript/div/img'
p360
F7.6147098441152075
sS'/html/body/div/div/div/div/div/div/table/tr/td/div/blockquote/p'
p361
F7.6147098441152075
sS'/html/body/div/div/div/div/div/img'
p362
F7.6147098441152075
sS'/html/body/div/div/div/div/div/form/div/div/div/div/h3'
p363
F2.485426827170242
sS'/html/head/style'
p364
F4.807354922057604
sS'/html/body/div/div/div/form/div/div/div/textarea'
p365
F5.292781749227846
sS'/html/body/div/div/div/div/form/div/div/div/div/div/label'
p366
F4.292781749227847
sS'/html/body/div/div/div/div/div/div/div/div/div/div/div/b'
p367
F7.6147098441152075
sS'/html/body/div/div/div/div/div/div/div/h2/span'
p368
F2.485426827170242
sS'/html/body/div/div/div/form/div/div/label'
p369
F5.292781749227846
sS'/html/body/div/div/div/div/form/p/label'
p370
F7.6147098441152075
sS'/html/body/div/div/div/div/div/table/tr/td/div/p/a'
p371
F7.6147098441152075
sS'/html/body/div/div/div/div/div/div/table/tr/td/div/p/a/img'
p372
F6.029747343394052
sS'/html/body/div/div/div/div/div/table/tr/td/div/div/ol/li/p'
p373
F7.6147098441152075
sS'/html/body/div/div/div/div/div/div/div/div/p'
p374
F7.6147098441152075
sS'/html/body/div/div/div/div/div/ul/li/a/span'
p375
F7.6147098441152075
sS'/html/body/div/div/div/div/div/div/div/ul/li/a/span/span'
p376
F3.029747343394052
sS'/html/body/div/div/div/div/div/table/tr/td/div/table/tbody/tr/td'
p377
F3.292781749227846
sS'/html/body/div/div/div/div/div/div/div/div/b'
p378
F6.614709844115209
sS'/html/body/div/div/div/form/label'
p379
F7.6147098441152075
sS'/html/body/div/div/div/div/div/div/div/div/a'
p380
F3.222392421336448
sS'/html/body/div/div/div'
p381
F0.029747343394051932
sS'/html/body/div/div/div/form/div/div/div/input'
p382
F5.614709844115208
sS'/html/body/div/div/div/div/div/div/div/div/i'
p383
F7.6147098441152075
sS'/html/body/feed/id'
p384
F5.614709844115208
sS'/html/body/div/div/div/div/div/div/table/thead/tr/th'
p385
F6.614709844115209
sS'/html/body/div/div/div/div/form/div/div/div/hr'
p386
F3.8073549220576037
sS'/html/body/div/div/div/div/table/tr/td/p/b'
p387
F7.6147098441152075
sS'/html/body/noscript/div'
p388
F0.029747343394051932
sS'/html/body/div/div/div/div/div/script'
p389
F2.0297473433940523
sS'/html/body/div/div/div/div/div/table/tr/td/span/a'
p390
F6.614709844115209
sS'/html/body/div/div/div/div/div/div/table/tr/td/div/p/sub'
p391
F7.6147098441152075
sS'/html/body/div/div/div/div/div/table/tr/td/div/table/tr/td/div/div/div/span/span'
p392
F2.0911478880581953
sS'/html/body/div/div/div/div/div/div/table/tr/td/div/p/sup'
p393
F7.6147098441152075
sS'/html/body/div/div/div/form/div/div/noscript/div/table/tr/td/div/label'
p394
F7.6147098441152075
sS'/html/body/div/div/div/div/div/div/table/tr/td/table/tr/td/div/div'
p395
F4.155278225477911
sS'/html/body/div/div/div/div/div/ul/li/div/span'
p396
F0.029747343394051932
sS'/html/body/div/div/div/div/div/div/div/div/div/ul/li/a'
p397
F6.029747343394052
sS'/html/body/div'
p398
F0.029747343394051932
sS'/html/body/div/div/div/div/div/table/tr/td/div/div/pre/code'
p399
F4.614709844115208
sS'/html/body/div/div/div/form/div/div/div/h3'
p400
F7.6147098441152075
sS'/html/body/div/div/div/div/div/div/div/div/div/div/ul/li/a'
p401
F5.292781749227846
sS'/html/body/div/div/div/div/div/table/tr/td'
p402
F2.0297473433940523
sS'/html/body/div/div/div/div/div/div/table/tr/td/table/tr/td/div/div/div/span'
p403
F2.485426827170242
sS'/html/body/div/div/div/div/div/table/tr/td/div/table/tbody/tr/td/div/span'
p404
F2.807354922057604
sS'/html/body/div/div/div/div/div/div/div/div/div/div'
p405
F1.5272470028648688
sS'/html/body/div/div/div/div/div/form/div/div/div/div/div/p/span'
p406
F2.485426827170242
sS'/html/body/div/div/div/div/div/div/div/div/a/div'
p407
F5.292781749227846
sS'/html/body/div/div/div/form/div/div/div/div/textarea'
p408
F7.6147098441152075
sS'/html/body/div/div/div/table/tr/td/br'
p409
F6.614709844115209
sS'/html/body/div/div/div/div/div/div/table/tr/td/div/p/a'
p410
F3.527247002864869
sS'/html/body/div/div/div/div/div/table/tr/td/div/div/span'
p411
F6.614709844115209
sS'/html/body/div/div/div/div/div/form/div/p/a'
p412
F2.485426827170242
sS'/html/body/div/div/div/div/h2'
p413
F6.029747343394052
sS'/html/body/div/div/div/div/div/div/div/ul/li/a/span/span/span'
p414
F3.1552782254779106
sS'/html/body/div/div/div/div/div/div/table/tr/td/div/p/strong'
p415
F4.292781749227847
sS'/html/body/div/div/div/div/a/span'
p416
F1.5061853873370392
sS'/html/body/feed/entry/category'
p417
F5.614709844115208
sS'/html/body/feed/link'
p418
F5.614709844115208
sS'/html/body/div/div/div/div/div/table/tr/td/div/div/div/ul/li/a'
p419
F7.6147098441152075
sS'/html/head/title'
p420
F0.029747343394051932
sS'/html/body/div/div/div/table/tr/td/span/span/span'
p421
F7.6147098441152075
sS'/html/body/div/div/div/div/form/div/input'
p422
F3.8073549220576037
sS'/html/body/div/div/div/div/ul/li/a'
p423
F0.029747343394051932
sS'/html/body/div/div/div/div/ul/li'
p424
F7.6147098441152075
sS'/html/body/div/div/div/div/form/div/label'
p425
F4.292781749227847
sS'/html/body/div/div/div/div/div/div/div/a/div/svg/g/line'
p426
F7.6147098441152075
sS'/html/body/div/div/div/div/div/div/div/span/a'
p427
F6.614709844115209
sS'/html/body/div/div/div/div/div/div/div/h3/span/span/a'
p428
F3.0911478880581953
sS'/html/body/div/div/div/div/ul/li/a/strong'
p429
F3.914270125974116
sS'/html/body/div/div/div/div/span/a/span'
p430
F0.029747343394051932
sS'/html/body/div/div/div/div/table/tr/td/div/div/a'
p431
F5.614709844115208
sS'/html/body/div/div/div/div/div/div/div/ul/li/a'
p432
F3.8073549220576037
sS'/html/body/div/div/div/div/table/tr/td/div/a'
p433
F7.6147098441152075
sS'/html/body/div/div/div/div/div/div/div/div/a/div/img'
p434
F5.292781749227846
sS'/html/body/div/div/div/div/div/div/div/span/span/a/span'
p435
F6.614709844115209
sS'/html/body/div/div/div/div/div/table/tr/td/div/table/tbody/tr/td/div/a'
p436
F2.807354922057604
sS'/html/body/div/div/div/div/div/table/tr/td/div/table/tr/td/div/div/div'
p437
F4.614709844115208
sS'/html/body/div/div/div/div/div/h3/a'
p438
F0.029747343394051932
sS'/html/body/div/div/div/div/script'
p439
F0.8867893895520091
sS'/html/body/div/div/div/div/div/h2/a'
p440
F2.0297473433940523
sS'/html/body/div/div/div/div/div/div/table/tr/td/table/tr/td/div/div/span'
p441
F2.485426827170242
sS'/html/body/div/div/div/div/div/div/div/div/div/a/div/img'
p442
F1.1228567477855336
sS'/html/body/div/div/div/div/div/div/table/tr/td/table/tr/td/div/div/a'
p443
F2.485426827170242
sS'/html/body/div/div/div/div/p/br'
p444
F7.6147098441152075
sS'/html/body/div/div/div/div/div/form/div/div/div/div'
p445
F2.485426827170242
sS'/html/body/div/div/div/div/ul/li/p/a'
p446
F7.6147098441152075
sS'/html/body/div/div/div/form/div/div/div'
p447
F7.6147098441152075
sS'/html/body/div/div/div/div/div/div/div/h3'
p448
F2.914270125974116
sS'/html/body/div/div/div/div/div/table/tr/td/div/table/tbody/tr/td/div/span/b'
p449
F6.614709844115209
sS'/html/body/div/div/div/div/div/table/tr/td/div/table/tbody/tr/td/div/span/a'
p450
F4.614709844115208
sS'/html/body/div/div/div/div/div/table/tr/td/div/table/tbody/tr/td/div/span/i'
p451
F4.292781749227847
sS'/html/body/div/div/div/div/div/table/tr/td/div/input'
p452
F2.0297473433940523
sS'/html/body/div/div/div/div/div/h4/a'
p453
F2.0297473433940523
sS'/html/body/div/div/div/form/div/div/div/div/div/div/table/tr/td/div/label'
p454
F7.6147098441152075
sS'/html/body/div/div/div/div/div/table/tr/td/div/table/tr/td/div/div/a/div/img'
p455
F2.0297473433940523
sS'/html/body/div/div/div/div/form/div/div/div/div/div/noscript/p'
p456
F4.292781749227847
sS'/html/body/div/div/div/div/div/div/table/tr/td/div/table/tbody/tr/td'
p457
F3.1552782254779106
sS'/html/body/div/div/div/div/table/tr/td/input'
p458
F5.614709844115208
sS'/html/body/div/div/div/div/div/div/hr'
p459
F5.292781749227846
sS'/html/body/div/div/div/div/div/div/h3/a/span'
p460
F6.029747343394052
sS'/html/body/div/div/div/div/div/div/div/div/div/ul/li'
p461
F6.029747343394052
sS'/html/body/div/div/div/div/div/table/tr/td/div/h2/span'
p462
F5.614709844115208
sS'/html/body/div/div/div/div/div/div/a/div'
p463
F7.6147098441152075
sS'/html/body/div/div/div/div/form/p/textarea'
p464
F7.6147098441152075
sS'/html/body/div/div/div/div/div/div/p/span'
p465
F2.1228567477855336
sS'/html/body/div/div/div/div/div/table/tr/td/div/table/tr/td/div/span'
p466
F2.0297473433940523
sS'/html/body/div/div/div/form/div/div/div/div'
p467
F5.029747343394052
sS'/html/body/feed/entry/title'
p468
F5.614709844115208
sS'/html/body/div/div/div/div/div/ul/li/a/div'
p469
F0.029747343394051932
sS'/html/body/script'
p470
F0.029747343394051932
sS'/html/body/div/div/div/div/div/div/table/tr/td/span'
p471
F6.614709844115209
sS'/html/body/div/div/div/div/div/p'
p472
F4.029747343394052
sS'/html/body/div/div/div/div/div/div/div/div/div/p/strong'
p473
F7.6147098441152075
sS'/html/body/div/div/div/div/span/span'
p474
F6.029747343394052
sS'/html/body/div/div/div/div/div/p/a/span'
p475
F7.6147098441152075
sS'/html/body/div/div/div/div/div/div/div/div/div'
p476
F4.029747343394052
sS'/html/body/div/div/div/div/div/b'
p477
F6.029747343394052
sS'/html/body/feed/entry/id'
p478
F5.614709844115208
sS'/html/body/div/div/div/div/div/a'
p479
F0.029747343394051932
sS'/html/body/div/div/div/div/div/div/h3'
p480
F7.6147098441152075
sS'/html/body/div/div/div/div/div/div/h2'
p481
F7.6147098441152075
sS'/html/body/div/div/div/div/div/div/table/tr/td/div/ul/li'
p482
F5.029747343394052
sS'/html/body/div/div/div/div/div/div/div/div/div/div/div/div/div/span'
p483
F3.222392421336448
sS'/html/body/div/div/div/table/tr/td/a/img'
p484
F7.6147098441152075
sS'/html/body/div/div/div/div/div/table/tr/td/div/table/tr/td/div/a'
p485
F2.0297473433940523
sS'/html/body/div/div/div/form/div/div/div/div/div/div/p/span'
p486
F7.6147098441152075
sS'/html/body/div/div/div/div/div/div/div/p/a'
p487
F6.614709844115209
sS'/html/body/div/div/div/div/div/div/div/p/b'
p488
F7.6147098441152075
sS'/html/body/div/div/div/div/form/a'
p489
F5.614709844115208
sS'/html/body/div/div/div/div/div/form/div/div/div/div/div/table/tr/td/div/label'
p490
F2.485426827170242
sS'/html/body/feed/entry/author/uri'
p491
F5.614709844115208
s.