(dp0
S'/html/body/div/div/div/div/div/div/div/div/div/b'
p1
F9.965784284662087
sS'/html/body/div/div/div/div/div/div/div/div/div/a'
p2
F2.1265804965651434
sS'/html/body/div/div/div/div/div/div/div/div/a/img'
p3
F0.4073635713934228
sS'/html/body/div/div/div/a/div/button'
p4
F8.380821783940931
sS'/html/body/div/div/div/div/div/div/div/div/div/i'
p5
F5.965784284662088
sS'/html/body/div/div/div/div/div/div/div/p/span/a'
p6
F7.158429362604482
sS'/html/body/div/div/div/div/div/div/p/br'
p7
F7.965784284662087
sS'/html/body/div/div/div/div/div/div/div/div/dl/dt'
p8
F6.058893689053569
sS'/html/body/div/div/div/div/div/p/a'
p9
F2.7273795453370084
sS'/html/body/div/div/div/div/div/p/b'
p10
F6.058893689053569
sS'/html/body/div/div/div/div/div/div/div/div/div/div/div/div/h1/a'
p11
F9.965784284662087
sS'/html/body/div/div/div/div/div/table/tbody/tr/td/a/em'
p12
F9.965784284662087
sS'/html/body/div/div/div/div/ul/li/div/div/div/div/ul/li/a'
p13
F1.446148031818874
sS'/html/body/div/div/div/div/div/div/table/tr/td/a'
p14
F3.857259827883918
sS'/html/body/div/div/div/div/div/form/input'
p15
F9.965784284662087
sS'/html/body/p/script'
p16
F9.965784284662087
sS'/html/body/div/div/div/div/div/div/table/tr/td/p'
p17
F8.965784284662087
sS'/html/body/div/div/div/div/div/div/table/tbody/tr/td/p'
p18
F8.380821783940931
sS'/html/body/div/div/div/div/div/div/div/div/div/div/p/br'
p19
F4.083141235300245
sS'/html/body/div/div/div/div/div/div/table/thead/tr/th/a'
p20
F2.77595972578207
sS'/html/body/div/div/div/div/ul/li/div/div/div/div/h2'
p21
F1.446148031818874
sS'/html/body/div/div/div/a'
p22
F0.004334590263891124
sS'/html/body/div/div/div/div/div/div/table/tbody/tr/td/a'
p23
F4.573466861883327
sS'/html/body/div/div/div/div/div/div/div/ul/li/div/div/a/span'
p24
F1.446148031818874
sS'/html/body/div/div/div/div/div/div/div/div/div/span'
p25
F2.089267338097087
sS'/html/body/div/div/div/div/div/div/div/div/div/div/p/em'
p26
F9.965784284662087
sS'/html/body/div/div/div/div/div/table/tr/td/span'
p27
F3.6620035364849843
sS'/html/body/div/div/div/div/div/div/span'
p28
F3.380821783940931
sS'/html/head/meta'
p29
F0.0
sS'/html/body/div/div/div/div/div/ul/li/a/i'
p30
F9.965784284662087
sS'/html/body/div/div/div/div/a/div/div/div/div/p/em'
p31
F9.965784284662087
sS'/html/body/div/div/div/div/div/div/table/tr/td/a/span'
p32
F2.680382065799839
sS'/html/body/div/div/div/div/div/div/div/div/div/p'
p33
F4.539519529959989
sS'/html/body/div/div/div/div/ul/li/div/div/div/div/a/h2'
p34
F1.446148031818874
sS'/html/body/div/div/div/div/form/div/div/button'
p35
F0.004334590263891124
sS'/html/body/div/div/div/div/div/div/div/div/ul/li/br'
p36
F8.965784284662087
sS'/html/body/div/div/div/div/div/div/div/div/div/strong'
p37
F4.878321443411748
sS'/html/body/div/div/div/div/div/div/div/h4/span'
p38
F8.965784284662087
sS'/html/body/div/div/div/div/div/div/dl'
p39
F8.965784284662087
sS'/html/body/div/div/div/div/div/div/div/a/strong'
p40
F9.965784284662087
sS'/html/body/div/div/div/div/ul/li/div/div/div/div/div/img'
p41
F1.446148031818874
sS'/html/body/div/div/div/div/div/div/div/div/ul/li/div/div/a'
p42
F0.6665762662748081
sS'/html/body/div/div/div/div/div/table/thead/tr/th'
p43
F6.795859283219775
sS'/html/body/div/div/div/div/form/div/button'
p44
F0.004334590263891124
sS'/html/body/div/div/div/div/div/div/div/a/div/span'
p45
F4.878321443411748
sS'/html/body/div/div/div/div/h1/span'
p46
F4.608232280044003
sS'/html/body/div/div/div/div/div/div/a/div/h5/em'
p47
F9.965784284662087
sS'/html/body/div/div/div/div/div/div/div/div/div/div/div/p/span'
p48
F5.210896782498619
sS'/html/body/div/div/div/div/div/div/div/a/p/span'
p49
F2.7273795453370084
sS'/html/body/div/div/div/div/a/div/div/div/div/div'
p50
F9.965784284662087
sS'/html/body/div/div/div/div/div/div/div/div/div/div/div/div/span'
p51
F2.9213901653036336
sS'/html/body/div/div/div/div/div/div/div/div/div/div/span/span/span'
p52
F5.058893689053569
sS'/html/head/script'
p53
F0.0028882793248263526
sS'/html/body/div/div/div/div/ul/li/div/div/div/div'
p54
F1.446148031818874
sS'/html/body/div/div/div/div/div/form/div/input'
p55
F8.965784284662087
sS'/html/body/div/div/div/div/div/div/ul/li/div/div/dl/dt'
p56
F8.965784284662087
sS'/html/body/div/div/div/div/div/table/tbody/tr/td/a'
p57
F7.643856189774724
sS'/html/body/div/div/div/div/ul/li/div/div/div/div/div/a/span'
p58
F1.446148031818874
sS'/html/body/div/div/div/div/div/table'
p59
F5.380821783940931
sS'/html/body/div/div/div/div/div/p/br'
p60
F0.004334590263891124
sS'/html/body/div/div/div/div/div/table/tbody/tr/td/span/span'
p61
F7.965784284662087
sS'/html/body/div/div/div/div/div/div/div/div/div/div/a/h3'
p62
F8.965784284662087
sS'/html/body/div/div/div/div/div/form/div/div/div/button/span'
p63
F1.438307278601691
sS'/html/body/div/div/div/div/div/div/div/div/ul/li/a/i'
p64
F8.965784284662087
sS'/html/body/div/div/div/div/div/div/div/div/span'
p65
F0.004334590263891124
sS'/html/body/div/div/div/div/div/div/table/tbody/tr/td/h2'
p66
F8.965784284662087
sS'/html/body/div/div/div/div/div/div/div/div/div/div/div/div/p'
p67
F5.210896782498619
sS'/html/body/div/div/div/div/div/div/div/div/div/div/p/a'
p68
F4.756330919033137
sS'/html/body/div/div/div/div/div/div/a/p/span'
p69
F1.1015981400078068
sS'/html/body/div/div/div/div/div/div/div/div/div/div/div/div/div/div/span/span'
p70
F5.107803289534515
sS'/html/body/div/div/div/div/div/div/div/br'
p71
F2.5563933485243857
sS'/html/body/div/div/div/div/div/div/h3/span'
p72
F2.2515387669959646
sS'/html/body/div/div/div/div/div/div/div/div/p/span/em'
p73
F9.965784284662087
sS'/html/head/title/script'
p74
F8.965784284662087
sS'/html/body/div/div/div/div/div/div/div/div/div/div/p'
p75
F2.279283757478869
sS'/html/head/noscript/iframe'
p76
F0.0028882793248263526
sS'/html/body/div/div/div/div/div/div/ul/li/div/div/div/span'
p77
F9.965784284662087
sS'/html/body/div/div/div/div/a/div/div/p'
p78
F8.965784284662087
sS'/html/body/div/div/div/div/div/div/div/div/table/tr/td/button'
p79
F6.058893689053569
sS'/html/body/div/div/div/div/div/div/a/div/div/div/div/p'
p80
F9.965784284662087
sS'/html/body/div/div/div/div/div/div/div/p/strong'
p81
F0.004334590263891124
sS'/html/body/div/div/div/div/div/div/link'
p82
F7.158429362604482
sS'/html/body/div/div/div/div/div/table/tr/td'
p83
F2.84684321193858
sS'/html/body/div/div/div/div/div/ol/li/ol/li'
p84
F8.380821783940931
sS'/html/body/div/div/div/div/a/h1/span'
p85
F3.3658714424749596
sS'/html/body/div/div/div/div/div/div/div/div/button/span'
p86
F6.965784284662088
sS'/html/head/title/style'
p87
F8.965784284662087
sS'/html/body/div/div/div/div/div/div/div/div/a/p/span'
p88
F3.3219280948873626
sS'/html/body/div/div/div/div/div/table/tbody/tr/td/span'
p89
F8.380821783940931
sS'/html/body/div/div/div/div/div/div/div/div/ul/li'
p90
F4.680382065799838
sS'/html/body/div/div/div/div/div/style'
p91
F6.965784284662088
sS'/html/body/div/div/div/div/div/div/a/button'
p92
F6.058893689053569
sS'/html/body/div/div/div/div/div/div/div/ul/li/form/div/label/span/span'
p93
F5.50635266602479
sS'/html/body/div/div/div/div/div/form/div/span/button'
p94
F8.965784284662087
sS'/html/head/title/meta'
p95
F8.965784284662087
sS'/html/body/div/div/div/div/ul/li/div/div/div/div/div/br'
p96
F1.446148031818874
sS'/html/body/div/div/div/div/div/div/table/tr/td/div/i'
p97
F9.965784284662087
sS'/html/body/div/div/div/div/div/div/p'
p98
F1.7759597257820698
sS'/html/body/div/div/div/div/form/div/p/small/a'
p99
F0.004334590263891124
sS'/html/body/div/div/div/div/form/div/div/label/span'
p100
F0.004334590263891124
sS'/html/body/div/div/div/div/div/div/table/tr/td/div/b'
p101
F9.965784284662087
sS'/html/body/div/div/div/div/div/div/table/tr/td/div/a'
p102
F6.795859283219775
sS'/html/body/div/div/div/div/div/div/div/a/div/div/span/em'
p103
F8.965784284662087
sS'/html/body/div/div/div/div/div/div/span/a/span'
p104
F8.380821783940931
sS'/html/body/div/div/div/div/div/div/div/div/div/strong/span'
p105
F8.380821783940931
sS'/html/body/div/div/div/div/div/div/div/div/div/div/span/span'
p106
F4.9213901653036345
sS'/html/body/div/div/div/div/div/div/table/tr/td/div/p'
p107
F9.965784284662087
sS'/html/body/div/div/div/div/ul/li/div/div/div/div/table/tr/td/img'
p108
F1.446148031818874
sS'/html/body/div/div/div/div/h2/em'
p109
F1.0558912008920454
sS'/html/body/div/div/div/div/div/div/dl/dd/a'
p110
F6.380821783940931
sS'/html/body/div/div/div/div/div/ul/li/div/div/div/div/div/img'
p111
F0.6665762662748081
sS'/html/body/div/div/div/div/div/div/div/div/h2'
p112
F2.6711635357704604
sS'/html/body/div/div/div/div/div/div/form/label/span'
p113
F8.965784284662087
sS'/html/body/div/div/div/div/div/a/span'
p114
F5.795859283219775
sS'/html/body/div/div/div/div/div/div/form/ol/div/div/div/label/div/span'
p115
F8.965784284662087
sS'/html/body/div/div/div/div/div/div/form/ol/div/div/div/textarea'
p116
F8.965784284662087
sS'/html/body/div/div/div/div/div/div/img'
p117
F4.643856189774724
sS'/html/body/div/div/div/div/div/div/div/div/form/div/label/input'
p118
F5.50635266602479
sS'/html/body/div/div/div/div/div/ul/li/a/img'
p119
F1.4266254735540556
sS'/html/body/div/div/div/div/div/ul/li/div/div/div/div/a/h2'
p120
F0.6665762662748081
sS'/html/body/div/div/div/div/div/div/form/div/div/div/button/em'
p121
F0.6665762662748081
sS'/html/body/div/div/div/div/div/div/table/tbody/tr/td/span'
p122
F9.965784284662087
sS'/html/body/div/div/div/div/div/div/table/tr/td/p/a'
p123
F8.965784284662087
sS'/html/body/div/div/div/div/div/div/div/div/div/div/div/div/div/div/div/div/a'
p124
F9.965784284662087
sS'/html/body/div/div/div/div/div/div/table/tr/td/div/i/a'
p125
F9.965784284662087
sS'/html/body/div/div/div/div/div/div/meta'
p126
F5.717856771218502
sS'/html/body/div/div/div/div/div/div/a/div/img'
p127
F8.965784284662087
sS'/html/body/div/div/div/div/div/div/div/p'
p128
F0.0028882793248263526
sS'/html/body/div/div/div/div/div/div/div/i'
p129
F0.004334590263891124
sS'/html/body/div/div/div/div/h3/a/span'
p130
F4.608232280044003
sS'/html/body/div/div/div/div/div/div/div/strong'
p131
F6.158429362604484
sS'/html/body/div/div/div/div/div/div/div/div/div/div/div/div/br'
p132
F9.965784284662087
sS'/html/body/div/div/div/div/div/div/div/ul/li/form/div/label/input'
p133
F5.50635266602479
sS'/html/body/div/div/div/div/div/p/small/a'
p134
F0.004334590263891124
sS'/html/body/div/div/div/div/div/div/div/div/div/span/span'
p135
F5.058893689053569
sS'/html/body/div/div/div/div/div/div/div/div/div/div/br'
p136
F6.795859283219775
sS'/html/body/div/div/div/div/div/div/div/div/div/button'
p137
F5.50635266602479
sS'/html/body/div/div/div/div/div/div/ul/li'
p138
F2.1778817252706553
sS'/html/body/div/div/div/div/div/p/span'
p139
F6.965784284662088
sS'/html/body/div/div/div/div/div/div/div/span/a'
p140
F7.158429362604482
sS'/html/body/div/div/div/div/div/p/span/a'
p141
F2.8572598278839183
sS'/html/body/div/div/div/div/div/div/div/a/span'
p142
F1.0649174766813385
sS'/html/body/div/div/div/div/div/button/div/span'
p143
F5.50635266602479
sS'/html/body/div/div/div/div/div/div/div/div/div/div/div/img'
p144
F3.083141235300246
sS'/html/body/div/div/div/div/div/ul/li/div/p'
p145
F2.8783214434117474
sS'/html/body/div/div/div/div/div/div/div/div/br'
p146
F7.965784284662087
sS'/html/body/div/div/div/div'
p147
F0.0
sS'/html/body/div/div/div/div/div/div/ul/li/h3'
p148
F5.50635266602479
sS'/html/body/div/div/div/div/a/div/span/strong'
p149
F7.380821783940932
sS'/html/body/div/div/style'
p150
F7.643856189774724
sS'/html/body/div/div/div/div/div/div/h2/a'
p151
F2.888968687611256
sS'/html/body/div/div/div/div/div/ul/li/div'
p152
F9.965784284662087
sS'/html/body/div/div/div/div/div/div/div/div/div/div/a/div/div'
p153
F8.965784284662087
sS'/html/body/div/div/div/div/p/small/a'
p154
F0.004334590263891124
sS'/html/body/div/div/div/div/div/div/div/a/div/a'
p155
F9.965784284662087
sS'/html/body/div/div/div/div/div/div/div/div/div/a/em'
p156
F9.965784284662087
sS'/html/body/div/div/div/div/div/div/strong'
p157
F6.50635266602479
sS'/html/body/div/div/div/div/div/div/title'
p158
F7.158429362604482
sS'/html/body/div/div/div/div/div/div/form/ol/input'
p159
F8.965784284662087
sS'/html/body/div/div/div/div/div/form/p'
p160
F5.573466861883327
sS'/html/body/div/div/div/div/div/div/form/ol/div/div/div/label/div'
p161
F8.965784284662087
sS'/html/body/div/div/div/div/div/div/div/div/div/input'
p162
F2.49817873457909
sS'/html/body/div/div/div/div/div/span/span'
p163
F6.795859283219775
sS'/html/body/div/div/div/div/div/div/div/div/div/a/span'
p164
F4.380821783940931
sS'/html/body/div/div/div/div/div/div/div/a/meta'
p165
F4.107803289534515
sS'/html/body/div/div/div/div/div/div/div/div/div/div/label/a'
p166
F5.50635266602479
sS'/html/body/div/div/div/div/div/div/i'
p167
F5.573466861883327
sS'/html/body/div/div/div/div/div/div/div/div/div/div/span'
p168
F2.217591435072627
sS'/html/body/div/div/div/div/div/p/strong'
p169
F8.380821783940931
sS'/html/body/div/div/div/div/div/hr'
p170
F4.107803289534515
sS'/html/body/div/div/div/div/div/div/ul/li/div/div/div/div/img'
p171
F9.965784284662087
sS'/html/body/div/div/div/div/div/div/div/div/form/div/label/span/span'
p172
F5.50635266602479
sS'/html/body/div/div/div/div/div/div/div/table/tr/td/span/a/span'
p173
F3.184424571137428
sS'/html/body/div/div/div/div/a/div/div/div/h3'
p174
F9.965784284662087
sS'/html/body/div/div/div/div/div/div/div/a/div/img'
p175
F8.965784284662087
sS'/html/body/div/div/div/div/div/div/div/a/div/div/span'
p176
F9.965784284662087
sS'/html/body/div/div/div/div/div/div/div/a/div/div/div/div'
p177
F5.442222328605075
sS'/html/body/div/div/div/div/div/div/div/span'
p178
F0.0028882793248263526
sS'/html/body/div/div/div/div/div/div/div/ul/li/a'
p179
F1.158429362604483
sS'/html/body/div/div/div/div/div/h6'
p180
F8.965784284662087
sS'/html/body/div/div/div/div/div/h3'
p181
F2.643856189774725
sS'/html/body/div/div/div/div/div/h2'
p182
F0.001443416869668845
sS'/html/body/div/div/div/div/div/h1'
p183
F8.380821783940931
sS'/html/body/div/div/div/div/div/div/div/div/em/a'
p184
F9.965784284662087
sS'/html/body/div/div/div/div/div/div/div/ul/li/h3'
p185
F5.50635266602479
sS'/html/body/div/div/div/div/div/div/table/table/tr/td/a'
p186
F9.965784284662087
sS'/html/body/div/div/div/div/div/div/ul/li/div/div/div/p/span/span'
p187
F8.965784284662087
sS'/html/body/div/div/div/div/div/div/table/tr/td/span/span'
p188
F2.1844245711374275
sS'/html/body/div/div/div/div/div/table/tbody'
p189
F8.965784284662087
sS'/html/body/div/div/div/div/input'
p190
F9.965784284662087
sS'/html/body/div/div/div/div/div/ul/li/div/div/div/div/ul/li/img'
p191
F0.6665762662748081
sS'/html/body/div/div/div/div/div/ul/li/br'
p192
F6.50635266602479
sS'/html/body/div/div/div/div/div/div/div/div/div/a/div/div/div'
p193
F9.965784284662087
sS'/html/body/div/div/div/div/div/div/div/meta'
p194
F4.680382065799838
sS'/html/body/div/div/div/div/h2/span'
p195
F0.004334590263891124
sS'/html/body/div/div/div/div/div/div/div/div/ul/li/a'
p196
F0.6237096166629487
sS'/html/head/link'
p197
F0.0028882793248263526
sS'/html/body/div/div/div/div/div/div/div/div/div/div/div/span'
p198
F2.1844245711374275
sS'/html/body/div/div/div/div/div/ul/li/div/div/div/div/ul/li/a'
p199
F0.6665762662748081
sS'/html/body/div/div/div/div/div/div/div/a/div/div'
p200
F2.7083964419694353
sS'/html/body/div/div/div/div/div/div/div/table/tr/td/a/span'
p201
F1.9827907099677768
sS'/html/body/div/div/div/div/div/div/div/div/div/p/a'
p202
F4.756330919033137
sS'/html/body/div/div/div/div/div/div/div/div/div/div/a/div/div/img'
p203
F5.50635266602479
sS'/html/body/div/div/div/div/div/div/div/div/div/div/div/meta'
p204
F2.395928676331139
sS'/html/body/div/div/div/div/div/div/div/form/button/span'
p205
F2.5228407888133586
sS'/html/body/div/div/div/div/div/div/div/div/div/div/a/div/div/h3'
p206
F5.50635266602479
sS'/html/body/div/style'
p207
F0.12029423371771174
sS'/html/body/div/div/div/div/div/div/ul/li/div/div/div/p/a'
p208
F9.965784284662087
sS'/html/body/div/div/div/div/form/div/p/small/br'
p209
F0.004334590263891124
sS'/html/body/div/div/div/div/a/div/div'
p210
F3.3658714424749596
sS'/html/body/div/div/div/div/div/div/ul/li/a/img'
p211
F5.158429362604483
sS'/html/body/div/div/div/div/div/div/div/div/strong/span'
p212
F6.265344566520995
sS'/html/body/div/div/div/div/div/div/div'
p213
F1.3147325934831584
sS'/html/body/div/div/div/div/div/div/form/div/span/button'
p214
F9.965784284662087
sS'/html/body/div/div/div/div/div/div/div/div/p/br'
p215
F6.795859283219775
sS'/html/body/div/div/div/div/div/div/div/h5/a/strong'
p216
F9.965784284662087
sS'/html/body/div/div/div/a/img'
p217
F8.965784284662087
sS'/html/body/div/div/div/div/div/div/div/div/ul'
p218
F2.6170561304310094
sS'/html/body/div/div/div/div/div/p/b/i'
p219
F9.965784284662087
sS'/html/body/div/div/h3/a'
p220
F6.795859283219775
sS'/html/body/div/div/div/div/div/span'
p221
F2.910501849160897
sS'/html/body/div/div/div/div/div/div/span/span'
p222
F3.921390165303634
sS'/html/body/div/div/div/div/form/div/div/div/div/span/a/i'
p223
F0.004334590263891124
sS'/html/body/div/div/div/div/div/ol/li/a'
p224
F8.380821783940931
sS'/html/body/div/div/div/div/div/p/a/i'
p225
F0.004334590263891124
sS'/html/body/div/div/div/div/div/div/div/div/div/div/div/div/a/meta'
p226
F2.5063526660247897
sS'/html/body/div/div/div/div/div/div/div/div'
p227
F1.8059129478836977
sS'/html/body/div/div/div/div/div/div/div/div/ul/li/div/div/a/span'
p228
F0.6665762662748081
sS'/html/body/div/div/div/div/div/div/a/div/div/div'
p229
F3.7369655941662066
sS'/html/body/div/div/div/div/div/div/div/div/div/div/div/div/p/br'
p230
F7.380821783940932
sS'/html/body/div/div/div/div/div/div/div/div/div/a/div/span'
p231
F9.965784284662087
sS'/html/body/div/div/div/div/div/div/div/table/thead/tr/th/a'
p232
F2.8572598278839183
sS'/html/body/div/div/div/div/form/div/span/button'
p233
F0.004334590263891124
sS'/html/body/div/div/div/div/div/ul/li/div/a'
p234
F1.810966175609983
sS'/html/body/div/div/div/div/div/div/div/div/p/a'
p235
F7.643856189774724
sS'/html/body/div/div/div/button/span'
p236
F9.965784284662087
sS'/html/body/div/div/div/div/div/div/div/ul/li/span/span'
p237
F9.965784284662087
sS'/html/body/div/div/div/div/div/div/form/div/input'
p238
F7.965784284662087
sS'/html/body/div/div/div/div/div/div/div/div/div/div/div/div'
p239
F1.722610301189136
sS'/html/body/div/div/div/div/div/div/form/div/label'
p240
F8.380821783940931
sS'/html/body/div/div/div/div/div/div/div/div/a/div/div/p'
p241
F2.910501849160897
sS'/html/head/style'
p242
F4.9213901653036345
sS'/html/body/div/div/div/div/div/div/div/div/div/div/div/div/div/meta'
p243
F5.107803289534515
sS'/html/body/div/div/div/div/div/div/em'
p244
F9.965784284662087
sS'/html/body/div/div/div/div/div/div/div/p/em'
p245
F8.965784284662087
sS'/html/body/div/div/div/div/div/div/a/div/div/div/img'
p246
F9.965784284662087
sS'/html/body/div/div/div/div/ul/li/div/div/div/h2'
p247
F1.446148031818874
sS'/html/body/div/div/div/div/div/div/div/div/div/label/a'
p248
F5.50635266602479
sS'/html/body/div/div/div/div/div/div/div/div/div/div/a/span'
p249
F4.756330919033137
sS'/html/body/div/div/div/div/div/div/p/a/i'
p250
F8.380821783940931
sS'/html/body/div/div/div/h3/a'
p251
F2.2243172982609405
sS'/html/body/div/div/div/div/div/table/tbody/tr/td/div'
p252
F9.965784284662087
sS'/html/body/div/div/div/div/div/div/form/input'
p253
F7.643856189774724
sS'/html/body/div/div/script'
p254
F0.07400058144377678
sS'/html/body/div/div/div/div/div/div/div/div/div/a/div/span/span'
p255
F9.965784284662087
sS'/html/body/div/div/div/div/div/form/div/div/input'
p256
F1.438307278601691
sS'/html/body/div/div/div/div/div/div/ul/li/span'
p257
F3.921390165303634
sS'/html/body/div/div/div/div/div/h2/span'
p258
F8.965784284662087
sS'/html/body/div/div/div/div/div/br'
p259
F0.004334590263891124
sS'/html/body/div/div/div/div/div/div/p/a'
p260
F4.680382065799838
sS'/html/body/div/div/div/div/div/div/style'
p261
F6.965784284662088
sS'/html/body/div/div/div/div/div/ol/li'
p262
F8.965784284662087
sS'/html/body/div/div/div/div/div/div/a/div/h5'
p263
F9.965784284662087
sS'/html/body/div/div/div/div/form/input'
p264
F0.004334590263891124
sS'/html/body/div/div/div/div/div/div/div/div/div/a/p'
p265
F9.965784284662087
sS'/html/body/div/div/div/h2'
p266
F7.965784284662087
sS'/html/body/div/div/div/h1'
p267
F8.380821783940931
sS'/html/body/div/div/div/div/div/div/div/div/table/tr/td/select/option'
p268
F6.058893689053569
sS'/html/body/div/div/div/div/div/div/form/ol/div/div/div/label/div/label'
p269
F8.965784284662087
sS'/html/body/div/div/div/div/h3/a'
p270
F2.9213901653036336
sS'/html/body/div/div/div/div/div/div/div/label/input'
p271
F8.380821783940931
sS'/html/body/div/div/div/div/div/div'
p272
F0.6303939299681622
sS'/html/body/div/div/div/div/div/div/div/table/tr/td/a/span/span'
p273
F9.965784284662087
sS'/html/body/div/div/div/div/div/div/a/span/span'
p274
F9.965784284662087
sS'/html/body/div/div/div/div/div/div/div/div/div/a/span/span'
p275
F5.965784284662088
sS'/html/body/div/div/div/div/div/a'
p276
F0.001443416869668845
sS'/html/body/div/div/div/div/div/div/div/button/div/div'
p277
F5.50635266602479
sS'/html/body/div/div/div/div/div/div/a/div/div/div/div/p/em'
p278
F9.965784284662087
sS'/html/body/div/script'
p279
F0.004334590263891124
sS'/html/body/div/div/div/div/div/div/ul/li/p'
p280
F8.965784284662087
sS'/html/body/div/div/div/div/button/span'
p281
F0.001443416869668845
sS'/html/body/div/div/div/div/h2'
p282
F0.004334590263891124
sS'/html/body/div/div/div/div/h1'
p283
F2.2042330522176075
sS'/html/body/div/div/div/div/div/div/div/div/div/div/script'
p284
F8.965784284662087
sS'/html/body/div/div/div/div/div/div/ul/li/a'
p285
F1.5907448533151625
sS'/html/body/div/div/div/div/form/div/div/div/button/em'
p286
F8.965784284662087
sS'/html/body/div/div/div/div/div/div/div/span/span'
p287
F5.965784284662088
sS'/html/body/div/div/div/ul/li/a'
p288
F1.4111954329844496
sS'/html/body/div/div/div/div/div/em'
p289
F8.380821783940931
sS'/html/body/div/div/div/div/div/div/a/h3'
p290
F5.380821783940931
sS'/html/body/div/div/div/div/div/div/div/div/div/div/a/img'
p291
F6.795859283219775
sS'/html/body/div/div/div/div/div/div/ul/li/div/a'
p292
F3.899695094204315
sS'/html/body/div/div/div/div/div/div/div/div/strong/a'
p293
F4.680382065799838
sS'/html/body/div/div/div/div/div/div/div/div/strong'
p294
F9.965784284662087
sS'/html/body/div/div/div/div/div/ul/li/div/div/div/div/div/br'
p295
F0.6665762662748081
sS'/html/body/div/div/div/div/div/div/p/span'
p296
F2.1265804965651434
sS'/html/body/div/div/div/div/ul/li/a/span'
p297
F1.438307278601691
sS'/html/body/div/div/div/div/div/div/div/div/form/div/div/input'
p298
F7.965784284662087
sS'/html/body/div/div/div/div/div/div/div/div/div/img'
p299
F2.2243172982609405
sS'/html/body/div/div/div/div/div/div/div/div/meta'
p300
F2.434402824145775
sS'/html/body/div/div/div/div/div/ul/li/a/span'
p301
F0.6665762662748081
sS'/html/body/div/div/div/div/form/div/div/div/button/span'
p302
F8.965784284662087
sS'/html/body/div/div/div/div/button'
p303
F6.965784284662088
sS'/html/body/div/div/div/div/div/div/div/script'
p304
F1.214240225572989
sS'/html/body/div/div/div/div/div/div/ul/li/p/a'
p305
F8.965784284662087
sS'/html/body/div/div/div/div/div/div/table/tbody/tr/td/textarea'
p306
F5.573466861883327
sS'/html/body/div/div/div/div/div/div/div/div/a/div/div/div/span'
p307
F8.380821783940931
sS'/html/body/div/div/div/div/div/div/div/div/div/p/em'
p308
F9.965784284662087
sS'/html/body/div/div/div/div/div/div/script'
p309
F0.4285658841234907
sS'/html/body/div/div/div/div/div/div/a/div/div/div/h3'
p310
F9.965784284662087
sS'/html/body/div/div/div/div/div/div/div/div/textarea'
p311
F2.6896598793878495
sS'/html/body/div/div/div/div/div/ul/li/h3'
p312
F5.50635266602479
sS'/html/body/div/div/div/div/div/div/div/div/div/div/img'
p313
F5.158429362604483
sS'/html/body/div/div/div/div/div/div/form/ol/div/div/div/ul/li/label/span/a'
p314
F8.965784284662087
sS'/html/body/div/div/div/div/a/div/h3'
p315
F8.965784284662087
sS'/html/body/div/div/div/div/div/div/div/div/div/em'
p316
F5.107803289534515
sS'/html/body/div/div/div/div/div/div/div/div/h3'
p317
F5.50635266602479
sS'/html/body/div/div/div/div/span'
p318
F8.965784284662087
sS'/html/body/div/div/div/div/div/div/div/div/div/div/input'
p319
F5.50635266602479
sS'/html/body/div/div/div/div/div/div/table/tr/td/ul/li/em'
p320
F3.265344566520995
sS'/html/body/div/div/div/div/div/div/ul/li/ol/li/span'
p321
F7.643856189774724
sS'/html/body/div/div/div/div/div/div/div/div/img'
p322
F3.857259827883918
sS'/html/body/div/div/div/div/a'
p323
F0.001443416869668845
sS'/html/body/div/div/div/div/div/div/div/div/p/span/span'
p324
F9.965784284662087
sS'/html/body/div/div/div/div/div/div/div/button/span'
p325
F0.584241333477502
sS'/html/body/div/div/div/div/div/div/dl/dt'
p326
F4.473931188332412
sS'/html/body/div/div/div/div/div/div/div/div/div/li'
p327
F8.965784284662087
sS'/html/body/div/div/div/div/div/div/div/div/div/script'
p328
F4.717856771218502
sS'/html/body/div/div/div/div/div/div/select/option'
p329
F5.573466861883327
sS'/html/body/div/div/div/div/div/div/dl/dd'
p330
F4.473931188332412
sS'/html/script'
p331
F4.608232280044003
sS'/html/body/div/div/div/div/div/div/button'
p332
F8.965784284662087
sS'/html/body/div/div/div/div/div/div/div/div/div/a/img'
p333
F7.643856189774724
sS'/html/body/div/div/div/div/div/ul/li/div/div/div/div/h2'
p334
F0.6665762662748081
sS'/html/body/div/div/div/div/p/img'
p335
F0.004334590263891124
sS'/html/body/div/div/div/div/div/div/table/tbody/tr/td'
p336
F5.643856189774724
sS'/html/body/div/div/div/div/div/div/div/a/div'
p337
F6.965784284662088
sS'/html/body/div/div/div/div/div/div/div/h5/a'
p338
F9.965784284662087
sS'/html/body/div/div/div/div/div/div/form/ol/div/div/div/div'
p339
F8.965784284662087
sS'/html/body/div/div/div/div/div/ul/li/span/span'
p340
F2.7563309190331373
sS'/html/body/div/div/div/div/div/div/div/h2/a'
p341
F5.573466861883327
sS'/html/body/div/div/div/div/div/div/div/div/form/div/div/span/button/em'
p342
F7.965784284662087
sS'/html/body/div/div/div/div/div/div/div/table/tr/td/a'
p343
F2.0115879742752116
sS'/html/body/div/div/div/div/img'
p344
F9.965784284662087
sS'/html/body/div/div/div/div/div/div/div/p/span/br'
p345
F8.965784284662087
sS'/html/body/div/div/div/div/div/table/tr/td/a'
p346
F4.380821783940931
sS'/html/body/div/div/div/div/div/form/textarea'
p347
F5.573466861883327
sS'/html/body/div/div/div/div/a/div/div/div/div/p'
p348
F9.965784284662087
sS'/html/body/div/div/div/div/div/div/div/a/p/em'
p349
F8.965784284662087
sS'/html/body/div/div/div/div/p'
p350
F0.004334590263891124
sS'/html/body/div/div/div/div/div/div/div/div/a/div/div/img'
p351
F8.380821783940931
sS'/html/body/div/div/div/div/div/div/a/div/div/div/div/div'
p352
F9.965784284662087
sS'/html/body/div/div/div/div/div/div/div/img'
p353
F4.083141235300245
sS'/html/body/div/div/div/div/div/div/table/tbody/tr/td/p/br'
p354
F9.965784284662087
sS'/html/body/div/div/div/div/div/div/a/div/div/img'
p355
F0.001443416869668845
sS'/html/body/div/div/div/div/div/div/div/div/button'
p356
F4.293358942690592
sS'/html/body/div/div/div/div/div/ul/li'
p357
F0.6665762662748081
sS'/html/body/div/div/div/div/div/div/form/label/input'
p358
F8.965784284662087
sS'/html/body/div/div/div/div/div/div/table/tbody/tr/td/select'
p359
F5.573466861883327
sS'/html/body/div/div/div/div/div/div/div/div/div/br'
p360
F7.158429362604482
sS'/html/body/div/div/div/div/a/img'
p361
F9.965784284662087
sS'/html/body/div/div/div/div/div/div/ul/li/div/div/div/span/a'
p362
F9.965784284662087
sS'/html/body/div/div/div/div/div/div/div/a/div/div/p'
p363
F9.965784284662087
sS'/html/body/div/div/div/div/div/div/div/div/div/h2/span'
p364
F9.965784284662087
sS'/html/body/div/div/div/div/div/div/ul/li/a/span'
p365
F3.921390165303634
sS'/html/body/div/div/div/div/div/div/div/div/span/span'
p366
F9.965784284662087
sS'/html/body/div/div/div/nav/ul/li/a'
p367
F8.965784284662087
sS'/html/body/div/div/div/div/div/div/div/div/p/span'
p368
F8.380821783940931
sS'/html/body/div/div/div/div/div/div/div/div/h3/div/a'
p369
F5.50635266602479
sS'/html/body/div/div/div/div/div/table/thead/tr/th/span'
p370
F7.643856189774724
sS'/html/body/div/div/div/div/div/div/div/button/div'
p371
F5.50635266602479
sS'/html/body/div/div/div/div/h3/a/meta'
p372
F4.608232280044003
sS'/html/body/div/div/div/div/div/div/a/br'
p373
F6.058893689053569
sS'/html/body/div/div/div/div/div/form/p/select/option'
p374
F9.965784284662087
sS'/html/body/div/div/div/div/form/div/div/div/div/input'
p375
F0.004334590263891124
sS'/html/body/div/div/div/div/div/div/table/tr/td'
p376
F2.1648843847417822
sS'/html/body/div/div/div/style'
p377
F2.8677522017015606
sS'/html/body/div/div/div/div/div/div/div/div/div/a/p/em'
p378
F9.965784284662087
sS'/html/body/div/div/div/div/div/div/div/a/div/div/div/span'
p379
F2.7083964419694353
sS'/html/body/div/div/div/div/div/div/div/div/div/div/a/div/img'
p380
F2.6896598793878495
sS'/html/body/div/div/div/div/div/ul/li/div/div/span'
p381
F6.50635266602479
sS'/html/body/div/div/div/div/div/div/div/div/button/span/span'
p382
F6.965784284662088
sS'/html/body/div/div/div/div/div/div/div/div/table/tr/td/textarea'
p383
F6.058893689053569
sS'/html/body/div/div/div/div/div/div/div/a/button/em'
p384
F0.6665762662748081
sS'/html/body/div/div/div/div/div/div/div/div/div/div/div/div/div/a'
p385
F3.457989644463391
sS'/html/body/div/div/div/div/div/div/div/table/tr/td/ul/li/em'
p386
F3.1713684183119812
sS'/html/body/div/div/div/div/div/div/ul/li/div/div/div/img'
p387
F9.965784284662087
sS'/html/body/div/div/div/div/div/div/div/div/div/div/a/div/div/p'
p388
F2.49817873457909
sS'/html/body/div/div/div/div/div/ul/li/a'
p389
F0.001443416869668845
sS'/html/body/div/div/div/div/div'
p390
F0.001443416869668845
sS'/html/body/div/div/div/div/div/div/a/p'
p391
F9.965784284662087
sS'/html/body/div/div/div/div/div/div/div/table/tr/td'
p392
F1.3770696490798233
sS'/html/body/div/div/div/div/div/div/div/div/div/span/a'
p393
F5.50635266602479
sS'/html/body/div/div/div/div/div/script'
p394
F0.11716134423274915
sS'/html/body/div/div/div/div/div/div/br'
p395
F4.380821783940931
sS'/html/body/div/div/div/div/div/div/table/tr/td/span'
p396
F3.9657842846620874
sS'/html/body/div/div/div/div/div/div/div/table/tr/td/span/span'
p397
F1.4035418604410146
sS'/html/body/div/div/div/div/div/div/div/div/p/span/a'
p398
F9.965784284662087
sS'/html/body/div/div/div/div/div/div/h1/em'
p399
F8.965784284662087
sS'/html/body/div/div/div/div/div/div/ul/li/div/a/span'
p400
F4.011587974275212
sS'/html/body/div/div/div/div/div/div/div/div/div/div/div/div/div/div'
p401
F5.107803289534515
sS'/html/body/div/div/div/div/div/form/div/span/a'
p402
F9.965784284662087
sS'/html/body/div/div/div/div/a/div/span'
p403
F3.3658714424749596
sS'/html/body/div/div/div/div/div/ul/li/div/div/div/div/table/tr/td/img'
p404
F0.6665762662748081
sS'/html/body/div/div/div/div/div/p/a/strong'
p405
F8.380821783940931
sS'/html/body/div/div/div/div/div/div/p/a/span'
p406
F8.965784284662087
sS'/html/body/div/div/div/div/div/div/a'
p407
F0.001443416869668845
sS'/html/body/div/div/div/div/div/div/table/table/tr/td/span/span'
p408
F9.965784284662087
sS'/html/body/div/div/div/div/div/div/div/ul/div/div'
p409
F5.50635266602479
sS'/html/body/div/div/div/div/div/div/a/p/em'
p410
F1.3111482561341197
sS'/html/body/div/div/div/div/div/div/form/label/textarea'
p411
F8.965784284662087
sS'/html/body/div/div/div/div/div/div/div/div/a/sub'
p412
F5.50635266602479
sS'/html/body/div/div/div/div/div/div/div/div/div/div/a'
p413
F2.1909972250609138
sS'/html/body/div/div/div/div/div/div/div/div/div/div/div/div/div/div/span'
p414
F5.107803289534515
sS'/html/body/div/div/div/div/a/div/div/div/div/span'
p415
F9.965784284662087
sS'/html/body/div/div/div/div/div/div/div/a/img'
p416
F0.004334590263891124
sS'/html/body/div/div/div/div/div/span/a'
p417
F6.795859283219775
sS'/html/body/div/div/div/div/div/div/h1'
p418
F2.380821783940931
sS'/html/body/div/div/div/div/div/div/div/div/div/div/a/div/div/p/em'
p419
F2.6896598793878495
sS'/html/body/div/div'
p420
F5.058893689053569
sS'/html/body/div/div/div/div/div/a/img'
p421
F4.608232280044003
sS'/html/body/div/div/div/div/div/div/form/ol/div/div/div/br'
p422
F8.965784284662087
sS'/html/body/div/div/div/div/div/div/table/tr/td/p/br'
p423
F8.965784284662087
sS'/html/body/div/div/div/div/div/form/p/b'
p424
F9.965784284662087
sS'/html/body/div/div/div/div/div/div/div/div/a/div/div/div'
p425
F2.910501849160897
sS'/html/body/div/div/div/div/div/form/p/i'
p426
F5.573466861883327
sS'/html/body/div/div/div/div/div/div/div/div/a/em'
p427
F9.965784284662087
sS'/html/body/div/div/div/div/div/ul/li/a/em'
p428
F9.965784284662087
sS'/html/body/div/div/div/div/div/div/a/span'
p429
F0.004334590263891124
sS'/html/body/div/div/div/div/div/input'
p430
F6.795859283219775
sS'/html/body/div/div/div/div/div/div/div/div/div/a/div/div/p'
p431
F8.965784284662087
sS'/html/body/div/div/div/div/a/div'
p432
F3.3364276645824775
sS'/html/body/div/div/div/div/div/img'
p433
F1.9213901653036336
sS'/html/body/div/div/div/div/div/div/div/a/div/div/p/em'
p434
F9.965784284662087
sS'/html/body/div/div/div/div/div/div/div/div/div/a/div/h3'
p435
F9.965784284662087
sS'/html/body/div/div/div/div/div/div/a/button/em'
p436
F1.438307278601691
sS'/html/body/div/div/div/div/form/div/div/div/div'
p437
F0.004334590263891124
sS'/html/body/div/div/div/div/div/div/form/label/br'
p438
F8.965784284662087
sS'/html/body/div/div/div/div/div/ul/li/span'
p439
F3.7958592832197753
sS'/html/body/div/div/div/div/div/div/div/table/tr/td/time'
p440
F3.237863830098888
sS'/html/body/div/div/div/div/div/div/a/div/div/div/div/span'
p441
F9.965784284662087
sS'/html/body/div/div/h1'
p442
F9.965784284662087
sS'/html/body/div/div/div/div/div/div/div/div/div/div/div/div/div/div/div/div/a/img'
p443
F9.965784284662087
sS'/html/body/div/div/div/div/div/ul/li/div/div/div/h2'
p444
F0.6665762662748081
sS'/html/body/div/div/div/div/div/div/div/div/div/div/div/a'
p445
F1.8313579644411613
sS'/html/body/div/div/div/div/div/table/tbody/tr/td/a/strong'
p446
F9.965784284662087
sS'/html/body/div/div/div/div/div/div/div/ol/li/span'
p447
F8.965784284662087
sS'/html/body/div/div/div/div/div/div/div/div/table/tr/td/p/a'
p448
F7.965784284662087
sS'/html/body/div/div/div/div/div/div/div/div/ul/li/div'
p449
F6.965784284662088
sS'/html/body/div/div/div/div/div/div/table/tbody/tr/td/p/a'
p450
F8.380821783940931
sS'/html/body/div/div/div/div/div/div/div/div/div/div/div/div/img'
p451
F7.158429362604482
sS'/html/body/div/div/div/div/div/div/div/div/p'
p452
F0.004334590263891124
sS'/html/body/div/div/div/div/div/div/div/div/span/br'
p453
F1.9323612831246368
sS'/html/body/div/div/div/div/p/a/i'
p454
F0.004334590263891124
sS'/html/body/div/div/div/div/div/ol/li/p/a'
p455
F8.380821783940931
sS'/html/body/div/div/div/div/div/div/div/h2'
p456
F3.921390165303634
sS'/html/body/div/div/div/div/div/div/div/div/table/thead/tr/th'
p457
F6.058893689053569
sS'/html/body/div/div/div/div/div/div/div/div/div/div/div/div/div/div/h3/a'
p458
F9.965784284662087
sS'/html/body/div/div/div/div/div/table/tbody/tr/td'
p459
F7.965784284662087
sS'/html/body/div/div/div'
p460
F2.7178567712185013
sS'/html/body/div/div/div/div/div/div/div/div/a/span/span'
p461
F5.965784284662088
sS'/html/body/div/div/div/div/div/div/a/div/div'
p462
F3.7369655941662066
sS'/html/body/div/div/div/div/div/form/button/span'
p463
F5.573466861883327
sS'/html/body/div/div/div/span'
p464
F0.004334590263891124
sS'/html/body/div/div/div/div/div/div/div/div/div/div/span/meta'
p465
F5.058893689053569
sS'/html/body/div/div/div/div/div/div/ul/li/div/div/dl/dd/a'
p466
F8.965784284662087
sS'/html/body/div/div/div/div/div/div/div/a/h5'
p467
F7.643856189774724
sS'/html/body/div/div/div/div/div/div/div/table/tr/td/span'
p468
F2.0232697793228476
sS'/html/body/div/div/div/div/div/div/table/thead/tr/th'
p469
F3.279283757478869
sS'/html/body/div/div/div/div/div/div/table/tr/td/div'
p470
F2.3075728019102923
sS'/html/body/div/div/div/div/a/h3'
p471
F3.680382065799839
sS'/html/body/p/meta'
p472
F9.965784284662087
sS'/html/body/div/div/div/div/div/div/div/div/p/strong'
p473
F4.011587974275212
sS'/html/body/div/div/div/div/div/div/div/a'
p474
F0.3547594873547348
sS'/html/body/div/div/div/div/div/div/div/div/ul/li/span'
p475
F8.965784284662087
sS'/html/body/div/div/div/div/div/div/div/div/div/div/div/div/div/div/meta'
p476
F5.107803289534515
sS'/html/body/div/div/div/div/form/div/div/select/option'
p477
F0.004334590263891124
sS'/html/body/div/div/div/div/div/div/div/div/h2/a'
p478
F6.965784284662088
sS'/html/body/div/div/div/div/div/div/div/table/tr/td/ul/li/span'
p479
F3.0232697793228476
sS'/html/body/div/div/div/div/div/ol/li/p/strong'
p480
F8.380821783940931
sS'/html/body/div/div/div/div/div/div/div/div/div/a/p/span'
p481
F2.6896598793878495
sS'/html/body/div/div/div/div/div/div/div/div/div/h2/a'
p482
F9.965784284662087
sS'/html/body/div/div/div/div/div/div/div/div/div/div/div/em'
p483
F3.457989644463391
sS'/html/body/div/div/div/div/div/div/div/div/div/ul/li/a'
p484
F7.643856189774724
sS'/html/body/div/div/div/div/div/div/form/select/option'
p485
F8.380821783940931
sS'/html/body/div'
p486
F0.004334590263891124
sS'/html/body/div/div/div/meta'
p487
F4.680382065799838
sS'/html/body/div/div/div/div/div/div/div/ul/h3'
p488
F5.50635266602479
sS'/html/body/div/div/div/div/div/div/div/div/div/div/meta'
p489
F2.145605322246899
sS'/html/body/div/div/div/div/div/form/div/span'
p490
F9.965784284662087
sS'/html/body/div/div/div/div/div/div/div/div/div/div/a/div/div/div/span'
p491
F5.50635266602479
sS'/html/body/div/div/div/div/div/form/span'
p492
F5.573466861883327
sS'/html/body/div/div/div/div/div/div/table/tbody/tr/td/p/a/span'
p493
F8.965784284662087
sS'/html/body/div/div/div/div/div/button'
p494
F5.50635266602479
sS'/html/body/p/link'
p495
F9.965784284662087
sS'/html/body/div/div/div/div/div/div/a/div/span'
p496
F8.965784284662087
sS'/html/body/div/div/div/div/div/div/div/div/div/div/div/div/div'
p497
F3.3658714424749596
sS'/html/body/div/div/div/div/div/div/button/span'
p498
F1.3364276645824773
sS'/html/body/div/div/div/div/form/div/div/label/span/br'
p499
F0.004334590263891124
sS'/html/body/div/div/div/div/div/ul/li/p/a'
p500
F2.7273795453370084
sS'/html/body/div/div/div/div/div/div/div/ul/li/div/div'
p501
F5.50635266602479
sS'/html/body/div/div/div/div/div/div/div/div/div/p/span'
p502
F3.5063526660247897
sS'/html/body/div/div/div/div/div/div/div/div/div/a/div'
p503
F9.965784284662087
sS'/html/body/div/div/div/div/div/meta'
p504
F3.457989644463391
sS'/html/body/div/div/div/div/div/div/form/div/button/span'
p505
F8.965784284662087
sS'/html/body/div/div/div/div/div/div/div/div/div/a/div/div/p/em'
p506
F8.965784284662087
sS'/html/body/div/div/div/div/div/div/div/div/a/button/span'
p507
F4.184424571137428
sS'/html/body/div/div/div/div/div/div/a/img'
p508
F0.5521563556379147
sS'/html/body/div/div/div/div/div/div/div/div/a/h5'
p509
F4.132894270497346
sS'/html/body/noscript/iframe'
p510
F8.965784284662087
sS'/html/body/div/div/div/a/div/span/strong'
p511
F8.380821783940931
sS'/html/body/div/div/div/div/div/div/a/div/div/span'
p512
F0.001443416869668845
sS'/html/body/div/div/div/div/div/button/span'
p513
F0.004334590263891124
sS'/html/body/div/div/div/div/form/div/div/input'
p514
F0.001443416869668845
sS'/html/body/div/div/div/div/div/a/h3'
p515
F2.9213901653036336
sS'/html/body/div/div/div/div/div/ul/li/div/div/div/div/div/a/span'
p516
F0.6665762662748081
sS'/html/body/div/div/div/div/div/div/ul/li/div/a/img'
p517
F3.9657842846620874
sS'/html/body/div/div/div/div/div/div/div/a/div/meta'
p518
F2.4188898247744506
sS'/html/body/div/div/div/div/div/div/div/div/div/div/a/div/span'
p519
F8.965784284662087
sS'/html/body/div/div/div/div/div/table/tr/td/span/span'
p520
F7.158429362604482
sS'/html/head/title'
p521
F0.004334590263891124
sS'/html/body/div/div/div/div/form/div/div/small/a'
p522
F0.004334590263891124
sS'/html/body/div/div/div/div/div/table/tr/td/a/span'
p523
F4.717856771218502
sS'/html/body/div/div/div/div/div/div/div/a/div/h3'
p524
F8.965784284662087
sS'/html/body/div/div/div/div/form/div/input'
p525
F0.004334590263891124
sS'/html/body/div/div/div/div/ul/li/a'
p526
F0.001443416869668845
sS'/html/body/div/div/div/div/ul/li'
p527
F0.001443416869668845
sS'/html/body/div/div/div/div/form/div/label'
p528
F0.004334590263891124
sS'/html/body/div/div/div/div/span/a/em'
p529
F9.965784284662087
sS'/html/body/div/div/div/div/div/div/table/tr/td/ul/li/span'
p530
F3.1713684183119812
sS'/html/body/div/div/div/div/div/div/div/table/thead/tr/th/span'
p531
F2.8572598278839183
sS'/html/body/div/div/div/div/form/div/div/label/span/a/i'
p532
F0.004334590263891124
sS'/html/body/div/div/div/div/div/ul/li/a/br'
p533
F2.0232697793228476
sS'/html/body/div/div/div/div/div/div/div/div/div/div/div/div/script'
p534
F9.965784284662087
sS'/html/body/div/div/div/div/div/div/div/div/a/span'
p535
F0.3789444967002604
sS'/html/body/div/div/div/div/h2/a/em'
p536
F4.608232280044003
sS'/html/body/div/div/div/div/div/ul/li/div/div/div/div'
p537
F0.6665762662748081
sS'/html/body/div/div/div/div/div/div/div/hr'
p538
F9.965784284662087
sS'/html/body/div/div/div/div/ul/li/div/div/div/div/ul/li/img'
p539
F1.446148031818874
sS'/html/body/div/div/div/div/div/div/div/div/a/div/img'
p540
F2.6896598793878495
sS'/html/body/div/div/div/div/div/div/ul/li/div/div/p/em'
p541
F8.965784284662087
sS'/html/body/div/div/div/div/div/div/div/div/a/div/div/span'
p542
F2.6896598793878495
sS'/html/body/div/div/div/div/div/div/form/div/div/input'
p543
F0.6665762662748081
sS'/html/body/div/div/div/div/script'
p544
F0.001443416869668845
sS'/html/body/div/div/div/div/div/div/div/div/a'
p545
F1.8677522017015604
sS'/html/body/div/div/div/div/div/div/div/div/em'
p546
F9.965784284662087
sS'/html/body/div/div/div/div/div/h2/a'
p547
F9.965784284662087
sS'/html/body/div/div/div/div/div/div/div/div/div/a/div/img'
p548
F7.965784284662087
sS'/html/body/div/div/div/div/div/ul'
p549
F7.643856189774724
sS'/html/body/div/div/div/div/div/div/div/div/div/div/div/div/a/span'
p550
F2.5063526660247897
sS'/html/body/div/div/div/div/div/div/div/div/div/a/sub'
p551
F6.380821783940931
sS'/html/body/div/div/div/div/div/div/div/div/div/div/p/span'
p552
F2.5063526660247897
sS'/html/body/div/div/div/div/div/div/div/h4'
p553
F5.442222328605075
sS'/html/body/div/div/div/div/div/div/div/h3'
p554
F0.004334590263891124
sS'/html/body/div/div/div/ul/li'
p555
F1.438307278601691
sS'/html/body/div/div/div/div/div/div/form/ol/div/div/div/input'
p556
F8.965784284662087
sS'/html/body/div/div/div/div/a/div/em/span'
p557
F7.380821783940932
sS'/html/head/title/link'
p558
F8.965784284662087
sS'/html/body/div/div/div/div/div/div/form/button/span'
p559
F3.457989644463391
sS'/html/body/script'
p560
F0.0
sS'/html/body/div/div/div/div/div/div/div/div/div/div'
p561
F1.9378782880922025
sS'/html/body/div/div/div/div/div/form/div/span/select/option'
p562
F9.965784284662087
sS'/html/body/div/div/div/div/div/div/div/style'
p563
F1.971430847803229
sS'/html/body/div/div/div/div/div/div/div/div/div/div/div/br'
p564
F3.457989644463391
sS'/html/body/div/div/div/a/div/em/span'
p565
F8.380821783940931
sS'/html/body/div/div/div/div/a/div/div/div/img'
p566
F9.965784284662087
sS'/html/body/div/div/div/div/div/form/div/div/div/button/em'
p567
F1.438307278601691
sS'/html/body/div/div/div/div/div/div/form/div/div/div/button/span'
p568
F0.6665762662748081
sS'/html/body/div/div/div/div/div/div/ul/br'
p569
F9.965784284662087
sS'/html/body/div/div/div/div/div/div/form/br'
p570
F8.965784284662087
sS'/html/body/div/div/div/div/div/div/div/ul/li/a/img'
p571
F1.446148031818874
sS'/html/body/div/div/div/div/div/div/div/ul/li/div/div/a'
p572
F1.446148031818874
sS'/html/body/div/div/div/div/div/div/div/div/div/strong/a'
p573
F8.380821783940931
sS'/html/body/div/div/div/div/div/div/form/ol/div/table/tbody/tr/td/input'
p574
F8.965784284662087
sS'/html/body/div/div/div/div/a/div/button'
p575
F7.380821783940932
sS'/html/body/div/div/div/div/div/div/div/p/a/em'
p576
F9.965784284662087
sS'/html/body/div/div/div/div/div/div/div/ul/li/span'
p577
F7.643856189774724
sS'/html/body/div/div/div/div/div/div/hr'
p578
F8.380821783940931
sS'/html/body/div/div/div/div/div/div/table/br'
p579
F9.965784284662087
sS'/html/body/div/div/div/div/div/div/div/div/div/div/div/div/a/span/span'
p580
F2.5063526660247897
sS'/html/body/div/div/div/h1/span'
p581
F2.7083964419694353
sS'/html/body/div/div/div/div/div/div/ul/li/div/div'
p582
F4.011587974275212
sS'/html/body/div/div/div/div/div/div/div/div/div/a/div/div'
p583
F9.965784284662087
sS'/html/body/div/div/div/div/h4'
p584
F0.004334590263891124
sS'/html/body/div/div/div/div/div/div/div/a/div/div/div'
p585
F2.9434164716336326
sS'/html/body/div/div/div/div/div/div/div/div/div/div/div'
p586
F2.77595972578207
sS'/html/body/div/div/div/div/div/div/div/div/dl/dd'
p587
F6.058893689053569
sS'/html/body/div/div/div/div/form/div/div'
p588
F0.004334590263891124
sS'/html/body/div/div/div/div/div/div/form/ol/div/div/div/ul/li/label/span/input'
p589
F8.965784284662087
sS'/html/body/div/div/div/div/div/p'
p590
F0.0028882793248263526
sS'/html/body/div/div/div/div/div/div/div/p/span'
p591
F6.965784284662088
sS'/html/body/div/div/div/div/div/div/div/div/div'
p592
F2.107803289534515
sS'/html/body/div/div/div/div/div/h3/span'
p593
F2.6896598793878495
sS'/html/body/div/div/div/div/div/div/ul/li/a/div'
p594
F9.965784284662087
sS'/html/body/div/div/div/div/div/div/h3'
p595
F7.643856189774724
sS'/html/body/div/div/div/div/div/div/h2'
p596
F2.1778817252706553
sS'/html/body/div/div/div/div/div/div/div/div/h3/span'
p597
F0.004334590263891124
sS'/html/body/div/div/div/div/div/div/div/a/p'
p598
F8.965784284662087
sS'/html/body/div/div/div/div/div/div/div/div/ul/li/a/img'
p599
F0.6665762662748081
sS'/html/body/div/div/div/div/div/div/div/div/div/div/div/div/div/span'
p600
F2.4035418604410146
sS'/html/body/div/div/div/div/div/div/div/div/div/meta'
p601
F4.608232280044003
sS'/html/body/div/div/div/div/div/div/ul/ul/li/p'
p602
F8.965784284662087
sS'/html/body/div/div/div/div/div/table/tr/td/a/meta'
p603
F4.717856771218502
sS'/html/body/div/div/div/script'
p604
F0.11716134423274915
sS'/html/body/div/div/div/div/div/div/div/p/a'
p605
F5.795859283219775
sS'/html/body/div/div/div/div/div/div/ul'
p606
F9.965784284662087
sS'/html/body/div/div/div/div/div/span/button'
p607
F6.795859283219775
sS'/html/body/div/div/div/div/div/div/div/a/br'
p608
F9.965784284662087
sS'/html/body/div/div/div/div/div/a/div/span'
p609
F5.50635266602479
sS'/html/body/div/div/div/div/div/h1/span'
p610
F8.380821783940931
sS'/html/body/div/div/div/div/div/div/div/div/script'
p611
F0.7369655941662062
s.