(dp0
S'/html/body/div/div/div/div/div/div/div/div/div/div/button/span/span/span/span'
p1
F7.158429362604482
sS'/html/body/div/div/div/div/div/div/div/div/div/div/ul/li/div/div/div/section/div/div/div/div/div'
p2
F8.380821783940931
sS'/html/body/div/div/div/div/div/div/div/div/div/div/div/button/span/span'
p3
F0.0
sS'/html/body/div/div/div/div/div/div/div/div/div/div/ul/li/div/div/div/ul/li/div/div/span/a/span/span/span/img'
p4
F8.965784284662087
sS'/html/body/div/div/div/div/div/div/div/div/div/p'
p5
F5.965784284662088
sS'/html/body/div/div/div/div/div/div/div/div/div/div/div/div/ul/li/a'
p6
F3.9434164716336326
sS'/html/body/div/div/div/div/div/div/div/div/div/div/h3'
p7
F0.0
sS'/html/body/div/div/div/div/div/div/div/div/div/div/ul/li/div/div/div/div/div/div/a/span/span/span/span/span/b'
p8
F8.965784284662087
sS'/html/body/div/div/div/div/div/div/div/div/div/div'
p9
F0.5187010584524349
sS'/html/body/div/div/div/div/div/div/div/div/div/div/ul/li/div/table/tbody/tr/td/span/button'
p10
F3.9434164716336326
sS'/html/body/div/div/div/div/div/div/div/div/div/div/div/h1/span/span/span/a'
p11
F1.5228407888133588
sS'/html/body/div/div/div/div/div/div/div/div/div/div/ul/li/div/div/div/div/div/wbr/wbr/wbr/br'
p12
F7.643856189774724
sS'/html/body/div/div/div/div/div/div/div/div/div/div/ul/li/div/div/div/div/div/div/a/span/span/button'
p13
F8.965784284662087
sS'/html/body/iframe'
p14
F4.035046947099201
sS'/html/body/div/div/div/div/div/div/div/div/div/div/ul/li/div/div/div/div/div/br'
p15
F2.954557029238833
sS'/html/body/div/div/div/div/div/div/div/div/div/div/ul/li/span'
p16
F5.717856771218502
sS'/html/body/div/div/div/div/div/div/div/div/div/span/button/span/span'
p17
F6.265344566520995
sS'/html/body/div/div/div/div/div/div/div/div/div/button/span'
p18
F0.6303939299681622
sS'/html/body/div/div/div/div/div/div/div/div/ul/li/div/form/span/input'
p19
F1.6303939299681622
sS'/html/body/div/div/div/div/div/div/div/div/div/div/div/div/div/p/wbr/br'
p20
F7.965784284662087
sS'/html/body/div/div/div/div/div/div/div/div/div/div/ul/li/div/div/div/div/div/div/div/ul/li/div/div/div/h3/a'
p21
F2.293358942690592
sS'/html/body/div/div/div/div/div/div/div/div/div/div/ul/li/a/span'
p22
F1.8624964762500653
sS'/html/body/div/div/div/div/div/div/div/div/div/div/div/div/ol/li/ol/li/div/div/div/div/h2/span'
p23
F9.965784284662087
sS'/html/body/div/div/div/div/div/div/div/div/div/div/div/div/span/span'
p24
F1.5228407888133588
sS'/html/body/div/div/div/div/div/div/div/div/div/div/ul/li/div/div/div/div/div/div/a'
p25
F5.442222328605075
sS'/html/body/div/div/div/div/div/div/div/div/div/div/div/div/div/div/div/div/span/button'
p26
F9.965784284662087
sS'/html/body/div/div/div/div/div/div/div/div/div/div/ul/li/div/div/div/div/div/ul/li/div/div/div/a/span/span/span/span/span'
p27
F5.210896782498619
sS'/html/body/div/div/div/div/div/div/div/div/div/div/div/script'
p28
F2.293358942690592
sS'/html/body/div/div/div/div/div/div/div/div/div/div/ul/li/div/div/div/section/div/div/div/div/div/div/div/div/button/span'
p29
F8.380821783940931
sS'/html/body/div/div/div/div/div/div/div/div/div/div/ul/li/div/div/div/div/div/div/div/ul/li/div/div/div/span/a/span/span/span/span'
p30
F2.4819685073978306
sS'/html/body/div/div/div/div/div/div/div/div/div/div/div/div/ol/li/ol/li/div/div/div/div/ul/li/div/div/div/a/div/span/img'
p31
F9.965784284662087
sS'/html/body/div/div/div/div/div/div/div/div/div/div/div/div/h3/span/span'
p32
F9.965784284662087
sS'/html/body/div/div/div/div/div/div/div/div/div/div/ul/li/ul/li/div/div/div/a/span/span/span/span/span'
p33
F6.50635266602479
sS'/html/body/div/div/div/div/div/div/div/div/ul/li/div/button/span'
p34
F1.6303939299681622
sS'/html/head/meta'
p35
F0.0
sS'/html/body/div/div/div/div/div/div/div/div/div/div/ul/li/ul/li/div/div/span/button/span/span'
p36
F7.158429362604482
sS'/html/body/div/div/div/div/div/div/div/div/div/div/ul/li/div/div/div/div/div/wbr/a'
p37
F7.643856189774724
sS'/html/body/div/div/div/div/div/div/div/ul/li/button'
p38
F7.380821783940932
sS'/html/body/div/div/div/div/div/div/div/div/div/div/ul/li/div/div/div/div/div/div/button/span/span'
p39
F2.293358942690592
sS'/html/body/div/div/div/div/div/div/div/div/div/ul/li/span/div/h3/a/span/span'
p40
F2.3291596641184387
sS'/html/body/div/div/div/div/div/div/div/div/div/div/ul/li/div/div/div/div/div/ul/li/div/div/div/div/wbr'
p41
F8.965784284662087
sS'/html/body/div/div/div/div/div/div/div/div/div/div/div/div/ul/li/a/span/span/span/button/ul/li/span'
p42
F1.7369655941662063
sS'/html/body/div/div/div/div/div/div/div/div/div/div/ul/li/div/div/ul/li/a/img'
p43
F6.965784284662088
sS'/html/body/div/div/div/div/div/div/div/div/div/div/div/div/div/ul/li/div/span'
p44
F1.049904905826314
sS'/html/body/div/div/div/div/div/div/div/div/div/div/div/div/ol/li/ol/li/div/div/div/div/div/div/span/button/span/span'
p45
F9.965784284662087
sS'/html/body/span/meta'
p46
F1.7958592832197748
sS'/html/body/div/div/div/button/span'
p47
F0.0
sS'/html/body/div/div/div/div/div/div/div/div/div/div/ul/li/div/div/div/div/div/ul/li/div/div/h3/span'
p48
F8.380821783940931
sS'/html/body/div/div/div/div/div/div/div/div/div/div/ul/li/div/div'
p49
F2.15200309344505
sS'/html/body/div/div/div/div/div/div/div/div/div/div/ul/li/div/div/div/div/div/div/br'
p50
F5.058893689053569
sS'/html/body/div/div/div/div/div/div/div/div/div/div/div/p/span'
p51
F0.6281623826695796
sS'/html/body/div/div/div/div/div/div/div/div/div/div/ul/li/div/table/tbody/tr/td/span/span/button/span'
p52
F3.9434164716336326
sS'/html/body/div/div/div/div/div/div/div/div/div/div/div/div/span'
p53
F0.0
sS'/html/body/div/div/div/div/div/div/div/div/div/div/span/span/span'
p54
F0.6574452545226798
sS'/html/head/script'
p55
F0.0
sS'/html/body/div/div/div/div/div/form/div/input'
p56
F0.0
sS'/html/body/div/div/div/div/div/div/div/div/div/div/div/div/ol/li/ol/li/div/div/div/div/ul/li/div/div/div/h3/a'
p57
F9.965784284662087
sS'/html/body/div/div/div/div/div/div/div/div/div/div/div/div/a/span/span/span/span'
p58
F8.965784284662087
sS'/html/body/div/div/div/div/div/div/div/div/div/div/div/div/ol/li/ol/li/div/div/div/div/ul/li/div/div/div/span/button/ul/li/span'
p59
F9.965784284662087
sS'/html/body/div/div/div/div/div/div/div/div/div/ol/li/a/div/h4'
p60
F2.766111939825723
sS'/html/body/div/div/div/div/div/div/div/div/div/div/ul/li/div/table/tbody/tr/td/div/a'
p61
F3.9885043611621707
sS'/html/body/div/div/div/div/div/div/div/div/div/div/span/span/div/div/div/div/div/div/div/p/span'
p62
F0.6281623826695796
sS'/html/body/div/div/div/div/div/div/div/div/div/div/ul/li/ul/li/div/div/a/span/span/span/img'
p63
F7.158429362604482
sS'/html/body/div/div/div/div/div/div/div/div/div/div/ul/li/iframe'
p64
F9.965784284662087
sS'/html/body/div/div/div/div/div/div/div/div/div/div/span/span/div/div/div/div/div/div/div'
p65
F0.6281623826695796
sS'/html/body/div/div/div/div/div/button/span/span'
p66
F0.0
sS'/html/body/div/div/div/div/div/div/div/div/div/ol/li/span'
p67
F2.766111939825723
sS'/html/body/div/div/div/div/div/div/div/div/div/div/ul/li/ul/li/div/div/div/div/ul/li'
p68
F5.717856771218502
sS'/html/body/div/div/div/div/div/div/div/div/div/div/div/div/span/button/span/span'
p69
F1.5228407888133588
sS'/html/body/div/div/div/div/div/div/div/div/div/div/div/div/p'
p70
F8.380821783940931
sS'/html/body/div/div/div/div/div/div/div/div/div/div/ul/li/div/div/div/section/div/div/div/button'
p71
F7.643856189774724
sS'/html/body/div/div/div/div/div/div/div/div/div/div/ul/li/div/div/div/div/div/wbr/wbr/wbr/wbr/a'
p72
F7.380821783940932
sS'/html/body/div/div/div/div/div/div/div/div/div/div/div/div/ul/li/a/span'
p73
F1.5145731728297582
sS'/html/body/div/div/div/div/div/div/div/div/div/div/div/div/div/span/br'
p74
F8.380821783940931
sS'/html/body/div/div/div/div/div/div/div/div/div/div/ul/li/div/div/div/div/div/h2/a/span/span/span/span'
p75
F4.321928094887363
sS'/html/body/div/div/div/div/div/div/div/div/div/div/ul/li/div/div/div/div/div/div/div/ul/li/div/div/div/a/span/span/span/button/ul/li/span'
p76
F3.899695094204315
sS'/html/body/div/div/div/div/div/div/div/div/div/div/ul/li/div/div/div/div/div/ul/li/div/div/div/span/a/span/span/span/span'
p77
F3.6259342817774622
sS'/html/body/div/div/div/div/div/div/div/div/div/div/div/div/ol/li/ol/li/div/div/div/div/div/div/span/span'
p78
F9.965784284662087
sS'/html/body/div/div/div/div/div/div/div/div/div/div/div/div/div/p/wbr/wbr/wbr/wbr/wbr/wbr/br'
p79
F8.965784284662087
sS'/html/body/div/div/div/div/div/div/div/div/style'
p80
F1.5228407888133588
sS'/html/body/div/div/div/div/div/div/div/ul/li/div/a/span'
p81
F1.5145731728297582
sS'/html/body/div/div/div/div/div/div/div/div/div/div/img'
p82
F2.7083964419694353
sS'/html/body/div/div/div/div/div/div/div/div/div/div/div/div/ol/li/ol/li/div/div/div/div/ul/li/div/div/div/h3/span'
p83
F9.965784284662087
sS'/html/body/div/div/div/div/div/div/div/div/div/div/ul/li/div/div/div/div/div/ul/li/div/div/div/span'
p84
F9.965784284662087
sS'/html/body/div/div/div/div/div/div/div/div/div/div/ul/li/div/div/div/div/div/h3/span'
p85
F8.380821783940931
sS'/html/body/div/div/div/div/div/div/div/div/div/div/div/div/form/div/span/input'
p86
F9.965784284662087
sS'/html/body/div/div/div/div/div/div/div/div/div/div/ul/li/div/div/div/div/div/div/div/ul/li/span'
p87
F8.380821783940931
sS'/html/body/div/div/div/div/div/div/div/div/div/div/ul/li/div/table/tbody/tr/td/span/a/span/span/span/img'
p88
F3.9434164716336326
sS'/html/body/div/div/div/div/div/div/div/div/div/div/ul/li/div/div/div/ul/li/div/div/h3/a'
p89
F8.965784284662087
sS'/html/body/div/div/div/div/div/div/div/div/div/div/ul/li/button/ul/li/span'
p90
F4.132894270497346
sS'/html/body/div/div/div/div/div/div/div/div/div/div/ul/li/div/table/tbody/tr/td/span/a/span/span/span/span'
p91
F3.9434164716336326
sS'/html/body/div/div/div/div/div/div/div/div/div/div/ul/li/div/div/div/div/div/ul/li/div/div/div/a/span/span/span/span'
p92
F5.210896782498619
sS'/html/body/div/div/div/div/div/div/div/div/div/div/ul/li/div/div/div/div/div/ul/li/div/div/div/ul/li/h4/a'
p93
F5.442222328605075
sS'/html/body/div/div/div/div/div/div/div/div/button/span'
p94
F7.158429362604482
sS'/html/body/div/div/div/div/div/div/div/div/div/div/ul/li/div/div/div/section/div/div/div'
p95
F8.380821783940931
sS'/html/body/div/div/div/div/div/div/div/div/div/ul/li/span/div/h3/a'
p96
F2.4422223286050744
sS'/html/body/div/div/div/div/div/div/div/div/div/div/ul/li/div/div/div/section/div/div/div/div/a/span/span/span/span'
p97
F8.380821783940931
sS'/html/body/div/div/div/div/div/div/div/div/div/div/ul/li/div/div/h2/span'
p98
F7.643856189774724
sS'/html/body/div/div/div/div/div/div/div/div/div/div/ul/li/ul/li/div/div/div/h3/span'
p99
F5.265344566520995
sS'/html/body/div/div/div/div/div/div/div/div/div/div/ul/li/div/div/div/div/div/div/ul/li/span'
p100
F7.965784284662087
sS'/html/body/div/div/div/div/div/div/div/div/div/div/ul/li/div/div/div/ul/li/div/div/div/a'
p101
F8.965784284662087
sS'/html/body/div/div/div/div/div/div/div/div/div/div/ul/li/div/div/div/ul/li/div/div/span/button'
p102
F8.965784284662087
sS'/html/body/div/div/div/div/div/div/div/div/div/div/ul/li/div/div/div/section/div/div/div/div/div/button/span'
p103
F7.643856189774724
sS'/html/body/div/div/div/div/div/div/div/div/div/div/ul/li/div/div/div/section/div/div/div/div/a/span/span/span/img'
p104
F8.380821783940931
sS'/html/body/div/div/div/div/div/div/div/div/div/div/ul/li/a'
p105
F9.965784284662087
sS'/html/body/div/div/div/a/span/span'
p106
F0.0
sS'/html/body/div/div/div/div/div/div/div/div/div/div/ul/li/div/table/tbody/tr/td/span/button/span'
p107
F3.9434164716336326
sS'/html/body/div/div/div/div/div/div/div/div/div/div/ul/li/ul/li/div/div/div/a/span/span/span/span/img'
p108
F6.643856189774725
sS'/html/body/div/div/div/p/span'
p109
F0.0
sS'/html/body/div/div/div/div/div/div/div/div/div/div/ul/li/div/div/div/div/div/wbr/wbr/a'
p110
F7.643856189774724
sS'/html/body/div/div/div/div/div/div/div/div/div/div/div/div/div/ul/li/span/div/h3'
p111
F0.6281623826695796
sS'/html/body/div/div/div/div/div/div/div/div/div/div/ul/li/a/span/span'
p112
F4.539519529959989
sS'/html/body/div/div/div/div/div/div/div/div/div/div/div/div/div/p/wbr/wbr/wbr/wbr/wbr/wbr/wbr/wbr/a'
p113
F9.965784284662087
sS'/html/body/div/div/div/div/div/div/div/div/div/div/ul/li/div/div/div/button/span'
p114
F6.265344566520995
sS'/html/body/div/div/div/div/div/div/div/div/div/div/ul/li/div/div/div/ul/li/div/div/span/button/span'
p115
F8.965784284662087
sS'/html/body/div/div/div/div/div/div/div/div/div/div/div/div/div/p/wbr/wbr/wbr/wbr/wbr/br'
p116
F8.965784284662087
sS'/html/body/div/div/div/div/div/a/span'
p117
F0.0
sS'/html/body/div/div/div/div/div/div/div/div/div/div/div/div/div/p/wbr/wbr/wbr/wbr/wbr/wbr/a'
p118
F9.965784284662087
sS'/html/body/div/div/div/div/div/div/div/div/div/div/ul/li/div/div/div/div/div/div/div/ul/li/div/div/div/div/span'
p119
F3.0232697793228476
sS'/html/body/div/div/div/div/div/div/div/div/div/div/ul/li/div/div/div/div/div/ul/li/div/div/div/h3/span'
p120
F3.3364276645824775
sS'/html/body/div/div/div/div/div/div/img'
p121
F0.6393547975397839
sS'/html/body/div/div/div/div/div/div/div/div/div/div/ul/li/div/div/div/div/div/div/div/ul/li/div/div/h3/a'
p122
F6.965784284662088
sS'/html/body/div/div/div/div/div/div/div/div/div/div/div/strong'
p123
F0.6281623826695796
sS'/html/body/div/div/div/div/div/div/div/div/div/div/div/div/div/span/button/span/span'
p124
F5.380821783940931
sS'/html/body/div/div/div/div/div/div/div/div/div/div/div/div/ol/li/ol/li/div/div/div/div/ul/li/div/div/div/div/ul/li'
p125
F9.965784284662087
sS'/html/body/div/div/div/div/div/div/div/div/div/div/ul/li/div/div/div/div/div/div/div/ul/li/div/div/div/a/span/span/span/span/span/img'
p126
F9.965784284662087
sS'/html/body/div/div/div/div/div/div/div/div/div/div/ul/li/ul/li/div/div/div/div/span'
p127
F8.965784284662087
sS'/html/body/div/span/meta'
p128
F1.8211260418302047
sS'/html/body/div/div/div/div/div/div/div/div/div/div/ul/li/div/div/button/span/span/span/span'
p129
F8.380821783940931
sS'/html/body/div/div/div/div/div/div/div/div/div/div/div/div/div/a/span'
p130
F3.9434164716336326
sS'/html/body/div/div/div/div/div/div/div/div/div/div/ul/li/div/div/div/div/div/a/span/span/span/span'
p131
F8.380821783940931
sS'/html/body/div/div/div/div/div/div/div/div/div/div/ul/li/div/div/div/section/div/div/div/div'
p132
F7.643856189774724
sS'/html/body/span/link'
p133
F1.8211260418302047
sS'/html/body/div/div/div/div/div/div/div/div/div/div/ul/li/div/div/div'
p134
F2.6896598793878495
sS'/html/body/div/div/div/div/div/div/div/div/div/div/span/button/ul/li/span'
p135
F0.0
sS'/html/body/div/div/div/div/div/div/div/div/div/div/ul/li/div/div/div/div/div/ul/li/div/div/div/span/span'
p136
F5.321928094887363
sS'/html/body/div/div/div/div/div/div/div/div/div/div/div/div/ul/li/div/a/span/img'
p137
F0.6281623826695796
sS'/html/body/div/div/div/div/div/div/div/div/span/meta'
p138
F0.6281623826695796
sS'/html/body/div/div/div/div/div/div/div/div/div/div/ul/li/div/div/div/div/div/wbr/wbr/br'
p139
F6.965784284662088
sS'/html/body/div/div/div/div/div/div/div/div/div/div/ul/li/span/div/h3/span'
p140
F9.965784284662087
sS'/html/body/div/div/div/div/div/div/div/div/div/div/ul/li/div/div/div/div/div/a/span/span/span/img'
p141
F8.380821783940931
sS'/html/body/div/div/div/div/div/div/div/div/div/div/ul/li/div/div/div/div/div/ul/li/div/div'
p142
F3.3075728019102923
sS'/html/body/div/div/div/div/div/div/div/div/div/div/ul/li/div/div/div/div/div/div/div/ul/li/div/div/div/span/span/span'
p143
F2.4819685073978306
sS'/html/body/div/div/div/div/div/div/div/div/div/div/span/span/button/span/span'
p144
F0.6281623826695796
sS'/html/body/div/div/div/div/div/div/div/div/div/div/ul/li/div/div/div/div/div/ul/li/div/div/div/h3/a'
p145
F3.3075728019102923
sS'/html/body/div/div/div/div/div/div/div/div/div/div/div/span/span/div/div'
p146
F0.6281623826695796
sS'/html/body/div/div/div/div/div/div/div/div/div/button'
p147
F0.6281623826695796
sS'/html/body/div/div/div/div/div/div/div'
p148
F0.6214883767462703
sS'/html/body/div/div/div/div/div/div/div/div/div/div/div/img'
p149
F5.573466861883327
sS'/html/body/div/div/div/div/div/div/div/div/div/div/ul/li/div/div/div/div/div/ul/li/div/div/div/div/br'
p150
F4.321928094887363
sS'/html/body/div/div/div/div'
p151
F0.0
sS'/html/body/div/div/div/div/div/div/div/div/div/div/div/div/div/p/wbr/wbr/wbr/wbr/a'
p152
F8.380821783940931
sS'/html/body/div/div/div/div/div/div/ul/li/h2'
p153
F1.8313579644411613
sS'/html/body/div/div/div/ul/li/button/span'
p154
F0.0
sS'/html/body/div/div/div/div/div/div/div/div/div/div/ul/li/ul/li/div/div/div/span/button'
p155
F6.058893689053569
sS'/html/body/div/div/div/div/div/div/div/div/div/div/div/div/div/p/a'
p156
F0.982790709967777
sS'/html/body/div/div/div/div/div/div/div/div/div/div/ul/li/ul/li/div/div'
p157
F5.265344566520995
sS'/html/body/div/div/div/div/div/div/div/div/div/div/div/div/div/p/span'
p158
F9.965784284662087
sS'/html/body/div/div/div/div/div/div/div/div/div/div/ul/li/button/span'
p159
F4.132894270497346
sS'/html/body/div/div/div/div/div/div/div/div/div/div/ul/li/div/div/div/div/div/div/div/ul/li/div/div/div/span/span'
p160
F9.965784284662087
sS'/html/body/div/div/div/div/div/div/div/div/div/div/ul/li/div/div/div/section/div/div/div/button/span/span'
p161
F8.380821783940931
sS'/html/body/div/div/div/div/div/div/div/ul/li/p'
p162
F1.5145731728297582
sS'/html/body/div/div/div/div/div/div/div/div/div/div/div/div/div/div/div/div/span/span'
p163
F9.965784284662087
sS'/html/body/div/div/div/div/div/div/div/div/div/div/ul/li/ul/li/div/div/h3/a/span/span'
p164
F7.380821783940932
sS'/html/body/div/div/div/div/div/div/div/ul/li/div/ul/li/a/span/span'
p165
F1.5145731728297582
sS'/html/body/div/div/div/div/div/div/div/div/div/div/ul/li/div/button/span/span'
p166
F7.380821783940932
sS'/html/body/div/div/div/div/div/div/div/div/div/ol/li/a/span/span/span/img'
p167
F2.766111939825723
sS'/html/body/div/div/div/div/div/div/div/div/div/div/div/div/script'
p168
F9.965784284662087
sS'/html/body/div/div/div/div/div/div/div/div/div/div/ul/li/div/div/div/div/div/div/a/span/span/span/button/ul/li/span'
p169
F8.965784284662087
sS'/html/body/div/div/div/div/div/div/div/div/div/div/ul/li/div/div/div/section/div/div/div/span/span'
p170
F9.965784284662087
sS'/html/body/div/div/div/div/div/div/div/div/div/div/div/div/ol/li/ol/li/div/div/div/div/h2/a/div/div/span/img'
p171
F9.965784284662087
sS'/html/body/div/div/div/div/div/div/div/div/div/div/span'
p172
F0.0
sS'/html/body/div/div/div/div/div/div/div/div/div/div/ul/li/div/div/div/div/div/div/div/ul/li/div/div/div/span/span/button/span'
p173
F2.4819685073978306
sS'/html/body/div/div/div/div/div/div/div/button/span/span'
p174
F0.6214883767462703
sS'/html/body/div/div/div/div/div/div/div/div/div/div/ul/li/div/div/div/div/div/ul/li/div/div/div/span/button/span'
p175
F3.6259342817774622
sS'/html/body/div/div/div/div/div/div/div/div/div/div/ul/li/div/div/button/span/span'
p176
F8.380821783940931
sS'/html/body/div/div/div/div/div/div/div/div/div/div/ul/li/div/div/div/div/div/div/span/span/button/ul/li/span'
p177
F5.965784284662088
sS'/html/body/div/div/div/div/div/div/div/div/div/div/ul/li/div/div/div/div/div/ul/li/div/div/div/span/span/button/span'
p178
F3.6259342817774622
sS'/html/body/div/div/div/div/div/div/div/div/div/div/div/div/button/span/span/span/span'
p179
F9.965784284662087
sS'/html/body/div/div/div/div/div/div/div/div/div/div/ul/li/div/div/div/span'
p180
F6.158429362604484
sS'/html/body/div/div/div/div/div/div/div/div/div/div/ul/li/div/div/div/div/div/div/div/span/button/span'
p181
F8.380821783940931
sS'/html/body/div/div/div/div/div/div/div/div/div/div/ul/li/div/div/ul/li/a/span'
p182
F6.965784284662088
sS'/html/body/div/div/div/div/div/div/div/span'
p183
F0.6214883767462703
sS'/html/body/div/div/div/div/div/div/div/div/div/div/ul/li/div/div/div/div/div/div/div/ul/li/div/div/div/a/span/span/button'
p184
F3.899695094204315
sS'/html/body/div/div/div/div/div/div/div/div/div/div/ul/li/div/div/div/div/div/div/div/ul/li/div/div/a/button/span'
p185
F9.965784284662087
sS'/html/body/div/div/div/div/div/div/div/div/div/div/ul/li/div/div/div/div/div/div/div/ul/li/div/div/span/span'
p186
F6.643856189774725
sS'/html/body/div/div/div/div/div/div/div/div/div/div/ul/li/div/div/div/div/div/div/div/ul/li'
p187
F5.965784284662088
sS'/html/body/div/div/div/div/div/div/div/div/div/div/div/div/div/span/span/button/span'
p188
F3.9434164716336326
sS'/html/body/div/div/div/div/div/div/div/div/div/div/div/div/button/span/span'
p189
F9.965784284662087
sS'/html/body/div/div/div/div/div/div/div/div/div/div/ul/li/div/div/div/div/div/div/div/ul/li/div/div/h3/a/span/span'
p190
F6.965784284662088
sS'/html/body/div/div/div/div/div/div/div/div/div/div/pre'
p191
F9.965784284662087
sS'/html/body/div/div/div/div/div/div/div/div/div/div/ul/li/div/div/div/div/div/ul/li/div/div/div/div'
p192
F4.442222328605075
sS'/html/body/div/div/div/div/div/div/div/div/div/div/ul/li/div/div/div/div/div/div/span/a/span/span/span/img'
p193
F5.965784284662088
sS'/html/body/div/div/div/div/div/div/div/div/div/div/ul/li/div/div/div/div/div/ul/li/div/div/h3/a'
p194
F8.380821783940931
sS'/html/body/div/div/div/div/div/div/div/div/div/div/div/div/ol/li/ol/li/div/div/div/div/ul/li/div/div/div/a/span'
p195
F9.965784284662087
sS'/html/body/div/div/div/div/div/div/div/div/div/div/a/span/span/span/img'
p196
F0.6281623826695796
sS'/html/body/div/div/div/div/div/div/div/div/div/div/div/h1/span/span'
p197
F8.965784284662087
sS'/html/body/div/div/div/div/div/div/div/div/div/div/ul/li/div/div/div/div/div/div/div/ul/li/div/div/a/button'
p198
F9.965784284662087
sS'/html/head/link'
p199
F0.0
sS'/html/body/div/div/div/div/div/div/div/div/div/div/ul/li/ul/li/div/div/h3/span'
p200
F7.158429362604482
sS'/html/body/div/div/div/div/div/div/div/div/div/div/ul/li/div/div/div/div/div/div/a/span/span/span/span/img'
p201
F8.965784284662087
sS'/html/body/div/div/div/div/div/div/div/div/div/div/div/div/ol/li/ol/li/div/div/div/div/ul/li/div/div/div/span/button/span'
p202
F9.965784284662087
sS'/html/body/div/div/div/div/div/div/div/div/div/div/div/span'
p203
F0.0
sS'/html/body/div/div/div/div/div/div/div/div/div/div/div/div/div/div/div/div/span/button/span/span'
p204
F9.965784284662087
sS'/html/body/div/div/div/div/div/div/div/div/div/div/div/h1/span/a/span'
p205
F2.343732465205711
sS'/html/body/div/div/div/div/div/div/div/ul/li/hr'
p206
F1.5145731728297582
sS'/html/body/div/div/div/div/div/div/div/div/div/div/ul/li/div/div/div/div/div/div'
p207
F3.6989977439671855
sS'/html/body/div/div/div/div/div/div/div/div/div/p/a'
p208
F4.717856771218502
sS'/html/body/div/div/div/div/div/div/div/div/div/div/ul/li/div/div/div/div/div/div/div/ul/li/div/div/a/span/span/span/span'
p209
F6.643856189774725
sS'/html/body/div/div/div/div/div/div/div/div/div/div/div/div/ol/li/ol/li/div/div/div/div/ul/li/div/div/div/button/span'
p210
F9.965784284662087
sS'/html/body/div/div/div/div/div/div/div/div/div/div/ul/li/div/div/div/div/div/h2/a/span'
p211
F2.293358942690592
sS'/html/body/div/div/div/div/div/div/div/div/div/div/ul/li/div/div/div/div/div/ul/li/div/div/a/span/span/span/span'
p212
F8.380821783940931
sS'/html/body/div/div/div/div/div/div/div/div/div/div/ul/li/div/div/div/div/div/div/div/ul/li/div/div/div/div/ul'
p213
F3.899695094204315
sS'/html/body/div/div/div/div/div/div/div/div/div/div/ul/li/div/div/div/div/div/div/ul/li/h4/a'
p214
F8.965784284662087
sS'/html/body/div/div/div/div/div/div/div/div/div/div/div/div/ul/li/a/span/span/span/span/span/b'
p215
F1.5145731728297582
sS'/html/body/div/div/div/div/div/div/div/div/div/div/div/div/div/div/span/span/span'
p216
F5.643856189774724
sS'/html/body/div/div/div/div/div/div/div/div/div/div/button/span'
p217
F9.965784284662087
sS'/html/body/div/div/div/div/div/div/div/div/div/div/ul/li/div/div/div/div/div/div/div/ul/li/div/div/span/button/span/span'
p218
F6.795859283219775
sS'/html/body/div/div/div/div/div/div/div/div/div/div/ul/li/div/div/div/ul/li/div/div/span/span/button/ul/li/span'
p219
F8.965784284662087
sS'/html/body/div/div/div/div/div/div/div/div/div/div/div/span/span/button/span'
p220
F0.6506347224057867
sS'/html/body/div/div/div/div/div/div/div/div/div/div/ul/li/div/div/div/section/div/div/div/div/button/span'
p221
F8.380821783940931
sS'/html/body/div/div/div/div/div/div/div/div/div/div/div/div/div/div/div'
p222
F9.965784284662087
sS'/html/body/div/div/div/div/div/div/div/div/div/div/div/div/ul/button/span'
p223
F0.6461121637150925
sS'/html/body/div/div/div/div/div/div/div/div/div/div/ul/li/ul/li/div/div/div/span/button/span'
p224
F6.058893689053569
sS'/html/body/div/div/div/div/div/div/div/div/div/div/div/h1/span/span/span'
p225
F5.573466861883327
sS'/html/body/div/div/div/div/div/div/div/div/div/div/ul/li/ul/li/div/div/div/div/a'
p226
F8.380821783940931
sS'/html/body/div/div/div/div/div/div/div/div/div/div/ul/li/div/table/tbody/tr/td'
p227
F3.9434164716336326
sS'/html/body/div/div/div/div/div/div/div/div/div/div/ul/li/ul/li/div/div/div/span/a/span/span/span/span'
p228
F6.058893689053569
sS'/html/body/div/div/div/div/div/div/div/div'
p229
F0.6214883767462703
sS'/html/body/div/div/div/div/div/div/div/div/div/div/div/div/ol/li/ol/li/div/div/div/div/ul/li/div/div/div/div/a'
p230
F9.965784284662087
sS'/html/body/div/div/div/div/div/div/div/div/div/h3'
p231
F6.265344566520995
sS'/html/body/div/div/div/div/div/div/div/div/div/h2'
p232
F2.1778817252706553
sS'/html/body/div/div/div/div/div/div/div/div/div/div/ul/li/div/div/div/div/div/div/div/ul/li/div/div/div/span/a/span/span/span/img'
p233
F2.4819685073978306
sS'/html/body/div/div/div/div/div/div/div/div/div/ul/li/span/div/div/span/span'
p234
F2.1713684183119812
sS'/html/body/div/span/link'
p235
F1.8211260418302047
sS'/html/body/div/meta'
p236
F1.8211260418302047
sS'/html/body/div/div/div/div/div/div/div/div/div/div/ul/li/ul/li/div/div/div/a/span/span/span/span'
p237
F6.50635266602479
sS'/html/body/div/div/div/div/div/div/div/div/div/div/div/div'
p238
F0.23276896297612434
sS'/html/body/style'
p239
F1.7958592832197748
sS'/html/body/div/div/div/div/div/div/div/div/ul/li/a/span'
p240
F1.539519529959989
sS'/html/body/div/div/div/div/div/div/div/div/div/div/div/div/ul/li/div/a/span/span'
p241
F0.6281623826695796
sS'/html/body/div/div/div/div/div/div/div/div/div/ul/li/span/div/a/span/span/span/span'
p242
F2.1713684183119812
sS'/html/body/div/div/div/div/div/div/div/div/div/div/ul/li/div/div/div/div/div/wbr/wbr/wbr/wbr/wbr/wbr/br'
p243
F8.965784284662087
sS'/html/body/div/div/div/div/div/div/div/div/div/ol/li/a/div/span'
p244
F7.643856189774724
sS'/html/body/div/div/div/div/div/div/div/ul/li/div/ul/li/a/span/span/span/span/span/img'
p245
F1.5145731728297582
sS'/html/body/div/div/div/div/div/div/div/div/div/div/ul/li/div/div/div/div/div/div/ul'
p246
F9.965784284662087
sS'/html/body/div/div/div/div/div/div/div/div/div/div/ul/li/div/div/div/span/b'
p247
F6.965784284662088
sS'/html/body/div/div/div/div/div/div/div/div/div/div/ul/li/div/div/div/div/div/div/span/span'
p248
F8.380821783940931
sS'/html/body/div/div/div/div/div/div/div/div/div/div/ul/li/ul/li/div/div/div/a/span/span/span/span/span/b'
p249
F6.50635266602479
sS'/html/body/div/div/div/div/div/div/div/div/div/div/ul/li/div/div/div/div/div/div/span/a/span/span/span/span'
p250
F5.965784284662088
sS'/html/body/div/div/div/div/div/div/div/div/div/div/ul/li/div/div/div/div/div/ul/li/div/div/div/div/ul'
p251
F5.058893689053569
sS'/html/body/div/div/div/div/div/div/div/div/div/div/div/div/ul/li/div/a/span'
p252
F0.6281623826695796
sS'/html/body/div/div/div/div/div/div/div/div/div/div/ul/li/div/div/div/div/div/ul/li/div/div/div/ul/li'
p253
F8.380821783940931
sS'/html/body/div/span/span/meta'
p254
F8.965784284662087
sS'/html/body/div/div/div/div/div/div/div/div/div/div/ul/li/div/div/div/div/div/ul/li/div/div/div/br'
p255
F9.965784284662087
sS'/html/body/div/div/div/div/div/div/div/div/div/ol/li/a/span/span/span/span'
p256
F2.766111939825723
sS'/html/body/div/div/div/div/div/div/div/div/div/div/div/div/div/span/input'
p257
F1.049904905826314
sS'/html/body/div/div/div/div/div/form/button/span'
p258
F0.0
sS'/html/body/div/div/div/button'
p259
F0.0
sS'/html/body/div/div/div/div/div/div/div/div/div/div/ul/li/ul/li/div/div/div/a/span/span/span/button/ul/li/span'
p260
F6.50635266602479
sS'/html/body/div/div/div/div/div/div/div/div/div/div/ul/li/div/div/div/div/div/ul/li/div/div/div/span/span/button/ul/li/span'
p261
F3.6259342817774622
sS'/html/body/div/div/div/div/div/div/div/div/div/div/ul/li/div/div/div/div/div/div/wbr/wbr/wbr/wbr/wbr'
p262
F9.965784284662087
sS'/html/body/div/div/div/h3'
p263
F0.0
sS'/html/body/div/div/div/div/div/div/div/div/div/div/ul/script'
p264
F1.8211260418302047
sS'/html/body/div/div/div/div/div/div/div/div/div/div/ul/li/div/div/div/div/div/div/div/ul/li/div/div/div/a/span/span/span/span/span/b'
p265
F3.899695094204315
sS'/html/body/div/div/div/div/div/div/div/div/div/div/ul/li/div/div/div/div/div/div/div/a'
p266
F5.965784284662088
sS'/html/body/div/div/div/div/div/div/div/div/div/div/ul/li/ul/li/div/div/div/a/span/span/span/span/span/img'
p267
F9.965784284662087
sS'/html/body/div/div/div/div/div/div/div/div/div/div/ul/li/div/div/div/ul/li/div/div/div/ul/li'
p268
F9.965784284662087
sS'/html/body/div/div/div/div/div/div/div/div/div/div/ul/li/div/div/div/div/div/div/div/span'
p269
F7.643856189774724
sS'/html/body/div/div/div/ul/li'
p270
F0.001443416869668845
sS'/html/body/div/div/div/div/div/div/div/div/div/div/ul/li/ul/li/div/div/div/span/span/span'
p271
F6.058893689053569
sS'/html/body/div/div/div/div/div/div/div/div/div/div/ul/li/div/div/div/div/div/div/div/ul/li/div/div/div/span/span/button/ul/li/span'
p272
F2.4819685073978306
sS'/html/body/div/div/div/div/div/div/div/div/div/div/ul/li/ul/li/div/div/a/span/span/span/span'
p273
F7.158429362604482
sS'/html/body/div/div/div/div/div/div/div/div/div/div/div/div/div/div/div/div/span/button/span'
p274
F9.965784284662087
sS'/html/body/div/div/a'
p275
F0.0
sS'/html/body/div/div/div/div/div/div/div/div/div/div/div/div/ul/li/a/span/span/span/span/img'
p276
F1.5145731728297582
sS'/html/body/div/div/div/div/div/div/div/div/div/ol/li/a/div/span/span'
p277
F2.766111939825723
sS'/html/body/div/div/div/div/div/div/div/div/div/div/ul/li/div/div/div/div/div/ul/li/div/div/a/span/span/span/img'
p278
F8.380821783940931
sS'/html/body/div/div/div/div/div/div/div/div/div/div/h4/strong'
p279
F5.573466861883327
sS'/html/body/div/div/div/ul/li/span'
p280
F9.965784284662087
sS'/html/body/div/div/div/div/div/div/div/div/div/div/div/div/ol/li/ol/li/div/div/div/button/span/span'
p281
F9.965784284662087
sS'/html/body/div/div/div/div/div/div/div/div/div/div/ul/li/ul/li/div/div/div/div/ul'
p282
F6.643856189774725
sS'/html/body/div/div/div/div/div/div/div/div/div/div/ul/li/div/div/div/section/div/div/div/button/span'
p283
F7.643856189774724
sS'/html/body/div/div/div/div/div/div/div/div/div/div/ul/li/div'
p284
F5.965784284662088
sS'/html/body/div/div/div/div/div/div/div/div/div/div/div/div/div/p/wbr/wbr/wbr/wbr/wbr/wbr'
p285
F9.965784284662087
sS'/html/body/div/div/div/div/div/div/div/div/div/div/ul/li/div/div/div/div/div/div/div/ul/li/div/div/a/span/button/ul/li/span'
p286
F9.965784284662087
sS'/html/body/div/div/div/div/div/div/div/div/div/div/div/div/div/div/div/div/div/p/span'
p287
F9.965784284662087
sS'/html/body/div/div/div/div/div/div/div/div/div/div/ul/li/div/div/div/div/button/span'
p288
F7.643856189774724
sS'/html/body/div/div/div/ul/li/a'
p289
F0.0
sS'/html/body/div/div/div/button/span/span'
p290
F0.0
sS'/html/body/div/div/div/div/div/div/div/div/div/div/ul/li/div/div/div/div/div/div/h3/a'
p291
F5.965784284662088
sS'/html/body/div/div/div/div/div/div/div/div/div/div/ul/li/div/div/div/div/div/ul/li/div/div/div/a/span/span/span/span/span/b'
p292
F5.210896782498619
sS'/html/body/div/div/div/div/div/div/div/div/div/div/ul/li/div/div/div/div/div/ul/li/div/div/div/span/a/span/span/span/img'
p293
F3.6259342817774622
sS'/html/body/div/div/div/div/div/div/div/div/div/div/div/div/h3/a/span'
p294
F9.965784284662087
sS'/html/body/div/div/div/div/div/div/div/div/div/div/ul/li/ul/li/div/div/div/span/span/button/ul/li/span'
p295
F6.058893689053569
sS'/html/body/div/div/div/div/div/div/div/div/link'
p296
F0.6281623826695796
sS'/html/body/div/div/div/div/div/div/div/div/div/div/ul/li/div/div/div/div/div/div/a/span/span/span/span'
p297
F8.965784284662087
sS'/html/body/div/div/div/div/div/div/p/span'
p298
F0.0
sS'/html/body/div/div/div/div/div/div/div/div/div/div/div/h3'
p299
F6.380821783940931
sS'/html/body/div/div/div/div/div/div/div/div/div/div/h2'
p300
F9.965784284662087
sS'/html/body/div/div/div/div/div/div/div/div/div/div/ul/li/span/div/h3/a'
p301
F9.965784284662087
sS'/html/body/div/div/div/div/div/div/div/div/div/div/ul/li/span/div/a/span/span/span/span'
p302
F9.965784284662087
sS'/html/body/div/div/div/div/div/span/a/span'
p303
F0.6214883767462703
sS'/html/body/div/div/div/div/div/div/div/div/meta'
p304
F0.6281623826695796
sS'/html/body/div/div/div/ul/li/button/span/span'
p305
F0.0
sS'/html/body/div/div/div/div/div/div/div/div/div/div/div/div/ul/li'
p306
F3.9434164716336326
sS'/html/body/div/div/div/div/div/div/div/div/div/div/div/div/div/p/wbr/wbr/br'
p307
F6.965784284662088
sS'/html/body/div/div/div/div/div/div/div/div/div/div/ul/li/div/div/div/div/div/ul/li/div/div/div/a/span/span/button'
p308
F5.210896782498619
sS'/html/body/div/div/div/div/div/div/div/div/div/div/ul/li/div/div/div/div/div/div/span/button'
p309
F5.965784284662088
sS'/html/body/div/div/div/div/div/div/div/div/div/div/ul/li/div/div/div/div/span'
p310
F2.6896598793878495
sS'/html/body/div/div/div/div/div/div/div/div/div/div/div/div/ul/li/button'
p311
F9.965784284662087
sS'/html/body/div/div/div/div/div/div/div/div/div/div/ul/li/div/div/div/div/div/div/span/button/span/span'
p312
F8.380821783940931
sS'/html/body/div/div/div/div/div/div/div/div/div/div/span/span/div/div/div/div/div'
p313
F0.6281623826695796
sS'/html/body/div/div/div/div/div/div/div/div/div/div/ul/li/ul/li/div/div/div/a/span/span/button'
p314
F6.50635266602479
sS'/html/body/div/div/div/div/div/div/div/div/div/div/div/span/div/h3'
p315
F0.6259342817774622
sS'/html/body/div/div/div/div/div/div/div/div/div/div/div/ul/li/span'
p316
F2.84684321193858
sS'/html/body/div/div/div/div/div/div/div/div/div/div/ul/li/div/div/div/div/div/div/span/span/button/span'
p317
F5.965784284662088
sS'/html/body/div/div/div/div/div/div/div/div/div/div/ul/li/div/div/div/div/div/div/div/ul/li/div/div/a/span/button/span'
p318
F9.965784284662087
sS'/html/body/div/div/div/div/div/div/div/div/div/div/ul/li/div/div/div/div/div/ul/li/div/div/div/div/a'
p319
F3.7563309190331378
sS'/html/body/script'
p320
F0.0
sS'/html/body/div/div/div/div/div/div/div/div/div/div/ul/li/div/div/div/div/div/div/span/button/span'
p321
F5.965784284662088
sS'/html/body/div/div/div/div/div/div/div/div/div/div/ul/li/div/div/div/span/b/a'
p322
F5.965784284662088
sS'/html/body/div/form/input'
p323
F0.0
sS'/html/body/div/div/div/div/div/div/div/div/div/div/div/hr'
p324
F0.9799423476587465
sS'/html/body/div/div/div/div/div/div/div/div/div/div/ul/li/div/div/a/span/span/span/span/img'
p325
F5.965784284662088
sS'/html/body/div/div/div/div/div/div/div/div/div/div/div/div/div/ul/li/span/div/div'
p326
F0.6281623826695796
sS'/html/body/div/div/div/div/div/div/div/div/div/div/div/div/ul/li/a/span/span'
p327
F2.5734668618833267
sS'/html/body/div/div/div/div/div/div/div/div/div/div/ul/li/div/div/div/div/div/div/div/ul/li/div/div/div/span'
p328
F8.965784284662087
sS'/html/body/div/div/div/div/div/div/div/img'
p329
F0.8651219456568883
sS'/html/body/div/div/div/div/div/div/div/div/div/div/div/div/ol/li/ol/li/div/div/div/div/div'
p330
F9.965784284662087
sS'/html/body/div/div/div/div/div/div/div/button/span'
p331
F0.6214883767462703
sS'/html/body/div/div/div/div/div/div/div/div/div/div/ul/li/div/div/div/div/div/div/div/ul/li/div/div'
p332
F2.293358942690592
sS'/html/body/div/div/div/div/div/div/div/div/div/div/ul/li/div/div/div/section/div/div/a/span/span/span/span'
p333
F8.380821783940931
sS'/html/body/div/div/div/div/div/div/div/div/div/div/ul/li/div/div/div/div/div'
p334
F2.0709665213541437
sS'/html/body/div/div/div/div/div/div/div/div/div/script'
p335
F2.766111939825723
sS'/html/body/div/div/div/div/div/div/div/div/div/div/div/div/h4'
p336
F1.049904905826314
sS'/html/body/div/div/div/div/div/div/div/div/div/div/div/div/h3'
p337
F9.965784284662087
sS'/html/body/div/div/div/div/div/div/div/div/div/div/div/div/h1'
p338
F3.9434164716336326
sS'/html/body/div/div/div/div/div/div/div/div/div/div/ul/li/div/div/div/div'
p339
F2.6170561304310094
sS'/html/body/div/div/div/div/div/div/div/div/div/div/ul/li/div/div/div/div/div/ul/li/div/div/div/span/span/span'
p340
F3.6620035364849843
sS'/html/body/div/div/div/div/div/div/div/div/div/div/ul/li/ul/li/div/div/div/a/span/span/span/span/span/span'
p341
F9.965784284662087
sS'/html/body/div/div/div/div/div/div/div/div/div/div/ul/li/div/div/div/div/div/div/h3/span'
p342
F5.965784284662088
sS'/html/body/div/div/div/div/div/div/div/div/div/a/img'
p343
F1.5228407888133588
sS'/html/body/div/div/div/div/div/div/div/div/div/div/div/h2'
p344
F2.272297327162762
sS'/html/body/div/div/div/div/div/div/div/div/div/div/div/div/ol/li/ol/li/div/div/div/div/h2/span/b/a'
p345
F9.965784284662087
sS'/html/body/div/div/div/div/div/div/div/div/div/div/ul/li/div/div/div/div/div/div/a/span/span/span/button/span'
p346
F8.965784284662087
sS'/html/body/div/div/div/div/div/div/div/div/div/div/ul/li/div/div/div/section/div/a/span/span/span/img'
p347
F7.643856189774724
sS'/html/body/div/div/div/div/div/div/div/div/div/div/div/div/a'
p348
F3.9434164716336326
sS'/html/body/div/div/div/div/div/div/div/div/div/div/ul/li/div/div/div/ul/li/div/div/div/ul/li/span'
p349
F8.965784284662087
sS'/html/body/div/div/div/div/div/div/div/div/div/div/ul/li/div/div/div/span/span'
p350
F5.965784284662088
sS'/html/body/div/div/div/div/div/div/div/div/div/div/div/div/ul/li/a/span/span/span/span'
p351
F1.5145731728297582
sS'/html/body/div/div/div/div/div/div/div/div/div/div/ul/li/div/div/div/section/div/div/div/span'
p352
F7.643856189774724
sS'/html/body/div/div/div/div/div/div/div/div/div/div/ul/li/div/button/span/span/span/span'
p353
F7.380821783940932
sS'/html/body/div/div/div/div/div/div/div/div/div/div/div/span/span/div/a/span'
p354
F0.6281623826695796
sS'/html/body/div/div/div/div/p/span'
p355
F0.0
sS'/html/body/div/div/div/div/div/div/div/div/div/div/ul/li/div/div/div/div/div/div/div/ul/li/div/div/a/span'
p356
F9.965784284662087
sS'/html/body/div/div/div/div/div/div/div/div/div/div/div/div/div/strong'
p357
F0.6281623826695796
sS'/html/body/div/div/div/div/div/div/div/div/div/div/ul/li/div/div/div/section/div/div/div/button/span/span/span/span'
p358
F8.380821783940931
sS'/html/body/div/div/div/div/div/div/div/div/div/div/div/div/div/ul/li/ul/li'
p359
F0.6326289343514707
sS'/html/body/div/div/div/div/div/div/div/div/div/div/span/span/div/div/div/div/div/div/div/div'
p360
F0.6281623826695796
sS'/html/body/div/div/div/div/div/div/div/div/div/div/ul/li/div/div/div/div/div/ul/li/a/h4/span'
p361
F3.7563309190331378
sS'/html/body/div/div/div/div/div/div/div/div/div/div/ul/li/div/div/div/section/div/div/div/div/div/a'
p362
F9.965784284662087
sS'/html/body/div/div/div/div/div/div/div/div/div/div/div/div/div/span/div/h3'
p363
F3.9434164716336326
sS'/html/body/div/div/div/div/div/div/div/div/div/div/div/div/span/div/div/div/span'
p364
F1.6126374591640045
sS'/html/body/div/div/div/div/div/div/div/div/span'
p365
F9.965784284662087
sS'/html/body/div/div/div/div/div/div/div/div/div/div/ul/li/div/div/div/ul/li/div/div/div/span/button/span'
p366
F9.965784284662087
sS'/html/body/div/div/div/div/div/div/div/div/div/div/ul/li/div/div/div/section/div/div/div/div/div/div/span/a'
p367
F8.380821783940931
sS'/html/body/div/div/div/div/div/div/div/div/div/div/div/div/span/div/div/div/div/div/div/div'
p368
F1.6126374591640045
sS'/html/body/div/div/div/div/div/div/div/div/div/div/ul/li/button/span/span/span/span'
p369
F5.965784284662088
sS'/html/body/div/div/div/div/div/div/div/div/div/div/div/div/ul/li/div/span'
p370
F0.6281623826695796
sS'/html/body/div/div/div/div/div/div/div/div/div/ul/li/span/div/h3/span'
p371
F2.1713684183119812
sS'/html/body/div/div/div/div/div/div/div/div/div/div/div/div/div/ul/li/span/a/img'
p372
F6.058893689053569
sS'/html/body/div/div/div/div/div/div/div/div/div/div/div/div/div/p/wbr/wbr/wbr/wbr/wbr/a'
p373
F8.965784284662087
sS'/html/body/div/div/div/div/div/div/div/div/div/div/div/div/span/div/div/div/div/div/div/div/p/span'
p374
F1.6126374591640045
sS'/html/body/div/div/div/div/div/div/div/div/div/div/ul/li/div/div/span'
p375
F6.265344566520995
sS'/html/body/div/div/div/div/div/div/div/div/div/div/div/div/div/div/div/div'
p376
F9.965784284662087
sS'/html/body/div/div/div/div/div/div/div/div/div/div/ul/li/div/div/div/div/div/wbr/wbr/wbr/wbr/wbr/br'
p377
F8.965784284662087
sS'/html/body/div/div/div/div/div/div/div/div/div/div/ul/li/ul/li/div/div/div/div/ul/li/span'
p378
F7.158429362604482
sS'/html/body/div/div/div/div/div/div/div/div/div/div/div/div/div/div/div/div/span/span/button/span'
p379
F9.965784284662087
sS'/html/body/div/div/div/div/div/div/div/div/div/div/ul/li/div/div/div/div/div/div/div/ul/li/div/div/div/div/ul/li/span'
p380
F3.680382065799839
sS'/html/body/div/div/div/div/div/div/div/div/div/div/ul/li/ul/li/div/div/div/span/a/span/span/span/img'
p381
F6.058893689053569
sS'/html/body/div/div/div/div/div/div/div/div/div/div/div/div/p/strong'
p382
F5.380821783940931
sS'/html/body/div/div/div/div/div/div/div/div/div/div/ul/li/div/div/div/div/div/div/div/ul/li/div/div/div/a/span/span/span/span/span/span'
p383
F9.965784284662087
sS'/html/body/div/div/div/div/div/div/div/div/div/div/ul/li/div/div/div/div/div/ul/li/div/div/div/div/span'
p384
F4.878321443411748
sS'/html/body/div/div/div/div/div/div/div/div/div/div/ul/li/div/div/div/div/div/ul/li/div/div/div/div/ul/li'
p385
F3.857259827883918
sS'/html/body/div/div/div/div/div/div/div/div/div/div/div/div/div/span/div/div/p/span'
p386
F3.9434164716336326
sS'/html/body/div/div/div/div/div/div/div/div/div/div/div/div/div/p'
p387
F3.3075728019102923
sS'/html/body/div/div/div/div/div/div/div/div/div/div/div/div/button/span'
p388
F0.6259342817774622
sS'/html/body/span/span/meta'
p389
F7.158429362604482
sS'/html/body/div/div/div/div/div/div/div/div/div/div/ul/li/ul/li/div/div/span/span'
p390
F7.158429362604482
sS'/html/body/div/div/div/div/div/div/div/div/div/div/div/div/div/a'
p391
F8.380821783940931
sS'/html/body/div/div/div/div/div/div/div/div/div/div/ul/li/div/div/div/div/div/h3/a'
p392
F8.380821783940931
sS'/html/body/div/div/div/div/div'
p393
F0.0
sS'/html/body/div/div/div/div/div/div/div/div/div/div/ul/li/div/div/div/div/div/ul/li/div/div/div/div/ul/li/span'
p394
F4.836501267717121
sS'/html/body/div/div/div/div/div/div/div/div/div/div/div/ul/li/a'
p395
F2.84684321193858
sS'/html/body/div/div/div/div/div/div/div/div/div/div/ul/li/div/div/div/ul/li/div'
p396
F8.965784284662087
sS'/html/body/div/div/div/div/div/div/div/div/div/div/div/div/p/span'
p397
F0.6281623826695796
sS'/html/body/div/div/div/div/div/div/div/div/div/div/ul/li/a/img'
p398
F1.7563309190331373
sS'/html/body/div/div/div/div/div/div/div/div/div/div/ul/li/div/div/div/section/div/div/div/div/div/div/button/span'
p399
F8.380821783940931
sS'/html/body/div/div/div/div/div/div/div/div/div/div/div/div/div/div'
p400
F0.6483716708972177
sS'/html/body/div/div/div/div/div/div/div/div/div/div/div/div/div/p/br'
p401
F0.8970060066766744
sS'/html/body/div/div/div/div/div/div/div/div/div/div/ul/li/div/div/div/section/div/div/div/a'
p402
F7.643856189774724
sS'/html/body/div/div/div/div/div/div/div/div/div/div/div/div/div/p/wbr/wbr/wbr/wbr/wbr/wbr/wbr/wbr/wbr/wbr/a'
p403
F8.965784284662087
sS'/html/body/div/div/div/div/div/div/div/div/div/div/div/div/span/span/span/span'
p404
F5.50635266602479
sS'/html/body/div/div/div/div/div/div/div/div/div/div/ul/li/span/div/a/span/span/span/img'
p405
F9.965784284662087
sS'/html/body/div/div/div/div/div/div/div/div/div/div/ul/li/div/div/div/div/div/ul/li/div/div/div/a/span/span/span/button/span'
p406
F5.210896782498619
sS'/html/body/div/div/div/div/div/div/div/div/div/div/div/span/span/button'
p407
F2.795859283219775
sS'/html/body/div/div/div/div/div/div/div/div/div/div/a/span/span/span/span'
p408
F0.6281623826695796
sS'/html/body/div/div/div/div/div/div/div/div/div/div/ul/li/div/div/div/div/div/wbr/wbr/wbr/wbr/wbr/wbr/wbr/wbr/br'
p409
F9.965784284662087
sS'/html/body/div/div/div/div/div/div/div/div/div/div/ul/li/div/div/div/div/div/div/span/span/span'
p410
F5.965784284662088
sS'/html/body/div/div/div/div/div/div/div/div/div/div/ul/li/div/div/div/div/div/div/div/ul/li/div/div/div/div/ul/li'
p411
F2.4500844463780447
sS'/html/body/div/div/div/div/div/div/ul/li/a/span'
p412
F1.5311560570253624
sS'/html/body/div/div/div/div/div/div/div/div/div/div/div/div/div/div/span'
p413
F5.643856189774724
sS'/html/body/div/div/div/div/div/div/div/div/div/div/div/span/div/a/span'
p414
F0.6259342817774622
sS'/html/body/div/div/div/div/div/div/div/div/div/div/ul/li/span/div/div/span/button/span/span'
p415
F9.965784284662087
sS'/html/body/div/div/span'
p416
F0.0
sS'/html/body/div/div/div/div/div/div/div/div/div/div/ul/li/ul/li/div/div/div/a/span/span/span/button/span'
p417
F6.50635266602479
sS'/html/body/div/div/div/div/div/div/div/div/div/div/div/div/div/span/div/div'
p418
F3.9434164716336326
sS'/html/body/div/div/div/div/div/div/div/div/div/ul/li/span/div/div/span/button/span/span'
p419
F2.1713684183119812
sS'/html/body/div/div/div/div/div/div/div/div/div/div/div/div/ol/li/ol/li/div/div/div/div/ul/li/div/div/div/div/span'
p420
F9.965784284662087
sS'/html/body/div/div/div/div/div/div/div/div/div/div/ul/li/div/div/div/ul/li/div/div/div/span'
p421
F9.965784284662087
sS'/html/body/div/div/div/div/div/a/img'
p422
F9.965784284662087
sS'/html/body/div/div/div/div/div/div/div/div/div/div/ul/li/div/table/tbody/tr/td/span/span/button/ul/li/span'
p423
F3.9434164716336326
sS'/html/body/div/div/div/div/div/div/div/div/div/div/ul/li/div/div/div/section/div/div/div/div/span/a'
p424
F8.380821783940931
sS'/html/body/div/div/div/div/div/div/div/div/div/div/div/ul/li'
p425
F6.965784284662088
sS'/html/body/div/div/div/div/div/div/div/div/div/div/span/button/span'
p426
F0.0
sS'/html/body/div/div/div/div/div/div/div/div/ul/li/h2'
p427
F1.8416629728328995
sS'/html/body/div/div/div/div/div/div/div/div/div/div/ul/li/div/div/div/section/div/div/div/div/div/div/a'
p428
F8.380821783940931
sS'/html/body/div/div/div/div/div/div/div/div/div/div/ul/li/div/div/div/div/div/wbr/wbr/wbr/wbr/wbr/a'
p429
F8.965784284662087
sS'/html/body/div/div/div/div/div/div/div/div/div/div/div/div/div/div/span/a'
p430
F5.643856189774724
sS'/html/body/div/div/div/div/div/div/div/div/div/div/ul/li/div/div/div/div/div/ul/li/div/div/div/a/span/span/span/span/img'
p431
F5.210896782498619
sS'/html/head/style'
p432
F0.0
sS'/html/body/div/div/div/div/div/div/div/ul/li/div/h3'
p433
F1.5145731728297582
sS'/html/body/div/div/div/div/div/div/div/div/div/div/div/a'
p434
F0.6281623826695796
sS'/html/body/div/div/div/div/div/div/div/div/div/div/div/div/div/p/wbr/wbr/a'
p435
F7.158429362604482
sS'/html/body/div/div/div/div/div/div/div/div/div/div/ul/li/div/div/div/section/div/div/div/div/div/div/div'
p436
F8.380821783940931
sS'/html/body/div/div/div/div/div/div/div/div/div/div/ul/li/div/div/div/div/div/h2/a/span/span'
p437
F2.2042330522176075
sS'/html/body/div/div/div/div/div/div/div/div/div/div/ul/li/div/div/div/div/div/div/div/ul/li/div/div/div/ul'
p438
F9.965784284662087
sS'/html/body/div/div/div/div/div/div/div/div/div/div/button/span/span'
p439
F7.158429362604482
sS'/html/body/div/div/div/div/div/div/div/div/div/div/div/div/ul/li/a/span/span/span/button/span'
p440
F1.7369655941662063
sS'/html/body/div/div/div/div/div/div/div/div/div/div/ul/li/div/div/div/span/a'
p441
F7.965784284662087
sS'/html/body/div/div/div/div/div/div/div/div/div/div/div/div/img'
p442
F3.9434164716336326
sS'/html/body/div/div/div/div/div/div/div/div/div/div/ul/li/div/div/div/a/span/span/span/span'
p443
F7.643856189774724
sS'/html/body/div/div/div/div/div/div/div/div/div/div/ul/li/div/div/div/br'
p444
F6.965784284662088
sS'/html/body/div/div/div/div/div/div/div/div/div/div/ul/li/div/div/div/ul/li/div/div/div/br'
p445
F8.965784284662087
sS'/html/body/div/div/div'
p446
F0.0
sS'/html/body/div/div/div/div/div/div/div/div/div/div/div/h1/span'
p447
F0.6281623826695796
sS'/html/body/div/div/div/div/div/div/div/div/div/div/div/div/div/ul/li/ul/li/a'
p448
F0.6281623826695796
sS'/html/body/div/div/div/a/span'
p449
F0.0
sS'/html/body/div/div/div/div/div/div/div/div/div/div/ul/li/div/div/div/div/div/div/div/ul/li/div/div/div/a/span/span/span/button/span'
p450
F3.899695094204315
sS'/html/body/div/div/div/div/div/div/div/div/div/div/ul/li/div/div/div/div/div/div/div/ul/li/div/div/a/span/span/span/img'
p451
F6.643856189774725
sS'/html/body/div/div/div/div/div/script'
p452
F0.011587974275211823
sS'/html/body/div/div/div/div/div/div/div/div/div/div/ul/li/div/div/div/div/div/wbr/wbr/wbr/wbr/wbr/wbr/a'
p453
F8.965784284662087
sS'/html/body/div/div/div/div/div/div/div/div/div/div/div/div/div/div/div/div/span/a/span/span/span/img'
p454
F9.965784284662087
sS'/html/body/div/div/div/div/div/div/div/div/div/div/ul/li/div/div/div/div/div/wbr/wbr/wbr/a'
p455
F7.965784284662087
sS'/html/body/div/div/div/div/div/div'
p456
F0.0
sS'/html/body/div/div'
p457
F0.0
sS'/html/body/div/div/div/div/div/div/div/div/div/div/ul/li/span/div/div/span/span'
p458
F9.965784284662087
sS'/html/body/div/div/div/div/div/div/div/div/div/div/div/div/div/ul/li/div/a/span/span'
p459
F1.049904905826314
sS'/html/body/div/div/div/div/div/div/div/div/div/div/div/div/ol/li/ol/li/div/div/div/div/ul/li/div/div/div/button'
p460
F9.965784284662087
sS'/html/body/div/div/div/div/div/div/div/div/div/div/ul/li/div/div/div/a/span/span/span/img'
p461
F7.643856189774724
sS'/html/body/div/div/div/div/div/div/div/div/div/div/ul/li/div/div/div/div/div/div/div/ul/li/a/h4/span'
p462
F2.5563933485243857
sS'/html/body/div/div/div/div/div/div/div/div/div/h2/a'
p463
F4.836501267717121
sS'/html/body/div/div/div/div/div/div/div/div/div/div/ul/li/div/div/div/ul/li/div/div/span/span/button/span'
p464
F8.965784284662087
sS'/html/body/div'
p465
F0.0
sS'/html/body/div/div/div/div/div/div/div/div/div/div/div/div/span/div/div/div/div/div/div/div/div'
p466
F1.6126374591640045
sS'/html/body/div/div/div/div/div/div/div/div/div/div/div/div/div/span/a'
p467
F8.380821783940931
sS'/html/body/div/div/div/div/div/div/div/div/div/div/ul/li/div/div/div/div/div/ul/li/div/div/div/span/button/span/span'
p468
F8.380821783940931
sS'/html/body/div/div/div/div/div/div/div/div/div/div/div/div/span/div/div/div/div/div'
p469
F1.6126374591640045
sS'/html/body/div/div/div/div/div/div/div/div/div/div/ul/li/div/div/div/div/div/ul/li/div/div/div/ul/li/span'
p470
F5.265344566520995
sS'/html/body/div/div/div/div/div/div/div/div/div/div/span/span/div/div/div/div/div/div/div/div/p/span'
p471
F0.6281623826695796
sS'/html/body/div/div/div/div/div/div/div/div/div/div/div/button/span'
p472
F0.6281623826695796
sS'/html/body/div/div/div/div/div/div/div/div/div/div/div/div/div/p/wbr'
p473
F9.965784284662087
sS'/html/body/div/div/div/div/div/div/div/div/div/div/ul/li/div/div/div/div/div/div/div/ul/li/div/div/div/span/button/span'
p474
F2.4819685073978306
sS'/html/body/div/div/div/div/div/div/div/div/div/div/ul/li/div/div/div/div/div/wbr/br'
p475
F7.158429362604482
sS'/html/body/div/div/div/div/div/div/div/div/div/div/div/a/span'
p476
F0.6281623826695796
sS'/html/body/div/div/div/div/div/div/div/div/div/div/div/div/div/span/div/a/span'
p477
F3.9434164716336326
sS'/html/body/div/div/div/div/div/div/div/div/div/div/ul/li/div/div/div/div/div/div/a/span/span/span/span/span'
p478
F8.965784284662087
sS'/html/body/div/div/div/div/div/div/div/div/div/div/ul/li/div/div/div/ul/li/div/div/span/a/span/span/span/span'
p479
F8.965784284662087
sS'/html/body/div/div/div/div/div/div/div/div/div/div/ul/li/p'
p480
F8.380821783940931
sS'/html/body/div/div/div/div/div/div/div/ul/li/div/ul/li/a/span/span/span/span/span/span'
p481
F1.5145731728297582
sS'/html/body/div/div/div/div/div/div/div/div/div/div/div/div/div'
p482
F0.5249151170512172
sS'/html/body/div/div/div/div/div/div/div/div/div/div/ul/li/div/div/div/div/div/ul/li/div/div/div/span/button'
p483
F3.6259342817774622
sS'/html/body/div/div/div/div/div/div/div/div/div/div/ul/li/div/div/div/div/div/div/div/ul/li/div/div/div/div/a'
p484
F2.6170561304310094
sS'/html/body/div/div/div/div/div/div/div/div/div/div/ul/li/ul/li/div/div/div/h3/a'
p485
F5.265344566520995
sS'/html/body/div/div/div/div/div/div/div/div/div/div/ul/li/div/table/tbody/tr/td/div/div'
p486
F3.9434164716336326
sS'/html/body/div/div/div/div/div/div/div/div/div/div/ul/li/div/div/div/section/div/div/a/span/span/span/img'
p487
F8.380821783940931
sS'/html/body/div/div/div/div/div/div/div/div/div/div/div/span/span/div/h3'
p488
F0.6281623826695796
sS'/html/body/div/div/div/div/div/div/div/div/div/div/ul/li/div/div/div/div/a'
p489
F2.766111939825723
sS'/html/body/div/link'
p490
F1.8211260418302047
sS'/html/body/div/div/div/div/div/div/div/div/div/div/div/div/div/span/label/span'
p491
F1.049904905826314
sS'/html/body/div/div/div/div/div/div/a/img'
p492
F1.539519529959989
sS'/html/body/div/div/div/div/div/div/div/div/div/div/ul/li/div/div/div/div/div/ul/li/div/div/div/a/span/span/span/button/ul/li/span'
p493
F5.210896782498619
sS'/html/body/div/div/div/div/div/div/div/div/div/div/ul/li/div/div/div/section/div/div/div/div/button'
p494
F8.380821783940931
sS'/html/body/div/div/div/div/div/div/div/div/div/div/div/div/div/div/div/div/span/a/span/span/span/span'
p495
F9.965784284662087
sS'/html/body/div/div/div/div/div/div/div/div/div/div/div/div/div/p/wbr/wbr/wbr/wbr/wbr/wbr/wbr/wbr/wbr/wbr/br'
p496
F8.965784284662087
sS'/html/body/div/div/div/div/div/div/div/div/div/div/ul/li/div/table/tbody/tr/td/div'
p497
F3.9434164716336326
sS'/html/body/div/div/div/div/div/div/div/div/div/div/ul/li/div/div/div/div/div/div/div/ul/li/div/div/div/a/span/span/span/span/img'
p498
F3.899695094204315
sS'/html/body/div/div/div/div/div/div/div/div/div/div/ul/li/div/div/div/section/div/div/div/div/a'
p499
F7.965784284662087
sS'/html/body/div/div/div/div/div/div/div/div/div/div/div/div/ul/div/li'
p500
F0.6461121637150925
sS'/html/body/div/div/div/div/div/div/div/div/div/div/ul/li/div/div/div/div/div/div/div/ul/li/div/div/div/div/span/button/span'
p501
F8.380821783940931
sS'/html/body/div/div/div/div/a/span'
p502
F0.0
sS'/html/body/div/div/div/div/div/div/div/div/div/div/div/div/div/ul/li/span/div/a/span'
p503
F0.6281623826695796
sS'/html/body/div/div/div/div/div/div/div/ul/li/div/ul/li/a/span/span/span'
p504
F1.5145731728297582
sS'/html/head/title'
p505
F0.0
sS'/html/body/div/div/div/div/div/div/div/div/div/div/ul/li/div/div/div/div/div/div/div/ul/li/div/div/div/span/button'
p506
F2.4819685073978306
sS'/html/body/div/div/div/div/div/div/div/div/div/div/ul/li/div/div/div/div/div/div/div/ul/li/div/div/div/a/span/span/span/span/span'
p507
F3.899695094204315
sS'/html/body/div/div/div/div/div/div/div/div/span/link'
p508
F0.6281623826695796
sS'/html/body/div/div/div/div/div/div/div/div/div/div/div/div/div/p/wbr/wbr/wbr/wbr/br'
p509
F7.643856189774724
sS'/html/body/div/div/div/div/div/div/div/div/div/div/ul/li/div/div/div/div/div/button/span'
p510
F3.3658714424749596
sS'/html/body/div/div/div/div/div/div/div/div/div/div/ul/li/div/div/div/section/div/div/div/div/div/div/button'
p511
F8.380821783940931
sS'/html/body/div/div/div/div/div/div/div/div/div/div/ul/li/div/div/div/section/div/div'
p512
F7.643856189774724
sS'/html/body/div/div/div/div/div/div/div/div/div/div/div/div/div/div/div/div/span/span/button/ul/li/span'
p513
F9.965784284662087
sS'/html/body/div/div/div/div/div/div/div/div/div/div/ul/li/div/div/div/h3/a'
p514
F2.736965594166206
sS'/html/body/div/div/div/div/div/div/div/div/div/div/div/div/div/div/div/div/div'
p515
F9.965784284662087
sS'/html/body/div/div/div/div/div/div/div/div/div/div/ul/li/div/div/div/section/div/div/div/div/div/div/span'
p516
F8.380821783940931
sS'/html/body/div/div/div/div/div/div/div/div/div/div/ul/li/div/div/div/div/div/div/div'
p517
F6.380821783940931
sS'/html/body/div/div/div/div/div/div/div/div/div/div/ul/li/div/div/div/div/div/wbr/wbr/wbr/wbr/wbr/wbr/wbr/wbr/a'
p518
F9.965784284662087
sS'/html/body/div/div/div/div/div/div/div/div/div/div/div/div/div/p/wbr/wbr/wbr/a'
p519
F8.965784284662087
sS'/html/body/div/div/div/div/div/div/div/div/div/div/ul/li/ul/li/div/div/div/span/span/button/span'
p520
F6.058893689053569
sS'/html/body/div/div/div/div/div/div/div/div/div/div/div/div/div/p/wbr/a'
p521
F7.965784284662087
sS'/html/body/div/div/div/div/div/div/div/div/div/div/div/div/ol/li/ol/li/div/div/div/div/h2/a/span'
p522
F9.965784284662087
sS'/html/body/div/div/div/div/div/div/div/div/a'
p523
F7.380821783940932
sS'/html/body/div/div/div/div/div/div/div/div/div/div/div/span/button/span'
p524
F0.6281623826695796
sS'/html/body/div/div/div/div/div/div/div/div/div/div/ul/li/div/div/div/section/div/div/div/span/a'
p525
F7.643856189774724
sS'/html/body/div/div/div/div/div/div/div/div/div/div/ul/li/div/div/pre'
p526
F7.643856189774724
sS'/html/body/div/div/div/div/div/div/div/div/div/div/ul/li/div/div/div/section/div/a/span/span/span/span'
p527
F7.643856189774724
sS'/html/body/div/div/div/div/div/div/div/div/div/div/div/div/div/p/wbr/wbr/wbr/br'
p528
F8.965784284662087
sS'/html/body/div/div/div/div/div/div/div/div/div/div/ul/li/div/div/div/div/div/wbr/wbr/wbr/wbr/br'
p529
F7.643856189774724
sS'/html/body/div/div/div/div/div/div/div/div/div/div/div/div/div/ul/li/div/a/span/ul/li/span'
p530
F6.50635266602479
sS'/html/body/div/div/div/div/div/div/div/div/div/div/div/div/div/a/span/span/span/img'
p531
F9.965784284662087
sS'/html/body/div/div/div/div/div/div/div/div/div/div/ul/li/div/div/div/div/div/div/div/ul/li/div/div/div/ul/li/span'
p532
F9.965784284662087
sS'/html/body/div/div/div/div/div/div/div/div/div/div/ul/li/div/div/div/div/ul/li/button/span'
p533
F7.643856189774724
sS'/html/body/div/div/div/div/div/div/div/div/div/div/div/div/div/p/wbr/wbr/wbr/wbr/wbr/wbr/wbr/wbr/br'
p534
F8.965784284662087
sS'/html/body/div/div/div/div/div/div/div/div/div/div/ul/li/div/div/a/span/span/span/span/span'
p535
F5.965784284662088
sS'/html/body/div/div/div/div/div/div/div/div/div/div/div/div/div/div/div/h1/span/span/span/a'
p536
F9.965784284662087
sS'/html/body/div/div/div/div/div/div/div/div/div/div/p/span'
p537
F5.965784284662088
sS'/html/body/div/div/div/div/div/div/div/div/div/div/div/div/ul/li/a/span/span/button'
p538
F1.7369655941662063
sS'/html/body/div/div/div/div/div/div/div/div/div/div/div/div/ul/li/a/span/span/span/span/span'
p539
F1.5145731728297582
sS'/html/body/div/div/div/div/div/div/div/h3'
p540
F7.380821783940932
sS'/html/body/div/div/div/div/div/div/div/div/div/div/ul/li/div/div/div/div/div/ul/li/div/div/div'
p541
F8.965784284662087
sS'/html/body/div/div/div/div/div/div/div/h1'
p542
F0.6214883767462703
sS'/html/body/div/div/div/div/div/div/div/div/div/div/div/div/span/div/div/div/div/div/div/div/div/p/span'
p543
F1.6126374591640045
sS'/html/body/div/div/div/div/div/div/div/div/div/div/ul/li/button/span/span'
p544
F5.965784284662088
sS'/html/body/link'
p545
F1.7958592832197748
sS'/html/body/div/div/div/div/div/div/div/div/div/div/ul/li/div/div/div/div/div/div/div/ul/li/div/div/div/h3/span'
p546
F2.293358942690592
sS'/html/body/div/div/div/div/div/div/div/div/div/div/ul/li/div/div/div/div/div/div/div/br'
p547
F6.058893689053569
sS'/html/body/div/div/div/div/div/div/div/div/div/div/div/div/div/ul/li/div/a/span'
p548
F1.049904905826314
sS'/html/body/div/div/div/div/div/div/div/div/div/div/div/a/span/span'
p549
F2.766111939825723
sS'/html/body/div/div/div/div/div/div/div/div/div/div/ul/li/div/div/div/div/div/div/div/ul/li/div/div/h3/span'
p550
F6.643856189774725
sS'/html/body/div/div/div/div/div/div/div/div/div/div/ul/li/div/table/tbody/tr/td/div/div/span'
p551
F3.9434164716336326
sS'/html/body/div/div/div/div/div/div/div/div/div/div/div/div/h3/img'
p552
F9.965784284662087
sS'/html/body/div/div/div/div/div/div/div/div/div/div/div/div/span/span/span/img'
p553
F5.50635266602479
sS'/html/body/div/div/div/div/div/div/div/div/div/div/ul/li/ul/li/div/div/h3/a'
p554
F8.380821783940931
sS'/html/body/div/div/div/div/div/div/div/div/div/div/ul/li/div/div/div/div/button'
p555
F7.643856189774724
sS'/html/body/div/div/div/div/div/div/div/div/div/div/ul/li/div/div/div/div/div/a'
p556
F2.805912947883698
sS'/html/body/div/div/div/div/div/div/div/div/div/div/ul/li/div/div/div/section/div'
p557
F7.643856189774724
sS'/html/body/div/div/div/div/div/div/div/div/div/div/div/div/div/ul/li/span/button/span'
p558
F0.6281623826695796
sS'/html/body/div/div/div/div/div/div/div/div/div/div/ul/li/div/div/div/div/div/div/div/ul/li/div/div/div/a/span/span/span/span'
p559
F3.899695094204315
sS'/html/body/div/div/div/div/div/div/div/div/div/div/ul/li/div/div/div/div/div/ul/li/div/div/div/div/span/button/span'
p560
F8.380821783940931
sS'/html/body/div/div/div/div/div/div/div/div/div/div/div/div/div/button/span'
p561
F9.965784284662087
sS'/html/body/div/div/div/div/div/div/div/div/div/div/div/div/div/ul/li/ul/li/span/a'
p562
F5.50635266602479
sS'/html/body/div/div/div/div/div/div/div/div/div/div/div/div/div/ul/li/div/a/span/img'
p563
F1.049904905826314
sS'/html/body/div/div/div/div/div/div/div/div/div/div/div/div/div/div/div/h1/span/a/span'
p564
F9.965784284662087
sS'/html/body/div/div/div/div/div/div/div/div/div/div/ul/li/div/div/div/div/div/div/div/wbr'
p565
F9.965784284662087
sS'/html/body/div/div/div/div/div/div/div/div/div/div/ul/li/div/div/div/div/div/div/ul/li'
p566
F8.380821783940931
sS'/html/body/div/div/div/div/div/div/div/div/div/ol/p/span'
p567
F0.0
sS'/html/body/div/div/div/div/div/div/div/div/div/div/ul/li/div/div/div/section/div/div/div/div/div/div/div/a'
p568
F9.965784284662087
sS'/html/body/meta'
p569
F1.8211260418302047
sS'/html/body/div/div/div/div/div/div/div/div/div/div/div/div/ul/li/div/a/span/ul/li/span'
p570
F4.237863830098888
sS'/html/body/div/div/div/div/div/div/div/div/div/div/div/div/div/div/div/div/div/div/p/span'
p571
F9.965784284662087
sS'/html/body/div/div/div/div/div/div/div/div/div/div/div'
p572
F0.00723156923107573
sS'/html/body/div/div/div/div/div/div/div/div/div/ul/li/span/div/a/span/span/span/img'
p573
F2.1713684183119812
sS'/html/body/div/div/div/div/div/div/div/div/div/div/ul/li/div/div/div/section/div/div/div/div/span'
p574
F8.380821783940931
sS'/html/body/div/div/div/div/div/div/div/div/div/div/div/div/a/span/span/span/img'
p575
F8.965784284662087
sS'/html/body/div/div/div/div/div/div/div/div/div/div/div/span/div/div'
p576
F0.6259342817774622
sS'/html/body/div/div/div/div/div/div/div/p/span'
p577
F0.0
sS'/html/body/div/div/div/div/div/div/div/div/div/div/div/div/div/div/p'
p578
F9.965784284662087
sS'/html/body/div/div/div/div/div/div/div/div/div/div/div/div/div/ul/li/button/span'
p579
F0.9799423476587465
sS'/html/body/div/div/div/div/div/div/div/div/div'
p580
F0.0
sS'/html/body/div/div/div/div/div/div/div/div/div/div/div/div/div/ul/li/h4'
p581
F0.6281623826695796
sS'/html/body/div/div/div/div/div/div/div/div/div/div/div/h3/a'
p582
F2.888968687611256
sS'/html/body/div/div/div/div/div/div/button/span'
p583
F0.0
sS'/html/body/div/div/div/div/div/div/div/div/div/div/div/div/ol/li/ol/li/div/div'
p584
F9.965784284662087
sS'/html/body/div/div/div/div/div/div/div/div/div/div/div/div/div/a/span/span/span/span'
p585
F9.965784284662087
sS'/html/body/div/div/div/div/div/div/div/div/div/div/div/div/div/label'
p586
F1.049904905826314
sS'/html/body/div/div/div/div/div/div/div/div/div/div/div/div/div/div/div/div/div/img'
p587
F9.965784284662087
sS'/html/body/div/div/div/div/div/div/div/div/div/div/ul/li/div/div/div/div/div/h2/a/span/span/span/img'
p588
F4.321928094887363
sS'/html/body/div/div/div/div/div/div/div/div/div/div/ul/li/div/div/h2/b'
p589
F7.643856189774724
sS'/html/body/div/div/div/div/div/div/div/div/div/div/div/div/div/span'
p590
F6.058893689053569
sS'/html/body/div/div/div/div/div/div/div/div/div/div/ul/li/span/div/h3/a/span/span'
p591
F9.965784284662087
sS'/html/body/div/div/div/div/div/div/div/div/div/div/span/span/div/div/div/span'
p592
F0.6281623826695796
sS'/html/body/div/div/div/div/div/div/div/div/div/div/ul/li/div/table/tbody/tr/td/a'
p593
F3.9434164716336326
sS'/html/body/div/div/div/div/div/div/div/div/div/div/div/div/div/span/span'
p594
F1.049904905826314
sS'/html/body/div/div/div/div/div/div/div/div/div/div/ul/li/div/div/div/div/p'
p595
F8.965784284662087
s.