(dp0
S'/html/body/div/div/div/div/div/div/p/span'
p1
F6.643856189774725
sS'/html/body/section/script'
p2
F5.643856189774724
sS'/html/body/div/div/div/div/div/div/div/div/p'
p3
F5.058893689053569
sS'/html/body/div/div/div/div/div/dl/dt/div/br'
p4
F3.8365012677171206
sS'/html/body/section/div/div/div/a'
p5
F5.643856189774724
sS'/html/body/section/section/div/div/span'
p6
F5.643856189774724
sS'/html/body/div/div/div/div/div/div/script'
p7
F1.0291463456595165
sS'/html/body/div/div/div/div/div/div/div/div/a/img'
p8
F1.3584539709124765
sS'/html/body/div/div/div/div/div/div/div/div/div/i'
p9
F6.643856189774725
sS'/html/body/div/div/div/dl/dd/div/ul/li/a'
p10
F3.3219280948873626
sS'/html/body/section/div/div/div/dl/dd/span/a/i'
p11
F5.643856189774724
sS'/html/body/div/div/div/div/div/div/div/div/div/a'
p12
F6.643856189774725
sS'/html/body/div/div/div/div/div/dl/dt/div/p/a/img'
p13
F6.643856189774725
sS'/html/body/div/div/div'
p14
F0.04394334758759686
sS'/html/body/div/div/div/div/div/dl/dt/a'
p15
F2.2515387669959646
sS'/html/body/div/div/div/div/div/p/a'
p16
F5.643856189774724
sS'/html/body/div/div/div/div/div/span/span'
p17
F1.0291463456595165
sS'/html/body/div/div/div/div/ul/li/div/a'
p18
F6.643856189774725
sS'/html/body/div/div/div/span'
p19
F0.3040061868900999
sS'/html/body/div/div/div/div/div/p/strong/span/img'
p20
F6.643856189774725
sS'/html/body/div/div/div/ul/li/a'
p21
F0.04394334758759686
sS'/html/body/section/section/div/div/strong'
p22
F5.643856189774724
sS'/html/body/div/div/div/div/div/p/strong/img'
p23
F6.643856189774725
sS'/html/body/div/div/div/dl/dd/img'
p24
F2.0588936890535687
sS'/html/body/div/div/div/div/div/div/div/div/s/span'
p25
F1.4739311883324122
sS'/html/body/div/div/div/div/div/div/p'
p26
F3.6438561897747253
sS'/html/body/div/div/div/a/span'
p27
F0.6896598793878495
sS'/html/body/div/div/div/a/i'
p28
F2.0588936890535687
sS'/html/body/section/section/article/p/a'
p29
F5.643856189774724
sS'/html/body/div/div/div/div/div/div/div/div/s/i'
p30
F1.4739311883324122
sS'/html/body/rss/channel/image/link'
p31
F6.643856189774725
sS'/html/body/div/div/div/div/div/div/a'
p32
F1.0
sS'/html/body/div/div/div/div/div/dl/dd/div/a/i'
p33
F1.4739311883324122
sS'/html/body/rss/channel/item/link'
p34
F6.643856189774725
sS'/html/body/div/div/div/i'
p35
F2.8365012677171206
sS'/html/body/div/div/div/div/div/div/span/div/s/span'
p36
F1.0291463456595165
sS'/html/body/div/div/div/div/span/a/i'
p37
F1.0291463456595165
sS'/html/body/div/div/div/div/div/div/span/div/s/i'
p38
F1.0291463456595165
sS'/html/body/div/div/a/img'
p39
F1.0
sS'/html/body/div/div/div/div/div/div/div/b'
p40
F3.0588936890535687
sS'/html/body/div/div/div/div/a'
p41
F0.7612131404128833
sS'/html/body/div/div/div/div/ul/li/h4/a'
p42
F1.0291463456595165
sS'/html/body/section/div/div/span'
p43
F5.643856189774724
sS'/html/body/div/div/div/div/div/dl/dd/span/a/i'
p44
F3.3219280948873626
sS'/html/body/div/div/div/div/div/div/like'
p45
F1.0291463456595165
sS'/html/head/meta'
p46
F0.01449956969511517
sS'/html/body/div/div/div/ul/li/div/span/a/i'
p47
F3.3219280948873626
sS'/html/body/div/div/div/div/div/dl/dd/span/span/a/i'
p48
F3.3219280948873626
sS'/html/body/section/div/div/a'
p49
F5.643856189774724
sS'/html/body/section/section/article/a/img'
p50
F5.643856189774724
sS'/html/body/div/div/div/div/div/div/div/span'
p51
F2.736965594166206
sS'/html/body/div/div/div/div/div/dl/dt/div/div/p'
p52
F3.473931188332412
sS'/html/body/div/div/div/div/ul/li/p/a/img'
p53
F1.0291463456595165
sS'/html/script'
p54
F0.05889368905356862
sS'/html/body/div/div/div/div/div/div/div/div/a'
p55
F1.4739311883324122
sS'/html/body/div/div/div/div/div/span'
p56
F0.05889368905356862
sS'/html/body/div/div/div/div/i'
p57
F1.0892673380970874
sS'/html/body/div/div/div/div/div/dl/dt/div/div'
p58
F2.643856189774725
sS'/html/body/section/div/div/textarea'
p59
F5.643856189774724
sS'/html/body/div/div/div/div/div/h2'
p60
F2.8365012677171206
sS'/html/body/div/div/div/div/div/div/span/a'
p61
F5.058893689053569
sS'/html/body/div/div/ul/li/a/i'
p62
F6.643856189774725
sS'/html/body/div/div/div/div/ul/li/a/s'
p63
F6.643856189774725
sS'/html/body/section/div/div/div/dl/dt/div/span'
p64
F5.643856189774724
sS'/html/body/div/div/div/div/div/div/a/span'
p65
F1.4739311883324122
sS'/html/body/div/div/div/div/div/dl/dd/span'
p66
F1.4739311883324122
sS'/html/body/div/div/div/div/div/dl/dt/div/div/a/s'
p67
F5.643856189774724
sS'/html/body/div/img'
p68
F5.643856189774724
sS'/html/body/rss/channel/generator'
p69
F6.643856189774725
sS'/html/body/div/div/div/div/div/dl/dd/div/span'
p70
F1.4739311883324122
sS'/html/body/div/div/div/div/ul/li/span'
p71
F1.0291463456595165
sS'/html/body/div/div/div/div/div/dl/dt/div/div/a/span'
p72
F5.643856189774724
sS'/html/body/div/div/div/div/div/dl/dt/div/p/span'
p73
F5.643856189774724
sS'/html/body/section/div/div/ul/li/a/h4'
p74
F5.643856189774724
sS'/html/body/div/div/div/a/s/span'
p75
F1.0588936890535687
sS'/html/body/section/div/div/div/dl/dt/div/div/a/font'
p76
F5.643856189774724
sS'/html/body/div/div/div/div/div/dl/dd/span/span'
p77
F1.4739311883324122
sS'/html/body/div/div/input'
p78
F1.0291463456595165
sS'/html/body/div/div/div/div/h2/span'
p79
F3.0588936890535687
sS'/html/body/rss/channel/image/url'
p80
F6.643856189774725
sS'/html/body/div/div/div/div/div/div/div/div/i'
p81
F6.643856189774725
sS'/html/head/script'
p82
F0.01449956969511517
sS'/html/body/div/div/div/dl/dd/div/ul/li'
p83
F3.3219280948873626
sS'/html/body/div/div/div/ul/li/div/span/a/s/span'
p84
F3.473931188332412
sS'/html/body/div/div/div/div/div/div/div/input'
p85
F1.0
sS'/html/body/div/div/div/div/div/dl/dt/div/p'
p86
F1.8365012677171209
sS'/html/head/link'
p87
F0.01449956969511517
sS'/html/body/div/div/div/ul/li/div/span'
p88
F3.3219280948873626
sS'/html/body/div/div/div/ul/li/div/span/span/a'
p89
F3.3219280948873626
sS'/html/body/div/div/div/div/div/div/div/img'
p90
F6.643856189774725
sS'/html/body/div/div/div/div/div/p/br'
p91
F6.643856189774725
sS'/html/body/div/div/div/div/div/dl/dt/div/div/span/p'
p92
F5.643856189774724
sS'/html/body/div/div/div/div/div/div/a/img'
p93
F6.643856189774725
sS'/html/body/div/div/div/div/div/div/textarea'
p94
F1.0291463456595165
sS'/html/body/div/div/div/div/h4'
p95
F3.3219280948873626
sS'/html/body/div/div/div/ul/li/div/s/s'
p96
F0.05889368905356862
sS'/html/body/div/footer/div/div/p'
p97
F5.643856189774724
sS'/html/body/rss/channel/image/title'
p98
F6.643856189774725
sS'/html/body/div/div/div/div/div/p/strong'
p99
F4.321928094887363
sS'/html/body/div/div/div/ul/li/a/s/s'
p100
F0.05889368905356862
sS'/html/body/div/div/div/div/div/ul/li'
p101
F1.0892673380970874
sS'/html/body/div/div/div/div/div/div/div/div/span'
p102
F1.434402824145775
sS'/html/body/div/div/div/dl/dt/span'
p103
F2.8365012677171206
sS'/html/body/section/div/div/ul/li/a/div/div/i'
p104
F5.643856189774724
sS'/html/body/div/div/div/div/a/img'
p105
F1.0892673380970874
sS'/html/body/div/div/div/div/p/a/img'
p106
F1.0291463456595165
sS'/html/body/div/div/div/ul/li/div/span/a/s/i'
p107
F3.473931188332412
sS'/html/body/div/div/div/ul/li/div/span/a'
p108
F3.3219280948873626
sS'/html/body/div/footer/div/div/div/a'
p109
F5.643856189774724
sS'/html/head/title'
p110
F0.01449956969511517
sS'/html/body/div/div/div/div/div/div/ul/li/a/img'
p111
F6.643856189774725
sS'/html/body/div/div/div/div/div/div/div/br'
p112
F6.643856189774725
sS'/html/body/rss/channel/link'
p113
F6.643856189774725
sS'/html/body/section/div/ul/li/a/div/div'
p114
F5.643856189774724
sS'/html/body/div/div/div/ul/li/div/a'
p115
F0.05889368905356862
sS'/html/body/img'
p116
F1.0291463456595165
sS'/html/body/div/div/div/div/div/div/span/a/s/span'
p117
F1.0291463456595165
sS'/html/body/div/div/div/div/ul/li'
p118
F6.643856189774725
sS'/html/body/div/nav/div/a'
p119
F5.643856189774724
sS'/html/body/div/div/div/div/div/dl/dt/div/div/a'
p120
F2.5563933485243857
sS'/html/body/div/div/div/div/div/div/div/div/p/a'
p121
F5.058893689053569
sS'/html/body/div/div/div/ul/li/a/i'
p122
F0.05889368905356862
sS'/html/body/div/div/div/div/div/div/br'
p123
F4.643856189774724
sS'/html/body/section/section/div/div/div'
p124
F5.643856189774724
sS'/html/body/div/div/div/div/div/h2/span'
p125
F1.4739311883324122
sS'/html/body/div/div/div/div/div/div/span/span'
p126
F2.0588936890535687
sS'/html/body/div/div/div/div/span/a/span'
p127
F1.0291463456595165
sS'/html/body/div/div/div/div/div/p/strong/font/span'
p128
F6.643856189774725
sS'/html/body/section/section/header/div/span/span'
p129
F5.643856189774724
sS'/html/body/section/div/div/div/dl/dd/span/a'
p130
F5.643856189774724
sS'/html/body/section/div/div/div/dl/dt/div/div'
p131
F5.643856189774724
sS'/html/body/div/div/div/div/div/div/span/a/s/i'
p132
F1.0291463456595165
sS'/html/body/div/div/div/div/div/ul/li/a'
p133
F1.0588936890535687
sS'/html/body/div/div/div/div/div/dl/dt/div/span'
p134
F6.643856189774725
sS'/html/body/div/div/div/div/div/p/strike/span'
p135
F6.643856189774725
sS'/html/body/div/div/div/div/a/span'
p136
F3.3219280948873626
sS'/html/body/section/div/ul/li/a/div/div/div/div/i'
p137
F5.643856189774724
sS'/html/body/div/div/div/div/div/div/div/h3/span'
p138
F6.643856189774725
sS'/html/body/div/div/div/div/div/dl/dt/div/p/strong/a'
p139
F6.643856189774725
sS'/html/body/div/div/div/div/div/dl/dd/a/img'
p140
F1.0892673380970874
sS'/html/body/div/div/div/div/div/dl/dt/div/div/br'
p141
F5.643856189774724
sS'/html/body/div/div/div/div/div/dl/dt/div/p/a'
p142
F4.058893689053568
sS'/html/body/div/footer/div/div/a'
p143
F5.643856189774724
sS'/html/body/div/div/div/div/div/div/i'
p144
F2.8365012677171206
sS'/html/body/div/div/div/dl/dt'
p145
F3.3219280948873626
sS'/html/body/div/div/ul/li/a'
p146
F6.643856189774725
sS'/html/body/div/div/div/div/div/p/font/span'
p147
F6.643856189774725
sS'/html/body/div/div/div/div/div'
p148
F2.0
sS'/html/body/noscript/img'
p149
F1.0291463456595165
sS'/html/body/div/div/div/div/div/dl/dt/div'
p150
F1.6438561897747248
sS'/html/body/div/div/i'
p151
F6.643856189774725
sS'/html/body/section/div/ul/li/a/div/div/h3'
p152
F5.643856189774724
sS'/html/body/div/div/div/div/div/dl/dd/a'
p153
F1.0892673380970874
sS'/html/body/rss/channel/item/description'
p154
F6.643856189774725
sS'/html/body/div/div/a'
p155
F0.02914634565951651
sS'/html/body/section/section/div/div/i'
p156
F5.643856189774724
sS'/html/body/div/div/div/ul/li'
p157
F0.05889368905356862
sS'/html/body/div/div/div/dl/dd/div/span'
p158
F5.643856189774724
sS'/html/body/section/div/div/div'
p159
F5.643856189774724
sS'/html/body/div/div/div/div/div/div/a/i'
p160
F1.4739311883324122
sS'/html/body/section/div/div/ul/li/a/div/div/span'
p161
F5.643856189774724
sS'/html/body/link'
p162
F5.643856189774724
sS'/html/body/script'
p163
F0.02914634565951651
sS'/html/body/div/div/div/div/div/div/div'
p164
F1.0
sS'/html/body/div/div/div/div/b'
p165
F3.3219280948873626
sS'/html/body/div/div/div/div/p/a'
p166
F6.643856189774725
sS'/html/body/div/div/div/div/div/div/div/div/h4'
p167
F6.643856189774725
sS'/html/body/section/section/header/div/span/i'
p168
F5.643856189774724
sS'/html/body/div/div/div/div/div/div/span'
p169
F1.0291463456595165
sS'/html/body/section/section/header/div/span'
p170
F5.643856189774724
sS'/html/body/div/div/div/div/div/dl/dd/span/a'
p171
F3.3219280948873626
sS'/html/body/div/div/div/div/span/span/a'
p172
F1.0291463456595165
sS'/html/body/div/div/div/div/span'
p173
F3.184424571137428
sS'/html/body/div/div/div/div/ul'
p174
F1.0291463456595165
sS'/html/body/div/div/div/div/div/p/img'
p175
F4.321928094887363
sS'/html/body/div/div/div/div/div/dl/dt/div/p/strong'
p176
F6.643856189774725
sS'/html/body/div/div/script'
p177
F1.0291463456595165
sS'/html/body/div/footer/div/p'
p178
F5.643856189774724
sS'/html/body/div/div/div/div/div/div/div/div/a/s/i'
p179
F1.4739311883324122
sS'/html/body/div/div/div/div/div/ul/li/div/a'
p180
F1.0892673380970874
sS'/html/body/div/div/div/ul/li/div/h4/a'
p181
F3.3219280948873626
sS'/html/body/section/section/article/p'
p182
F5.643856189774724
sS'/html/body/div/div/div/a/s/i'
p183
F1.0588936890535687
sS'/html/body/div/div/div/dl/dd/span/i'
p184
F2.8365012677171206
sS'/html/body/div/div/div/div/div/div/p/a'
p185
F6.643856189774725
sS'/html/body/div/div/div/div/div/div/s/i'
p186
F5.058893689053569
sS'/html/body/div/div/div/dl/dd/span/a'
p187
F2.8365012677171206
sS'/html/body/div/div/div/a'
p188
F1.5145731728297582
sS'/html/body/div/div/div/div/div/span/a'
p189
F6.643856189774725
sS'/html/body/div/footer/div/div/a/i'
p190
F5.643856189774724
sS'/html/body/section/div/div/div/h2'
p191
F5.643856189774724
sS'/html/body/div/div/div/h2/span'
p192
F3.0588936890535687
sS'/html/body/div/div/label/input'
p193
F1.0291463456595165
sS'/html/body/section/div/div/div/dl/dd/span'
p194
F5.643856189774724
sS'/html/body/div/div/div/dl/dd/span'
p195
F2.8365012677171206
sS'/html/body/section/section/div/a'
p196
F5.643856189774724
sS'/html/body/div/div/div/h2'
p197
F3.184424571137428
sS'/html/body/div/div/div/h1'
p198
F1.0291463456595165
sS'/html/body/div/div/div/div/div/a/img'
p199
F6.643856189774725
sS'/html/body/div/div/span'
p200
F1.0291463456595165
sS'/html/body/section/section/header/h1'
p201
F5.643856189774724
sS'/html/body/section/div/div/div/dl/dd/span/a/span'
p202
F5.643856189774724
sS'/html/body/div/div/ul/li'
p203
F6.643856189774725
sS'/html/body/div/div/div/div/ul/li/a'
p204
F1.0
sS'/html/body/div/div/ul/li/a/s'
p205
F6.643856189774725
sS'/html/body/div/div/div/div/div/div'
p206
F1.0
sS'/html/body/rss/channel/item/title'
p207
F6.643856189774725
sS'/html/body/div/div/div/div/div/dl/dt/div/a'
p208
F6.643856189774725
sS'/html/body/div/div/div/div/div/div/span/a/p'
p209
F5.058893689053569
sS'/html/body/div/div/div/ul/li/div/a/i'
p210
F0.05889368905356862
sS'/html/body/div/div/div/div/div/div/div/a'
p211
F0.21759143507262685
sS'/html/body/section/div/ul/li/a/div/div/div/div/span'
p212
F5.643856189774724
sS'/html/body/div/div/div/div/div/div/div/a/i'
p213
F1.4739311883324122
sS'/html/body/div/div/div/div/div/p'
p214
F1.1202942337177118
sS'/html/body/rss/channel/lastbuilddate'
p215
F6.643856189774725
sS'/html/body/div/div/div/div/div/input'
p216
F0.04394334758759686
sS'/html/body/div/div/div/ul/li/div/a/s/i'
p217
F3.3219280948873626
sS'/html/body/div/div/div/div/div/p/a/span'
p218
F6.643856189774725
sS'/html/body/div/div/div/div/div/p/strong/span'
p219
F6.643856189774725
sS'/html/body/div/div/div/div/h2'
p220
F0.7612131404128833
sS'/html/body/div/div/div/div/div/p/span/p'
p221
F6.643856189774725
sS'/html/body/rss/channel/description'
p222
F6.643856189774725
sS'/html/body/rss/channel/image/description'
p223
F6.643856189774725
sS'/html/body/div/div/div/div/div/a'
p224
F5.058893689053569
sS'/html/body/div/div/div/div/div/div/h3'
p225
F6.643856189774725
sS'/html/body/rss/channel/title'
p226
F6.643856189774725
sS'/html/body/div/div/div/dl/dd'
p227
F3.0588936890535687
sS'/html/body/div/div/div/div/div/div/div/div/a/s/span'
p228
F1.4739311883324122
sS'/html/body/section/section/div/div/div/a'
p229
F5.643856189774724
sS'/html/body/div/div/div/div/div/div/div/h3/div'
p230
F6.643856189774725
sS'/html/body/section/div/a'
p231
F5.643856189774724
sS'/html/body/div/div/div/div/div/p/span'
p232
F3.184424571137428
sS'/html/body/div/div/ul/li/div/a/i'
p233
F6.643856189774725
sS'/html/body/div/div/div/ul/li/div/a/s/span'
p234
F3.3219280948873626
sS'/html/body/div/div/div/div/div/div/div/div/div/div/div/div/div/span'
p235
F6.643856189774725
sS'/html/body/div/div/div/div/div/div/div/span/a'
p236
F1.4739311883324122
sS'/html/body/div/div/div/div/div/a/i'
p237
F1.0291463456595165
sS'/html/body/div/div/div/div/div/div/div/div/br'
p238
F6.643856189774725
sS'/html/body/div/div/div/div/div/p/span/img'
p239
F5.643856189774724
sS'/html/body/div/div/div/script'
p240
F0.7131188522118386
sS'/html/head/noscript/link'
p241
F5.643856189774724
sS'/html/body/div/div/div/div/div/img'
p242
F1.0588936890535687
sS'/html/body/div/div/div/div/div/div/h2/i'
p243
F6.643856189774725
sS'/html/body/div/div/div/div/div/dl/dt/div/a/img'
p244
F6.643856189774725
sS'/html/body/rss/channel/item/pubdate'
p245
F6.643856189774725
sS'/html/body/section/div/div/h2'
p246
F5.643856189774724
sS'/html/body/div/div/div/div/div/div/h2/a'
p247
F6.643856189774725
sS'/html/body/div/div/div/div/ul/li/div/s/s'
p248
F6.643856189774725
sS'/html/body/div/div/div/div/div/div/span/div/a'
p249
F1.0291463456595165
s.