(dp0
S'/html/body/div/div/div/div/div/div/div/div/div/a'
p1
F1.6896598793878495
sS'/html/body/div/div/div/div/div/div/div/div/a/img'
p2
F0.02914634565951651
sS'/html/body/div/div/div/div/div/div/div/div/div/i'
p3
F6.643856189774725
sS'/html/body/div/div/div/div/div/div/div/p/span/a'
p4
F4.058893689053568
sS'/html/body/div/div/div/div/div/div/div/div/div/p'
p5
F5.643856189774724
sS'/html/body/div/div/div/div/div/div/div/div/dl/dt'
p6
F6.643856189774725
sS'/html/body/div/div/div/div/div/p/a'
p7
F2.5563933485243857
sS'/html/body/div/div/div/div/div/p/b'
p8
F6.643856189774725
sS'/html/body/div/div/div/div/div/div/table/tr/td/a'
p9
F4.321928094887363
sS'/html/body/div/div/div/div/div/form/input'
p10
F6.643856189774725
sS'/html/body/div/div/div/div/div/div/table/tbody/tr/td/p'
p11
F6.643856189774725
sS'/html/body/div/div/div/div/div/div/div/div/div/div/p/br'
p12
F5.058893689053569
sS'/html/body/div/div/div/div/div/div/table/thead/tr/th/a'
p13
F3.6438561897747253
sS'/html/body/div/div/div/a'
p14
F0.02914634565951651
sS'/html/body/div/div/div/div/div/div/table/tbody/tr/td/a'
p15
F5.643856189774724
sS'/html/body/div/div/div/div/div/div/div/div/div/span'
p16
F2.473931188332412
sS'/html/body/div/div/div/div/div/table/tr/td/span'
p17
F5.643856189774724
sS'/html/body/div/div/div/div/h2/em'
p18
F1.5994620704162712
sS'/html/head/meta'
p19
F0.0
sS'/html/body/div/div/div/div/a/div/div/div/div/p/em'
p20
F6.643856189774725
sS'/html/body/div/div/div/div/div/div/table/tr/td/a/span'
p21
F3.8365012677171206
sS'/html/body/div/div/div/div/form/div/div/button'
p22
F0.02914634565951651
sS'/html/body/div/div/div/div/div/div/div/div/ul/li/br'
p23
F6.643856189774725
sS'/html/body/div/div/div/div/div/div/div/div/div/strong'
p24
F5.643856189774724
sS'/html/body/div/div/div/div/div/div/div/h4/span'
p25
F5.643856189774724
sS'/html/body/div/div/div/div/form/div/span/button'
p26
F0.02914634565951651
sS'/html/body/div/div/div/div/div/div/div/div/ul/li/div/div/a'
p27
F0.02914634565951651
sS'/html/body/div/div/div/div/form/div/button'
p28
F0.02914634565951651
sS'/html/body/div/div/div/div/div/div/div/a/div/span'
p29
F5.643856189774724
sS'/html/body/div/div/div/div/h1/span'
p30
F3.6438561897747253
sS'/html/body/div/div/div/div/div/div/a/div/h5/em'
p31
F6.643856189774725
sS'/html/body/div/div/div/div/div/div/div/div/div/div/div/p/span'
p32
F4.058893689053568
sS'/html/body/div/div/div/div/div/div/div/a/p/span'
p33
F2.395928676331139
sS'/html/body/div/div/div/div/a/div/div/div/div/div'
p34
F6.643856189774725
sS'/html/body/div/div/div/div/div/div/div/div/div/div/div/div/span'
p35
F3.8365012677171206
sS'/html/body/div/div/div/div/div/div/div/div/div/div/span/span/span'
p36
F5.643856189774724
sS'/html/head/script'
p37
F0.01449956969511517
sS'/html/body/div/div/div/div/form/div/div/div/button/em'
p38
F6.643856189774725
sS'/html/body/div/div/div/div/div/form/div/input'
p39
F6.643856189774725
sS'/html/body/div/div/div/div/div/div/ul/li/div/div/dl/dt'
p40
F6.643856189774725
sS'/html/body/div/div/div/div/div/table/tbody/tr/td/a'
p41
F6.643856189774725
sS'/html/body/div/div/div/div/div/div/form/ol/div/div/div/ul/li/label/span/a'
p42
F6.643856189774725
sS'/html/body/div/div/div/div/div/table'
p43
F5.643856189774724
sS'/html/body/div/div/div/div/div/p/br'
p44
F0.02914634565951651
sS'/html/body/div/div/div/div/div/table/tbody/tr/td/span/span'
p45
F6.643856189774725
sS'/html/body/div/div/div/div/div/div/div/div/div/div/a/h3'
p46
F5.643856189774724
sS'/html/body/div/div/div/div/div/form/div/div/div/button/span'
p47
F6.643856189774725
sS'/html/body/div/div/div/div/div/div/div/div/ul/li/a/i'
p48
F6.643856189774725
sS'/html/body/div/div/div/div/div/div/div/div/span'
p49
F0.02914634565951651
sS'/html/body/div/div/div/div/div/div/table/tbody/tr/td/h2'
p50
F6.643856189774725
sS'/html/body/div/div/div/div/div/div/div/div/div/div/div/div/p'
p51
F4.058893689053568
sS'/html/body/div/div/div/div/div/div/div/div/div/div/p/a'
p52
F3.6438561897747253
sS'/html/body/div/div/div/div/div/div/a/p/span'
p53
F1.5145731728297582
sS'/html/body/div/div/div/div/div/div/div/div/div/div/div/div/div/div/span/span'
p54
F5.643856189774724
sS'/html/body/div/div/div/div/div/div/div/br'
p55
F3.3219280948873626
sS'/html/body/div/div/div/div/div/div/h3/span'
p56
F2.1202942337177118
sS'/html/body/div/div/div/div/div/div/div/div/p/span/em'
p57
F6.643856189774725
sS'/html/head/title/script'
p58
F6.643856189774725
sS'/html/body/div/div/div/div/div/div/div/div/div/div/p'
p59
F2.1844245711374275
sS'/html/head/noscript/iframe'
p60
F0.01449956969511517
sS'/html/body/div/div/div/div/a/div/div/p'
p61
F5.643856189774724
sS'/html/body/div/div/div/div/div/div/div/div/table/tr/td/button'
p62
F6.643856189774725
sS'/html/body/div/div/div/div/div/div/a/div/div/div/div/p'
p63
F6.643856189774725
sS'/html/body/div/div/div/div/div/div/div/p/strong'
p64
F0.02914634565951651
sS'/html/body/div/div/div/div/div/div/link'
p65
F4.058893689053568
sS'/html/body/div/div/div/div/div/table/tr/td'
p66
F4.643856189774724
sS'/html/body/div/div/div/div/div/ol/li/ol/li'
p67
F6.643856189774725
sS'/html/body/div/div/div/div/a/h1/span'
p68
F4.643856189774724
sS'/html/body/div/div/div/div/div/div/div/div/button/span'
p69
F5.643856189774724
sS'/html/head/title/style'
p70
F6.643856189774725
sS'/html/body/div/div/div/div/div/div/div/div/a/p/span'
p71
F2.9434164716336326
sS'/html/body/div/div/div/div/div/table/tbody/tr/td/span'
p72
F6.643856189774725
sS'/html/body/div/div/div/div/div/div/div/div/ul/li'
p73
F5.643856189774724
sS'/html/body/div/div/div/div/div/style'
p74
F6.643856189774725
sS'/html/body/div/div/div/div/div/div/a/button'
p75
F6.643856189774725
sS'/html/body/div/div/div/div/div/div/div/ul/li/form/div/label/span/span'
p76
F2.8365012677171206
sS'/html/body/div/div/div/div/div/form/div/span/button'
p77
F6.643856189774725
sS'/html/head/title/meta'
p78
F6.643856189774725
sS'/html/body/div/div/div/ul/li/a'
p79
F4.058893689053568
sS'/html/body/div/div/div/div/form/div/p/small/a'
p80
F0.02914634565951651
sS'/html/body/div/div/div/div/form/div/div/label/span'
p81
F0.02914634565951651
sS'/html/body/div/div/div/div/div/div/div/div/dl/dd'
p82
F6.643856189774725
sS'/html/body/div/div/div/div/div/div/div/a/div/div/span/em'
p83
F5.643856189774724
sS'/html/body/div/div/div/div/div/div/span/a/span'
p84
F6.643856189774725
sS'/html/body/div/div/div/div/div/div/div/div/div/div/span/span'
p85
F5.643856189774724
sS'/html/body/div/div/div/div/div/div/span'
p86
F4.321928094887363
sS'/html/body/div/div/div/div/div/div/dl/dd/a'
p87
F6.643856189774725
sS'/html/body/div/div/div/div/div/ul/li/div/div/div/div/div/img'
p88
F0.02914634565951651
sS'/html/body/div/div/div/div/div/div/div/div/h2'
p89
F2.9434164716336326
sS'/html/body/div/div/div/div/div/div/form/label/span'
p90
F6.643856189774725
sS'/html/body/div/div/div/div/div/a/span'
p91
F4.643856189774724
sS'/html/body/div/div/div/div/div/div/form/ol/div/div/div/label/div/span'
p92
F6.643856189774725
sS'/html/body/div/div/div/div/div/div/form/ol/div/div/div/textarea'
p93
F6.643856189774725
sS'/html/body/div/div/div/div/div/div/img'
p94
F2.5563933485243857
sS'/html/body/div/div/div/div/div/div/div/div/form/div/label/input'
p95
F2.8365012677171206
sS'/html/body/div/div/div/div/div/ul/li/a/img'
p96
F2.9434164716336326
sS'/html/body/div/div/div/div/div/ul/li/div/div/div/div/a/h2'
p97
F0.02914634565951651
sS'/html/body/div/div/div/div/div/div/form/div/div/div/button/em'
p98
F0.02914634565951651
sS'/html/body/div/div/div/div/div/div/meta'
p99
F6.643856189774725
sS'/html/body/div/div/div/div/div/div/a/div/img'
p100
F5.643856189774724
sS'/html/body/div/div/div/div/div/div/div/p'
p101
F0.02914634565951651
sS'/html/body/div/div/div/div/div/div/div/i'
p102
F0.02914634565951651
sS'/html/body/div/div/div/div/h3/a/span'
p103
F3.6438561897747253
sS'/html/body/div/div/div/div/div/div/div/a'
p104
F0.01449956969511517
sS'/html/body/div/div/div/div/div/div/div/ul/li/form/div/label/input'
p105
F2.8365012677171206
sS'/html/body/div/div/div/div/div/p/small/a'
p106
F0.02914634565951651
sS'/html/body/div/div/div/div/div/div/div/div/div/span/span'
p107
F6.643856189774725
sS'/html/body/div/div/div/div/div/div/div/div/div/button'
p108
F2.8365012677171206
sS'/html/body/div/div/div/div/div/div/ul/li'
p109
F2.643856189774725
sS'/html/body/div/div/div/div/div/div/div/div/p/a'
p110
F6.643856189774725
sS'/html/body/div/div/div/div/div/div/div/span/a'
p111
F4.058893689053568
sS'/html/body/div/div/div/div/div/p/span/a'
p112
F3.0588936890535687
sS'/html/body/div/div/div/div/div/div/div/a/span'
p113
F2.9434164716336326
sS'/html/body/div/div/div/div/div/button/div/span'
p114
F2.8365012677171206
sS'/html/body/div/div/div/div/div/div/div/div/div/div/div/img'
p115
F3.184424571137428
sS'/html/body/div/div/div/div/div/ul/li/div/p'
p116
F4.643856189774724
sS'/html/body/div/div/div/div/div/div/div/div/br'
p117
F5.643856189774724
sS'/html/body/div/div/div/div'
p118
F0.0
sS'/html/body/div/div/div/div/div/div/ul/li/h3'
p119
F2.8365012677171206
sS'/html/body/div/div/style'
p120
F6.643856189774725
sS'/html/body/div/div/div/div/div/div/h2/a'
p121
F3.6438561897747253
sS'/html/body/div/div/div/div/div/ul/li/div'
p122
F6.643856189774725
sS'/html/body/div/div/div/div/div/div/div/div/div/div/a/div/div'
p123
F5.643856189774724
sS'/html/body/div/div/div/div/p/small/a'
p124
F0.02914634565951651
sS'/html/body/div/div/div/div/div/p/b/i'
p125
F6.643856189774725
sS'/html/body/div/div/div/div/div/div/div/div/div/a/em'
p126
F6.643856189774725
sS'/html/body/div/div/div/div/div/div/title'
p127
F4.058893689053568
sS'/html/body/div/div/div/div/div/div/form/ol/input'
p128
F6.643856189774725
sS'/html/body/div/div/div/div/div/div/div/div/table/tr/td/textarea'
p129
F6.643856189774725
sS'/html/body/div/div/div/div/div/div/form/ol/div/div/div/label/div'
p130
F6.643856189774725
sS'/html/body/div/div/div/div/div/div/div/div/div/input'
p131
F1.9434164716336328
sS'/html/body/div/div/div/div/div/span/span'
p132
F5.058893689053569
sS'/html/body/div/div/div/div/div/div/div/div/div/a/span'
p133
F3.3219280948873626
sS'/html/body/div/div/div/div/div/div/div/a/meta'
p134
F4.643856189774724
sS'/html/body/div/div/div/div/div/div/div/div/div/div/label/a'
p135
F2.8365012677171206
sS'/html/body/div/div/div/div/div/div/i'
p136
F5.643856189774724
sS'/html/body/div/div/div/div/div/div/div/div/div/div/span'
p137
F2.0
sS'/html/body/div/div/div/div/div/div/ul/li/a/span'
p138
F4.643856189774724
sS'/html/body/div/div/div/div/div/p/strong'
p139
F6.643856189774725
sS'/html/body/div/div/div/div/div/hr'
p140
F4.643856189774724
sS'/html/body/div/div/div/div/div/p/a/i'
p141
F0.02914634565951651
sS'/html/body/div/div/div/div/div/div/div/table/tr/td/span/a/span'
p142
F2.473931188332412
sS'/html/body/div/div/div/div/a/div/div/div/h3'
p143
F6.643856189774725
sS'/html/body/div/div/div/div/div/div/div/a/div/img'
p144
F5.643856189774724
sS'/html/body/div/div/div/div/div/div/div/a/div/div/span'
p145
F6.643856189774725
sS'/html/body/div/div/div/div/div/div/div/a/div/div/div/div'
p146
F5.643856189774724
sS'/html/body/div/div/div/div/div/div/div/span'
p147
F0.02914634565951651
sS'/html/body/div/div/div/div/div/div/div/ul/li/a'
p148
F3.8365012677171206
sS'/html/body/div/div/div/div/div/h6'
p149
F6.643856189774725
sS'/html/body/div/div/div/div/div/h3'
p150
F4.058893689053568
sS'/html/body/div/div/div/div/div/h2'
p151
F0.01449956969511517
sS'/html/body/div/div/div/div/div/h1'
p152
F5.058893689053569
sS'/html/body/div/div/div/div/div/div/div/ul/li/h3'
p153
F2.8365012677171206
sS'/html/body/div/div/div/div/div/div/table/table/tr/td/a'
p154
F6.643856189774725
sS'/html/body/div/div/div/div/div/div/ul/li/div/div/div/p/span/span'
p155
F6.643856189774725
sS'/html/body/div/div/div/div/div/div/table/tr/td/span/span'
p156
F3.0588936890535687
sS'/html/body/div/div/div/div/input'
p157
F6.643856189774725
sS'/html/body/div/div/div/div/div/ul/li/div/div/div/div/ul/li/img'
p158
F0.02914634565951651
sS'/html/body/div/div/div/div/div/ul/li/br'
p159
F6.643856189774725
sS'/html/body/div/div/div/div/div/div/div/div/div/a/div/div/div'
p160
F6.643856189774725
sS'/html/body/div/div/div/div/div/div/div/meta'
p161
F5.643856189774724
sS'/html/body/div/div/div/div/h2/span'
p162
F0.02914634565951651
sS'/html/body/div/div/div/div/div/div/div/div/ul/li/a'
p163
F0.01449956969511517
sS'/html/head/link'
p164
F0.01449956969511517
sS'/html/body/div/div/div/div/div/div/div/div/div/div/div/span'
p165
F2.1202942337177118
sS'/html/body/div/div/div/div/div/div/div/a/div/div'
p166
F3.0588936890535687
sS'/html/body/div/div/div/div/div/div/div/table/tr/td/a/span'
p167
F3.3219280948873626
sS'/html/body/div/div/div/div/div/div/div/div/div/p/a'
p168
F3.6438561897747253
sS'/html/body/div/div/div/div/div/div/div/div/div/a/img'
p169
F6.643856189774725
sS'/html/body/div/div/div/div/div/div/div/div/div/div/div/meta'
p170
F2.1844245711374275
sS'/html/body/div/div/div/div/div/div/div/form/button/span'
p171
F3.0588936890535687
sS'/html/body/div/div/div/div/div/div/div/div/div/div/a/div/div/h3'
p172
F5.643856189774724
sS'/html/body/div/style'
p173
F0.3400754415976219
sS'/html/body/div/div/div/div/form/div/p/small/br'
p174
F0.02914634565951651
sS'/html/body/div/div/div/div/a/div/div'
p175
F4.643856189774724
sS'/html/body/div/div/div/div/div/div/div/div/strong/span'
p176
F6.643856189774725
sS'/html/body/div/div/div/div/div/div/div'
p177
F1.3959286763311394
sS'/html/body/div/div/div/div/div/div/form/div/span/button'
p178
F6.643856189774725
sS'/html/body/div/div/div/div/div/div/div/div/p/br'
p179
F5.643856189774724
sS'/html/body/div/div/div/a/img'
p180
F6.643856189774725
sS'/html/body/div/div/div/div/div/div/div/div/ul'
p181
F2.8365012677171206
sS'/html/body/div/div/div/div/div/div/div/a/div/a'
p182
F6.643856189774725
sS'/html/body/div/div/div/div/div/span'
p183
F1.8889686876112561
sS'/html/body/div/div/div/div/div/div/span/span'
p184
F4.321928094887363
sS'/html/body/div/div/div/div/form/div/div/div/div/span/a/i'
p185
F0.02914634565951651
sS'/html/body/div/div/div/div/div/ol/li/a'
p186
F6.643856189774725
sS'/html/body/div/div/div/div/div/div/div/div/form/div/label/span/span'
p187
F2.8365012677171206
sS'/html/body/div/div/div/div/div/div/div/div/div/div/div/div/a/meta'
p188
F2.1844245711374275
sS'/html/body/div/div/div/div/div/div/div/div'
p189
F2.2515387669959646
sS'/html/body/div/div/div/div/div/div/div/div/ul/li/div/div/a/span'
p190
F0.02914634565951651
sS'/html/body/div/div/div/div/div/div/div/div/div/div/div/div/p/br'
p191
F6.643856189774725
sS'/html/body/div/div/div/div/div/div/div/div/div/a/div/span'
p192
F6.643856189774725
sS'/html/body/div/div/div/div/div/div/div/table/thead/tr/th/a'
p193
F4.321928094887363
sS'/html/body/div/div/div/div/div/p/span'
p194
F5.058893689053569
sS'/html/body/div/div/div/button/span'
p195
F6.643856189774725
sS'/html/body/div/div/div/div/div/div/div/ul/li/span/span'
p196
F6.643856189774725
sS'/html/body/div/div/div/div/div/div/form/div/input'
p197
F4.643856189774724
sS'/html/body/div/div/div/div/div/div/div/div/div/div/div/div'
p198
F1.7858751946471525
sS'/html/body/div/div/div/div/div/div/form/div/label'
p199
F5.058893689053569
sS'/html/body/div/div/div/div/div/div/div/div/a/div/div/p'
p200
F3.3219280948873626
sS'/html/head/style'
p201
F4.321928094887363
sS'/html/body/div/div/div/div/div/div/div/div/div/div/div/div/div/meta'
p202
F5.643856189774724
sS'/html/body/div/div/div/div/div/div/div/p/em'
p203
F5.643856189774724
sS'/html/body/div/div/div/div/div/div/a/div/div/div/img'
p204
F6.643856189774725
sS'/html/body/div/div/div/div/div/div/div/div/div/label/a'
p205
F2.8365012677171206
sS'/html/body/div/div/div/div/a'
p206
F0.01449956969511517
sS'/html/body/div/div/div/div/div/div/p/a/i'
p207
F5.058893689053569
sS'/html/body/div/div/div/div/p'
p208
F0.02914634565951651
sS'/html/body/div/div/div/div/div/div/a/div/div/div/div/div'
p209
F6.643856189774725
sS'/html/body/div/div/div/div/div/div/form/input'
p210
F4.643856189774724
sS'/html/body/div/div/script'
p211
F0.20091269392599628
sS'/html/body/div/div/div/div/div/form/div/div/input'
p212
F6.643856189774725
sS'/html/body/div/div/div/div/div/div/ul/li/span'
p213
F4.643856189774724
sS'/html/body/div/div/div/div/div/h2/span'
p214
F6.643856189774725
sS'/html/body/div/div/div/div/div/br'
p215
F0.02914634565951651
sS'/html/body/div/div/div/div/div/div/p/a'
p216
F3.8365012677171206
sS'/html/body/div/div/div/div/div/div/style'
p217
F3.8365012677171206
sS'/html/body/div/div/div/div/div/ol/li'
p218
F5.643856189774724
sS'/html/body/div/div/div/div/div/div/div/div/div/div/a'
p219
F2.1202942337177118
sS'/html/body/div/div/div/div/div/div/a/div/h5'
p220
F6.643856189774725
sS'/html/body/div/div/div/div/form/input'
p221
F0.02914634565951651
sS'/html/body/div/div/div/div/div/div/div/div/div/a/p'
p222
F6.643856189774725
sS'/html/body/div/div/div/h2'
p223
F4.643856189774724
sS'/html/body/div/div/div/h1'
p224
F5.058893689053569
sS'/html/body/div/div/div/div/div/div/div/div/table/tr/td/select/option'
p225
F6.643856189774725
sS'/html/body/div/div/div/div/div/div/form/ol/div/div/div/label/div/label'
p226
F6.643856189774725
sS'/html/body/div/div/div/div/h3/a'
p227
F2.395928676331139
sS'/html/body/div/div/div/div/div/div/div/div/span/br'
p228
F2.0588936890535687
sS'/html/body/div/div/div/div/div/div'
p229
F0.3959286763311393
sS'/html/body/div/div/div/div/div/div/div/table/tr/td/a/span/span'
p230
F6.643856189774725
sS'/html/body/div/div/div/div/div/div/a/span/span'
p231
F6.643856189774725
sS'/html/body/div/div/div/div/div/div/div/div/div/a/span/span'
p232
F5.058893689053569
sS'/html/body/div/div/div/div/div/a'
p233
F0.01449956969511517
sS'/html/body/div/div/div/div/div/div/div/button/div/div'
p234
F2.8365012677171206
sS'/html/body/div/div/div/div/div/div/a/div/div/div/div/p/em'
p235
F6.643856189774725
sS'/html/body/div/script'
p236
F0.02914634565951651
sS'/html/body/div/div/div/div/div/div/ul/li/p'
p237
F6.643856189774725
sS'/html/body/div/div/div/div/button/span'
p238
F0.01449956969511517
sS'/html/body/div/div/div/div/h2'
p239
F0.02914634565951651
sS'/html/body/div/div/div/div/h1'
p240
F2.8365012677171206
sS'/html/body/div/div/div/div/div/div/div/div/div/div/script'
p241
F5.643856189774724
sS'/html/body/div/div/div/div/div/div/ul/li/a'
p242
F1.4739311883324122
sS'/html/body/div/div/div/div/div/div/div/span/span'
p243
F6.643856189774725
sS'/html/body/div/div/div/div/div/ul/li/div/a'
p244
F3.3219280948873626
sS'/html/body/div/div/div/div/div/div/a/h3'
p245
F5.058893689053569
sS'/html/body/div/div/div/div/div/div/div/div/div/div/a/img'
p246
F5.643856189774724
sS'/html/body/div/div/div/div/div/div/ul/li/div/a'
p247
F4.643856189774724
sS'/html/body/div/div/div/div/div/div/div/div/strong/a'
p248
F5.643856189774724
sS'/html/body/div/div/div/div/div/ul/li/div/div/div/div/div/br'
p249
F0.02914634565951651
sS'/html/body/div/div/div/div/div/div/p/span'
p250
F1.9434164716336328
sS'/html/body/div/div/div/div/ul/li/a/span'
p251
F6.643856189774725
sS'/html/body/div/div/div/div/div/div/div/div/div/img'
p252
F2.1202942337177118
sS'/html/body/div/div/div/div/div/div/div/div/meta'
p253
F2.1202942337177118
sS'/html/body/div/div/div/div/form/div/div/div/button/span'
p254
F6.643856189774725
sS'/html/body/div/div/div/div/button'
p255
F4.321928094887363
sS'/html/body/div/div/div/div/div/div/div/script'
p256
F2.8365012677171206
sS'/html/body/div/div/div/div/div/div/ul/li/p/a'
p257
F6.643856189774725
sS'/html/body/div/div/div/div/div/div/div/div/div/p/em'
p258
F6.643856189774725
sS'/html/body/div/div/div/div/div/div/script'
p259
F0.23446525363702297
sS'/html/body/div/div/div/div/div/div/a/div/div/div/h3'
p260
F6.643856189774725
sS'/html/body/div/div/div/div/div/div/div/div/textarea'
p261
F3.0588936890535687
sS'/html/body/div/div/div/div/div/ul/li/h3'
p262
F2.8365012677171206
sS'/html/body/div/div/div/div/div/div/div/div/div/div/img'
p263
F6.643856189774725
sS'/html/body/div/div/div/div/a/div/h3'
p264
F5.643856189774724
sS'/html/body/div/div/div/div/div/div/div/div/div/em'
p265
F5.643856189774724
sS'/html/body/div/div/div/div/div/div/div/div/h3'
p266
F2.8365012677171206
sS'/html/body/div/div/div/div/span'
p267
F6.643856189774725
sS'/html/body/div/div/div/div/div/div/div/div/div/div/input'
p268
F2.8365012677171206
sS'/html/body/div/div/div/div/div/div/table/tr/td/ul/li/em'
p269
F4.321928094887363
sS'/html/body/div/div/div/div/div/div/div/div/img'
p270
F5.643856189774724
sS'/html/body/div/div/div/div/div/div/div/div/div/div/a/span'
p271
F3.6438561897747253
sS'/html/body/div/div/div/div/div/div/div/div/p/span/span'
p272
F6.643856189774725
sS'/html/body/div/div/div/div/div/div/div/button/span'
p273
F0.02914634565951651
sS'/html/body/div/div/div/div/div/div/dl/dt'
p274
F5.058893689053569
sS'/html/body/div/div/div/div/div/div/div/div/div/script'
p275
F3.473931188332412
sS'/html/body/div/div/div/div/div/div/dl/dd'
p276
F5.058893689053569
sS'/html/script'
p277
F3.6438561897747253
sS'/html/body/div/div/div/div/div/div/div/div/a'
p278
F1.7858751946471525
sS'/html/body/div/div/div/div/form/div/div/div/div'
p279
F0.02914634565951651
sS'/html/body/div/div/div/div/div/ul/li/div/div/div/div/h2'
p280
F0.02914634565951651
sS'/html/body/div/div/div/div/p/img'
p281
F0.02914634565951651
sS'/html/body/div/div/div/div/div/div/table/tbody/tr/td'
p282
F5.643856189774724
sS'/html/body/div/div/div/div/div/div/div/a/div'
p283
F5.058893689053569
sS'/html/body/div/div/div/div/div/div/form/ol/div/div/div/div'
p284
F6.643856189774725
sS'/html/body/div/div/div/div/div/ul/li/span/span'
p285
F4.058893689053568
sS'/html/body/div/div/div/div/div/div/div/table/tr/td/a'
p286
F2.0
sS'/html/body/div/div/div/div/img'
p287
F6.643856189774725
sS'/html/body/div/div/div/div/div/div/div/p/span/br'
p288
F5.643856189774724
sS'/html/body/div/div/div/div/div/table/tr/td/a'
p289
F6.643856189774725
sS'/html/body/div/div/div/div/a/div/div/div/div/p'
p290
F6.643856189774725
sS'/html/body/div/div/div/div/div/div/div/a/p/em'
p291
F6.643856189774725
sS'/html/body/div/div/div/h3/a'
p292
F3.8365012677171206
sS'/html/body/div/div/div/div/div/div/table/table/tr/td/span/span'
p293
F6.643856189774725
sS'/html/body/div/div/div/div/div/div/div/img'
p294
F3.6438561897747253
sS'/html/body/div/div/div/div/div/div/a/div/div/img'
p295
F0.01449956969511517
sS'/html/body/div/div/div/div/div/div/div/div/button'
p296
F2.5563933485243857
sS'/html/body/div/div/div/div/div/ul/li'
p297
F0.02914634565951651
sS'/html/body/div/div/div/div/div/div/form/label/input'
p298
F6.643856189774725
sS'/html/body/div/div/div/div/div/div/div/div/div/div/a/div/div/img'
p299
F5.643856189774724
sS'/html/body/div/div/div/div/div/div/div/table/tr/td'
p300
F1.7858751946471525
sS'/html/body/div/div/div/div/div/div/div/div/div/a/div/span/span'
p301
F6.643856189774725
sS'/html/body/div/div/div/div/div/div/div/div/span/span'
p302
F6.643856189774725
sS'/html/body/div/div/div/nav/ul/li/a'
p303
F5.643856189774724
sS'/html/body/div/div/div/div/div/div/div/div/p/span'
p304
F5.058893689053569
sS'/html/body/div/div/div/div/div/div/div/div/h3/div/a'
p305
F2.8365012677171206
sS'/html/body/div/div/div/div/div/div/p'
p306
F1.5994620704162712
sS'/html/body/div/div/div/div/div/div/div/button/div'
p307
F2.8365012677171206
sS'/html/body/div/div/div/div/div/table/tbody/tr/td'
p308
F6.643856189774725
sS'/html/body/div/div/div/div/div/div/a/br'
p309
F6.643856189774725
sS'/html/body/div/div/div/div/form/div/div/div/div/input'
p310
F0.02914634565951651
sS'/html/body/div/div/div/div/div/div/table/tr/td'
p311
F3.184424571137428
sS'/html/body/div/div/div/style'
p312
F4.643856189774724
sS'/html/body/div/div/div/div/div/div/div/div/div/a/p/em'
p313
F6.643856189774725
sS'/html/body/div/div/div/div/div/div/div/div/div/div/a/div/img'
p314
F3.0588936890535687
sS'/html/body/div/div/div/div/div/div/div/ul/li/div/div'
p315
F2.8365012677171206
sS'/html/body/div/div/div/div/div/div/div/div/button/span/span'
p316
F5.643856189774724
sS'/html/body/div/div/div/div/div/div/div/a/button/em'
p317
F0.02914634565951651
sS'/html/body/div/div/div/div/div/div/div/div/div/div/div/div/div/a'
p318
F4.321928094887363
sS'/html/body/div/div/div/div/div/div/div/table/tr/td/ul/li/em'
p319
F4.321928094887363
sS'/html/body/div/div/div/div/div/div/ul/li/div/div/div/img'
p320
F6.643856189774725
sS'/html/body/div/div/div/div/div/div/div/div/div/div/a/div/div/p'
p321
F2.8365012677171206
sS'/html/body/div/div/div/div/div/ul/li/a'
p322
F0.01449956969511517
sS'/html/body/div/div/div/div/div'
p323
F0.01449956969511517
sS'/html/body/div/div/div/div/div/div/a/p'
p324
F6.643856189774725
sS'/html/body/div/div/div/div/div/div/div/a/div/div/p'
p325
F6.643856189774725
sS'/html/body/div/div/div/div/div/div/div/div/div/span/a'
p326
F5.058893689053569
sS'/html/body/div/div/div/div/div/script'
p327
F0.32192809488736235
sS'/html/body/div/div/div/div/div/div/br'
p328
F2.5563933485243857
sS'/html/body/div/div/div/div/div/div/table/tr/td/span'
p329
F5.058893689053569
sS'/html/body/div/div/div/div/div/div/div/table/tr/td/span/span'
p330
F1.7858751946471525
sS'/html/body/div/div/div/div/div/div/div/div/p/span/a'
p331
F6.643856189774725
sS'/html/body/div/div/div/div/div/div/h1/em'
p332
F6.643856189774725
sS'/html/body/div/div/div/div/div/div/ul/li/div/a/span'
p333
F4.643856189774724
sS'/html/body/div/div/div/div/div/div/div/div/div/div/div/div/div/div'
p334
F5.643856189774724
sS'/html/body/div/div/div/div/div/div/ul/li/div/div/div/span/a'
p335
F6.643856189774725
sS'/html/body/div/div/div/div/div/form/div/span/a'
p336
F6.643856189774725
sS'/html/body/div/div/div/div/a/div/span'
p337
F4.643856189774724
sS'/html/body/div/div/div/div/div/ul/li/div/div/div/div/table/tr/td/img'
p338
F0.02914634565951651
sS'/html/body/div/div/div/div/div/p/a/strong'
p339
F6.643856189774725
sS'/html/body/div/div/div/div/div/div/p/a/span'
p340
F6.643856189774725
sS'/html/body/div/div/div/div/div/div/a'
p341
F0.01449956969511517
sS'/html/body/div/div/div/div/div/div/div/ul/div/div'
p342
F2.8365012677171206
sS'/html/body/div/div/div/div/div/div/form/label/textarea'
p343
F6.643856189774725
sS'/html/body/div/div/div/div/div/div/div/div/a/sub'
p344
F5.058893689053569
sS'/html/body/div/div/div/div/div/div/div/a/div/div/div/span'
p345
F3.0588936890535687
sS'/html/body/div/div/div/div/div/div/div/div/div/div/div/div/div/div/span'
p346
F5.643856189774724
sS'/html/body/div/div/div/div/a/div/div/div/div/span'
p347
F6.643856189774725
sS'/html/body/div/div/div/div/div/div/div/a/img'
p348
F0.02914634565951651
sS'/html/body/div/div/div/div/div/span/a'
p349
F5.058893689053569
sS'/html/body/div/div/div/div/div/div/h1'
p350
F2.1844245711374275
sS'/html/body/div/div/div/div/div/div/div/div/div/div/a/div/div/p/em'
p351
F3.0588936890535687
sS'/html/body/div/div/div/div/div/a/img'
p352
F3.6438561897747253
sS'/html/body/div/div/div/div/div/div/form/ol/div/div/div/br'
p353
F6.643856189774725
sS'/html/body/div/div/div/div/div/div/div/div/a/div/div/div'
p354
F3.3219280948873626
sS'/html/body/div/div/div/div/div/input'
p355
F5.058893689053569
sS'/html/body/div/div/div/div/div/div/div/div/div/a/div/div/p'
p356
F6.643856189774725
sS'/html/body/div/div/div/div/a/div'
p357
F4.058893689053568
sS'/html/body/div/div/div/div/div/img'
p358
F2.2515387669959646
sS'/html/body/div/div/div/div/div/div/div/a/div/div/p/em'
p359
F6.643856189774725
sS'/html/body/div/div/div/div/div/div/div/div/div/a/div/h3'
p360
F6.643856189774725
sS'/html/body/div/div/div/div/div/div/a/button/em'
p361
F6.643856189774725
sS'/html/body/div/div/div/div/div/div/form/label/br'
p362
F6.643856189774725
sS'/html/body/div/div/div/div/div/ul/li/span'
p363
F4.643856189774724
sS'/html/body/div/div/div/div/div/div/div/table/tr/td/time'
p364
F4.643856189774724
sS'/html/body/div/div/div/div/div/div/a/div/div/div/div/span'
p365
F6.643856189774725
sS'/html/body/div/div/h1'
p366
F6.643856189774725
sS'/html/body/div/div/div/div/div/ul/li/div/div/div/h2'
p367
F0.02914634565951651
sS'/html/body/div/div/div/div/div/div/div/div/div/div/div/a'
p368
F1.8889686876112561
sS'/html/body/div/div/div/div/div/div/div/ol/li/span'
p369
F5.643856189774724
sS'/html/body/div/div/div/div/div/div/div/div/ul/li/div'
p370
F5.643856189774724
sS'/html/body/div/div/div/div/div/div/table/tbody/tr/td/p/a'
p371
F6.643856189774725
sS'/html/body/div/div/div/div/div/div/div/div/div/div/div/div/img'
p372
F5.643856189774724
sS'/html/body/div/div/div/div/div/div/div/div/p'
p373
F0.02914634565951651
sS'/html/body/div/div/div/div/div/ul/li/a/span'
p374
F0.02914634565951651
sS'/html/body/div/div/div/div/p/a/i'
p375
F0.02914634565951651
sS'/html/body/div/div/div/div/div/ol/li/p/a'
p376
F6.643856189774725
sS'/html/body/div/div/div/div/div/div/div/h2'
p377
F4.321928094887363
sS'/html/body/div/div/div/div/div/div/div/div/table/thead/tr/th'
p378
F6.643856189774725
sS'/html/body/div/div/div/div/h3/a/meta'
p379
F3.6438561897747253
sS'/html/body/div/div/div'
p380
F2.8365012677171206
sS'/html/body/div/div/div/div/div/div/div/div/a/span/span'
p381
F5.058893689053569
sS'/html/body/div/div/div/span'
p382
F0.02914634565951651
sS'/html/body/div/div/div/div/div/div/div/div/div/div/span/meta'
p383
F5.643856189774724
sS'/html/body/div/div/div/div/div/div/ul/li/div/div/dl/dd/a'
p384
F6.643856189774725
sS'/html/body/div/div/div/div/div/div/div/a/h5'
p385
F6.643856189774725
sS'/html/body/div/div/div/div/div/div/div/table/tr/td/span'
p386
F2.1202942337177118
sS'/html/body/div/div/div/div/div/div/table/thead/tr/th'
p387
F4.643856189774724
sS'/html/body/div/div/div/div/div/div/table/tr/td/div'
p388
F3.473931188332412
sS'/html/body/div/div/div/div/a/h3'
p389
F5.058893689053569
sS'/html/body/div/div/div/div/div/div/div/div/p/strong'
p390
F5.643856189774724
sS'/html/body/div/div/div/div/div/div/div/div/ul/li/span'
p391
F6.643856189774725
sS'/html/body/div/div/div/div/div/div/div/div/div/div/div/div/div/div/meta'
p392
F5.643856189774724
sS'/html/body/div/div/div/div/form/div/div/select/option'
p393
F0.02914634565951651
sS'/html/body/div/div/div/div/div/div/div/div/h2/a'
p394
F5.643856189774724
sS'/html/body/div/div/div/div/div/div/div/table/tr/td/ul/li/span'
p395
F4.643856189774724
sS'/html/body/div/div/div/div/div/ol/li/p/strong'
p396
F6.643856189774725
sS'/html/body/div/div/div/div/div/div/div/div/div/a/p/span'
p397
F3.0588936890535687
sS'/html/body/div/div/div/div/div/button/span'
p398
F0.02914634565951651
sS'/html/body/div/div/div/div/div/div/div/div/div/div/div/em'
p399
F4.321928094887363
sS'/html/body/div/div/div/div/div/div/div/div/div/ul/li/a'
p400
F6.643856189774725
sS'/html/body/div/div/div/div/div/div/table/tbody/tr/td/p/a/span'
p401
F6.643856189774725
sS'/html/body/div'
p402
F0.02914634565951651
sS'/html/body/div/div/div/meta'
p403
F5.643856189774724
sS'/html/body/div/div/div/div/div/div/div/ul/h3'
p404
F2.8365012677171206
sS'/html/body/div/div/div/div/div/div/div/div/div/div/meta'
p405
F2.0588936890535687
sS'/html/body/div/div/div/div/div/form/div/span'
p406
F6.643856189774725
sS'/html/body/div/div/div/div/div/div/div/div/div/div/a/div/div/div/span'
p407
F5.643856189774724
sS'/html/body/div/div/div/div/div/div/form/select/option'
p408
F6.643856189774725
sS'/html/body/div/div/div/div/div/button'
p409
F2.8365012677171206
sS'/html/body/div/div/div/div/div/div/a/div/span'
p410
F5.643856189774724
sS'/html/body/div/div/div/div/div/div/div/div/div/div/div/div/div'
p411
F4.321928094887363
sS'/html/body/div/div/div/div/div/div/button/span'
p412
F2.736965594166206
sS'/html/body/div/div/div/div/form/div/div/label/span/br'
p413
F0.02914634565951651
sS'/html/body/div/div/div/div/div/ul/li/p/a'
p414
F3.8365012677171206
sS'/html/body/div/div/div/div/div/ul/li/div/div/span'
p415
F6.643856189774725
sS'/html/body/div/div/div/div/div/div/div/div/div/p/span'
p416
F5.058893689053569
sS'/html/body/div/div/div/div/div/div/div/div/div/a/div'
p417
F6.643856189774725
sS'/html/body/div/div/div/div/div/meta'
p418
F3.184424571137428
sS'/html/body/div/div/div/div/div/div/form/div/button/span'
p419
F6.643856189774725
sS'/html/body/div/div/div/div/div/div/div/div/div/a/div/div/p/em'
p420
F6.643856189774725
sS'/html/body/div/div/div/div/div/div/div/div/a/button/span'
p421
F6.643856189774725
sS'/html/body/div/div/div/div/div/div/a/img'
p422
F1.6438561897747248
sS'/html/body/div/div/div/div/div/div/div/div/a/h5'
p423
F5.058893689053569
sS'/html/body/noscript/iframe'
p424
F6.643856189774725
sS'/html/body/div/div/div/div/div/div/a/div/div/span'
p425
F0.01449956969511517
sS'/html/body/div/div/div/div/form/div/div/input'
p426
F0.01449956969511517
sS'/html/body/div/div/div/div/div/a/h3'
p427
F2.395928676331139
sS'/html/body/div/div/div/div/div/ul/li/div/div/div/div/div/a/span'
p428
F0.02914634565951651
sS'/html/body/div/div/div/div/div/div/ul/li/div/a/img'
p429
F4.321928094887363
sS'/html/body/div/div/div/div/div/div/div/a/div/meta'
p430
F2.8365012677171206
sS'/html/body/div/div/div/div/div/div/div/div/div/div/a/div/span'
p431
F5.643856189774724
sS'/html/body/div/div/div/div/div/table/tr/td/span/span'
p432
F6.643856189774725
sS'/html/head/title'
p433
F0.02914634565951651
sS'/html/body/div/div/div/div/form/div/div/small/a'
p434
F0.02914634565951651
sS'/html/body/div/div/div/div/div/table/tr/td/a/span'
p435
F5.643856189774724
sS'/html/body/div/div/div/div/div/div/div/a/div/h3'
p436
F5.643856189774724
sS'/html/body/div/div/div/div/form/div/input'
p437
F0.02914634565951651
sS'/html/body/div/div/div/div/ul/li/a'
p438
F0.01449956969511517
sS'/html/body/div/div/div/div/ul/li'
p439
F0.01449956969511517
sS'/html/body/div/div/div/div/form/div/label'
p440
F0.02914634565951651
sS'/html/body/div/div/div/div/span/a/em'
p441
F6.643856189774725
sS'/html/body/div/div/div/div/div/div/table/tr/td/ul/li/span'
p442
F4.321928094887363
sS'/html/body/div/div/div/div/div/div/h2'
p443
F2.1844245711374275
sS'/html/body/div/div/div/div/form/div/div/label/span/a/i'
p444
F0.02914634565951651
sS'/html/body/div/div/div/div/div/ul/li/a/br'
p445
F2.1202942337177118
sS'/html/body/div/div/div/div/div/div/div/div/a/span'
p446
F0.02914634565951651
sS'/html/body/div/div/div/div/h2/a/em'
p447
F3.6438561897747253
sS'/html/body/div/div/div/div/div/ul/li/div/div/div/div'
p448
F0.02914634565951651
sS'/html/body/div/div/div/div/div/div/div/div/a/div/img'
p449
F3.0588936890535687
sS'/html/body/div/div/div/div/div/div/ul/li/div/div/p/em'
p450
F6.643856189774725
sS'/html/body/div/div/div/div/div/div/div/div/a/div/div/span'
p451
F3.0588936890535687
sS'/html/body/div/div/div/div/div/div/form/div/div/input'
p452
F0.02914634565951651
sS'/html/body/div/div/div/div/script'
p453
F0.01449956969511517
sS'/html/body/div/div/div/div/div/div/a/span'
p454
F0.02914634565951651
sS'/html/body/div/div/div/div/div/div/div/div/div/a/div/img'
p455
F5.058893689053569
sS'/html/body/div/div/div/div/div/ul'
p456
F6.643856189774725
sS'/html/body/div/div/div/div/div/div/div/div/div/div/div/div/a/span'
p457
F2.1844245711374275
sS'/html/body/div/div/div/div/div/div/div/div/div/a/sub'
p458
F6.643856189774725
sS'/html/body/div/div/div/div/div/div/div/div/div/a/div/div'
p459
F6.643856189774725
sS'/html/body/div/div/div/div/div/div/div/div/div/div/p/span'
p460
F2.1844245711374275
sS'/html/body/div/div/div/div/div/div/div/h4'
p461
F2.736965594166206
sS'/html/body/div/div/div/div/div/div/div/h3'
p462
F0.02914634565951651
sS'/html/body/div/div/div/ul/li'
p463
F6.643856189774725
sS'/html/body/div/div/div/div/div/div/form/ol/div/div/div/input'
p464
F6.643856189774725
sS'/html/head/title/link'
p465
F6.643856189774725
sS'/html/body/div/div/div/div/div/div/form/button/span'
p466
F3.184424571137428
sS'/html/body/script'
p467
F0.0
sS'/html/body/div/div/div/div/div/div/div/div/div/div'
p468
F1.3959286763311394
sS'/html/body/div/div/div/div/div/form/div/span/select/option'
p469
F6.643856189774725
sS'/html/body/div/div/div/div/div/div/div/style'
p470
F1.7858751946471525
sS'/html/body/div/div/div/div/div/div/div/div/div/div/div/br'
p471
F4.321928094887363
sS'/html/body/div/div/div/div/div/div/ul/ul/li/p'
p472
F6.643856189774725
sS'/html/body/div/div/div/div/div/form/div/div/div/button/em'
p473
F6.643856189774725
sS'/html/body/div/div/div/div/div/div/form/div/div/div/button/span'
p474
F0.02914634565951651
sS'/html/body/div/div/div/div/div/div/ul/br'
p475
F6.643856189774725
sS'/html/body/div/div/div/div/div/div/form/br'
p476
F6.643856189774725
sS'/html/body/div/div/div/div/div/div/form/ol/div/table/tbody/tr/td/input'
p477
F6.643856189774725
sS'/html/body/div/div/div/div/div/div/a/p/em'
p478
F1.7369655941662063
sS'/html/body/div/div/div/div/div/div/div/ul/li/span'
p479
F4.643856189774724
sS'/html/body/div/div/div/div/div/div/hr'
p480
F6.643856189774725
sS'/html/body/div/div/div/div/div/div/table/br'
p481
F6.643856189774725
sS'/html/body/div/div/div/div/div/div/div/div/div/div/div/div/a/span/span'
p482
F2.1844245711374275
sS'/html/body/div/div/div/h1/span'
p483
F4.058893689053568
sS'/html/body/div/div/div/div/div/div/ul/li/div/div'
p484
F4.643856189774724
sS'/html/body/div/div/div/div/div/ul/li/div/div/div/div/ul/li/a'
p485
F0.02914634565951651
sS'/html/body/div/div/div/div/h4'
p486
F0.02914634565951651
sS'/html/body/div/div/div/div/div/div/div/a/div/div/div'
p487
F3.3219280948873626
sS'/html/body/div/div/div/div/div/div/div/div/div/div/div'
p488
F3.3219280948873626
sS'/html/body/div/div/div/div/form/div/div'
p489
F0.02914634565951651
sS'/html/body/div/div/div/div/div/div/form/ol/div/div/div/ul/li/label/span/input'
p490
F6.643856189774725
sS'/html/body/div/div/div/div/div/p'
p491
F0.01449956969511517
sS'/html/body/div/div/div/div/div/div/div/p/span'
p492
F4.058893689053568
sS'/html/body/div/div/div/div/div/div/div/div/div'
p493
F1.8889686876112561
sS'/html/body/div/div/div/div/div/h3/span'
p494
F3.0588936890535687
sS'/html/body/div/div/div/div/div/div/ul/li/a/div'
p495
F6.643856189774725
sS'/html/body/div/div/div/div/div/div/h3'
p496
F5.058893689053569
sS'/html/body/div/div/div/div/div/div/div/table/thead/tr/th/span'
p497
F4.321928094887363
sS'/html/body/div/div/div/div/div/div/div/div/h3/span'
p498
F0.02914634565951651
sS'/html/body/div/div/div/div/div/div/div/a/p'
p499
F6.643856189774725
sS'/html/body/div/div/div/div/div/div/div/div/ul/li/a/img'
p500
F0.02914634565951651
sS'/html/body/div/div/div/div/div/div/div/div/div/div/div/div/div/span'
p501
F2.1844245711374275
sS'/html/body/div/div/div/div/div/div/div/div/div/meta'
p502
F3.6438561897747253
sS'/html/body/div/div/div/div/a/div/div/div/img'
p503
F6.643856189774725
sS'/html/body/div/div/div/div/div/table/tr/td/a/meta'
p504
F5.643856189774724
sS'/html/body/div/div/div/script'
p505
F0.32192809488736235
sS'/html/body/div/div/div/div/div/div/div/p/a'
p506
F5.058893689053569
sS'/html/body/div/div/div/div/div/span/button'
p507
F5.058893689053569
sS'/html/body/div/div/div/div/div/div/div/a/br'
p508
F6.643856189774725
sS'/html/body/div/div/div/div/div/a/div/span'
p509
F2.8365012677171206
sS'/html/body/div/div/div/div/div/div/div/div/script'
p510
F0.3400754415976219
s.