(dp0
S'/html/body/div/div/div/div/div/table/tr/td/div/table/tr/td/div/div/div/span'
p1
F1.9105018491608974
sS'/html/body/div/div/div/div/div/div/div/div/div/a'
p2
F0.4619585466663363
sS'/html/body/div/div/div/div/table/tr/td/div/div/div/div/h3/code/span'
p3
F9.965784284662087
sS'/html/body/div/div/div/noscript/div/img'
p4
F1.8836352433082157
sS'/html/body/div/div/div/div/ul/li/ul/li/a'
p5
F6.265344566520995
sS'/html/body/div/div/div/div/div/p/i'
p6
F5.643856189774724
sS'/html/body/div/div/div/div/ul/li/ul/li/a/strong'
p7
F6.965784284662088
sS'/html/body/div/div/div/div/div/div/p/br'
p8
F6.265344566520995
sS'/html/body/div/div/div/div/div/div/table/tr/td/table/tr/td/div/br'
p9
F7.158429362604482
sS'/html/body/div/div/div/table/tr/td/div/table/tr/td/div/table/tbody/tr/td'
p10
F8.965784284662087
sS'/html/body/div/div/div/div/div/p/a'
p11
F4.293358942690592
sS'/html/body/div/div/div/div/div/p/b'
p12
F4.442222328605075
sS'/html/body/div/div/div/div/div/div/table/tr/td/div/h1'
p13
F7.380821783940932
sS'/html/body/div/div/div/div/div/div/table/tr/td/div/h2'
p14
F6.265344566520995
sS'/html/body/div/div/div/div/div/div/table/tr/td/div/h3'
p15
F8.380821783940931
sS'/html/body/div/div/div/div/form/div/div/noscript/p/a'
p16
F5.158429362604483
sS'/html/body/div/div/div/div/form/p/label/span'
p17
F9.965784284662087
sS'/html/body/div/div/div/div/table/tr/td/div/div/span'
p18
F5.965784284662088
sS'/html/body/div/div/div/div/div/div/div/div/div/div/ul/li/span'
p19
F2.4422223286050744
sS'/html/body/div/div/div/div/div/form/input'
p20
F2.231074664436249
sS'/html/body/div/div/div/div/div/div/table/tr/td/div/h1/strong'
p21
F8.965784284662087
sS'/html/body/feed/entry/summary'
p22
F7.158429362604482
sS'/html/body/div/div/div/div/div/div/div/div/div/div/div/div/span/span'
p23
F9.965784284662087
sS'/html/body/div/div/div/div/div/table/tr/td/div/div/p/strong'
p24
F5.265344566520995
sS'/html/body/div/div/div/a'
p25
F0.010134377133713133
sS'/html/body/div/div/div/div/div/div/table/tbody/tr/td/a'
p26
F6.158429362604484
sS'/html/body/div/div/div/div/div/table/tr/td/div/div/p/img'
p27
F7.158429362604482
sS'/html/body/div/div/div/div/div/div/div/div/div/span'
p28
F0.8339273240532943
sS'/html/body/div/div/div/div/div/div/div/div/h2/span/a/b'
p29
F9.965784284662087
sS'/html/body/div/div/div/div/table/tr/td/div/div/div/div/p'
p30
F8.380821783940931
sS'/html/body/div/div/div/div/div/div/table/tr/td/div/ol/li/p/em'
p31
F9.965784284662087
sS'/html/body/div/div/div/p'
p32
F9.965784284662087
sS'/html/body/div/div/div/div/div/div/span'
p33
F3.9434164716336326
sS'/html/body/div/div/div/div/form/div/div/div/div/div/input'
p34
F5.878321443411747
sS'/html/body/div/div/div/div/div/table/tr/td/div/div'
p35
F5.321928094887363
sS'/html/body/div/div/div/div/div/ul/li/a/b'
p36
F9.965784284662087
sS'/html/head/meta'
p37
F0.010134377133713133
sS'/html/body/div/div/div/div/div/div/table/tr/td/div/p/a/strong'
p38
F9.965784284662087
sS'/html/body/div/div/div/div/form/p/span'
p39
F9.965784284662087
sS'/html/body/div/div/div/table/tr/td/div/div/p'
p40
F8.965784284662087
sS'/html/body/div/div/div/div/p/em'
p41
F8.965784284662087
sS'/html/body/div/div/div/div/div/div/div/div/div/p'
p42
F2.547931769776189
sS'/html/body/div/div/div/div/table/tr/td/h1'
p43
F5.321928094887363
sS'/html/body/div/div/div/div/ul/li/p/em'
p44
F8.965784284662087
sS'/html/body/div/div/div/form/table/tr/td/input'
p45
F5.058893689053569
sS'/html/body/div/div/div/table/tr/td/div/div/a'
p46
F9.965784284662087
sS'/html/body/div/div/div/div/div/table/tr/td/div/div/blockquote/p/em'
p47
F9.965784284662087
sS'/html/body/div/div/div/div/div/div/div/ul/li/a/span'
p48
F2.434402824145775
sS'/html/body/div/div/div/table/tr/td/div/div/p/strong'
p49
F8.965784284662087
sS'/html/body/div/div/div/div/div/div/div/form/input'
p50
F8.380821783940931
sS'/html/body/div/div/div/div/div/div/table/tr/td/div/ul/li/ul/li/code'
p51
F8.380821783940931
sS'/html/body/div/div/div/div/p/a'
p52
F4.380821783940931
sS'/html/body/div/div/div/div/table/tr/td/div/div/div/p/a'
p53
F8.965784284662087
sS'/html/body/div/div/div/div/p/b'
p54
F7.380821783940932
sS'/html/body/div/div/div/div/h1/span'
p55
F7.965784284662087
sS'/html/body/div/div/div/div/p/i'
p56
F7.380821783940932
sS'/html/body/div/div/div/div/form/label'
p57
F6.50635266602479
sS'/html/body/div/div/div/div/div/div/div/div/div/div/div/div/span'
p58
F2.49817873457909
sS'/html/body/div/div/div/div/div/div/div/div/a/div/img'
p59
F5.058893689053569
sS'/html/body/div/div/div/div/div/table/tr/td/div/div/ol/li/code'
p60
F8.380821783940931
sS'/html/head/script'
p61
F0.010134377133713133
sS'/html/body/div/div/div/div/div/form/div/input'
p62
F2.231074664436249
sS'/html/body/div/div/div/div/div/div/table/tr/td/div/ul/li/a'
p63
F6.50635266602479
sS'/html/body/div/div/div/div/table/tr/td/div/div/div/div/ul/li/code/span'
p64
F9.965784284662087
sS'/html/body/div/div/div/div/b/a'
p65
F0.010134377133713133
sS'/html/body/div/div/div/div/h2/br'
p66
F8.965784284662087
sS'/html/body/div/div/div/div/div/table/tbody/tr/td/a'
p67
F8.965784284662087
sS'/html/body/div/div/br'
p68
F0.010134377133713133
sS'/html/body/div/div/div/div/div/div/div/div/div/pre/code'
p69
F9.965784284662087
sS'/html/body/feed/subtitle'
p70
F7.158429362604482
sS'/html/body/div/div/div/div/div/div/table/tr/td/div/ul/li/ol/li'
p71
F8.380821783940931
sS'/html/body/div/div/div/div/table/tr/td/div/div/div/p/strong'
p72
F9.965784284662087
sS'/html/body/div/div/div/div/div/p/br'
p73
F5.717856771218502
sS'/html/body/div/div/div/div/div/div/table/tr/td/div/ul/li/p'
p74
F6.058893689053569
sS'/html/body/div/div/div/div/div/table/tr/td/div/table/tbody/tr/td/div/span/code'
p75
F4.9213901653036345
sS'/html/body/div/div/div/form/div/input'
p76
F5.878321443411747
sS'/html/body/div/div/div/div/div/table/tr/td/div/table/tbody/tr/td/div/a/span'
p77
F4.9213901653036345
sS'/html/body/div/div/div/table/tr/td/div/table/tr/td/div/div/a/div/img'
p78
F8.965784284662087
sS'/html/body/div/div/div/table/tr/td/div/div/ul/li/a'
p79
F9.965784284662087
sS'/html/body/div/div/div/div/div/table/tr/td/div/div/pre'
p80
F9.965784284662087
sS'/html/body/div/div/div/form/div/div/div/div/div'
p81
F9.965784284662087
sS'/html/body/div/div/div/div/div/div/table/tr/td/div/ol/li/ul/li'
p82
F8.965784284662087
sS'/html/body/div/div/div/table/tr/td/a'
p83
F9.965784284662087
sS'/html/body/div/div/div/div/div/table/tr/td/div/div/b'
p84
F1.8836352433082157
sS'/html/body/div/div/div/div/div/div/table/tr/td/div/ol/li/blockquote/p/br'
p85
F9.965784284662087
sS'/html/body/div/div/div/div/div/div/div/p/em/a'
p86
F9.965784284662087
sS'/html/body/div/div/div/div/table/tr/td/div/div/div/div/p/code'
p87
F9.965784284662087
sS'/html/body/div/div/div/table/tr/td/div/table/tr/td/div/table/tbody/tr/td/table/tbody/tr/td'
p88
F8.965784284662087
sS'/html/body/div/div/div/div/div/table/tr/td/div/div/p/em'
p89
F5.795859283219775
sS'/html/body/div/div/div/div/div/table/tr/td/div/div/ul/li/p/code'
p90
F9.965784284662087
sS'/html/body/div/div/div/div/div/table/tr/td/div/table/tbody/tr/td/div/span/i/a'
p91
F8.965784284662087
sS'/html/body/div/div/div/div/div/div/table/tr/td/div/blockquote/ol/li/em'
p92
F9.965784284662087
sS'/html/body/div/div/div/div/div/div/div/div/div/div/i'
p93
F5.643856189774724
sS'/html/body/div/div/div/table/tr/td/div/table/tr/td/div/table/tbody/tr/td/div/a/span'
p94
F8.965784284662087
sS'/html/body/div/div/div/div/div/div/div/br'
p95
F4.158429362604483
sS'/html/body/div/div/div/div/div/div/table/tr/td/div/h3/strong'
p96
F9.965784284662087
sS'/html/body/div/div/div/div/div/div/h3/span'
p97
F6.158429362604484
sS'/html/body/div/div/div/div/table/tr/td/span'
p98
F7.643856189774724
sS'/html/body/div/div/div/div/div/div/div/div/div/div/p'
p99
F9.965784284662087
sS'/html/body/div/div/div/div/div/ul/li/ul/li/a'
p100
F8.965784284662087
sS'/html/body/div/div/div/div/div/table/tr/td/div/div/p/br'
p101
F6.643856189774725
sS'/html/body/div/div/div/table/tr/td/div/div/p/strong/em'
p102
F9.965784284662087
sS'/html/body/div/div/div/div/div/div/div/div/div/h1'
p103
F9.965784284662087
sS'/html/body/div/div/div/div/div/div/table/tr/td/div/table/tbody/tr/td/div/span'
p104
F3.5063526660247897
sS'/html/body/div/div/div/div/div/table/tr/td/div/table/tr/td/div/div/div'
p105
F4.237863830098888
sS'/html/body/div/div/div/div/div/div/table/tr/td/div/blockquote/p/strong/em'
p106
F9.965784284662087
sS'/html/body/div/div/div/div/form/p/select/option'
p107
F9.965784284662087
sS'/html/body/div/div/div/form/div/div/div/div/div/script'
p108
F9.965784284662087
sS'/html/body/div/div/div/div/table/tr/td/select/option'
p109
F7.380821783940932
sS'/html/body/feed/entry/link'
p110
F7.158429362604482
sS'/html/body/div/div/div/div/a/div/div/i'
p111
F9.965784284662087
sS'/html/body/div/div/div/div/div/div/div/div/div/span/strong'
p112
F1.8008773579863993
sS'/html/body/div/div/div/div/br'
p113
F3.6438561897747253
sS'/html/body/div/div/div/div/h3/em'
p114
F9.965784284662087
sS'/html/body/div/div/div/div/ul/li/sup'
p115
F9.965784284662087
sS'/html/body/div/div/div/div/div/table/tr/td/div/h2/a'
p116
F4.411195432984449
sS'/html/body/div/div/div/div/div/div/div/a/span'
p117
F4.265344566520995
sS'/html/body/div/div/div/div/div/div/div/h3/span'
p118
F2.4422223286050744
sS'/html/body/feed/entry/category'
p119
F7.158429362604482
sS'/html/body/div/div/div/div/table/tr/td/span/span'
p120
F7.643856189774724
sS'/html/body/div/div/div/div/table/tr/td/div/div/a/div/img'
p121
F5.965784284662088
sS'/html/body/feed/entry/updated'
p122
F7.158429362604482
sS'/html/body/div/div/div/div/div/div/table/tr/td/div/blockquote/p/br'
p123
F8.965784284662087
sS'/html/body/div/div/div/div/div/div/table/tr/td/div/p/strong/em'
p124
F8.380821783940931
sS'/html/body/div/div/div/div/div/p/a/img'
p125
F9.965784284662087
sS'/html/body/div/div/div/div/div/form/div/a'
p126
F2.231074664436249
sS'/html/body/div/div/div/div/table/tr/td/div/div/div/hr'
p127
F8.965784284662087
sS'/html/body/div/div/div/div/div/table/tr/td/div/div/ul/li/a'
p128
F8.380821783940931
sS'/html/body/div/div/div/div/table/tr/td/div/div/div/div/div'
p129
F9.965784284662087
sS'/html/body/div/div/div/div/div/form/div/div/div/div/div/table/tr/td/div/input'
p130
F2.231074664436249
sS'/html/body/div/div/div/div/div/div/table/tr/td/div/a'
p131
F2.6896598793878495
sS'/html/body/div/div/div/div/p/code'
p132
F8.965784284662087
sS'/html/body/div/div/div/div/div/table/tr/td/div/div/div/ul/li/a'
p133
F6.265344566520995
sS'/html/body/div/div/div/div/div/div/div/div/div/div/span/span'
p134
F1.8468432119385796
sS'/html/body/div/div/div/div/div/div/table/tr/td/div/p'
p135
F2.8262329322632938
sS'/html/body/div/div/div/div/div/table/tr/td/div/div/div/ul/li/span'
p136
F6.265344566520995
sS'/html/body/div/div/div/div/form/div/div/div/div/a'
p137
F5.878321443411747
sS'/html/body/div/div/div/div/table/tr/td/div/div/div/div/ul/li/span'
p138
F9.965784284662087
sS'/html/body/div/div/div/div/div/div/div/div/div/p/br'
p139
F7.380821783940932
sS'/html/body/div/div/div/div/div/div/table/tr/td/div/ul/li/ul/li/a'
p140
F9.965784284662087
sS'/html/body/div/div/div/div/div/div/table/tr/td/div/pre'
p141
F9.965784284662087
sS'/html/body/div/div/div/div/span'
p142
F1.8730271437422346
sS'/html/body/div/div/div/div/table/tr/td/label'
p143
F7.380821783940932
sS'/html/body/div/div/div/div/div/p/img'
p144
F9.965784284662087
sS'/html/body/div/div/div/div/div/a/span'
p145
F0.965784284662087
sS'/html/body/div/div/div/div/form/div/div/div/div/p'
p146
F6.50635266602479
sS'/html/body/div/div/div/div/div/div/table/tr/td/div/ul/li/sup/sup'
p147
F8.380821783940931
sS'/html/body/div/div/div/div/div/div/img'
p148
F8.380821783940931
sS'/html/body/div/div/div/div/table/tr/td/div/div/div/span/span'
p149
F7.380821783940932
sS'/html/body/div/div/div/div/div/div/table/tr/td/div/ol/li/code'
p150
F8.965784284662087
sS'/html/body/div/div/div/div/table/tr/td/ol/li/a'
p151
F0.010134377133713133
sS'/html/body/div/div/div/div/div/div/table/tbody/tr/td/span'
p152
F6.158429362604484
sS'/html/body/div/div/div/div/div/div/div/a/div/svg'
p153
F5.717856771218502
sS'/html/body/div/div/div/div/div/div/div/div/div/blockquote/ul/li/p'
p154
F9.965784284662087
sS'/html/body/div/div/div/div/table/tr/td/div/span'
p155
F7.965784284662087
sS'/html/body/div/div/div/div/form/div/div/div/a'
p156
F6.50635266602479
sS'/html/body/div/div/div/div/div/div/div/table/tbody/tr/td/a/span'
p157
F9.965784284662087
sS'/html/body/div/div/div/div/div/table/tr/td/div/table/tr/td/div/div/a'
p158
F1.8889686876112561
sS'/html/body/div/div/div/div/div/div/table/tr/td/div/table/tbody/tr/td/div/a'
p159
F3.4111954329844494
sS'/html/body/div/div/div/div/div/div/a/div/img'
p160
F4.351074440546879
sS'/html/body/div/div/div/table/tr/td/div/table/tr/td'
p161
F8.965784284662087
sS'/html/body/div/div/div/div/div/div/div/p'
p162
F3.3510744405468786
sS'/html/body/div/div/div/form/div/div/noscript/h3'
p163
F9.965784284662087
sS'/html/body/div/div/div/table/thead/tr/th'
p164
F9.965784284662087
sS'/html/body/div/div/div/form/div/div/div/p/a'
p165
F8.380821783940931
sS'/html/body/div/div/div/div/div/ul/li/kbd'
p166
F9.965784284662087
sS'/html/body/div/div/div/div/div/div/div/a'
p167
F0.7710274302398393
sS'/html/body/div/div/div/div/div/table/tr/td/div/div/blockquote/p/br'
p168
F8.965784284662087
sS'/html/body/div/div/div/form/div/div'
p169
F5.878321443411747
sS'/html/body/div/div/div/div/div/table/tr/td/div/div/p/sub'
p170
F8.965784284662087
sS'/html/body/div/div/div/div/div/div/table/tr/td/div/strong'
p171
F9.965784284662087
sS'/html/body/div/div/div/div/div/table/tr/td/div/table/tbody/tr/td/div/span/span'
p172
F2.4188898247744506
sS'/html/body/div/div/div/div/div/div/div/div/div/p/img'
p173
F9.965784284662087
sS'/html/body/div/div/div/div/div/div/div/h3/span/span/i'
p174
F6.158429362604484
sS'/html/body/div/div/div/div/div/div/div/div/div/span/span'
p175
F2.2378638300988882
sS'/html/body/div/div/div/form/div/div/div/div/label'
p176
F9.965784284662087
sS'/html/body/div/div/div/div/form/div/a'
p177
F5.878321443411747
sS'/html/body/div/div/div/div/div/table/tr/td/div/div/p/sup'
p178
F7.643856189774724
sS'/html/body/div/div/div/div/table/tr/td/div'
p179
F4.965784284662088
sS'/html/body/div/div/div/link'
p180
F1.8836352433082157
sS'/html/body/div/div/div/div/div/div/table/tr/td/div/blockquote/ul/li/code'
p181
F9.965784284662087
sS'/html/body/div/div/div/div/div/div/ul/li'
p182
F8.965784284662087
sS'/html/body/div/div/div/div/ul/li/p/strong'
p183
F9.965784284662087
sS'/html/body/div/div/div/div/table/tr/td/div/div/div/div/div/div'
p184
F9.965784284662087
sS'/html/body/div/div/div/div/div/div/table/tr/td/div/ul/li/p/code'
p185
F6.795859283219775
sS'/html/body/div/div/div/div/div/div/div'
p186
F1.3695945285176767
sS'/html/body/div/div/div/div/div/div/div/div/br'
p187
F6.50635266602479
sS'/html/body/div/div/div/div'
p188
F1.5907448533151625
sS'/html/body/div/div/div/div/form/div/br'
p189
F5.878321443411747
sS'/html/body/div/div/div/div/div/div/h3/a'
p190
F1.9434164716336328
sS'/html/body/div/div/div/div/div/div/table/tr/td/div/blockquote/ul/li/br'
p191
F9.965784284662087
sS'/html/body/div/div/div/div/div/div/h2/b'
p192
F6.265344566520995
sS'/html/body/div/div/div/div/div/div/table/tr/td/table/tr/td/div/div/a/br'
p193
F7.380821783940932
sS'/html/body/div/div/div/div/div/ul/li/div/a'
p194
F0.010134377133713133
sS'/html/body/div/div/div/div/div/ul/li/div'
p195
F1.8836352433082157
sS'/html/body/div/div/div/form/div/div/script'
p196
F9.965784284662087
sS'/html/body/div/div/div/div/div/div/div/div/div/blockquote/p/em'
p197
F9.965784284662087
sS'/html/body/div/div/div/form/div/div/input'
p198
F5.878321443411747
sS'/html/body/div/div/div/div/div/ul/li/b/a'
p199
F9.965784284662087
sS'/html/body/div/div/div/div/div/div/script'
p200
F9.965784284662087
sS'/html/body/div/div/div/form/div/div/div/table/tr/td/label'
p201
F6.50635266602479
sS'/html/body/div/div/div/div/div/div/h2/span/span'
p202
F6.265344566520995
sS'/html/body/div/div/div/div/form/div/div/div/div/label'
p203
F6.50635266602479
sS'/html/body/div/div/div/div/h2/hr'
p204
F9.965784284662087
sS'/html/body/div/div/div/table/tr/td/div/table/tr/td/div/div/span'
p205
F8.965784284662087
sS'/html/body/div/div/div/div/div/div/table/tr/td/div/p/em'
p206
F4.965784284662088
sS'/html/body/div/div/div/div/div/div/table/tr/td/div/ol/li/p'
p207
F6.965784284662088
sS'/html/body/div/div/div/div/div/table/tr/td/div/table/tr/td/div/a'
p208
F1.8836352433082157
sS'/html/body/div/div/div/div/div/table/tr/td/div/div/blockquote/p/a'
p209
F9.965784284662087
sS'/html/body/div/div/div/div/div/span/span'
p210
F1.8624964762500653
sS'/html/body/div/div/div/div/div/table/tr/td/span'
p211
F5.321928094887363
sS'/html/body/div/div/div/div/div/ul/li/blockquote'
p212
F9.965784284662087
sS'/html/body/div/div/div/div/div/div/div/div/div/a/span'
p213
F5.965784284662088
sS'/html/body/div/div/div/div/div/div/p'
p214
F1.8624964762500653
sS'/html/body/div/div/div/div/ul/li/div'
p215
F1.810966175609983
sS'/html/body/div/div/div/div/div/table/tr/td/div/table/tbody/tr/td/div/span/b/a'
p216
F8.965784284662087
sS'/html/body/div/div/div/div/div/div/div/div/div/div/span'
p217
F1.8365012677171209
sS'/html/body/div/div/div/div/div/div/span/span'
p218
F5.643856189774724
sS'/html/body/div/div/div/div/div/div/b'
p219
F1.8783214434117477
sS'/html/body/div/div/div/div/div/div/a'
p220
F0.010134377133713133
sS'/html/body/div/div/div/div/div/hr'
p221
F3.921390165303634
sS'/html/body/div/div/div/a/span'
p222
F0.010134377133713133
sS'/html/body/div/div/div/div/div/form/div/noscript/div/table/tr/td/div/label'
p223
F2.231074664436249
sS'/html/body/div/div/div/div/div/form/div/script'
p224
F2.231074664436249
sS'/html/body/div/div/div/div/div/div/table/tr/td/div/hr'
p225
F5.643856189774724
sS'/html/body/div/div/div/div/table/tr/td/div/div/div/span'
p226
F6.058893689053569
sS'/html/body/div/div/div/div/div/table/tr/td/div/div/ul/li/strike/a'
p227
F9.965784284662087
sS'/html/body/div/div/div/div/div/table/tr/td/div/div/p/a/img'
p228
F6.158429362604484
sS'/html/body/div/div/div/div/table/tr/td/p/b/a'
p229
F7.158429362604482
sS'/html/body/div/div/div/div/div/div/div/div/div/div/div/div/br'
p230
F9.965784284662087
sS'/html/body/div/div/div/form/div/script'
p231
F6.50635266602479
sS'/html/body/div/div/div/div/div/div/div/table/thead/tr/th'
p232
F9.965784284662087
sS'/html/body/div/div/div/div/div/form/div/noscript/div/table/tr/td/div/input'
p233
F2.231074664436249
sS'/html/body/div/div/div/form/div/div/div/div/input'
p234
F9.965784284662087
sS'/html/body/div/div/div/div/div/div/div/span'
p235
F2.84684321193858
sS'/html/body/div/div/div/div/div/div/table/tr/td/div/span'
p236
F2.6896598793878495
sS'/html/body/div/div/div/div/table/tr/td/div/div'
p237
F6.795859283219775
sS'/html/body/div/div/div/div/div/div/div/div/h2/span'
p238
F4.717856771218502
sS'/html/body/div/div/div/div/div/div/table/tr/td/div/table/tbody/tr/td/table/tbody/tr/td/span'
p239
F4.50635266602479
sS'/html/body/div/div/div/div/div/table/tr/td/div/div/h3/code'
p240
F7.643856189774724
sS'/html/body/div/div/div/div/div/h2/em'
p241
F9.965784284662087
sS'/html/body/div/div/div/div/div/div/div/table/tr/td/div/span'
p242
F2.7273795453370084
sS'/html/body/div/div/div/div/div/h4'
p243
F1.7958592832197748
sS'/html/body/div/div/div/div/div/h3'
p244
F0.010134377133713133
sS'/html/body/div/div/div/div/div/h2'
p245
F4.293358942690592
sS'/html/body/div/div/div/div/div/h1'
p246
F8.965784284662087
sS'/html/body/div/div/div/div/ul/li/a/strong'
p247
F3.7958592832197753
sS'/html/body/div/div/div/table/tr/td/div/div/p/em/strong'
p248
F9.965784284662087
sS'/html/body/div/div/div/form/div/div/div/label'
p249
F6.643856189774725
sS'/html/body/div/div/div/div/form/div/div/div/div/noscript/p'
p250
F6.50635266602479
sS'/html/body/div/div/div/div/div/table/tr/td/div/div/blockquote/p'
p251
F8.380821783940931
sS'/html/body/div/div/div/div/div/div/table/tbody/tr/td/span/span'
p252
F6.158429362604484
sS'/html/body/div/div/div/div/table/tr/td/a/span'
p253
F7.643856189774724
sS'/html/body/div/div/div/div/div/div/div/div/div/div/div/div/div/div/img'
p254
F9.965784284662087
sS'/html/body/div/div/div/div/p/span/a'
p255
F5.321928094887363
sS'/html/body/div/div/div/div/h2/span'
p256
F5.107803289534515
sS'/html/body/div/div/div/div/form/div/div/div/input'
p257
F6.50635266602479
sS'/html/body/div/div/div/div/div/table/tr/td/div/table/tbody/tr/td/table/tbody/tr/td/span'
p258
F3.5563933485243853
sS'/html/body/div/div/div/div/div/table/tr/td/div/div/ol/li/strike'
p259
F9.965784284662087
sS'/html/body/div/div/div/div/div/form/h2'
p260
F2.231074664436249
sS'/html/body/div/div/div/table/tr/td'
p261
F9.965784284662087
sS'/html/head/link'
p262
F0.010134377133713133
sS'/html/body/div/div/div/form/div/style'
p263
F7.158429362604482
sS'/html/body/div/div/div/div/div/div/div/div/div/div/div/span'
p264
F9.965784284662087
sS'/html/body/div/div/div/div/div/div/div/div/div/a/br'
p265
F6.50635266602479
sS'/html/body/div/div/div/div/div/div/div/table/tr/td/a/span'
p266
F9.965784284662087
sS'/html/body/div/div/div/table/tr/td/div/table/tr/td/div/table/tbody/tr/td/div/span/b'
p267
F9.965784284662087
sS'/html/body/div/div/div/div/div/table/tr/td/div/table/tr/td/div/div/a/span'
p268
F2.965784284662087
sS'/html/body/div/div/div/div/div/div/div/div/div/p/a'
p269
F6.643856189774725
sS'/html/body/div/div/div/table/tr/td/div/table/tr/td/div/table/tbody/tr/td/div/span/i'
p270
F9.965784284662087
sS'/html/body/div/div/div/div/div/table/tr/td/div/div/a'
p271
F1.7563309190331373
sS'/html/body/div/div/div/div/table/tr/td/div/div/div/p/span'
p272
F8.380821783940931
sS'/html/body/div/div/div/div/div/div/table/tr/td/div/blockquote/ul/li/p'
p273
F9.965784284662087
sS'/html/body/div/div/div/div/div/table/tr/td/div/table/tr/td/div/div'
p274
F4.293358942690592
sS'/html/body/div/div/div/div/div/ul/li/code'
p275
F8.380821783940931
sS'/html/body/div/div/div/div/div/div/div/div/span/a/span'
p276
F7.965784284662087
sS'/html/body/div/div/div/div/div/form/div/noscript/h3'
p277
F2.231074664436249
sS'/html/body/div/div/div/div/div/table/tr/td/div/div/p'
p278
F2.0057823525940064
sS'/html/body/div/div/div/div/div/form/div/div/div/input'
p279
F2.231074664436249
sS'/html/body/div/div/div/div/a/div/div'
p280
F9.965784284662087
sS'/html/body/div/div/div/div/div/div/div/table/tr/td/div/h4'
p281
F2.7273795453370084
sS'/html/body/feed/entry/author/name'
p282
F7.158429362604482
sS'/html/body/div/div/div/div/div/div/table/tr/td/div/ul/li/ol/li/ul/li/pre'
p283
F8.380821783940931
sS'/html/body/div/div/div/div/div/div/table/tr/td/table/tr/td/div/div/a/div/img'
p284
F2.7466157641999254
sS'/html/body/div/div/div/div/div/h3/a'
p285
F0.010134377133713133
sS'/html/body/div/div/div/div/div/div/table/tr/td/div/ol/li/ul/li/p'
p286
F9.965784284662087
sS'/html/body/div/div/div/div/div/span'
p287
F4.011587974275212
sS'/html/body/div/div/div/div/div/p/b/a'
p288
F8.380821783940931
sS'/html/body/div/div/div/div/h2/a/img'
p289
F8.965784284662087
sS'/html/body/div/div/div/div/div/ol/li/a'
p290
F9.965784284662087
sS'/html/body/div/div/div/div/div/ol/li/b'
p291
F9.965784284662087
sS'/html/body/div/div/div/div/div/div/table/tr/td/div/ol/li/ul/li/a'
p292
F9.965784284662087
sS'/html/body/div/div/div/div/div/div/div/div/div/ul/li/em'
p293
F9.965784284662087
sS'/html/body/div/div/div/div/div/div/table/tr/td/div/ul/li/ul/li'
p294
F7.965784284662087
sS'/html/body/div/div/div/div/form/br'
p295
F5.107803289534515
sS'/html/body/div/div/div/div/div/table/tr/td/div/div/div/p'
p296
F6.265344566520995
sS'/html/body/div/div/div/div/div/div/div/div'
p297
F4.011587974275212
sS'/html/body/div/div/div/div/div/table/tr/td/div/table/tbody/tr/td/div/span/a/code'
p298
F8.965784284662087
sS'/html/body/div/div/div/div/div/div/table/tr/td/div/table/tbody/tr/td/div/a/span'
p299
F6.265344566520995
sS'/html/body/div/div/div/div/span/a'
p300
F0.010134377133713133
sS'/html/body/div/div/div/div/div/div/table/tr/td/div/ul/li/ul/li/em'
p301
F8.380821783940931
sS'/html/body/div/div/div/div/div/div/p/a/img'
p302
F9.965784284662087
sS'/html/body/div/div/div/div/div/div/div/div/h2/script'
p303
F5.321928094887363
sS'/html/body/div/div/div/div/div/p/sup'
p304
F9.965784284662087
sS'/html/body/div/div/div/div/div/div/table/tr/td/table/tr/td/div/span'
p305
F2.6896598793878495
sS'/html/body/div/div/div/div/div/div/table/tr/td/div/ul/li/ol/li/ul/li'
p306
F8.380821783940931
sS'/html/body/div/div/div/div/div/table/tr/td/div/div/ul/li/p'
p307
F8.380821783940931
sS'/html/body/div/div/div/div/div/p/span'
p308
F5.795859283219775
sS'/html/body/div/div/div/div/div/div/table/tr/td/table/tr/td/div/div/a/span'
p309
F4.011587974275212
sS'/html/body/div/div/div/table/tr/td/div/div/ul/li'
p310
F8.965784284662087
sS'/html/body/div/div/div/div/form/div/div/div/div/div/p'
p311
F5.878321443411747
sS'/html/body/div/div/div/div/div/table/tr/td/div/ul/li/b'
p312
F5.210896782498619
sS'/html/body/div/div/div/div/div/table/tr/td/div/ul/li/a'
p313
F5.210896782498619
sS'/html/body/div/div/div/div/table/tr/td/div/div/div/ul/span'
p314
F8.965784284662087
sS'/html/body/div/div/div/div/table/tr/td/div/div/div/ul/li/a/span'
p315
F9.965784284662087
sS'/html/body/div/div/div/div/div/table/tr/td/div/div/ul/li/p/em'
p316
F8.965784284662087
sS'/html/body/div/div/div/div/a'
p317
F0.010134377133713133
sS'/html/body/div/div/div/div/div/div/table/tr/td/div/ol/li'
p318
F6.158429362604484
sS'/html/body/div/div/div/div/div/div/table/tr/td/div/ul/li/strong'
p319
F7.965784284662087
sS'/html/body/div/div/div/div/p'
p320
F1.3547594873547348
sS'/html/body/div/div/div/div/div/table/tbody/tr/td/div'
p321
F8.965784284662087
sS'/html/body/div/div/script'
p322
F1.894321922105463
sS'/html/body/div/div/div/div/table/tr/td/div/div/div/div/p/span'
p323
F8.380821783940931
sS'/html/body/div/div/div/div/div/div/table/tbody/tr/td/div'
p324
F6.158429362604484
sS'/html/body/div/div/div/div/div/form/div/div/input'
p325
F2.231074664436249
sS'/html/body/div/div/div/form/div/div/noscript/div/table/tr/td/div/input'
p326
F9.965784284662087
sS'/html/body/div/div/div/div/div/div/p/i'
p327
F8.965784284662087
sS'/html/body/div/div/div/div/div/br'
p328
F7.965784284662087
sS'/html/body/div/div/div/table/thead/tr/th/span'
p329
F9.965784284662087
sS'/html/body/div/div/div/div/div/ul/li/blockquote/a'
p330
F9.965784284662087
sS'/html/body/div/div/div/div/div/div/p/b'
p331
F8.965784284662087
sS'/html/body/div/div/div/div/hr'
p332
F9.965784284662087
sS'/html/body/div/div/div/div/div/ol/li'
p333
F7.643856189774724
sS'/html/body/div/div/div/div/div/div/table/tr/td/table/tr/td/div/div/div/span/span'
p334
F2.795859283219775
sS'/html/body/div/div/div/div/div/div/table/tr/td/div/ul/li/ol/li/ul/li/p/br'
p335
F8.380821783940931
sS'/html/body/div/div/div/div/form/input'
p336
F0.010134377133713133
sS'/html/body/div/div/div/form/div/div/div/div/div/div/table/tr/td/div/input'
p337
F9.965784284662087
sS'/html/body/div/div/div/div/div/table/tr/td/div/div/h2'
p338
F8.965784284662087
sS'/html/body/div/div/div/div/div/table/tr/td/div/div/h3'
p339
F9.965784284662087
sS'/html/body/div/div/div/div/h2/a'
p340
F3.6438561897747253
sS'/html/body/div/div/div/table/tr/td/div/div/h1'
p341
F8.965784284662087
sS'/html/body/div/div/div/table/tr/td/div/div/h2'
p342
F9.965784284662087
sS'/html/body/div/div/div/table/tr/td/div/table/tr/td/div/div/ul/li'
p343
F8.965784284662087
sS'/html/body/div/div/div/div/div/div/table/tr/td/div/p/sup/a'
p344
F9.965784284662087
sS'/html/body/div/div/div/div/div/div'
p345
F0.010134377133713133
sS'/html/body/div/div/div/div/div/div/table/tr/td/div/pre/code'
p346
F5.573466861883327
sS'/html/body/div/div/div/div/h1/a'
p347
F1.5187010584524347
sS'/html/body/div/div/div/table/tr/td/div/table/tr/td/div/a'
p348
F8.965784284662087
sS'/html/body/div/div/div/div/div/table/tr/td/div/p'
p349
F4.878321443411748
sS'/html/body/div/div/div/table/tr/td/div/table/tr/td/div/table/tbody/tr/td/div/span/span'
p350
F8.965784284662087
sS'/html/body/div/div/div/form/div/div/div/div/div/h3/a'
p351
F9.965784284662087
sS'/html/body/div/div/div/div/h4'
p352
F1.560642821525743
sS'/html/body/div/div/div/div/h3'
p353
F7.965784284662087
sS'/html/body/div/div/div/div/div/form/div/div/div/textarea'
p354
F2.231074664436249
sS'/html/body/div/div/div/div/h1'
p355
F1.3584539709124765
sS'/html/body/div/div/div/div/div/table/tr/td/div/div/ul/li/ul/li'
p356
F9.965784284662087
sS'/html/body/div/div/div/div/div/table/tr/td/div/a'
p357
F1.8836352433082157
sS'/html/body/div/div/div/div/div/p/code'
p358
F7.380821783940932
sS'/html/body/div/div/div/div/div/div/ul/li/a'
p359
F9.965784284662087
sS'/html/body/feed/title'
p360
F7.158429362604482
sS'/html/body/div/div/div/div/div/table/tr/td/div/div/hr'
p361
F5.795859283219775
sS'/html/body/div/div/div/div/form/p/br'
p362
F9.965784284662087
sS'/html/body/div/div/div/div/div/div/h2/a'
p363
F6.265344566520995
sS'/html/body/div/div/div/hr'
p364
F9.965784284662087
sS'/html/body/div/div/div/table/tr/td/div/div/hr'
p365
F9.965784284662087
sS'/html/body/div/div/div/form/div/a'
p366
F5.878321443411747
sS'/html/body/div/div/div/div/p/strong'
p367
F8.965784284662087
sS'/html/body/div/div/div/div/div/form/script'
p368
F2.231074664436249
sS'/html/body/div/div/div/div/ul/li/em'
p369
F9.965784284662087
sS'/html/body/div/div/div/div/table/tr/td/div/div/div/div/pre/code/span'
p370
F9.965784284662087
sS'/html/body/div/div/div/div/div/div/table/tr/td/div/table/tbody/tr/td/div/span/code'
p371
F6.058893689053569
sS'/html/body/div/div/div/div/div/table/tr/td/p/b'
p372
F1.8836352433082157
sS'/html/body/div/div/div/div/table/tr/td/div/div/div/ul/li/span'
p373
F9.965784284662087
sS'/html/body/div/div/div/div/form/p/input'
p374
F9.965784284662087
sS'/html/body/div/div/div/div/div/div/table/tr/td/div/p/a/code'
p375
F9.965784284662087
sS'/html/body/div/div/div/div/div/table/tr/td/div/table/tbody/tr/td/div/span/b'
p376
F6.965784284662088
sS'/html/body/div/div/div/p/a'
p377
F5.265344566520995
sS'/html/body/div/div/div/form/div/div/div/table/tr/td/input'
p378
F6.50635266602479
sS'/html/body/div/div/div/div/div/table/tr/td/div/a/b'
p379
F5.442222328605075
sS'/html/body/div/div/div/div/table/tr/td/div/div/div'
p380
F8.380821783940931
sS'/html/body/div/div/div/div/div/div/table/tr/td/div/input'
p381
F2.6896598793878495
sS'/html/body/div/div/div/div/div/div/table/tr/td/div/ol/li/a'
p382
F9.965784284662087
sS'/html/body/div/div/div/div/div/div/ol/li'
p383
F1.8677522017015604
sS'/html/body/div/div/div/div/div/div/div/script'
p384
F2.465938397578882
sS'/html/body/feed/entry/rank'
p385
F7.158429362604482
sS'/html/body/div/div/div/div/div/div/div/div/div/p/em'
p386
F8.380821783940931
sS'/html/body/div/div/div/div/span/div/div/ul/li/a/span'
p387
F0.010134377133713133
sS'/html/body/div/div/div/div/div/div/table/tr/td/div/ul/li/br'
p388
F9.965784284662087
sS'/html/body/div/div/div/div/div/div/div/table/tr/td/div/ul/li/span'
p389
F2.7273795453370084
sS'/html/body/div/div/div/div/div/table/tr/td/div/h2/b'
p390
F4.411195432984449
sS'/html/body/div/div/div/form/div/div/div/ul/li/code'
p391
F9.965784284662087
sS'/html/body/div/div/div/div/div/div/table/tr/td/table/tr/td/div/div/div'
p392
F4.321928094887363
sS'/html/body/div/div/div/div/div/div/h2/span'
p393
F6.265344566520995
sS'/html/body/div/div/div/div/div/table/tr/td/div/h2/span/span'
p394
F4.411195432984449
sS'/html/body/div/div/div/div/div/table/tr/td/div/input'
p395
F1.8836352433082157
sS'/html/body/div/div/div/div/div/div/div/div/h3'
p396
F9.965784284662087
sS'/html/body/div/div/div/div/div/div/div/div/h2'
p397
F2.7858751946471525
sS'/html/body/div/div/div/div/div/div/div/div/h1'
p398
F9.965784284662087
sS'/html/body/div/div/div/div/div/table/tr/td/div/div/ol/li/em'
p399
F9.965784284662087
sS'/html/body/div/div/div/div/div/table'
p400
F5.058893689053569
sS'/html/body/div/div/div/div/div/table/tr/td/div/div/h1'
p401
F8.965784284662087
sS'/html/body/div/div/div/div/div/div/div/div/div/div/a/span'
p402
F7.158429362604482
sS'/html/body/div/div/div/div/div/div/table/tr/td/div/table/tbody/tr/td/table/tbody/tr/td'
p403
F3.3658714424749596
sS'/html/body/div/div/div/form/div/div/div/p/code'
p404
F9.965784284662087
sS'/html/body/div/div/div/div/div/table/tbody/tr/td/span/span'
p405
F7.965784284662087
sS'/html/body/div/div/div/table/tr/td/div/div/p/a'
p406
F8.965784284662087
sS'/html/body/div/div/div/div/div/table/tr/td/div/div/div/span'
p407
F5.321928094887363
sS'/html/body/div/div/div/div/div/table/tr/td/div/p/span/a'
p408
F7.643856189774724
sS'/html/body/div/div/div/div/div/table/tr/td/div/div/p/strong/em'
p409
F8.380821783940931
sS'/html/body/div/div/div/div/p/sup'
p410
F9.965784284662087
sS'/html/body/div/div/div/div/div/p/em'
p411
F6.965784284662088
sS'/html/body/div/div/div/div/form/div/div/div/div'
p412
F5.158429362604483
sS'/html/body/div/div/div/div/p/img'
p413
F8.965784284662087
sS'/html/body/div/div/div/div/div/div/table/tbody/tr/td'
p414
F7.158429362604482
sS'/html/body/div/div/div/div/table/tr/td/div/div/div/div/ul/li/a/span'
p415
F9.965784284662087
sS'/html/body/div/div/div/div/div/div/div/h3/a'
p416
F7.965784284662087
sS'/html/body/div/div/div/div/div/div/table/tr/td/div/ol/li/strong'
p417
F9.965784284662087
sS'/html/body/div/div/div/div/div/table/tr/td/div/table/tr/td/div/div/span'
p418
F1.8836352433082157
sS'/html/body/div/div/div/div/div/div/table/tr/td/div/ol/li/ul/li/br'
p419
F7.380821783940932
sS'/html/body/div/div/div/div/div/div/div/a/div'
p420
F1.8059129478836977
sS'/html/body/div/div/div/div/div/div/div/div/div/hr'
p421
F8.965784284662087
sS'/html/body/div/div/div/form/div/div/div/input'
p422
F6.50635266602479
sS'/html/body/div/div/div/div/div/div/table/tr/td/div/table/tbody/tr/td/div/span/span'
p423
F3.3658714424749596
sS'/html/body/div/div/div/div/div/div/table/tr/td/div/ul/li/pre/code'
p424
F9.965784284662087
sS'/html/body/div/div/div/div/div/div/table/tr/td/div/h2/strong'
p425
F9.965784284662087
sS'/html/body/div/div/div/div/div/table/tr/td/div/div/blockquote/p/strong'
p426
F9.965784284662087
sS'/html/body/div/div/div/div/div/ul/li/span/span'
p427
F5.643856189774724
sS'/html/body/div/div/div/div/div/div/div/table/tbody/tr/td/b'
p428
F9.965784284662087
sS'/html/body/div/div/div/br'
p429
F1.6483716708972176
sS'/html/body/div/div/div/div/div/div/div/table/tr/td/a'
p430
F9.965784284662087
sS'/html/body/div/div/div/div/div/table/tr/td/div/div/ul/li'
p431
F5.795859283219775
sS'/html/body/div/div/div/div/img'
p432
F5.158429362604483
sS'/html/body/div/div/div/div/div/a/div'
p433
F2.293358942690592
sS'/html/body/div/div/div/div/p/span'
p434
F4.717856771218502
sS'/html/body/feed/license'
p435
F7.158429362604482
sS'/html/body/div/div/div/div/div/table/tr/td/div/div/a/div/img'
p436
F5.321928094887363
sS'/html/body/div/div/div/div/div/blockquote/a'
p437
F9.965784284662087
sS'/html/body/div/div/div/div/table/tr/td/div/a'
p438
F6.058893689053569
sS'/html/body/div/div/div/div/h4/i'
p439
F9.965784284662087
sS'/html/body/div/div/div/div/div/table/tr/td/p'
p440
F1.8836352433082157
sS'/html/body/div/div/div/div/h4/a'
p441
F1.810966175609983
sS'/html/body/div/div/div/div/div/p/strong/em'
p442
F8.965784284662087
sS'/html/body/div/div/div/div/table/tr/td/div/div/div/div/h3/span'
p443
F9.965784284662087
sS'/html/body/div/div/div/div/table/tr/td/p'
p444
F5.158429362604483
sS'/html/body/div/div/div/div/div/div/table/tr/td/div/p/br'
p445
F6.795859283219775
sS'/html/body/div/div/div/div/div/ul/li'
p446
F6.50635266602479
sS'/html/body/div/div/div/div/div/div/div/div/span'
p447
F4.50635266602479
sS'/html/body/div/div/div/div/div/blockquote/p/em'
p448
F9.965784284662087
sS'/html/body/div/div/div/div/div/div/div/div/div/br'
p449
F9.965784284662087
sS'/html/body/div/div/div/div/div/table/tr/td/div/div/p/code'
p450
F4.836501267717121
sS'/html/body/div/div/div/div/table/tr/td/b'
p451
F9.965784284662087
sS'/html/body/div/div/div/div/table/tr/td/a'
p452
F6.50635266602479
sS'/html/body/div/div/div/table/tr/td/div/table/tr/td/div/table/tbody/tr/td/div/span'
p453
F8.965784284662087
sS'/html/body/div/div/div/div/p/a/img'
p454
F9.965784284662087
sS'/html/body/div/div/div/div/table/tr/td/div/div/div/h3/code/span'
p455
F9.965784284662087
sS'/html/body/div/div/div/form/input'
p456
F5.717856771218502
sS'/html/body/div/div/div/div/div/table/tr/td/div/div/p/a'
p457
F4.237863830098888
sS'/html/body/div/div/div/div/div/table/tr/td/p/b/a'
p458
F2.6896598793878495
sS'/html/body/div/div/div/div/div/div/table/tr/td/div/p/em/a'
p459
F8.380821783940931
sS'/html/body/div/div/div/table/tr/td/div/table/tr/td/div/table/tbody/tr/td/table/tbody/tr/td/span'
p460
F8.965784284662087
sS'/html/body/div/div/div/div/div/div/div/table/tbody/tr/td'
p461
F9.965784284662087
sS'/html/body/div/div/div/div/div/div/div/div/span/span'
p462
F7.965784284662087
sS'/html/body/div/div/div/div/div/div/table/tr/td/div/p/sup/strong'
p463
F9.965784284662087
sS'/html/body/div/div/div/div/div/table/tr/td/div/table/tbody/tr/td/table/tbody/tr/td'
p464
F2.4188898247744506
sS'/html/body/div/div/div/div/div/div/br'
p465
F1.5437195184892747
sS'/html/body/div/div/div/div/div/div/div/div/a/span'
p466
F7.965784284662087
sS'/html/body/div/div/div/div/div/div/table/tbody/tr/td/a/span'
p467
F6.380821783940931
sS'/html/body/div/div/div/div/form/div/div/div/div/input'
p468
F5.158429362604483
sS'/html/body/div/div/div/div/div/div/table/tr/td'
p469
F2.4188898247744506
sS'/html/body/feed/entry/published'
p470
F7.158429362604482
sS'/html/body/div/div/div/div/div/div/div/a/div/svg/g/polyline'
p471
F9.965784284662087
sS'/html/body/div/div/div/div/div/form/div/div'
p472
F2.231074664436249
sS'/html/body/div/div/div/div/div/div/div/a/div/ul/li'
p473
F5.643856189774724
sS'/html/body/div/div/div/div/style'
p474
F5.158429362604483
sS'/html/body/div/div/div/div/div/table/tr/td/div/div/ol/li'
p475
F6.965784284662088
sS'/html/body/div/div/div/div/div/div/table/tr/td/table/tr/td/div/a'
p476
F2.6896598793878495
sS'/html/body/div/div/div/div/div/blockquote/blockquote/p'
p477
F9.965784284662087
sS'/html/body/div/div/div/div/div/div/table/tr/td/div/ul/li/strong/em'
p478
F9.965784284662087
sS'/html/body/div/div/div/div/div/ul/li/p'
p479
F8.965784284662087
sS'/html/body/div/div/div/div/div/blockquote/p/a'
p480
F9.965784284662087
sS'/html/body/div/div/div/div/div/div/p/a'
p481
F1.8624964762500653
sS'/html/body/div/div/div/div/div/div/a/span'
p482
F9.965784284662087
sS'/html/body/div/div/div/div/div/ul/li/b'
p483
F9.965784284662087
sS'/html/body/noscript/div/img'
p484
F0.010134377133713133
sS'/html/body/div/div/div/div/div/div/table/tr/td/div/ul/li/ul/li/ul/li/a'
p485
F9.965784284662087
sS'/html/body/div/div/div/div/div/ul/li/a'
p486
F1.7563309190331373
sS'/html/body/div/div/div/div/div'
p487
F0.6780719051126378
sS'/html/body/div/div/div/form/div/div/div/p'
p488
F7.380821783940932
sS'/html/body/div/div/div/div/table/tr/td/div/div/div/div/pre/code'
p489
F9.965784284662087
sS'/html/body/div/div/div/div/div/div/table/tr/td/div/table/tbody/tr/td/div/span/i'
p490
F5.573466861883327
sS'/html/body/feed/updated'
p491
F7.158429362604482
sS'/html/body/div/div/div/form/div/div/div/p/em'
p492
F9.965784284662087
sS'/html/body/div/div/div/div/div/div/table/tr/td/div/table/tbody/tr/td/div/span/b'
p493
F8.965784284662087
sS'/html/body/div/div/div/div/div/div/table/tr/td/div/table/tbody/tr/td/div/span/a'
p494
F4.9213901653036345
sS'/html/body/div/div/div/form/div/div/div/a'
p495
F9.965784284662087
sS'/html/body/div/div/div/div/div/div/div/div/div/ul/li/strong/a'
p496
F9.965784284662087
sS'/html/body/div/div/div/div/div/div/table/tr/td/div/ol/li/ul/li/p/code'
p497
F9.965784284662087
sS'/html/body/div/div/div/div/table/tr/td/div/div/div/a/span'
p498
F9.965784284662087
sS'/html/body/div/div/noscript/div/img'
p499
F2.293358942690592
sS'/html/body/div/div/div/div/div/p/strong'
p500
F6.50635266602479
sS'/html/body/div/div/div/div/div/table/tr/td/div/div/ul/li/em'
p501
F8.380821783940931
sS'/html/body/div/div/div/div/table/tr/td/div/div/div/div/ul/li/a'
p502
F9.965784284662087
sS'/html/body/div/div/div/div/div/div/div/table/tbody/tr/th'
p503
F9.965784284662087
sS'/html/body/div/div/div/div/div/table/tr/td/div/span/a'
p504
F5.210896782498619
sS'/html/body/div/div/div/div/table/tr/td/div/div/div/div/hr'
p505
F8.965784284662087
sS'/html/body/div/div/div/table/tr/td/div/table/tr/td/div/span'
p506
F8.965784284662087
sS'/html/body/div/div/div/div/div/div/div/table/tr/td/div/ul/li/a/span'
p507
F2.7273795453370084
sS'/html/body/div/div/div/div/div/p/strong/a'
p508
F8.965784284662087
sS'/html/body/div/div/div/div/div/p/sup/strong'
p509
F9.965784284662087
sS'/html/body/div/div/div/div/div/div/table/tr/td/div/ul/li/p/s/a'
p510
F9.965784284662087
sS'/html/body/div/div/div/div/div/div/div/div/div/div/a'
p511
F2.547931769776189
sS'/html/body/div/div/div/table/tr/td/div/table/tr/td/div/div/a'
p512
F8.965784284662087
sS'/html/body/div/div/div/div/p/a/strong'
p513
F9.965784284662087
sS'/html/body/div/div/div/form/div/h2'
p514
F7.158429362604482
sS'/html/body/div/div/div/div/table/tr/td/div/div/div/pre/code/span'
p515
F9.965784284662087
sS'/html/body/div/div/div/div/div/div/table/tr/td/div/ul/li/p/strong'
p516
F6.380821783940931
sS'/html/body/div/div/div/div/div/div/p/i/b/a'
p517
F8.965784284662087
sS'/html/body/div/div/div/div/div/div/table/tr/td/div/blockquote/p/em'
p518
F9.965784284662087
sS'/html/body/div/div/div/div/div/table/tr/td/div/span'
p519
F1.8836352433082157
sS'/html/body/div/div/div/div/form/span'
p520
F9.965784284662087
sS'/html/body/div/div/div/form/div/div/div/div/div/h3'
p521
F9.965784284662087
sS'/html/body/div/div/div/div/div/table/tr/td/div/div/div/span/span'
p522
F5.321928094887363
sS'/html/body/div/div/div/script'
p523
F0.7759597257820698
sS'/html/body/div/div/div/div/ul/li/strong'
p524
F9.965784284662087
sS'/html/body/div/div/div/table/tr/td/div/table/tr/td/div/table/tbody/tr/td/div/a'
p525
F9.965784284662087
sS'/html/body/div/div/div/div/div/table/tbody/tr/td/a/span'
p526
F8.965784284662087
sS'/html/body/div/div/div/div/table/tr/th'
p527
F0.010134377133713133
sS'/html/body/div/div/div/div/div/div/table/tr/td/div/ol/li/sup/em'
p528
F9.965784284662087
sS'/html/body/div/div/div/div/table/tr/td'
p529
F4.836501267717121
sS'/html/body/div/div/div/div/div/p/sup/a'
p530
F9.965784284662087
sS'/html/body/div/div/div/div/div/table/tr/td/div/div/p/kbd'
p531
F9.965784284662087
sS'/html/body/div/div/div/div/table/tr/td/div/div/div/div/p/a'
p532
F8.965784284662087
sS'/html/body/div/div/div/div/div/div/div/ul/li/div'
p533
F2.4422223286050744
sS'/html/body/div/div/div/div/noscript/div/img'
p534
F5.158429362604483
sS'/html/body/div/div/div/div/div/div/table/tr/td/div/blockquote/p'
p535
F5.380821783940931
sS'/html/body/div/div/div/div/div/img'
p536
F9.965784284662087
sS'/html/body/div/div/div/div/div/form/div/div/div/div/h3'
p537
F2.231074664436249
sS'/html/body/div/div/div/h2'
p538
F9.965784284662087
sS'/html/head/style'
p539
F4.083141235300245
sS'/html/body/div/div/div/div/div/div/table/tr/td/div/ul/li/p/a/img'
p540
F6.965784284662088
sS'/html/body/div/div/div/div/form/div/div/div/div/div/label'
p541
F5.878321443411747
sS'/html/body/div/div/div/div/div/div/div/div/div/div/div/b'
p542
F9.965784284662087
sS'/html/body/div/div/div/div/div/div/div/h2/span'
p543
F2.6896598793878495
sS'/html/body/div/div/div/form/div/div/label'
p544
F5.878321443411747
sS'/html/body/div/div/div/div/form/p/label'
p545
F9.965784284662087
sS'/html/body/div/div/div/div/div/div/table/tr/td/div/br'
p546
F9.965784284662087
sS'/html/body/div/div/div/div/div/table/tr/td/div/p/a'
p547
F6.50635266602479
sS'/html/body/div/div/div/div/div/div/table/tr/td/div/p/a/img'
p548
F8.965784284662087
sS'/html/body/feed/entry/id'
p549
F7.158429362604482
sS'/html/body/div/div/div/div/div/div/table/tr/td/div/ol/li/p/a'
p550
F7.380821783940932
sS'/html/body/div/div/div/div/div/table/tr/td/div/table/tr/td/div/div/a/br'
p551
F7.643856189774724
sS'/html/body/div/div/div/div/div/div/div/div/p'
p552
F9.965784284662087
sS'/html/body/div/div/div/div/div/ul/li/a/span'
p553
F9.965784284662087
sS'/html/body/div/div/div/div/div/div/div/ul/li/a/span/span'
p554
F2.4500844463780447
sS'/html/body/div/div/div/div/table/tr/td/div/div/div/p/code/span'
p555
F9.965784284662087
sS'/html/body/div/div/div/div/div/table/tr/td/div/table/tbody/tr/td'
p556
F3.5734668618833267
sS'/html/body/div/div/div/div/div/div/table/tr/td/div/blockquote/p/strong'
p557
F9.965784284662087
sS'/html/body/div/div/div/div/div/div/div/div/b'
p558
F7.643856189774724
sS'/html/body/div/div/div/form/label'
p559
F9.965784284662087
sS'/html/body/div/div/div/div/div/div/div/div/a'
p560
F2.888968687611256
sS'/html/body/div/div/div'
p561
F0.010134377133713133
sS'/html/body/div/div/div/h1'
p562
F8.380821783940931
sS'/html/body/div/div/div/form/script'
p563
F5.878321443411747
sS'/html/body/div/div/div/div/div/div/div/div/i'
p564
F9.965784284662087
sS'/html/body/feed/id'
p565
F7.158429362604482
sS'/html/body/div/div/div/div/div/div/table/thead/tr/th'
p566
F8.380821783940931
sS'/html/body/div/div/div/div/form/div/div/div/hr'
p567
F5.158429362604483
sS'/html/body/div/div/div/div/table/tr/td/p/b'
p568
F5.158429362604483
sS'/html/body/noscript/div'
p569
F0.010134377133713133
sS'/html/body/div/div/div/div/div/div/table/tr/td/div/p/a/em'
p570
F9.965784284662087
sS'/html/body/div/div/div/div/div/script'
p571
F1.8836352433082157
sS'/html/body/div/div/div/div/div/table/tr/td/span/a'
p572
F5.321928094887363
sS'/html/body/div/div/div/div/div/div/table/tr/td/div/p/sub'
p573
F6.265344566520995
sS'/html/body/div/div/div/div/div/table/tr/td/div/table/tr/td/div/div/div/span/span'
p574
F2.077041035763828
sS'/html/body/div/div/div/div/div/div/table/tr/td/div/p/sup'
p575
F8.965784284662087
sS'/html/body/div/div/div/div/div/div/div/div/h3/a'
p576
F9.965784284662087
sS'/html/body/div/div/div/form/div/div/noscript/div/table/tr/td/div/label'
p577
F9.965784284662087
sS'/html/body/div/div/div/div/p/em/a'
p578
F9.965784284662087
sS'/html/body/div/div/div/div/div/div/table/tr/td/table/tr/td/div/div'
p579
F4.321928094887363
sS'/html/body/div/div/div/div/div/div/div/div/div/p/a/img'
p580
F9.965784284662087
sS'/html/body/div/div/div/div/div/div/div/div/div/ul/li/a'
p581
F7.965784284662087
sS'/html/body/div'
p582
F0.010134377133713133
sS'/html/body/div/div/div/div/div/table/tr/td/div/div/ul/li/code'
p583
F6.643856189774725
sS'/html/body/div/div/div/div/div/div/table/tr/td/div/ul/li/p/em'
p584
F7.965784284662087
sS'/html/body/div/div/div/div/div/table/tr/td/div/table/tr/td/div/span'
p585
F1.8836352433082157
sS'/html/body/div/div/div/div/div/div/table/tr/td/div/ol/li/p/code'
p586
F9.965784284662087
sS'/html/body/div/div/div/div/table/tr/td/div/div/div/ul/li/a'
p587
F9.965784284662087
sS'/html/body/div/div/div/div/div/div/div/div/div/div/ul/li/a'
p588
F5.380821783940931
sS'/html/body/div/div/div/table/tr/td/div/div/ul/li/em'
p589
F9.965784284662087
sS'/html/body/div/div/div/div/div/table/tr/td'
p590
F1.8836352433082157
sS'/html/body/div/div/div/div/div/div/table/tr/td/div/ul/li/p/a'
p591
F5.965784284662088
sS'/html/body/div/div/div/div/table/tr/td/div/div/div/h3/span'
p592
F9.965784284662087
sS'/html/body/div/div/div/div/div/div/table/tr/td/table/tr/td/div/div/div/span'
p593
F2.7466157641999254
sS'/html/body/div/div/div/div/div/table/tr/td/div/table/tbody/tr/td/div/span'
p594
F2.5563933485243857
sS'/html/body/div/div/div/div/div/div/div/div/div/div'
p595
F1.7036894392919077
sS'/html/body/div/div/div/div/div/form/div/div/div/div/div/p/span'
p596
F2.231074664436249
sS'/html/body/div/div/div/div/div/div/div/div/a/div'
p597
F4.158429362604483
sS'/html/body/div/div/div/div/div/div/table/tr/td/div/p/em/strong'
p598
F9.965784284662087
sS'/html/body/div/div/div/form/div/div/div/div/textarea'
p599
F9.965784284662087
sS'/html/body/div/div/div/div/div/div/table/tr/td/div/ol/li/ul/li/code'
p600
F9.965784284662087
sS'/html/body/div/div/div/table/tr/td/br'
p601
F9.965784284662087
sS'/html/body/div/div/div/div/div/div/table/tr/td/div/p/a'
p602
F3.7369655941662066
sS'/html/body/div/div/div/div/div/table/tr/td/div/div/span'
p603
F5.442222328605075
sS'/html/body/div/div/div/div/div/table/tr/td/div/div/pre/code'
p604
F5.380821783940931
sS'/html/body/div/div/div/div/table/tr/td/div/div/br'
p605
F7.965784284662087
sS'/html/body/div/div/div/table/tr/td/span'
p606
F9.965784284662087
sS'/html/body/div/div/div/div/div/ul/li/ul/li/strong'
p607
F9.965784284662087
sS'/html/body/div/div/div/div/div/div/table/tr/td/div/p/sup/sup'
p608
F8.380821783940931
sS'/html/body/div/div/div/div/div/form/div/p/a'
p609
F2.231074664436249
sS'/html/body/div/div/div/form/div/div/div/hr'
p610
F9.965784284662087
sS'/html/body/div/div/div/div/h2'
p611
F6.058893689053569
sS'/html/body/div/div/div/div/div/div/table/tr/td/div/ol/li/ul/li/em'
p612
F9.965784284662087
sS'/html/body/div/div/div/div/div/div/div/ul/li/a/span/span/span'
p613
F2.5994620704162714
sS'/html/body/div/div/div/div/div/div/table/tr/td/div/ul/li/ol/li/p'
p614
F8.380821783940931
sS'/html/body/div/div/div/div/div/div/table/tr/td/div/p/strong'
p615
F4.756330919033137
sS'/html/body/div/div/div/div/div/table/tr/td/div/div/p/a/em'
p616
F9.965784284662087
sS'/html/body/div/div/div/div/a/span'
p617
F1.8520421186128988
sS'/html/body/div/div/div/div/div/form/div/div/div/div/h3/a'
p618
F2.231074664436249
sS'/html/body/div/div/div/div/div/div/div/ul/li'
p619
F9.965784284662087
sS'/html/body/feed/link'
p620
F7.158429362604482
sS'/html/body/div/div/div/div/ul/li/p'
p621
F9.965784284662087
sS'/html/head/title'
p622
F0.010134377133713133
sS'/html/body/div/div/div/div/div/div/table/tr/td/div/ul/li/em'
p623
F7.965784284662087
sS'/html/body/div/div/div/div/div/div/table/tr/td/div/a/b'
p624
F5.878321443411747
sS'/html/body/div/div/div/div/div/blockquote/p/strong/a'
p625
F9.965784284662087
sS'/html/body/div/div/div/table/tr/td/span/span/span'
p626
F9.965784284662087
sS'/html/body/div/div/div/table/tr/td/div/div/p/em'
p627
F8.965784284662087
sS'/html/body/div/div/div/div/form/div/input'
p628
F5.158429362604483
sS'/html/body/div/div/div/div/div/div/table/tr/td/div/ul/li/s/a'
p629
F9.965784284662087
sS'/html/body/div/div/div/div/ul/li/a'
p630
F0.010134377133713133
sS'/html/body/div/div/div/div/ul/li'
p631
F7.965784284662087
sS'/html/body/div/div/div/div/form/div/label'
p632
F5.878321443411747
sS'/html/body/div/div/div/div/div/div/div/a/div/svg/g/line'
p633
F9.965784284662087
sS'/html/body/div/div/div/div/div/div/div/span/a'
p634
F5.210896782498619
sS'/html/body/div/div/div/div/div/div/div/h3/span/span/a'
p635
F2.5063526660247897
sS'/html/body/div/div/div/div/div/div/table/tr/td/div/ol/li/p/kbd'
p636
F7.380821783940932
sS'/html/body/div/div/div/div/div/form/div/div/div/div/script'
p637
F2.231074664436249
sS'/html/body/div/div/div/div/div/div/table/tr/td/div/table/tbody/tr/td/div/span/b/i'
p638
F9.965784284662087
sS'/html/body/div/div/div/div/span/a/span'
p639
F0.010134377133713133
sS'/html/body/div/div/div/div/table/tr/td/div/div/a'
p640
F5.573466861883327
sS'/html/body/div/div/div/div/div/div/table/tr/td/div/table/tbody/tr/td/div/span/a/code'
p641
F9.965784284662087
sS'/html/body/div/div/div/div/div/div/div/ul/li/a'
p642
F3.265344566520995
sS'/html/body/div/div/div/div/div/div/table/tr/td/div/ul/li/code'
p643
F7.643856189774724
sS'/html/body/div/div/div/div/div/div/table/tr/td/div/blockquote/ul/li/strong'
p644
F9.965784284662087
sS'/html/body/div/div/div/table/tr/td/div/div/p/br'
p645
F9.965784284662087
sS'/html/body/div/div/div/div/div/div/div/span/span/a/span'
p646
F5.795859283219775
sS'/html/body/div/div/div/form/div/h2/a'
p647
F7.158429362604482
sS'/html/body/div/div/div/div/div/table/tr/td/div/table/tbody/tr/td/div/a'
p648
F2.4819685073978306
sS'/html/body/div/div/div/div/table/tr/td/div/div/div/div/p/strong'
p649
F9.965784284662087
sS'/html/body/div/div/div/div/table/tr/td/div/div/div/a'
p650
F8.965784284662087
sS'/html/body/div/div/div/div/table/tr/td/div/div/div/div/ul/span'
p651
F8.965784284662087
sS'/html/body/div/div/div/div/script'
p652
F0.7612131404128833
sS'/html/body/div/div/div/div/div/h2/a'
p653
F1.894321922105463
sS'/html/body/div/div/div/div/div/div/table/tr/td/table/tr/td/div/div/span'
p654
F2.6896598793878495
sS'/html/body/div/div/div/div/div/div/div/div/div/a/div/img'
p655
F1.1140352432460294
sS'/html/body/div/div/div/div/table/tr/td/div/div/div/p'
p656
F8.380821783940931
sS'/html/body/div/div/div/div/div/div/table/tr/td/table/tr/td/div/div/a'
p657
F2.6896598793878495
sS'/html/body/div/div/div/div/p/br'
p658
F5.965784284662088
sS'/html/body/div/div/div/div/div/form/div/div/div/div'
p659
F2.231074664436249
sS'/html/body/div/div/div/div/div/div/div/span/span'
p660
F5.158429362604483
sS'/html/body/div/div/div/div/ul/li/p/a'
p661
F8.965784284662087
sS'/html/body/div/div/div/div/table/tr/td/div/div/div/ul/li/code/span'
p662
F9.965784284662087
sS'/html/body/div/div/div/div/div/div/table/tr/td/div/p/code'
p663
F4.9213901653036345
sS'/html/body/div/div/div/form/div/div/div'
p664
F9.965784284662087
sS'/html/body/div/div/div/div/div/div/div/h3'
p665
F2.4422223286050744
sS'/html/body/div/div/div/div/div/div/div/h2'
p666
F3.0709665213541437
sS'/html/body/div/div/div/div/div/table/tr/td/div/table/tbody/tr/td/div/span/a'
p667
F3.4111954329844494
sS'/html/body/div/div/div/div/div/div/table/tr/td/div/blockquote/ul/li/em'
p668
F9.965784284662087
sS'/html/body/div/div/div/div/div/ul/li/div/span'
p669
F0.010134377133713133
sS'/html/body/div/div/div/div/div/table/tr/td/div/table/tbody/tr/td/div/span/i'
p670
F4.878321443411748
sS'/html/body/div/div/div/div/div/div/table/tr/td/div/p/img'
p671
F8.380821783940931
sS'/html/body/div/div/div/div/div/h4/a'
p672
F1.8836352433082157
sS'/html/body/div/div/div/div/table/tr/td/div/div/div/div/span'
p673
F8.965784284662087
sS'/html/body/div/div/div/table/tr/td/div/table/tr/td/div/div/br'
p674
F8.965784284662087
sS'/html/body/div/div/div/form/div/div/div/div/div/div/table/tr/td/div/label'
p675
F9.965784284662087
sS'/html/body/div/div/div/div/div/table/tr/td/div/table/tr/td/div/div/a/div/img'
p676
F1.9105018491608974
sS'/html/body/div/div/div/div/form/div/div/div/div/div/noscript/p'
p677
F5.878321443411747
sS'/html/body/div/div/div/div/div/div/table/tr/td/div/table/tbody/tr/td/div/span/a/b'
p678
F9.965784284662087
sS'/html/body/div/div/div/div/div/div/table/tr/td/div/table/tbody/tr/td'
p679
F3.3364276645824775
sS'/html/body/div/div/div/div/div/div/table/tr/td/div/ul/li/ul/li/br'
p680
F8.380821783940931
sS'/html/body/div/div/div/div/table/tr/td/input'
p681
F5.878321443411747
sS'/html/body/div/div/div/div/div/div/table/tr/td/div/ol/li/ul/li/pre/code'
p682
F7.380821783940932
sS'/html/body/div/div/div/div/div/ul/li/sup'
p683
F9.965784284662087
sS'/html/body/div/div/div/div/div/div/table/tr/td/div/ul/li/ol/li/ul/li/code'
p684
F8.380821783940931
sS'/html/body/div/div/div/div/div/div/table/tr/td/div/blockquote/p/a'
p685
F9.965784284662087
sS'/html/body/div/div/div/div/div/div/hr'
p686
F4.158429362604483
sS'/html/body/div/div/div/div/div/table/tr/td/div/table/tbody/tr/td/div/span/b/a/i'
p687
F9.965784284662087
sS'/html/body/div/div/div/div/div/div/h3/a/span'
p688
F6.158429362604484
sS'/html/body/div/div/div/div/div/div/div/div/div/ul/li'
p689
F7.380821783940932
sS'/html/body/div/div/div/div/div/table/tr/td/div/h2/span'
p690
F4.473931188332412
sS'/html/body/div/div/div/div/div/div/a/div'
p691
F7.380821783940932
sS'/html/body/div/div/div/div/form/p/textarea'
p692
F9.965784284662087
sS'/html/body/div/div/div/div/div/div/p/span'
p693
F1.9489759969755331
sS'/html/body/div/div/div/div/div/table/tr/td/div/div/ol/li/p'
p694
F8.965784284662087
sS'/html/body/div/div/div/form/div/div/div/div'
p695
F5.795859283219775
sS'/html/body/div/div/div/div/div/div/table/tr/td/div/ol/li/ul/li/p/kbd'
p696
F7.380821783940932
sS'/html/body/div/div/div/div/div/div/table/tr/td/div/p/sup/br'
p697
F9.965784284662087
sS'/html/body/div/div/div/div/table/tr/td/div/div/div/p/code'
p698
F9.965784284662087
sS'/html/body/feed/entry/title'
p699
F7.158429362604482
sS'/html/body/div/div/div/div/div/ul/li/a/div'
p700
F0.010134377133713133
sS'/html/body/script'
p701
F0.010134377133713133
sS'/html/body/div/div/div/div/div/div/table/tr/td/span'
p702
F5.107803289534515
sS'/html/body/div/div/div/div/ul/li/ul'
p703
F9.965784284662087
sS'/html/body/div/div/div/div/div/ul/li/em'
p704
F7.643856189774724
sS'/html/body/div/div/div/div/div/p'
p705
F3.7369655941662066
sS'/html/body/div/div/div/div/div/div/div/div/div/p/strong'
p706
F7.643856189774724
sS'/html/body/div/div/div/div/span/span'
p707
F4.321928094887363
sS'/html/body/div/div/div/div/div/p/a/span'
p708
F7.643856189774724
sS'/html/body/div/div/div/form/div/div/div/textarea'
p709
F5.878321443411747
sS'/html/body/div/div/div/div/div/div/div/div/div'
p710
F3.9885043611621707
sS'/html/body/div/div/div/div/table/tr/td/div/div/div/div/p/code/span'
p711
F9.965784284662087
sS'/html/body/div/div/div/div/div/b'
p712
F7.965784284662087
sS'/html/body/div/div/div/div/div/a'
p713
F0.010134377133713133
sS'/html/body/div/div/div/div/div/div/h3'
p714
F9.965784284662087
sS'/html/body/div/div/div/div/div/div/h2'
p715
F9.965784284662087
sS'/html/body/div/div/div/div/div/ul/li/ul/li/a/strong'
p716
F9.965784284662087
sS'/html/body/div/div/div/div/div/div/table/tr/td/div/blockquote/ol/li'
p717
F9.965784284662087
sS'/html/body/div/div/div/div/div/div/div/div/strong'
p718
F1.8313579644411613
sS'/html/body/div/div/div/div/div/table/tr/td/div/table/tr/td/div/br'
p719
F7.643856189774724
sS'/html/body/div/div/div/div/div/div/table/tr/td/div/ul/li'
p720
F5.878321443411747
sS'/html/body/div/div/div/div/div/div/div/div/div/div/div/div/div/span'
p721
F2.5563933485243857
sS'/html/body/div/div/div/div/table/tr/td/div/div/h1'
p722
F8.965784284662087
sS'/html/body/feed/entry/author/uri'
p723
F7.158429362604482
sS'/html/body/div/div/div/form/div/div/div/div/div/div/p/span'
p724
F9.965784284662087
sS'/html/body/div/div/div/div/div/div/div/p/a'
p725
F7.965784284662087
sS'/html/body/div/div/div/div/div/table/tr/td/div/div/ul/li/strong'
p726
F8.965784284662087
sS'/html/body/div/div/div/div/div/div/div/p/b'
p727
F9.965784284662087
sS'/html/body/div/div/div/div/form/a'
p728
F6.50635266602479
sS'/html/body/div/div/div/div/div/form/div/div/div/div/div/table/tr/td/div/label'
p729
F2.231074664436249
sS'/html/body/div/div/div/div/div/h1/span'
p730
F7.380821783940932
s.