(dp0
S'/html/body/div/div/div/div/div/div/div/div/div/b'
p1
F8.980139577639157
sS'/html/body/div/div/div/div/div/table/tr/td/div/table/tr/td/div/div/div/span'
p2
F1.5792601413569727
sS'/html/body/div/div/div/div/div/div/div/div/div/a'
p3
F0.9384804260019425
sS'/html/body/div/div/div/form/div/div/div/p/br'
p4
F8.395177076918001
sS'/html/body/div/div/div/noscript/div/img'
p5
F1.5665116486149848
sS'/html/body/div/div/div/div/div/p/i'
p6
F4.049402240076271
sS'/html/body/div/div/div/div/div/div/p/br'
p7
F5.025943267252282
sS'/html/body/div/div/div/div/div/div/table/tr/td/table/tr/td/div/br'
p8
F7.1727846555815535
sS'/html/body/div/div/div/div/div/p/a'
p9
F4.049402240076271
sS'/html/body/div/div/div/div/div/p/b'
p10
F3.9577717646107025
sS'/html/body/div/div/div/div/div/div/table/tr/td/div/h1'
p11
F7.6582114827517955
sS'/html/body/div/div/div/div/div/div/table/tr/td/div/h2'
p12
F6.6582114827517955
sS'/html/body/div/div/div/div/div/div/table/tr/td/div/h3'
p13
F7.6582114827517955
sS'/html/body/div/div/div/div/form/div/div/noscript/p/a'
p14
F4.122158582511585
sS'/html/body/div/div/div/div/table/tr/td/div/div/span'
p15
F5.587822154860397
sS'/html/body/div/div/div/div/div/div/div/div/div/div/ul/li/span'
p16
F3.097496528277316
sS'/html/body/div/div/div/form/div/div/div/blockquote/p'
p17
F9.980139577639157
sS'/html/body/div/div/div/div/div/form/input'
p18
F1.7804672328027926
sS'/html/body/div/div/div/div/div/table/tr/td/div/div/p/strong'
p19
F4.770686212010208
sS'/html/body/div/div/div/div/div/div/table/tr/td/div/p/sub/em'
p20
F9.980139577639157
sS'/html/body/div/div/div/a'
p21
F0.06426019880338393
sS'/html/body/div/div/div/div/div/div/table/tbody/tr/td/a'
p22
F4.980139577639157
sS'/html/body/div/div/div/div/div/table/tr/td/div/div/p/img'
p23
F6.2796998594980655
sS'/html/body/div/div/div/div/div/div/div/div/div/span'
p24
F1.4487581171228452
sS'/html/body/div/div/div/div/table/tr/td/div/div/div/div/p'
p25
F7.395177076918001
sS'/html/body/div/div/div/div/div/div/table/tr/td/div/ol/li/p/em'
p26
F8.980139577639157
sS'/html/body/div/div/div/div/div/table/tr/td/span'
p27
F6.395177076918001
sS'/html/body/div/div/div/div/table/tr/td/div/div/h1'
p28
F6.073248982030639
sS'/html/body/div/div/div/div/form/div/div/div/div/div/input'
p29
F5.025943267252282
sS'/html/body/div/div/div/div/div/table/tr/td/div/div'
p30
F8.395177076918001
sS'/html/body/div/div/div/div/div/div/table/tr/td/div/hr'
p31
F5.810214576196844
sS'/html/head/meta'
p32
F0.06426019880338393
sS'/html/body/div/div/div/div/div/div/table/tr/td/div/p/a/strong'
p33
F9.980139577639157
sS'/html/body/div/div/div/div/form/div/div/div/div/div/label'
p34
F5.025943267252282
sS'/html/body/div/div/div/div/div/div/div/div/div/p'
p35
F3.147249563474415
sS'/html/body/div/div/div/div/div/div/div/div/div/div/div/span'
p36
F9.980139577639157
sS'/html/body/div/div/div/div/table/tr/td/div/table/tr/td/div/div/span'
p37
F8.395177076918001
sS'/html/body/div/div/div/form/table/tr/td/input'
p38
F3.830392458134475
sS'/html/body/div/div/div/div/div/div/div/ul/li/a/span'
p39
F3.097496528277316
sS'/html/body/div/div/div/div/div/div/table/tr/td/div/ol/li/p/sub'
p40
F9.980139577639157
sS'/html/body/div/div/div/div/div/div/div/form/input'
p41
F7.395177076918001
sS'/html/body/div/div/div/div/div/div/table/tr/td/div/ul/li/ul/li/code'
p42
F9.980139577639157
sS'/html/body/div/div/div/div/p/a'
p43
F2.9577717646107025
sS'/html/body/div/div/div/div/table/tr/td/div/div/div/p/a'
p44
F7.6582114827517955
sS'/html/body/div/div/div/div/p/b'
p45
F7.980139577639158
sS'/html/body/div/div/div/div/p/i'
p46
F4.0028596541392405
sS'/html/body/div/div/div/div/form/label'
p47
F5.225252075475689
sS'/html/body/div/div/div/div/table/tr/td/div/div/div/ol/span'
p48
F9.980139577639157
sS'/html/body/div/div/div/div/div/div/div/div/a/div/img'
p49
F4.553874822937059
sS'/html/head/script'
p50
F0.06426019880338393
sS'/html/body/div/div/div/div/div/form/div/input'
p51
F1.7804672328027926
sS'/html/body/div/div/div/div/div/div/table/tr/td/div/ul/li/a'
p52
F5.456577621582144
sS'/html/body/div/div/div/div/table/tr/td/div/div/div/div/ul/li/code/span'
p53
F9.980139577639157
sS'/html/body/div/div/div/div/b/a'
p54
F0.06426019880338393
sS'/html/body/div/div/div/div/div/div/ol/li'
p55
F1.5665116486149848
sS'/html/body/div/div/div/div/div/table/tbody/tr/td/a'
p56
F7.395177076918001
sS'/html/body/div/div/br'
p57
F0.06426019880338393
sS'/html/body/div/div/div/div/table/tr/td/div/div/div/blockquote/ul/li/code/span'
p58
F9.980139577639157
sS'/html/body/feed/subtitle'
p59
F4.6947373587769095
sS'/html/body/div/div/div/div/div/table'
p60
F7.395177076918001
sS'/html/body/div/div/div/div/table/tr/td/div/div/div/p/strong'
p61
F8.395177076918001
sS'/html/body/div/div/div/div/div/p/br'
p62
F4.049402240076271
sS'/html/body/div/div/div/div/div/div/table/tr/td/div/ul/li/p'
p63
F7.395177076918001
sS'/html/body/div/div/div/div/div/table/tr/td/div/table/tbody/tr/td/div/span/code'
p64
F5.587822154860397
sS'/html/body/div/div/div/form/div/input'
p65
F4.049402240076271
sS'/html/body/div/div/div/div/div/table/tr/td/div/table/tbody/tr/td/div/a/span'
p66
F4.336283387864433
sS'/html/body/div/div/div/div/div/div/table/tr/td/div/ul/li/pre/code'
p67
F8.980139577639157
sS'/html/body/div/div/div/div/div/div/div/div/span'
p68
F3.0376250722999174
sS'/html/body/div/div/div/form/div/div/div/ol/li/p'
p69
F8.980139577639157
sS'/html/body/div/div/div/div/table/tr/td/div/div/div/div/p/code'
p70
F8.395177076918001
sS'/html/body/div/div/div/div/div/table/tr/td/div/div/p/em'
p71
F5.52070795900186
sS'/html/body/div/div/div/div/div/div/div/div/div/div/i'
p72
F3.2386725912380103
sS'/html/body/div/div/div/div/div/div/div/div/div/div/a'
p73
F3.3077142356676617
sS'/html/body/div/div/div/div/div/div/h3/span'
p74
F4.980139577639157
sS'/html/body/div/div/div/div/table/tr/td/span'
p75
F5.587822154860397
sS'/html/body/div/div/div/div/table/tr/td/div/div/div/p/em'
p76
F8.395177076918001
sS'/html/body/div/div/div/div/div/table/tr/td/div/div/p/br'
p77
F5.892676736388818
sS'/html/body/div/div/div/div/div/div/div/div/div/h1'
p78
F8.980139577639157
sS'/html/body/div/div/div/div/div/div/table/tr/td/div/table/tbody/tr/td/div/span'
p79
F2.658211482751795
sS'/html/body/div/div/div/div/div/div/table/tr/td/div/ul/li/pre'
p80
F9.980139577639157
sS'/html/body/div/div/div/div/div/table/tr/td/div/table/tr/td/div/div/div'
p81
F3.9801395776391573
sS'/html/body/div/div/div/div/div/div/table/tr/td/div/blockquote/p/strong/em'
p82
F9.980139577639157
sS'/html/body/div/div/div/div/table/tr/td/div/div/div/p/em/span'
p83
F7.980139577639158
sS'/html/body/div/div/div/div/table/tr/td/select/option'
p84
F5.395177076918001
sS'/html/body/feed/entry/link'
p85
F4.6947373587769095
sS'/html/body/div/div/div/div/div/div/div/div/div/span/strong'
p86
F2.810214576196845
sS'/html/body/div/div/div/div/div/div/div/div/a/div'
p87
F4.252219123075958
sS'/html/body/div/div/div/div/table/tr/td/div/div/div/blockquote/p/span'
p88
F9.980139577639157
sS'/html/body/div/div/div/div/div/table/tr/td/div/h2/a'
p89
F5.025943267252282
sS'/html/body/div/div/div/div/table/tr/td/div/div/div/div/p/strong/span'
p90
F8.980139577639157
sS'/html/body/div/div/div/div/table/tr/td/div/div/div/ol/li/a/span'
p91
F9.980139577639157
sS'/html/body/div/div/div/div/div/table/tr/td/div/div/p/em/strong'
p92
F8.980139577639157
sS'/html/body/feed/entry/category'
p93
F4.732212064195572
sS'/html/body/div/div/div/div/div/ul/li/span/a'
p94
F5.1727846555815535
sS'/html/body/div/div/div/div/table/tr/td/div/div/a/div/img'
p95
F5.587822154860397
sS'/html/body/feed/entry/updated'
p96
F4.6947373587769095
sS'/html/body/div/div/div/div/div/div/table/tr/td/div/blockquote/p/br'
p97
F7.1727846555815535
sS'/html/body/div/div/div/div/table/tr/td/div/table/tr/td/div/div/a/div/img'
p98
F8.395177076918001
sS'/html/body/div/div/div/div/div/table/tr/td/div/div/p/em/a'
p99
F9.980139577639157
sS'/html/body/div/div/div/div/div/div/table/tr/td/div/p/strong/em'
p100
F8.395177076918001
sS'/html/body/div/div/div/div/table/tr/td/div/div/div/ol/li/kbd/span'
p101
F9.980139577639157
sS'/html/body/div/div/div/div/table/tr/td/div/div/div/div/ol/li/a/span'
p102
F9.980139577639157
sS'/html/body/div/div/div/div/div/form/div/a'
p103
F1.7804672328027926
sS'/html/body/div/div/div/div/table/tr/td/div/div/div/hr'
p104
F9.980139577639157
sS'/html/body/div/div/div/div/div/table/tr/td/div/div/ul/li/a'
p105
F9.980139577639157
sS'/html/body/div/div/div/div/table/tr/td/div/div/div/ul/li'
p106
F9.980139577639157
sS'/html/body/div/div/div/div/div/form/div/div/div/div/div/table/tr/td/div/input'
p107
F1.7804672328027926
sS'/html/body/div/div/div/div/div/div/table/tr/td/div/p/sup/em'
p108
F9.980139577639157
sS'/html/body/div/div/div/div/div/div/table/tr/td/div/a'
p109
F1.8926767363888177
sS'/html/body/div/div/div/div/div/div/div/div/div/div/span/span'
p110
F3.7903150187591397
sS'/html/body/div/div/div/div/div/div/table/tr/td/div/p'
p111
F2.134649526694782
sS'/html/body/div/div/div/div/div/div/div/div/table/tbody/tr/td/div/div/table/tbody/tr/td'
p112
F8.395177076918001
sS'/html/body/div/div/div/div/div/table/tr/td/div/div/div/ul/li/span'
p113
F7.395177076918001
sS'/html/body/div/div/div/div/form/div/div/div/div/a'
p114
F5.025943267252282
sS'/html/body/div/div/div/div/table/tr/td/div/div/div/div/ul/li/span'
p115
F7.980139577639158
sS'/html/body/div/div/div/div/div/div/div/div/div/p/br'
p116
F8.980139577639157
sS'/html/body/div/div/div/div/div/table/tr/td/div/div/br'
p117
F6.6582114827517955
sS'/html/body/div/div/div/div/div/div/table/tr/td/div/pre'
p118
F9.980139577639157
sS'/html/body/div/div/div/div/div/div/table/tr/td/div/blockquote/p/code'
p119
F9.980139577639157
sS'/html/body/div/div/div/div/table/tr/td/label'
p120
F5.395177076918001
sS'/html/body/div/div/div/div/div/a/span'
p121
F1.23867259123801
sS'/html/body/div/div/div/div/form/div/div/div/div/p'
p122
F5.225252075475689
sS'/html/body/div/div/div/div/div/div/table/tr/td/div/ol/li/em'
p123
F7.395177076918001
sS'/html/body/div/div/div/div/div/div/img'
p124
F7.395177076918001
sS'/html/body/div/div/div/div/table/tr/td/div/div/div/span/span'
p125
F5.587822154860397
sS'/html/body/div/div/div/div/div/table/tr/td/div/div/h2/strong'
p126
F9.980139577639157
sS'/html/body/div/div/div/div/div/table/tr/td/br'
p127
F7.1727846555815535
sS'/html/body/div/div/div/div/div/div/table/tr/td/div/ol/li/code'
p128
F6.6582114827517955
sS'/html/body/div/div/div/div/table/tr/td/div/div/div/div/blockquote/ul/li/code/span'
p129
F9.980139577639157
sS'/html/body/div/div/div/div/table/tr/td/div/div/div/div/blockquote/p/span'
p130
F9.980139577639157
sS'/html/body/div/div/div/div/table/tr/td/ol/li/a'
p131
F0.06426019880338393
sS'/html/body/div/div/div/div/div/div/table/tbody/tr/td/span'
p132
F4.980139577639157
sS'/html/body/div/div/div/div/div/div/div/a/div/svg'
p133
F3.42555072596152
sS'/html/body/div/div/div/div/table/tr/td/div/div/div/h1/span/span'
p134
F7.6582114827517955
sS'/html/body/div/div/div/div/table/tr/td/div/span'
p135
F5.810214576196844
sS'/html/body/div/div/div/div/table/tr/td/div/div/div/blockquote/p/code/span'
p136
F9.980139577639157
sS'/html/body/div/div/div/div/div/div/table/tr/td/div/ol/li/p/img'
p137
F9.980139577639157
sS'/html/body/div/div/div/div/div/table/tr/td/div/table/tr/td/div/div/a'
p138
F1.5749981145028134
sS'/html/body/div/div/div/div/div/div/table/tr/td/div/table/tbody/tr/td/div/a'
p139
F2.6492226995245405
sS'/html/body/div/div/div/div/table/tr/td/div/div/div/blockquote/ul/li/span'
p140
F9.980139577639157
sS'/html/body/div/div/div/div/div/div/a/div/img'
p141
F3.225252075475688
sS'/html/body/div/div/div/div/div/div/div/p'
p142
F3.6582114827517946
sS'/html/body/div/div/div/div/div/div/table/tr/td/div/h1/a'
p143
F9.980139577639157
sS'/html/body/div/div/div/form/div/div/div/p/a'
p144
F7.980139577639158
sS'/html/body/div/div/div/div/div/div/div/a'
p145
F0.7658204568383913
sS'/html/body/div/div/div/div/div/table/tr/td/div/div/blockquote/p/br'
p146
F6.980139577639157
sS'/html/body/div/div/div/form/div/div'
p147
F4.049402240076271
sS'/html/body/div/div/div/div/div/table/tr/td/div/div/p/sub'
p148
F9.980139577639157
sS'/html/body/div/div/div/div/div/table/tr/td/div/table/tbody/tr/td/div/span/span'
p149
F2.3435149570955085
sS'/html/body/div/div/div/div/div/div/table/tbody/tr/td/span/span'
p150
F5.1727846555815535
sS'/html/body/div/div/div/div/table/tr/td/div/div/div/div/p/br'
p151
F8.980139577639157
sS'/html/body/div/div/div/div/div/div/div/div/div/span/span'
p152
F2.713353036944256
sS'/html/body/div/div/div/div/form/div/a'
p153
F5.025943267252282
sS'/html/body/div/div/div/div/div/table/tr/td/div/div/p/sup'
p154
F7.980139577639158
sS'/html/body/div/div/div/div/table/tr/td/div'
p155
F7.395177076918001
sS'/html/body/div/div/div/link'
p156
F1.5665116486149848
sS'/html/body/div/div/div/div/div/div/table/tr/td/div/blockquote/ul/li/code'
p157
F9.980139577639157
sS'/html/body/div/div/div/div/div/p/span'
p158
F4.049402240076271
sS'/html/body/div/div/div/div/table/tr/td/div/div/div/p/kbd/span'
p159
F9.980139577639157
sS'/html/body/div/div/div/div/div/div/table/tr/td/div/ul/li/p/code'
p160
F7.980139577639158
sS'/html/body/div/div/div/div/div/div/div'
p161
F2.0732489820306386
sS'/html/body/div/div/div/div/div/div/div/div/br'
p162
F7.980139577639158
sS'/html/body/div/div/div/div'
p163
F2.025943267252282
sS'/html/body/div/div/div/div/form/div/br'
p164
F5.025943267252282
sS'/html/body/div/div/div/div/div/div/h3/a'
p165
F3.7903150187591397
sS'/html/body/div/div/div/div/div/div/h2/b'
p166
F5.025943267252282
sS'/html/body/div/div/style'
p167
F8.980139577639157
sS'/html/body/div/div/div/div/div/div/h2/a'
p168
F5.025943267252282
sS'/html/body/div/div/div/div/div/ul/li/div'
p169
F1.5665116486149848
sS'/html/body/div/div/div/div/table/tr/td/div/div/div/div/p/kbd/span'
p170
F9.980139577639157
sS'/html/body/div/div/div/div/div/div/table/tr/td/div/ol/li/a'
p171
F7.395177076918001
sS'/html/body/div/div/div/div/div/div/script'
p172
F7.395177076918001
sS'/html/body/div/div/div/form/div/div/div/table/tr/td/label'
p173
F5.336283387864433
sS'/html/body/div/div/div/div/div/div/h2/span'
p174
F5.073248982030639
sS'/html/body/div/div/div/div/form/div/div/div/div/label'
p175
F5.225252075475689
sS'/html/body/div/div/div/div/div/table/tr/td/div/p/span/a'
p176
F9.980139577639157
sS'/html/body/div/div/div/div/div/div/table/tr/td/div/p/em'
p177
F4.279699859498065
sS'/html/body/div/div/div/div/div/div/table/tr/td/div/ol/li/p'
p178
F5.980139577639157
sS'/html/body/div/div/div/div/div/div/table/tr/td/div/blockquote/ul/li'
p179
F7.980139577639158
sS'/html/body/div/div/div/div/div/table/tr/td/div/div/blockquote/p/a'
p180
F7.1727846555815535
sS'/html/body/div/div/div/div/div/span/span'
p181
F3.9140503871813848
sS'/html/body/div/div/div/div/table/tr/td/div/div/div/div/ol/li/kbd/span'
p182
F9.980139577639157
sS'/html/body/div/div/div/div/div/div/div/div/div/a/span'
p183
F5.980139577639157
sS'/html/body/div/div/div/div/div/table/tr/td/div/div/p/sup/a'
p184
F9.980139577639157
sS'/html/body/div/div/div/div/div/div/p'
p185
F3.2386725912380103
sS'/html/body/div/div/div/div/ul/li/div'
p186
F2.810214576196845
sS'/html/body/div/div/div/form/div/div/div/p/strong'
p187
F7.6582114827517955
sS'/html/body/div/div/div/div/div/div/div/div/div/div/span'
p188
F3.5878221548603966
sS'/html/body/div/div/div/div/div/div/b'
p189
F1.5665116486149848
sS'/html/body/div/div/div/div/div/div/a'
p190
F0.06426019880338393
sS'/html/body/div/div/div/div/div/hr'
p191
F2.4332451177515204
sS'/html/body/div/div/div/a/span'
p192
F0.06426019880338393
sS'/html/body/div/div/div/div/div/form/div/noscript/div/table/tr/td/div/label'
p193
F1.7804672328027926
sS'/html/body/div/div/div/div/div/form/div/script'
p194
F1.7804672328027926
sS'/html/body/div/div/div/div/table/tr/td/div/div/div/span'
p195
F5.587822154860397
sS'/html/body/div/div/div/div/div/table/tr/td/div/div/p/a/img'
p196
F6.520707959001861
sS'/html/body/div/div/div/div/table/tr/td/div/div/a'
p197
F5.587822154860397
sS'/html/body/div/div/div/div/div/div/table/tr/td/div/p/sup/code'
p198
F9.980139577639157
sS'/html/body/div/div/div/div/table/tr/td/div/div/p'
p199
F8.980139577639157
sS'/html/body/div/div/div/form/div/script'
p200
F5.336283387864433
sS'/html/body/div/div/div/div/div/div/span'
p201
F3.002859654139241
sS'/html/body/div/div/div/div/div/form/div/noscript/div/table/tr/td/div/input'
p202
F1.7804672328027926
sS'/html/body/div/div/div/div/div/div/div/span'
p203
F1.946716576101707
sS'/html/body/div/div/div/div/div/div/table/tr/td/div/span'
p204
F1.8926767363888177
sS'/html/body/div/div/div/div/table/tr/td/div/div'
p205
F7.6582114827517955
sS'/html/body/div/div/div/div/div/div/table/tr/td/div/blockquote/p/em/strong'
p206
F9.980139577639157
sS'/html/body/div/div/div/div/div/div/table/tr/td/div/table/tbody/tr/td/table/tbody/tr/td/span'
p207
F3.5878221548603966
sS'/html/body/div/div/div/div/div/div/div/table/tr/td/div/span'
p208
F3.52070795900186
sS'/html/body/div/div/div/div/table/tr/td/div/div/p/strong'
p209
F9.980139577639157
sS'/html/body/div/div/div/div/div/h4'
p210
F1.3290878864602287
sS'/html/body/div/div/div/div/div/h3'
p211
F0.06426019880338393
sS'/html/body/div/div/div/div/div/h2'
p212
F8.395177076918001
sS'/html/body/div/div/div/div/div/form/div/div/div/div/script'
p213
F1.7804672328027926
sS'/html/body/div/div/div/div/table/tr/td/div/div/div/div/blockquote/ul/li/span'
p214
F9.980139577639157
sS'/html/body/div/div/div/form/div/div/div/label'
p215
F5.336283387864433
sS'/html/body/div/div/div/div/div/div/table/tr/td/div/ol/li/pre/code'
p216
F9.980139577639157
sS'/html/body/div/div/div/div/form/div/div/div/div/noscript/p'
p217
F5.225252075475689
sS'/html/body/div/div/div/div/div/table/tr/td/div/div/blockquote/p'
p218
F6.520707959001861
sS'/html/body/div/div/div/div/div/table/tr/td/b/a'
p219
F6.6582114827517955
sS'/html/body/div/div/div/div/p/span/a'
p220
F7.980139577639158
sS'/html/body/div/div/div/div/h2/span'
p221
F3.830392458134475
sS'/html/body/div/div/div/div/form/div/div/div/input'
p222
F5.225252075475689
sS'/html/body/div/div/div/div/table/tr/td/div/div/div/p/br'
p223
F8.980139577639157
sS'/html/body/div/div/div/div/div/table/tr/td/div/table/tbody/tr/td/table/tbody/tr/td/span'
p224
F3.850856560694191
sS'/html/body/div/div/div/div/div/form/h2'
p225
F1.7804672328027926
sS'/html/head/link'
p226
F0.06426019880338393
sS'/html/body/div/div/div/div/div/div/div/div/table/tbody/tr/td/div/div/table/tbody/tr/td/span'
p227
F8.395177076918001
sS'/html/body/div/div/div/form/div/style'
p228
F4.810214576196845
sS'/html/body/div/div/div/div/table/tr/td/h1'
p229
F8.395177076918001
sS'/html/body/div/div/div/div/table/tr/td/div/div/div/p/img'
p230
F9.980139577639157
sS'/html/body/div/div/div/div/div/div/div/div/div/a/br'
p231
F8.395177076918001
sS'/html/body/div/div/div/div/div/table/tr/td/div/table/tr/td/div/div/a/span'
p232
F2.3362833878644325
sS'/html/body/div/div/div/div/div/div/div/div/div/p/a'
p233
F7.980139577639158
sS'/html/body/div/div/div/div/div/div/div/div/div/div/a/div/img'
p234
F9.980139577639157
sS'/html/body/div/div/div/div/div/table/tr/td/div/div/b'
p235
F1.5665116486149848
sS'/html/body/div/div/div/div/div/table/tr/td/div/div/a'
p236
F1.5538748229370591
sS'/html/body/div/div/div/div/table/tr/td/div/div/div/p/span'
p237
F5.810214576196844
sS'/html/body/div/div/div/div/table/tr/td/div/div/div/h2/span'
p238
F9.980139577639157
sS'/html/body/div/div/div/div/div/table/tr/td/div/table/tr/td/div/div'
p239
F4.279699859498065
sS'/html/body/div/div/div/div/div/table/tr/td/div/div/p'
p240
F1.6314114234080794
sS'/html/body/div/div/div/div/div/form/div/div/div/input'
p241
F1.7804672328027926
sS'/html/body/div/div/div/div/div/div/div/table/tr/td/div/h4'
p242
F3.52070795900186
sS'/html/body/div/div/div/div/table/tr/td/div/div/div/div/p/a/span'
p243
F7.6582114827517955
sS'/html/body/div/div/div/div/div/div/table/tr/td/div/ol/li/img'
p244
F8.980139577639157
sS'/html/body/div/div/div/div/div/div/table/tr/td/table/tr/td/div/div/a/div/img'
p245
F1.9248571421379674
sS'/html/body/div/div/div/div/table/tr/td/div/div/div/a'
p246
F6.810214576196845
sS'/html/body/div/div/div/div/div/div/table/tr/td/div/div/span'
p247
F6.520707959001861
sS'/html/body/div/div/div/div/table/tr/td/div/div/div/ol/li/em/span'
p248
F9.980139577639157
sS'/html/body/div/div/div/div/div/span'
p249
F3.225252075475688
sS'/html/body/div/div/div/div/div/div/span/span'
p250
F3.2386725912380103
sS'/html/body/div/div/div/div/div/div/table/tr/td/div/ol/li/ul/li/a'
p251
F9.980139577639157
sS'/html/body/div/div/div/div/div/div/table/tr/td/div/ul/li/ul/li'
p252
F8.395177076918001
sS'/html/body/div/div/div/div/form/br'
p253
F4.122158582511585
sS'/html/body/div/div/div/div/div/div/table/tr/td/div/ol/li/blockquote/p'
p254
F9.980139577639157
sS'/html/body/div/div/div/div/div/table/tr/td/div/div/div/p'
p255
F7.395177076918001
sS'/html/body/div/div/div/div/div/div/div/div'
p256
F2.6225875730210735
sS'/html/body/div/div/div/div/div/table/tr/td/div/table/tbody/tr/td/div/span/a/code'
p257
F9.980139577639157
sS'/html/body/div/div/div/div/div/div/table/tr/td/div/table/tbody/tr/td/div/a/span'
p258
F4.810214576196845
sS'/html/body/div/div/div/div/span/a'
p259
F0.06426019880338393
sS'/html/body/div/div/div/div/div/div/table/tr/td/div/ul/li/ul/li/em'
p260
F8.980139577639157
sS'/html/body/div/div/div/div/div/div/div/div/h2/script'
p261
F6.810214576196845
sS'/html/body/div/div/div/div/div/div/table/tr/td/table/tr/td/div/span'
p262
F1.8926767363888177
sS'/html/body/div/div/div/div/div/table/tr/td/div/div/ul/li/p'
p263
F8.395177076918001
sS'/html/body/div/div/div/div/div/div/table/tr/td/table/tr/td/div/div/a/span'
p264
F3.0494022400762706
sS'/html/body/div/div/div/div/div/table/tr/td/div/div/p/sub/a'
p265
F9.980139577639157
sS'/html/body/div/div/div/div/form/div/div/div/div/div/p'
p266
F5.025943267252282
sS'/html/body/div/div/div/div/div/table/tr/td/div/ul/li/b'
p267
F8.395177076918001
sS'/html/body/div/div/div/div/div/table/tr/td/div/ul/li/a'
p268
F8.395177076918001
sS'/html/body/div/div/div/div/table/tr/td/div/div/div/ul/span'
p269
F8.395177076918001
sS'/html/body/div/div/div/form/div/div/div/textarea'
p270
F4.049402240076271
sS'/html/body/div/div/div/div/a'
p271
F0.06426019880338393
sS'/html/body/div/div/div/div/div/div/table/tr/td/div/ol/li'
p272
F5.1727846555815535
sS'/html/body/div/div/div/div/div/div/table/tr/td/div/ul/li/strong'
p273
F7.980139577639158
sS'/html/body/div/div/div/div/p'
p274
F1.8926767363888177
sS'/html/body/div/div/div/div/div/table/tbody/tr/td/div'
p275
F7.395177076918001
sS'/html/body/div/div/div/div/table/tr/td/div/div/div/blockquote/span'
p276
F9.980139577639157
sS'/html/body/div/div/script'
p277
F1.2152679869030665
sS'/html/body/div/div/div/div/table/tr/td/div/div/div/div/p/span'
p278
F5.810214576196844
sS'/html/body/div/div/div/div/div/form/div/div/div/div'
p279
F1.7804672328027926
sS'/html/body/div/div/div/form/div/div/div/p/img'
p280
F9.980139577639157
sS'/html/body/div/div/div/form/div/div/label'
p281
F4.049402240076271
sS'/html/body/pre'
p282
F7.6582114827517955
sS'/html/body/div/div/div/div/div/div/p/a'
p283
F2.596435285165105
sS'/html/body/div/div/div/div/div/div/table/tr/td/div/p/sub/a'
p284
F9.980139577639157
sS'/html/body/div/div/div/div/div/div/table/tr/td/div/h2/strong'
p285
F9.980139577639157
sS'/html/body/div/div/div/div/div/div/table/tr/td/table/tr/td/div/div/div/span/span'
p286
F1.9357454582807037
sS'/html/body/div/div/div/div/table/tr/td/div/div/div/div/p/kbd'
p287
F9.980139577639157
sS'/html/body/div/div/div/div/form/input'
p288
F0.06426019880338393
sS'/html/body/div/div/div/div/div/table/tr/td/div/div/h1'
p289
F8.395177076918001
sS'/html/body/div/div/div/div/div/table/tr/td/div/div/h2'
p290
F8.395177076918001
sS'/html/body/div/div/div/div/div/table/tr/td/div/div/h3'
p291
F9.980139577639157
sS'/html/body/div/div/div/div/h2/a'
p292
F6.6582114827517955
sS'/html/body/div/div/div/h1'
p293
F4.0028596541392405
sS'/html/body/div/div/div/div/div/div/div/div/div/div/div/div/span'
p294
F3.3219280948873626
sS'/html/body/div/div/div/div/div/div/table/tr/td/div/p/sup/a'
p295
F7.980139577639158
sS'/html/body/div/div/div/div/div/div'
p296
F0.06426019880338393
sS'/html/body/div/div/div/div/div/div/table/tr/td/div/pre/code'
p297
F5.122158582511585
sS'/html/body/div/div/div/div/h1/a'
p298
F1.31836147986717
sS'/html/body/div/div/div/div/div/table/tr/td/div/p'
p299
F5.6582114827517955
sS'/html/body/div/div/div/div/h4'
p300
F2.810214576196845
sS'/html/body/div/div/div/div/div/div/table/tr/td/div/p/sup'
p301
F6.810214576196845
sS'/html/body/div/div/div/div/div/form/div/div/div/textarea'
p302
F1.7804672328027926
sS'/html/body/div/div/div/div/h1'
p303
F2.713353036944256
sS'/html/body/div/div/div/div/div/div/table/tr/td/div/p/code'
p304
F4.1727846555815535
sS'/html/body/div/div/div/div/div/table/tr/td/div/a'
p305
F1.5665116486149848
sS'/html/body/div/div/div/div/div/div/div/div/table/tbody/tr/td'
p306
F8.395177076918001
sS'/html/body/div/div/div/div/div/div/table/tr/td/table/tr/td/div/div/a/br'
p307
F7.395177076918001
sS'/html/body/div/div/div/div/table/tr/td/div/div/div/div/p/strong'
p308
F8.980139577639157
sS'/html/body/div/div/div/div/div/table/tr/td/div/div/hr'
p309
F7.980139577639158
sS'/html/body/div/div/div/div/div/div/div/span/span'
p310
F9.980139577639157
sS'/html/body/div/div/div/div/div/ul/li/div/a'
p311
F0.06426019880338393
sS'/html/body/div/div/div/form/div/a'
p312
F4.049402240076271
sS'/html/body/div/div/div/div/div/table/tr/td/div/table/tr/td/div/div/a/div/img'
p313
F1.5792601413569727
sS'/html/body/div/div/div/div/div/form/script'
p314
F1.7804672328027926
sS'/html/body/div/div/div/div/div/div/table/tr/td/div/table/tbody/tr/td/div/span/code'
p315
F5.336283387864433
sS'/html/body/div/div/div/div/div/table/tr/td/p/b'
p316
F1.5665116486149848
sS'/html/body/div/div/div/div/table/tr/td/div/div/div/ul/li/span'
p317
F7.980139577639158
sS'/html/body/div/div/div/div/div/div/table/tr/td/div/p/a/code'
p318
F9.980139577639157
sS'/html/body/div/div/div/div/div/div/div/h2'
p319
F3.751320887143276
sS'/html/body/div/div/div/p/a'
p320
F4.553874822937059
sS'/html/body/div/div/div/form/div/div/div/table/tr/td/input'
p321
F5.336283387864433
sS'/html/body/div/div/div/div/div/table/tr/td/div/a/b'
p322
F5.1727846555815535
sS'/html/body/div/div/div/div/table/tr/td/div/div/div'
p323
F6.395177076918001
sS'/html/body/div/div/div/div/div/div/table/tr/td/div/input'
p324
F1.8926767363888177
sS'/html/body/div/div/div/form/div/div/input'
p325
F4.049402240076271
sS'/html/body/div/div/div/div/table/tr/td/div/div/p/code'
p326
F9.980139577639157
sS'/html/body/div/div/div/div/div/div/div/script'
p327
F2.8002304876242228
sS'/html/body/feed/entry/rank'
p328
F4.732212064195572
sS'/html/body/div/div/div/div/div/div/div/div/div/p/em'
p329
F8.980139577639157
sS'/html/body/div/div/div/div/span/div/div/ul/li/a/span'
p330
F0.06426019880338393
sS'/html/body/div/div/div/div/div/div/table/tr/td/div/ul/li/br'
p331
F9.980139577639157
sS'/html/body/div/div/div/div/div/div/div/table/tr/td/div/ul/li/span'
p332
F3.52070795900186
sS'/html/body/div/div/div/div/div/table/tr/td/div/h2/b'
p333
F5.025943267252282
sS'/html/body/div/div/div/div/div/div/table/tr/td/table/tr/td/div/div/div'
p334
F3.52070795900186
sS'/html/body/div/div/div/div/div/div/h2/span/span'
p335
F5.025943267252282
sS'/html/body/div/div/div/div/div/div/div/div/div/pre/code'
p336
F9.980139577639157
sS'/html/body/div/div/div/div/div/table/tr/td/div/h2/span/span'
p337
F5.025943267252282
sS'/html/body/div/div/div/div/div/div/table/tr/td/div/p/img'
p338
F6.2796998594980655
sS'/html/body/div/div/div/div/span'
p339
F4.198779864114498
sS'/html/body/div/div/div/div/table/tr/td/div/div/div/div/h2/span'
p340
F9.980139577639157
sS'/html/body/div/div/div/div/table/tr/td/div/div/div/div/span'
p341
F6.1727846555815535
sS'/html/body/div/div/div/div/table/tr/td/div/div/div/div/blockquote/span'
p342
F9.980139577639157
sS'/html/body/div/div/div/div/div/div/table/tbody/tr/td/div'
p343
F4.980139577639157
sS'/html/body/div/div/div/div/div/table/tr/td/div/div/blockquote/ul/li'
p344
F8.980139577639157
sS'/html/body/div/div/div/div/div/div/table/tr/td/div/table/tbody/tr/td/table/tbody/tr/td'
p345
F2.596435285165105
sS'/html/body/div/div/div/div/form/div'
p346
F4.0028596541392405
sS'/html/body/div/div/div/form/div/div/div/p/code'
p347
F7.1727846555815535
sS'/html/body/div/div/div/div/div/div/table/tr/td/div/ol/li/p/strong'
p348
F8.980139577639157
sS'/html/body/div/div/div/div/div/table/tbody/tr/td/span/span'
p349
F6.2796998594980655
sS'/html/body/div/div/div/div/div/table/tr/td/div/div/div/span'
p350
F8.395177076918001
sS'/html/body/div/div/div/div/div/div/div/div/table/tbody/tr/td/div/div/table/tbody/tr/td/a'
p351
F8.395177076918001
sS'/html/body/div/div/div/div/table/tr/td/div/div/div/div/p/em/span'
p352
F7.980139577639158
sS'/html/body/div/div/div/div/div/table/tr/td/div/div/p/strong/em'
p353
F7.980139577639158
sS'/html/body/div/div/div/div/form/div/div/div/div'
p354
F4.122158582511585
sS'/html/body/div/div/div/div/div/form/div/noscript/h3'
p355
F1.7804672328027926
sS'/html/body/div/div/div/div/div/div/table/tbody/tr/td'
p356
F6.6582114827517955
sS'/html/body/div/div/div/div/div/div/table/tr/td/div/ol/li/strong'
p357
F8.395177076918001
sS'/html/body/div/div/div/div/div/table/tr/td/div/table/tr/td/div/div/span'
p358
F1.5665116486149848
sS'/html/body/div/div/div/div/div/div/div/a/div'
p359
F1.4763138396434063
sS'/html/body/div/div/div/div/div/div/div/div/div/hr'
p360
F8.980139577639157
sS'/html/body/div/div/div/form/script'
p361
F4.049402240076271
sS'/html/body/div/div/div/div/div/div/table/tr/td/div/table/tbody/tr/td/div/span/span'
p362
F2.596435285165105
sS'/html/body/feed/entry/summary'
p363
F4.6947373587769095
sS'/html/body/div/div/div/div/div/div/div/a/div/ul/li'
p364
F3.2386725912380103
sS'/html/body/div/div/div/div/div/table/tr/td/div/div/blockquote/p/strong'
p365
F7.395177076918001
sS'/html/body/div/div/div/div/div/ul/li/span/span'
p366
F3.2386725912380103
sS'/html/body/div/div/div/br'
p367
F2.8002304876242228
sS'/html/body/div/div/div/div/div/table/tr/td/div/div/ul/li'
p368
F6.395177076918001
sS'/html/body/div/div/div/div/img'
p369
F3.061276340364563
sS'/html/body/div/div/div/div/div/a/div'
p370
F2.1663583864221203
sS'/html/body/div/div/div/div/div/table/tr/td/b'
p371
F8.980139577639157
sS'/html/body/div/div/div/div/div/table/tr/td/a'
p372
F8.395177076918001
sS'/html/body/div/div/div/div/p/span'
p373
F3.830392458134475
sS'/html/body/feed/license'
p374
F4.6947373587769095
sS'/html/body/div/div/div/div/div/table/tr/td/div/div/a/div/img'
p375
F8.395177076918001
sS'/html/body/div/div/div/div/table/tr/td/div/a'
p376
F5.810214576196844
sS'/html/body/feed/entry/author/name'
p377
F4.6947373587769095
sS'/html/body/div/div/div/div/div/table/tr/td/p'
p378
F1.5665116486149848
sS'/html/body/div/div/div/div/h4/a'
p379
F2.810214576196845
sS'/html/body/div/div/div/div/table/tr/td/div/div/div/div/h3/span'
p380
F9.980139577639157
sS'/html/body/div/div/div/div/table/tr/td/p'
p381
F9.980139577639157
sS'/html/body/div/div/div/div/div/div/table/tr/td/div/p/br'
p382
F5.456577621582144
sS'/html/body/div/div/div/div/table/tr/td/div/table/tr/td/div/div/div/span/span'
p383
F8.395177076918001
sS'/html/body/div/div/div/div/div/table/tr/td/div/div/p/s'
p384
F9.980139577639157
sS'/html/body/div/div/div/div/div/table/tr/td/div/div/p/code'
p385
F5.279699859498065
sS'/html/body/div/div/div/div/table/tr/td/b'
p386
F7.980139577639158
sS'/html/body/div/div/div/div/table/tr/td/a'
p387
F7.980139577639158
sS'/html/body/div/div/div/form/input'
p388
F4.049402240076271
sS'/html/body/div/div/div/div/div/table/tr/td/div/div/p/a'
p389
F4.336283387864433
sS'/html/body/div/div/div/div/div/table/tr/td/p/b/a'
p390
F1.8926767363888177
sS'/html/body/div/div/div/div/div/form/div/div/input'
p391
F1.7804672328027926
sS'/html/body/div/div/div/div/div/div/table/tr/td/div/table/tbody/tr/td'
p392
F2.3876825403710766
sS'/html/body/div/div/div/div/div/div/table/tr/td/div/p/sup/strong'
p393
F8.980139577639157
sS'/html/body/div/div/div/div/div/table/tr/td/div/table/tbody/tr/td/table/tbody/tr/td'
p394
F2.3435149570955085
sS'/html/body/div/div/div/div/div/div/br'
p395
F1.1190526716437634
sS'/html/body/div/div/div/div/div/div/table/tbody/tr/td/a/span'
p396
F5.225252075475689
sS'/html/body/div/div/div/div/div/table/tr/td/div/div/p/i/a'
p397
F9.980139577639157
sS'/html/body/div/div/div/div/form/div/div/div/div/input'
p398
F4.122158582511585
sS'/html/body/div/div/div/div/div/div/table/tr/td'
p399
F1.5003593136100577
sS'/html/body/div/div/div/div/div/div/table/tr/td/div/ol/li/p/code'
p400
F7.1727846555815535
sS'/html/body/div/div/div/div/div/form/div/div'
p401
F1.7804672328027926
sS'/html/body/div/div/div/div/style'
p402
F9.980139577639157
sS'/html/body/div/div/div/div/div/table/tr/td/div/div/ol/li'
p403
F7.6582114827517955
sS'/html/body/div/div/div/div/div/div/table/tr/td/table/tr/td/div/a'
p404
F1.8926767363888177
sS'/html/body/div/div/div/div/div/div/table/tr/td/div/ol/li/em/a'
p405
F9.980139577639157
sS'/html/body/div/div/div/form/div/h2/a'
p406
F4.810214576196845
sS'/html/body/noscript/div/img'
p407
F0.06426019880338393
sS'/html/body/div/div/div/div/div/ul/li/a'
p408
F1.5665116486149848
sS'/html/body/div/div/div/div/div'
p409
F1.1922370182477255
sS'/html/body/div/div/div/form/div/div/div/p'
p410
F5.025943267252282
sS'/html/body/div/div/div/div/div/div/table/tr/td/div/table/tbody/tr/td/div/span/i'
p411
F5.52070795900186
sS'/html/body/feed/updated'
p412
F4.6947373587769095
sS'/html/body/div/div/div/div/div/div/table/tr/td/span'
p413
F3.830392458134475
sS'/html/body/div/div/div/div/div/div/table/tr/td/div/table/tbody/tr/td/div/span/b'
p414
F6.810214576196845
sS'/html/body/div/div/div/div/div/div/table/tr/td/div/table/tbody/tr/td/div/span/a'
p415
F4.307714235667662
sS'/html/body/div/div/div/div/table/tr/td/div/table/tr/td/div/div/div/span'
p416
F8.395177076918001
sS'/html/body/div/div/div/div/table/tr/td/div/div/div/a/span'
p417
F7.980139577639158
sS'/html/body/div/div/noscript/div/img'
p418
F2.1663583864221203
sS'/html/body/div/div/div/div/div/table/tr/td/div/table/tbody/tr/td/div/span/b/i'
p419
F9.980139577639157
sS'/html/body/div/div/div/div/div/table/tr/td/div/div/ul/li/em'
p420
F9.980139577639157
sS'/html/body/div/div/div/div/div/table/tr/td/div/span/a'
p421
F8.395177076918001
sS'/html/body/div/div/div/div/table/tr/td/div/div/div/div/hr'
p422
F9.980139577639157
sS'/html/body/div/div/div/div/div/div/div/table/tr/td/div/ul/li/a/span'
p423
F3.52070795900186
sS'/html/body/div/div/div/div/div/table/tr/td/div/div/ul/li/p/a'
p424
F8.980139577639157
sS'/html/body/div/div/div/form/div/div/div/ul/li'
p425
F9.980139577639157
sS'/html/body/div/div/div/div/div/div/table/tr/td/div/blockquote/ol/li/p'
p426
F9.980139577639157
sS'/html/body/div/div/div/div/div/div/div/br'
p427
F4.225252075475688
sS'/html/body/div/div/div/div/div/div/table/tr/td/div/blockquote/h2'
p428
F9.980139577639157
sS'/html/body/div/div/div/div/div/div/table/tr/td/div/blockquote/h1'
p429
F9.980139577639157
sS'/html/body/div/div/div/div/div/div/div/div/table/tbody/tr/td/span'
p430
F8.395177076918001
sS'/html/body/div/div/div/div/div/div/table/tr/td/div/ul/li/ul/li/a'
p431
F8.980139577639157
sS'/html/body/div/div/div/form/div/h2'
p432
F4.810214576196845
sS'/html/body/div/div/div/div/div/div/table/tr/td/div/ul/li/p/strong'
p433
F8.980139577639157
sS'/html/body/div/div/div/div/div/div/table/tr/td/div/blockquote/p/em'
p434
F9.980139577639157
sS'/html/body/div/div/div/div/div/table/tr/td/div/span'
p435
F1.5665116486149848
sS'/html/body/div/div/div/div/div/table/tr/td/div/div/div/span/span'
p436
F8.395177076918001
sS'/html/body/div/div/div/div/div/ul/li/div/span'
p437
F0.06426019880338393
sS'/html/body/div/div/div/div/div/table/tbody/tr/td/a/span'
p438
F6.520707959001861
sS'/html/body/div/div/div/div/table/tr/td/div/div/div/p/kbd'
p439
F9.980139577639157
sS'/html/body/div/div/div/div/table/tr/th'
p440
F0.06426019880338393
sS'/html/body/div/div/div/div/table/tr/td'
p441
F5.395177076918001
sS'/html/body/div/div/div/div/div/table/tr/td/div/div/p/kbd'
p442
F9.980139577639157
sS'/html/body/div/div/div/div/table/tr/td/div/div/div/div/p/a'
p443
F8.395177076918001
sS'/html/body/div/div/div/div/div/div/div/ul/li/div'
p444
F3.097496528277316
sS'/html/body/div/div/div/div/table/tr/td/div/div/div/p/strong/span'
p445
F8.980139577639157
sS'/html/body/div/div/div/div/noscript/div/img'
p446
F9.980139577639157
sS'/html/body/div/div/div/div/div/div/div/div/h2'
p447
F3.6051001462922327
sS'/html/body/div/div/div/div/div/div/table/tr/td/div/blockquote/p'
p448
F4.6225875730210735
sS'/html/body/div/div/div/div/table/tr/td/div/div/div/ul/li/code/span'
p449
F9.980139577639157
sS'/html/body/div/div/div/div/div/div/div/div/div/div/div/span/span'
p450
F9.980139577639157
sS'/html/body/div/div/div/div/div/form/div/div/div/div/h3'
p451
F1.7804672328027926
sS'/html/head/style'
p452
F3.751320887143276
sS'/html/body/div/div/div/div/div/div/table/tr/td/div/ul/li/p/a/img'
p453
F9.980139577639157
sS'/html/body/div/div/div/div/div/div/div/h2/span'
p454
F1.8926767363888177
sS'/html/body/div/div/div/div/div/table/tr/td/div/div/p/strong/a'
p455
F9.980139577639157
sS'/html/body/div/div/div/div/div/table/tr/td/div/p/a'
p456
F6.520707959001861
sS'/html/body/div/div/div/div/div/div/table/tr/td/div/p/a/img'
p457
F6.980139577639157
sS'/html/body/div/div/div/div/div/table/tr/td/div/table/tr/td/div/span'
p458
F1.5665116486149848
sS'/html/body/div/div/div/div/div/div/table/tr/td/div/ol/li/p/a'
p459
F7.980139577639158
sS'/html/body/div/div/div/div/div/table/tr/td/div/div/ul/li/p/strong'
p460
F8.980139577639157
sS'/html/body/div/div/div/div/div/table/tr/td/div/table/tr/td/div/div/a/br'
p461
F8.980139577639157
sS'/html/body/div/div/div/div/div/div/table/tr/td/div/ol/li/ul/li'
p462
F8.395177076918001
sS'/html/body/div/div/div/div/div/div/div/ul/li/a/span/span'
p463
F3.097496528277316
sS'/html/body/div/div/div/div/table/tr/td/div/div/div/p/code/span'
p464
F8.395177076918001
sS'/html/body/div/div/div/div/div/table/tr/td/div/table/tbody/tr/td'
p465
F2.830392458134475
sS'/html/body/div/div/div/div/div/div/table/tr/td/div/blockquote/p/strong'
p466
F6.2796998594980655
sS'/html/body/div/div/div/div/div/div/div/div/b'
p467
F6.1727846555815535
sS'/html/body/div/div/div/div/div/table/tr/td/div/div/ul/li/strong/em'
p468
F9.980139577639157
sS'/html/body/div/div/div/div/div/div/div/div/a'
p469
F3.085321814331214
sS'/html/body/div/div/div'
p470
F0.06426019880338393
sS'/html/body/div/div/div/form/div/div/div/input'
p471
F5.336283387864433
sS'/html/body/feed/id'
p472
F4.6947373587769095
sS'/html/body/div/div/div/div/div/div/table/tr/td/div/ol/li/pre'
p473
F9.980139577639157
sS'/html/body/div/div/div/div/div/div/table/thead/tr/th'
p474
F6.1727846555815535
sS'/html/body/div/div/div/form/div/div/div/pre/code'
p475
F9.980139577639157
sS'/html/body/div/div/div/div/form/div/div/div/hr'
p476
F4.122158582511585
sS'/html/body/div/div/div/div/table/tr/td/p/b'
p477
F9.980139577639157
sS'/html/body/div/div/div/div/table/tr/td/div/table/tr/td/div/div/a'
p478
F8.395177076918001
sS'/html/body/noscript/div'
p479
F0.06426019880338393
sS'/html/body/div/div/div/div/div/div/table/tr/td/div/p/a/em'
p480
F9.980139577639157
sS'/html/body/div/div/div/div/div/script'
p481
F1.5248123573345964
sS'/html/body/div/div/div/div/table/tr/td/div/div/div/div/ol/span'
p482
F9.980139577639157
sS'/html/body/div/div/div/div/div/table/tr/td/span/a'
p483
F7.6582114827517955
sS'/html/body/div/div/div/div/div/div/table/tr/td/div/ul/li/strong/code'
p484
F9.980139577639157
sS'/html/body/div/div/div/div/div/table/tr/td/span/b'
p485
F9.980139577639157
sS'/html/body/div/div/div/div/div/div/table/tr/td/div/p/sub'
p486
F7.1727846555815535
sS'/html/body/div/div/div/div/div/table/tr/td/div/table/tr/td/div/div/div/span/span'
p487
F1.6492226995245403
sS'/html/body/div/div/div/div/div/div/table/tr/td/div/ul/li/sup'
p488
F8.980139577639157
sS'/html/body/div/div/div/div/div/div/div/div/input'
p489
F8.980139577639157
sS'/html/body/div/div/div/div/table/tr/td/div/div/div/div/ol/li/span'
p490
F9.980139577639157
sS'/html/body/div/div/div/div/div/div/div/div/h3/a'
p491
F6.395177076918001
sS'/html/body/div/div/div/div/table/tr/td/div/div/div/div/p/img'
p492
F9.980139577639157
sS'/html/body/div/div/div/div/div/div/table/tr/td/table/tr/td/div/div'
p493
F3.6402895747545325
sS'/html/body/div/div/div/div/div/div/div/div/div/p/a/img'
p494
F9.980139577639157
sS'/html/body/div'
p495
F0.06426019880338393
sS'/html/body/div/div/div/div/div/div/table/tr/td/div/p/del'
p496
F9.980139577639157
sS'/html/body/div/div/div/div/div/table/tr/td/div/div/ul/li/code'
p497
F8.980139577639157
sS'/html/body/div/div/div/div/div/table/tr/td/div/div/pre/code'
p498
F5.732212064195571
sS'/html/body/div/div/div/div/div/div/div/a/div/svg/g/polyline'
p499
F6.2796998594980655
sS'/html/body/div/div/div/div/p/br'
p500
F9.980139577639157
sS'/html/body/div/div/div/div/div/div/div/div/div/div/ul/li/a'
p501
F5.122158582511585
sS'/html/body/div/div/div/div/div/table/tr/td'
p502
F1.5496870259736257
sS'/html/body/div/div/div/div/div/div/table/tr/td/div/ul/li/p/a'
p503
F8.395177076918001
sS'/html/body/div/div/div/div/table/tr/td/div/div/div/h3/span'
p504
F9.980139577639157
sS'/html/body/div/div/div/div/div/div/table/tr/td/table/tr/td/div/div/div/span'
p505
F1.9248571421379674
sS'/html/body/div/div/div/div/div/table/tr/td/div/table/tbody/tr/td/div/span'
p506
F2.504406146672759
sS'/html/body/div/div/div/div/div/div/div/div/div/div'
p507
F2.0085960236883853
sS'/html/body/div/div/div/div/div/form/div/div/div/div/div/p/span'
p508
F1.7804672328027926
sS'/html/body/div/div/div/div/br'
p509
F6.6582114827517955
sS'/html/body/div/div/div/div/div/div/table/tr/td/div/p/em/strong'
p510
F9.980139577639157
sS'/html/body/div/div/div/div/a/span'
p511
F4.198779864114498
sS'/html/body/div/div/div/div/div/div/div/div/h2/span'
p512
F4.850856560694191
sS'/html/body/div/div/div/div/div/div/table/tr/td/div/ol/li/ul/li/code'
p513
F9.980139577639157
sS'/html/body/div/div/div/div/div/div/table/tr/td/div/p/a'
p514
F2.5125340275561596
sS'/html/body/div/div/div/div/div/table/tr/td/div/div/span'
p515
F8.980139577639157
sS'/html/body/div/div/div/div/table/tr/td/div/div/br'
p516
F5.810214576196844
sS'/html/body/div/div/div/div/div/div/table/tr/td/div/ol/li/em/code'
p517
F9.980139577639157
sS'/html/body/div/div/div/div/div/form/div/p/a'
p518
F1.7804672328027926
sS'/html/body/div/div/div/div/table/tr/td/div/div/div/p/a/span'
p519
F7.6582114827517955
sS'/html/body/div/div/div/div/div/div/table/tr/td/div/ol/li/p/a/img'
p520
F9.980139577639157
sS'/html/body/div/div/div/div/div/div/table/tr/td/div/ol/li/ul/li/em'
p521
F9.980139577639157
sS'/html/body/div/div/div/div/div/div/div/ul/li/a/span/span/span'
p522
F3.472344937440461
sS'/html/body/div/div/div/div/div/div/table/tr/td/div/p/strong'
p523
F4.147249563474415
sS'/html/body/div/div/div/div/div/div/div/a/span'
p524
F4.365429733523949
sS'/html/body/div/div/div/div/div/form/div/div/div/div/h3/a'
p525
F1.7804672328027926
sS'/html/body/div/div/div/div/table/tr/td/div/div/div/div/ul/li'
p526
F9.980139577639157
sS'/html/body/feed/link'
p527
F4.6947373587769095
sS'/html/body/div/div/div/div/div/table/tr/td/div/div/div/ul/li/a'
p528
F7.395177076918001
sS'/html/body/div/div/div/div/div/div/div/h3/span'
p529
F3.097496528277316
sS'/html/head/title'
p530
F0.05681209221996498
sS'/html/body/div/div/div/div/div/div/table/tr/td/div/ul/li/em'
p531
F6.980139577639157
sS'/html/body/div/div/div/div/div/div/table/tr/td/div/a/b'
p532
F5.732212064195571
sS'/html/body/div/div/div/div/div/table/tr/td/a/span'
p533
F8.395177076918001
sS'/html/body/div/div/div/div/form/div/input'
p534
F4.122158582511585
sS'/html/body/div/div/div/div/ul/li/a'
p535
F0.06426019880338393
sS'/html/body/div/div/div/div/div/div/div/h3/span/span/i'
p536
F9.980139577639157
sS'/html/body/div/div/div/div/div/div/div/a/div/svg/g/line'
p537
F6.2796998594980655
sS'/html/body/div/div/div/div/div/div/div/span/a'
p538
F3.830392458134475
sS'/html/body/div/div/div/form/div/div/div/p/strong/em'
p539
F9.980139577639157
sS'/html/body/div/div/div/div/div/div/div/h3/span/span/a'
p540
F3.3219280948873626
sS'/html/body/div/div/div/div/div/table/tr/td/div/div/ul/li/ol/li/a'
p541
F9.980139577639157
sS'/html/body/div/div/div/div/ul/li/a/strong'
p542
F4.553874822937059
sS'/html/body/div/div/div/div/div/div/table/tr/td/div/table/tbody/tr/td/div/span/b/i'
p543
F9.980139577639157
sS'/html/body/div/div/div/div/span/a/span'
p544
F0.06426019880338393
sS'/html/body/div/div/div/div/div/div/table/tr/td/div/p/strong/a'
p545
F7.6582114827517955
sS'/html/body/div/div/div/div/div/div/table/tr/td/div/table/tbody/tr/td/div/span/a/code'
p546
F9.980139577639157
sS'/html/body/div/div/div/div/div/div/div/ul/li/a'
p547
F4.365429733523949
sS'/html/body/div/div/div/div/div/div/table/tr/td/div/ul/li/code'
p548
F6.980139577639157
sS'/html/body/div/div/div/div/form/div/label'
p549
F5.025943267252282
sS'/html/body/div/div/div/div/table/tr/td/div/div/div/div/p/em'
p550
F9.980139577639157
sS'/html/body/div/div/div/div/div/div/table/tr/td/div/ol/li/kbd'
p551
F8.980139577639157
sS'/html/body/div/div/div/div/div/div/div/span/span/a/span'
p552
F3.350782957559548
sS'/html/body/div/div/div/div/table/tr/td/div/table/tr/td'
p553
F8.395177076918001
sS'/html/body/div/div/div/div/div/table/tr/td/div/table/tbody/tr/td/div/a'
p554
F2.440980766531126
sS'/html/body/feed/title'
p555
F4.6947373587769095
sS'/html/body/div/div/div/div/div/h3/a'
p556
F0.06426019880338393
sS'/html/body/div/div/div/div/table/tr/td/div/div/div/div/ul/span'
p557
F8.395177076918001
sS'/html/body/div/div/div/div/script'
p558
F0.8002304876242227
sS'/html/body/div/div/div/div/div/div/table/tr/td/div/ul/li/sup/code'
p559
F9.980139577639157
sS'/html/body/div/div/div/div/div/h2/a'
p560
F1.6181958039039157
sS'/html/body/div/div/div/div/div/div/table/tr/td/table/tr/td/div/div/span'
p561
F1.8926767363888177
sS'/html/body/div/div/div/div/div/div/div/div/div/a/div/img'
p562
F2.4027107496034086
sS'/html/body/div/div/div/div/table/tr/td/div/div/div/p'
p563
F6.395177076918001
sS'/html/body/div/div/div/div/div/div/table/tr/td/table/tr/td/div/div/a'
p564
F1.9033239805883262
sS'/html/body/div/div/div/div/table/tr/td/div/div/pre/code'
p565
F9.980139577639157
sS'/html/body/div/div/div/div/form/div/div/div/a'
p566
F5.225252075475689
sS'/html/body/div/div/div/div/table/tr/td/div/div/div/div/h1/span/span'
p567
F7.6582114827517955
sS'/html/body/div/div/div/div/div/div/div/h3'
p568
F3.097496528277316
sS'/html/body/div/div/div/div/div/table/tr/td/div/table/tbody/tr/td/div/span/b'
p569
F6.810214576196845
sS'/html/body/div/div/div/div/div/table/tr/td/div/table/tbody/tr/td/div/span/a'
p570
F3.6402895747545325
sS'/html/body/div/div/div/div/div/div/div/div/table/tbody/tr/td/a'
p571
F8.395177076918001
sS'/html/body/div/div/div/div/div/table/tr/td/div/table/tbody/tr/td/div/span/i'
p572
F5.810214576196844
sS'/html/body/div/div/div/div/div/table/tr/td/div/input'
p573
F1.5665116486149848
sS'/html/body/div/div/div/div/div/h4/a'
p574
F1.5665116486149848
sS'/html/body/div/div/div/div/table/tr/td/div/div/div/div/blockquote/ul/span'
p575
F9.980139577639157
sS'/html/body/div/div/div/div/div/div/table/tr/td/div/p/sup/sup'
p576
F9.980139577639157
sS'/html/body/div/div/div/div/table/tr/td/div/div/div/div/blockquote/p/code/span'
p577
F9.980139577639157
sS'/html/body/div/div/div/div/form/div/div/div/div/div/noscript/p'
p578
F5.025943267252282
sS'/html/body/div/div/div/div/div/div/table/tr/td/div/p/sup/em/a'
p579
F9.980139577639157
sS'/html/body/div/div/div/div/table/tr/td/div/div/div/div/ol/li/em/span'
p580
F9.980139577639157
sS'/html/body/feed/entry/published'
p581
F4.6947373587769095
sS'/html/body/div/div/div/div/table/tr/td/div/div/div/ol/li/span'
p582
F9.980139577639157
sS'/html/body/div/div/div/div/div/div/div/span/a/b'
p583
F9.980139577639157
sS'/html/body/div/div/div/div/div/div/table/tr/td/div/blockquote/p/a'
p584
F6.980139577639157
sS'/html/body/div/div/div/div/div/div/hr'
p585
F4.252219123075958
sS'/html/body/div/div/div/div/div/div/h3/a/span'
p586
F4.980139577639157
sS'/html/body/div/div/div/div/div/div/div/div/div/ul/li'
p587
F9.980139577639157
sS'/html/body/div/div/div/div/div/table/tr/td/div/h2/span'
p588
F6.395177076918001
sS'/html/body/div/div/div/div/div/div/a/div'
p589
F5.980139577639157
sS'/html/body/div/div/div/div/div/div/p/span'
p590
F2.8926767363888177
sS'/html/body/feed/entry/id'
p591
F4.6947373587769095
sS'/html/body/div/div/div/form/div/div/div/div'
p592
F4.049402240076271
sS'/html/body/div/div/div/div/div/div/table/tr/td/div/p/sup/br'
p593
F9.980139577639157
sS'/html/body/div/div/div/div/table/tr/td/div/div/div/p/code'
p594
F7.980139577639158
sS'/html/body/div/div/div/div/div/table/tr/td/div/div/ol/li/a'
p595
F9.980139577639157
sS'/html/body/div/div/div/div/div/ul/li/a/div'
p596
F0.06426019880338393
sS'/html/body/script'
p597
F0.06426019880338393
sS'/html/body/div/div/div/form/div/div/div/p/em'
p598
F7.6582114827517955
sS'/html/body/div/div/div/div/div/div/table/tr/td/div/ol/li/br'
p599
F8.980139577639157
sS'/html/body/div/div/div/div/div/p'
p600
F3.9801395776391573
sS'/html/body/div/div/div/div/div/div/div/div/div/p/strong'
p601
F9.980139577639157
sS'/html/body/div/div/div/div/table/tr/td/div/div/div/blockquote/ul/span'
p602
F9.980139577639157
sS'/html/body/div/div/div/div/span/span'
p603
F6.810214576196845
sS'/html/body/div/div/div/div/div/div/div/div/div'
p604
F4.456577621582144
sS'/html/body/div/div/div/div/table/tr/td/div/div/div/div/p/code/span'
p605
F8.395177076918001
sS'/html/body/div/div/div/div/div/a'
p606
F0.06426019880338393
sS'/html/body/div/div/div/div/table/tr/td/div/h1/a'
p607
F8.395177076918001
sS'/html/body/div/div/div/div/div/div/table/tr/td/div/blockquote/ol/li'
p608
F9.980139577639157
sS'/html/body/div/div/div/div/div/div/div/div/strong'
p609
F3.0494022400762706
sS'/html/body/div/div/div/div/div/table/tr/td/div/table/tr/td/div/br'
p610
F8.980139577639157
sS'/html/body/div/div/div/div/div/div/table/tr/td/div/ul/li'
p611
F5.1727846555815535
sS'/html/body/div/div/div/div/div/div/div/div/div/div/div/div/div/span'
p612
F3.3219280948873626
sS'/html/body/div/div/div/div/div/table/tr/td/div/table/tr/td/div/a'
p613
F1.5665116486149848
sS'/html/body/feed/entry/author/uri'
p614
F4.6947373587769095
sS'/html/body/div/div/div/script'
p615
F0.8873824367193047
sS'/html/body/div/div/div/div/div/div/div/p/a'
p616
F7.395177076918001
sS'/html/body/div/div/div/div/div/table/tr/td/div/div/ul/li/strong'
p617
F8.395177076918001
sS'/html/body/feed/entry/title'
p618
F4.6947373587769095
sS'/html/body/div/div/div/div/form/a'
p619
F5.225252075475689
sS'/html/body/div/div/div/div/div/form/div/div/div/div/div/table/tr/td/div/label'
p620
F1.7804672328027926
sS'/html/body/div/div/div/div/div/h1/span'
p621
F3.751320887143276
sS'/html/body/div/div/div/div/div/div/div/div/script'
p622
F7.6582114827517955
s.