(dp0
S'/html/body/div/div/div/div/div/div/table/tr/td/div/a/span'
p1
F4.293358942690592
sS'/html/body/div/div/div/div/div/div/div/div/div/b'
p2
F9.965784284662087
sS'/html/body/div/div/div/div/div/div/div/div/div/a'
p3
F1.7369655941662063
sS'/html/body/div/div/div/div/div/ul/ul/li/span'
p4
F8.380821783940931
sS'/html/body/div/div/div/div/div/div/div/div/a/img'
p5
F2.3364276645824775
sS'/html/body/div/div/div/div/div/div/div/div/div/div/span/br'
p6
F9.965784284662087
sS'/html/body/div/div/div/div/div/div/div/div/div/div/div/h3/span/div'
p7
F7.158429362604482
sS'/html/body/div/div/div/div/div/span/br'
p8
F3.7958592832197753
sS'/html/body/div/div/div/div/div/div/p/br'
p9
F9.965784284662087
sS'/html/body/div/div/div/div/div/div/div/div/div/div/div/div/ul/li/a'
p10
F4.836501267717121
sS'/html/body/div/div/div/div/div/p/a'
p11
F2.244685095954902
sS'/html/body/div/div/div/div/div/div/div/div/h3/div/a/img'
p12
F2.7563309190331373
sS'/html/body/div/div/div/div/div/div/div/h3/div/a/img'
p13
F4.237863830098888
sS'/html/body/div/div/div/div/div/table/thead/tr/td/a'
p14
F7.158429362604482
sS'/html/body/div/div/div/div/div/div/div/div/div/div/div/div/span/a'
p15
F2.6896598793878495
sS'/html/body/div/div/div/div/div/div/table/tr/td/a'
p16
F7.158429362604482
sS'/html/body/div/div/div/div/div/div/div/div/div/div/dl/dd/span/a'
p17
F6.643856189774725
sS'/html/body/header/div/div/div/div/a'
p18
F7.965784284662087
sS'/html/body/div/div/div/p/span'
p19
F5.878321443411747
sS'/html/body/rss/channel/item/link'
p20
F4.473931188332412
sS'/html/body/div/div/div/div/div/div/div/div/div/div/p/br'
p21
F3.279283757478869
sS'/html/body/div/div/div/span/a'
p22
F7.643856189774724
sS'/html/body/div/div/div/img'
p23
F9.965784284662087
sS'/html/body/div/div/div/a'
p24
F0.2243172982609401
sS'/html/body/div/div/div/div/div/div/div/div/div/span'
p25
F1.2933589426905916
sS'/html/body/div/div/div/div/div/div/div/span/input'
p26
F2.8262329322632938
sS'/html/body/div/div/div/div/ol/li/div/div/div/p/br'
p27
F9.965784284662087
sS'/html/head/meta'
p28
F0.06945188075214527
sS'/html/body/div/div/div/div/div/div/div/div/div/p'
p29
F8.380821783940931
sS'/html/body/div/div/div/div/ul/li/div/br'
p30
F8.965784284662087
sS'/html/body/header/div/div/div/div/img'
p31
F7.965784284662087
sS'/html/body/div/div/div/div/div/div/ul/li/ul/li/a'
p32
F5.573466861883327
sS'/html/body/div/div/div/form/div/p/label'
p33
F3.77595972578207
sS'/html/body/div/div/div/div/div/div/div/div/select/option'
p34
F7.643856189774724
sS'/html/body/div/div/div/div/div/table/thead/tr/td'
p35
F6.265344566520995
sS'/html/body/div/div/div/div/div/div/div/div/div/strong'
p36
F2.8262329322632938
sS'/html/body/div/div/div/div/div/div/div/h4/span'
p37
F9.965784284662087
sS'/html/body/div/div/div/div/div/div/div/p/a/wbr'
p38
F6.643856189774725
sS'/html/body/div/div/div/div/div/ul/li/dd/a'
p39
F6.158429362604484
sS'/html/body/div/div/div/div/div/div/div/form/input'
p40
F6.795859283219775
sS'/html/body/div/div/div/div/div/div/div/div/div/span/em'
p41
F2.6896598793878495
sS'/html/body/div/div/div/div/p/a'
p42
F1.6620035364849841
sS'/html/body/div/div/div/div/div/div/div/ul/li/span/a'
p43
F4.878321443411748
sS'/html/body/div/div/div/div/div/div/div/div/div/div/div/div/span'
p44
F7.965784284662087
sS'/html/body/div/div/div/div/div/div/ul/li/div/img'
p45
F8.965784284662087
sS'/html/body/div/div/div/div/ul/li/div/a'
p46
F4.265344566520995
sS'/html/head/script'
p47
F0.1015981400078067
sS'/html/body/div/div/div/form/div/a'
p48
F3.77595972578207
sS'/html/body/div/div/div/div/div/div/div/div/div/div/div/span/a'
p49
F1.816037165157405
sS'/html/body/div/div/div/div/div/ul/li/div/div/ul/li'
p50
F6.265344566520995
sS'/html/body/div/div/div/div/div/table/tbody/tr/td/a'
p51
F6.265344566520995
sS'/html/body/div/div/div/div/div/div/ul/li/div/span/a'
p52
F5.321928094887363
sS'/html/body/div/div/div/div/div/table'
p53
F8.380821783940931
sS'/html/body/div/div/div/div/div/p/br'
p54
F9.965784284662087
sS'/html/body/div/div/div/div/div/form/div/div/div'
p55
F9.965784284662087
sS'/html/body/div/div/div/div/div/div/div/h3/span/input'
p56
F6.380821783940931
sS'/html/body/div/div/div/form/div/input'
p57
F3.77595972578207
sS'/html/body/div/div/div/div/div/div/div/div/div/div/div/div/a'
p58
F5.321928094887363
sS'/html/body/div/div/div/div/div/div/div/div/div/div/div/div/i'
p59
F9.965784284662087
sS'/html/body/div/div/div/div/div/div/div/div/span'
p60
F1.7466157641999256
sS'/html/head/style'
p61
F0.13289427049734548
sS'/html/body/div/div/div/div/div/div/div/div/div/div/div/div/p'
p62
F9.965784284662087
sS'/html/body/div/div/div/div/div/div/div/form/div/div/input'
p63
F6.795859283219775
sS'/html/body/div/div/div/div/div/div/div/div/div/div/p/a'
p64
F7.158429362604482
sS'/html/body/div/div/div/div/div/div/ul/li/div/div/div/p'
p65
F7.158429362604482
sS'/html/body/div/div/div/div/div/div/div/div/div/b/br'
p66
F9.965784284662087
sS'/html/body/div/div/div/div/div/div/div/div/div/span/link'
p67
F4.411195432984449
sS'/html/body/div/div/div/div/div/div/ul/li/ul/li/span'
p68
F5.643856189774724
sS'/html/body/div/div/div/div/div/div/a/div/div/p'
p69
F9.965784284662087
sS'/html/body/div/div/div/div/div/div/div/div/div/div/a'
p70
F2.3291596641184387
sS'/html/body/div/div/div/div/h2/span/a'
p71
F5.965784284662088
sS'/html/body/div/div/div/div/div/div/div/div/div/div/p'
p72
F1.8730271437422346
sS'/html/body/div/div/div/div/div/span/div/span/a'
p73
F4.442222328605075
sS'/html/body/div/div/div/div/div/div/ul/li/div'
p74
F8.380821783940931
sS'/html/body/div/div/div/div/div/div/div/div/span/a'
p75
F2.5063526660247897
sS'/html/body/div/div/div/div/div/div/link'
p76
F4.351074440546879
sS'/html/body/div/div/div/div/br'
p77
F2.145605322246899
sS'/html/body/div/div/div/div/div/div/div/p/a/span'
p78
F2.6896598793878495
sS'/html/body/div/div/div/div/div/table/tbody/tr/td/span'
p79
F6.795859283219775
sS'/html/body/div/div/div/div/div/ul/li/span/a'
p80
F4.9213901653036345
sS'/html/body/div/div/div/div/div/div/div/div/div/b/i/b'
p81
F9.965784284662087
sS'/html/body/rss/channel/copyright'
p82
F4.411195432984449
sS'/html/body/div/div/div/div/div/span/link'
p83
F4.210896782498619
sS'/html/body/div/div/div/div/div/div/div/div/b/span'
p84
F9.965784284662087
sS'/html/body/div/div/div/div/div/div/ul/li/ul/li/div/a'
p85
F9.965784284662087
sS'/html/body/div/div/div/div/div/div/div/form/div/div/button'
p86
F6.795859283219775
sS'/html/body/div/div/div/div/div/div/p/strong'
p87
F4.351074440546879
sS'/html/body/div/div/div/div/div/div/div/div/div/div/ul/li/a'
p88
F4.210896782498619
sS'/html/body/div/div/div/div/ol/li/div/div/div/div/span'
p89
F9.965784284662087
sS'/html/body/rss/channel/item/description'
p90
F4.473931188332412
sS'/html/body/div/div/div/div/div/div/div/div/dl/dd'
p91
F9.965784284662087
sS'/html/body/div/div/div/div/div/div/table/tr/td/div/a'
p92
F4.50635266602479
sS'/html/body/div/div/div/div/div/div/div/div/ul/li/a/em'
p93
F4.411195432984449
sS'/html/body/div/div/div/div/div/div/div/div/dl/dt'
p94
F6.058893689053569
sS'/html/body/div/div/div/div/div/div/table/tr/td/div/p'
p95
F8.965784284662087
sS'/html/body/div/div/div/div/div/div/div/div/p/a/wbr'
p96
F6.158429362604484
sS'/html/body/template/div/div/div/div'
p97
F9.965784284662087
sS'/html/body/div/div/div/div/div/div/span'
p98
F2.4500844463780447
sS'/html/body/div/div/div/div/div/div/dl/dd/a'
p99
F2.8572598278839183
sS'/html/body/div/div/div/div/div/ul/li/h3/div/a/img'
p100
F7.380821783940932
sS'/html/body/template/div/div/div/div/div/div'
p101
F9.965784284662087
sS'/html/body/div/div/div/div/form/button'
p102
F7.965784284662087
sS'/html/body/div/div/div/div/div/a/span'
p103
F5.380821783940931
sS'/html/body/div/div/div/div/div/div/table/tr/td/a/img'
p104
F4.293358942690592
sS'/html/body/div/div/div/div/div/div/dl/dd/p'
p105
F9.965784284662087
sS'/html/body/div/div/div/div/div/div/div/ul/li/a'
p106
F2.4422223286050744
sS'/html/body/div/div/div/div/div/div/img'
p107
F5.795859283219775
sS'/html/body/div/div/div/div/div/div/table/tr/td/p'
p108
F4.351074440546879
sS'/html/body/div/div/div/div/div/div/h1/span'
p109
F6.058893689053569
sS'/html/body/div/div/div/div/div/div/div/div/div/h3/a/img'
p110
F4.836501267717121
sS'/html/body/div/div/div/div/div/div/div/div/div/dl/dt'
p111
F9.965784284662087
sS'/html/body/router-view'
p112
F9.965784284662087
sS'/html/body/div/div/div/div/ul/li/a/img'
p113
F3.9885043611621707
sS'/html/body/div/div/div/div/div/div/ul/li/ul/li/span/a'
p114
F7.158429362604482
sS'/html/body/div/div/div/div/div/div/div/div/dl/dd/ul/li'
p115
F9.965784284662087
sS'/html/body/rss/channel/item/creator'
p116
F4.473931188332412
sS'/html/body/div/div/div/div/div/ul/li/div/span/div/a/img'
p117
F7.380821783940932
sS'/html/body/div/div/div/div/div/div/div/div/form/div/input'
p118
F5.643856189774724
sS'/html/body/div/div/div/div/div/div/dl/dt/a/img'
p119
F2.8572598278839183
sS'/html/body/div/div/div/div/div/p/span/a'
p120
F7.158429362604482
sS'/html/body/div/div/div/div/div/div/a/div/img'
p121
F5.878321443411747
sS'/html/body/div/div/div/div/div/div/div/p'
p122
F3.3510744405468786
sS'/html/body/div/div/div/div/div/div/div/div/h4/span'
p123
F5.795859283219775
sS'/html/body/div/div/div/form/div/div/div/p/a'
p124
F5.878321443411747
sS'/html/body/div/div/div/div/div/div/div/div/div/div/div/div/br'
p125
F9.965784284662087
sS'/html/body/div/div/div/div/div/div/div/div/div/div/h3/span/span'
p126
F2.899695094204315
sS'/html/body/div/div/div/div/div/div/ul/li/div/div/span'
p127
F7.158429362604482
sS'/html/body/div/div/div/div/div/div/div/div/dl/dd/span'
p128
F8.380821783940931
sS'/html/body/div/div/div/div/div/div/div/div/div/div/br'
p129
F9.965784284662087
sS'/html/body/div/div/div/div/div/div/div/div/div/div/div/div/div/ul/script'
p130
F8.380821783940931
sS'/html/body/div/div/div/div/form/fieldset/legend'
p131
F0.25497785096273534
sS'/html/body/div/div/div/div/div/div/ul/li'
p132
F1.4981787345790896
sS'/html/body/div/div/div/div/div/p/span'
p133
F4.380821783940931
sS'/html/body/div/div/div/div/div/div/div'
p134
F2.3075728019102923
sS'/html/body/div/div/div/div/ol/li/div/div/em'
p135
F9.965784284662087
sS'/html/body/div/div/div/div/div/div/div/div/div/div/div/div/div/a'
p136
F8.380821783940931
sS'/html/body/div/div/div/div/div/ul/li/div/p'
p137
F6.158429362604484
sS'/html/body/div/div/div/div/div/div/div/div/br'
p138
F1.971430847803229
sS'/html/body/div/div/div/div'
p139
F0.386468347082073
sS'/html/body/div/div/div/div/div/div/ul/li/h3'
p140
F5.058893689053569
sS'/html/body/div/div/div/div/form/textarea'
p141
F7.965784284662087
sS'/html/body/div/div/div/div/div/div/h3/a'
p142
F4.50635266602479
sS'/html/body/div/div/div/div/div/div/h2/i'
p143
F2.8262329322632938
sS'/html/body/rss/channel/item/pubdate'
p144
F4.473931188332412
sS'/html/body/div/div/div/div/div/div/h2/a'
p145
F5.965784284662088
sS'/html/body/div/div/div/div/div/ul/li/div'
p146
F7.380821783940932
sS'/html/body/div/div/div/div/ul/li/a/span'
p147
F9.965784284662087
sS'/html/body/div/div/div/form/div/div/input'
p148
F5.878321443411747
sS'/html/body/div/div/div/div/div/span/img'
p149
F9.965784284662087
sS'/html/body/div/div/div/div/div/div/script'
p150
F2.0954195650786827
sS'/html/body/div/div/div/div/div/h2/span/a'
p151
F2.766111939825723
sS'/html/body/div/div/div/div/div/div/h2/span'
p152
F7.158429362604482
sS'/html/body/div/div/div/div/div/div/table/tr/td/div/div/span'
p153
F8.965784284662087
sS'/html/body/div/div/div/div/div/div/div/div/div/div/div/div/h3/span/span'
p154
F9.965784284662087
sS'/html/body/div/div/div/div/div/div/ul/li/img'
p155
F2.7466157641999254
sS'/html/body/div/div/div/div/div/span/span/br'
p156
F8.380821783940931
sS'/html/body/div/div/div/div/div/div/div/div/div/a/span'
p157
F5.965784284662088
sS'/html/body/div/div/div/div/div/div/p'
p158
F3.6082322800440036
sS'/html/body/div/div/div/div/ul/li/div'
p159
F4.058893689053568
sS'/html/body/div/div/div/div/div/div/div/dl/dd/a'
p160
F6.058893689053569
sS'/html/body/div/div/div/div/div/div/a/div/span'
p161
F5.965784284662088
sS'/html/body/div/div/div/div/div/div/div/div/div/div/span'
p162
F2.5311560570253624
sS'/html/body/header/div/span'
p163
F7.965784284662087
sS'/html/body/div/div/div/div/div/div/div/div/div/dl/dd/span/a'
p164
F9.965784284662087
sS'/html/body/div/div/div/div/div/div/a'
p165
F1.0380063225797447
sS'/html/body/div/div/div/div/div/div/ul/li/script'
p166
F2.8262329322632938
sS'/html/body/div/div/div/div/div/ul/li/div/p/a'
p167
F6.158429362604484
sS'/html/body/div/div/div/div/div/div/div/span/span/a/img'
p168
F2.8262329322632938
sS'/html/body/div/div/div/div/div/span/div/span/script'
p169
F4.442222328605075
sS'/html/body/div/div/div/div/div/div/div/div/div/div/ul/li'
p170
F2.6896598793878495
sS'/html/body/div/div/div/div/div/div/div/div/div/div/span/a'
p171
F2.1975999598851605
sS'/html/body/div/div/div/div/div/div/div/div/p/a/span'
p172
F5.795859283219775
sS'/html/body/div/div/div/div/div/div/ul/li/ul/li'
p173
F9.965784284662087
sS'/html/body/div/div/div/div/div/div/div/a/div/img'
p174
F9.965784284662087
sS'/html/body/div/div/div/div/div/div/div/a'
p175
F1.077041035763828
sS'/html/body/div/div/div/form/div/script'
p176
F3.77595972578207
sS'/html/body/div/div/div/div/div/div/div/div/div/div/div/span/em'
p177
F2.7563309190331373
sS'/html/body/div/div/div/div/div/div/div/table/thead/tr/td'
p178
F6.158429362604484
sS'/html/body/div/div/div/div/div/div/div/span'
p179
F3.680382065799839
sS'/html/body/div/div/div/div/div/div/table/tr/td/div/span'
p180
F8.965784284662087
sS'/html/body/div/div/div/div/form/div/span'
p181
F9.965784284662087
sS'/html/body/div/span/img'
p182
F9.965784284662087
sS'/html/body/div/div/div/div/div/div/div/ul/li/h3/a'
p183
F2.7083964419694353
sS'/html/body/div/div/div/div/div/h4'
p184
F6.965784284662088
sS'/html/body/div/div/div/div/div/h3'
p185
F8.380821783940931
sS'/html/body/div/div/div/div/div/h2'
p186
F1.9378782880922025
sS'/html/body/div/div/div/div/div/h1'
p187
F7.965784284662087
sS'/html/body/div/div/div/div/div/div/table/tbody/tr/td/img'
p188
F9.965784284662087
sS'/html/body/div/div/div/div/input'
p189
F7.965784284662087
sS'/html/body/div/div/div/div/div/style'
p190
F3.878321443411748
sS'/html/body/div/div/div/h1/a'
p191
F5.878321443411747
sS'/html/body/div/div/div/ul/li/img'
p192
F6.158429362604484
sS'/html/body/div/div/div/div/form/div/div/div'
p193
F9.965784284662087
sS'/html/body/div/div/div/form/div/a/img'
p194
F3.77595972578207
sS'/html/body/div/div/div/div/p/span/a'
p195
F2.231074664436249
sS'/html/body/div/div/div/div/div/div/div/div/span/div/a/img'
p196
F5.380821783940931
sS'/html/body/div/div/div/div/h2/span'
p197
F9.965784284662087
sS'/html/body/div/div/div/div/div/div/div/div/ul/li/a'
p198
F6.158429362604484
sS'/html/body/div/div/div/div/div/div/div/input'
p199
F6.158429362604484
sS'/html/body/div/div/div/div/div/div/span/p/span'
p200
F3.680382065799839
sS'/html/body/div/div/div/div/div/div/div/div/div/div/dl/dt'
p201
F6.643856189774725
sS'/html/head/link'
p202
F0.18442457113742755
sS'/html/body/div/div/div/div/div/div/div/div/div/div/p/a/wbr'
p203
F4.411195432984449
sS'/html/body/div/div/div/div/div/div/div/div/div/div/div/span'
p204
F2.244685095954902
sS'/html/body/div/div/div/div/div/p/span/span/a'
p205
F4.411195432984449
sS'/html/body/div/div/div/div/div/div/div/a/div/span'
p206
F9.965784284662087
sS'/html/body/div/div/div/div/div/div/div/div/div/div/div/div/h3/span/input'
p207
F9.965784284662087
sS'/html/body/div/div/div/div/div/div/div/div/div/span/div/a/img'
p208
F4.9213901653036345
sS'/html/body/div/div/div/div/ol/li/div/div/div/a/span'
p209
F9.965784284662087
sS'/html/body/div/div/div/div/div/div/div/div/div/div/div/span/div'
p210
F8.380821783940931
sS'/html/body/div/div/div/div/div/div/ul/li/a/img'
p211
F4.380821783940931
sS'/html/body/div/div/div/div/div/div/dl/dd/img'
p212
F9.965784284662087
sS'/html/body/div/div/div/div/div/div/div/form/div/div'
p213
F6.795859283219775
sS'/html/body/img'
p214
F7.965784284662087
sS'/html/body/div/div/div/div/div/div/div/div/p/br'
p215
F4.9213901653036345
sS'/html/body/div/div/ul/li/div/table/tbody/tr/td/a'
p216
F8.965784284662087
sS'/html/body/div/div/div/div/div/div/span/br'
p217
F3.5063526660247897
sS'/html/body/div/div/div/div/div/div/div/div/div/div/div/div/span/em'
p218
F4.836501267717121
sS'/html/body/div/div/div/div/div/div/strong'
p219
F4.083141235300245
sS'/html/body/div/div/div/div/div/span'
p220
F0.2567004721117434
sS'/html/body/div/div/div/div/ol/li/div/div/div/p/span'
p221
F9.965784284662087
sS'/html/body/div/div/div/div/div/div/span/span'
p222
F4.083141235300245
sS'/html/body/div/div/div/div/link'
p223
F4.210896782498619
sS'/html/body/div/div/h1/a'
p224
F4.411195432984449
sS'/html/body/div/div/div/div/div/div/div/div'
p225
F3.6259342817774622
sS'/html/body/div/div/div/form/div/div/div/span'
p226
F5.878321443411747
sS'/html/body/div/div/div/div/span/a'
p227
F6.058893689053569
sS'/html/body/div/div/div/div/div/div/ul/li/ul/li/a/img'
p228
F6.795859283219775
sS'/html/body/div/div/div/div/div/div/div/div/div/div/div/div/h3/span/a'
p229
F9.965784284662087
sS'/html/body/div/div/div/div/div/div/table/tbody/tr/td/div/span'
p230
F9.965784284662087
sS'/html/body/div/div/div/div/div/div/div/h3/span/a'
p231
F6.380821783940931
sS'/html/body/div/div/div/div/div/div/div/div/div/div/div/div/div/span/em'
p232
F8.380821783940931
sS'/html/body/div/div/div/div/div/ul/li/div/a'
p233
F2.7466157641999254
sS'/html/body/div/div/div/div/div/div/div/div/p/a'
p234
F5.573466861883327
sS'/html/body/div/div/a'
p235
F0.13764780046798003
sS'/html/body/div/div/div/div/div/div/div/div/div/div/div/div'
p236
F2.5907448533151625
sS'/html/body/div/div/div/div/div/div/a/em'
p237
F4.795859283219775
sS'/html/body/div/div/div/div/div/div/div/div/form/div/select/option'
p238
F5.643856189774724
sS'/html/body/div/div/p'
p239
F5.878321443411747
sS'/html/body/div/div/div/div/div/div/ul/li/ul/li/div/p/span'
p240
F9.965784284662087
sS'/html/body/div/div/div/div/div/div/div/p/a/img'
p241
F2.6170561304310094
sS'/html/body/div/div/div/div/a'
p242
F0.24810786159569093
sS'/html/body/div/div/div/div/div/ul/li/a/img'
p243
F2.5228407888133586
sS'/html/body/div/div/div/div/table/tbody/tr/td/a'
p244
F9.965784284662087
sS'/html/body/div/div/div/div/div/div/table/tbody/tr/td/div/span/span'
p245
F9.965784284662087
sS'/html/body/div/div/div/div/div/span/input'
p246
F9.965784284662087
sS'/html/body/div/div/div/div/ul'
p247
F6.965784284662088
sS'/html/body/div/div/div/div/p'
p248
F0.24982229440694287
sS'/html/body/div/div/div/div/div/div/div/div/div/div/div/div/div/b/i/b/img'
p249
F9.965784284662087
sS'/html/body/div/div/div/div/div/div/form/input'
p250
F5.058893689053569
sS'/html/body/div/div/script'
p251
F3.6989977439671855
sS'/html/body/div/div/div/div/div/form/div/div/input'
p252
F9.965784284662087
sS'/html/body/div/div/div/div/div/div/ul/li/span'
p253
F1.5521563556379148
sS'/html/body/div/div/div/div/div/h2/span'
p254
F9.965784284662087
sS'/html/body/div/div/div/div/div/br'
p255
F4.011587974275212
sS'/html/body/div/div/div/div/div/div/div/div/div/div/div/h3/span/a'
p256
F7.158429362604482
sS'/html/body/div/div/div/div/div/div/p/a'
p257
F2.6082322800440036
sS'/html/body/div/div/div/div/div/div/ul/li/div/em'
p258
F5.058893689053569
sS'/html/body/div/div/div/div/div/div/div/table/tbody/tr/td/span'
p259
F6.643856189774725
sS'/html/body/div/div/div/div/div/ul/li/span/span/a'
p260
F7.380821783940932
sS'/html/body/div/div/div/div/div/ul/li/span/span'
p261
F3.899695094204315
sS'/html/body/div/div/ul/li/a/span'
p262
F8.965784284662087
sS'/html/body/div/div/div/div/form/input'
p263
F8.965784284662087
sS'/html/body/div/div/div/div/h2/span/span'
p264
F6.058893689053569
sS'/html/body/div/div/div/div/div/div/div/span/script'
p265
F3.7178567712185013
sS'/html/body/div/div/div/div/h2/a'
p266
F3.0
sS'/html/body/div/div/div/div/div/ul/li/span'
p267
F2.1648843847417822
sS'/html/body/div/div/div/h1'
p268
F8.965784284662087
sS'/html/body/div/div/div/div/h2/i'
p269
F5.878321443411747
sS'/html/body/rss/channel/language'
p270
F4.411195432984449
sS'/html/body/div/div/div/div/div/div'
p271
F2.107803289534515
sS'/html/body/div/div/div/div/div/div/div/div/p/span/br'
p272
F7.380821783940932
sS'/html/body/div/div/div/div/div/div/div/div/div/div/div/ul/script'
p273
F2.7563309190331373
sS'/html/body/div/div/div/div/div/div/div/div/div/div/div/p/a/img'
p274
F8.965784284662087
sS'/html/body/div/div/span/a'
p275
F0.13447704086003642
sS'/html/body/div/script'
p276
F3.77595972578207
sS'/html/body/div/div/div/div/img'
p277
F5.643856189774724
sS'/html/body/div/div/div/div/h4'
p278
F7.965784284662087
sS'/html/body/div/div/div/div/h3'
p279
F6.058893689053569
sS'/html/body/div/div/div/div/h2'
p280
F2.373327247394007
sS'/html/body/div/div/div/div/div/ul/ul/li/a'
p281
F4.132894270497346
sS'/html/body/div/div/div/div/div/div/div/div/div/b/i/b/br'
p282
F9.965784284662087
sS'/html/body/div/div/div/div/ul/li/div/img'
p283
F9.965784284662087
sS'/html/body/div/div/div/div/div/div/div/p/img'
p284
F9.965784284662087
sS'/html/body/div/div/div/div/div/div/ul/li/a'
p285
F2.217591435072627
sS'/html/body/div/div/div/form/div/label'
p286
F3.77595972578207
sS'/html/body/div/div/div/div/div/div/div/span/span'
p287
F2.8262329322632938
sS'/html/body/div/div/div/ul/li/a'
p288
F0.25497785096273534
sS'/html/body/div/div/div/div/div/a/div/img'
p289
F6.380821783940931
sS'/html/body/div/div/div/div/div/div/a/span'
p290
F2.77595972578207
sS'/html/body/div/div/div/div/div/div/div/div/div/div/a/img'
p291
F4.411195432984449
sS'/html/body/div/div/div/div/div/div/ul/li/div/a'
p292
F4.965784284662088
sS'/html/body/div/div/div/a/img'
p293
F9.965784284662087
sS'/html/body/div/div/div/p/a'
p294
F4.965784284662088
sS'/html/body/div/div/div/div/div/div/div/div/div/div/h4'
p295
F4.411195432984449
sS'/html/body/div/div/div/div/div/div/div/div/form/div/div/input'
p296
F5.643856189774724
sS'/html/body/div/div/div/div/div/div/div/div/dl/dd/br'
p297
F8.965784284662087
sS'/html/body/div/div/div/div/div/div/table/tbody/tr/td/div/div/h3/a'
p298
F9.965784284662087
sS'/html/body/div/div/div/div/div/div/div/div/div/h3/div/a/img'
p299
F4.836501267717121
sS'/html/body/div/div/div/div/div/div/div/div/ul/li/ul/li/a/img'
p300
F9.965784284662087
sS'/html/body/div/div/div/div/div/div/div/ul'
p301
F6.380821783940931
sS'/html/body/div/div/div/div/div/div/div/div/span/a/b'
p302
F8.380821783940931
sS'/html/body/div/div/div/div/div/div/table/tbody/tr/td/div/div/h2/a'
p303
F9.965784284662087
sS'/html/body/div/div/div/div/button'
p304
F4.473931188332412
sS'/html/body/header/div'
p305
F8.380821783940931
sS'/html/body/div/div/div/div/div/div/div/script'
p306
F2.6896598793878495
sS'/html/body/div/div/div/div/div/div/ul/li/p/a'
p307
F6.265344566520995
sS'/html/body/div/div/div/div/div/div/div/div/div/b/i/b/img'
p308
F9.965784284662087
sS'/html/body/div/div/div/div/div/div/div/div/div/div/img'
p309
F4.717856771218502
sS'/html/body/div/div/div/div/div/div/div/div/h2'
p310
F9.965784284662087
sS'/html/body/div/div/div/div/div/div/div/h3/a/img'
p311
F4.237863830098888
sS'/html/body/div/div/div/form/div/div/div/p/label'
p312
F5.878321443411747
sS'/html/body/div/div/div/div/div/div/div/ul/li'
p313
F8.965784284662087
sS'/html/body/template/div/div/div/div/div/hr'
p314
F9.965784284662087
sS'/html/body/div/div/div/div/div/div/div/div/div/div/div/h3/span/input'
p315
F7.158429362604482
sS'/html/body/header/div/div/span'
p316
F7.965784284662087
sS'/html/body/div/div/div/div/div/div/div/div/img'
p317
F9.965784284662087
sS'/html/body/div/div/div/div/div/strong'
p318
F4.473931188332412
sS'/html/body/div/div/div/div/div/div/dl/dt'
p319
F9.965784284662087
sS'/html/body/div/div/div/div/div/div/div/div/div/div/div/div/div/br'
p320
F9.965784284662087
sS'/html/body/div/div/div/div/ul/li/div/a/img'
p321
F4.107803289534515
sS'/html/body/div/div/div/div/div/div/div/div/a'
p322
F2.0469210473874924
sS'/html/body/div/div/div/div/div/div/div/div/div/a/img'
p323
F6.380821783940931
sS'/html/body/div/div/div/div/div/div/div/div/div/div/span/script'
p324
F2.6896598793878495
sS'/html/body/div/div/div/div/div/div/div/div/div/div/div/div/b'
p325
F9.965784284662087
sS'/html/body/div/div/div/div/div/div/div/h3/a'
p326
F4.237863830098888
sS'/html/body/div/div/div/div/div/ul/li/div/a/img'
p327
F6.158429362604484
sS'/html/body/div/div/div/div/div/div/ul/div'
p328
F6.380821783940931
sS'/html/body/div/div/h1/span'
p329
F1.5521563556379148
sS'/html/body/rss/channel/item/encoded/br'
p330
F4.473931188332412
sS'/html/body/div/div/div/div/div/div/div/div/span/script'
p331
F4.473931188332412
sS'/html/body/div/div/div/div/div/span/span'
p332
F4.351074440546879
sS'/html/body/div/div/div/div/div/div/div/table/tbody/tr/td/a'
p333
F6.158429362604484
sS'/html/body/div/div/div/div/div/div/div/h2/a'
p334
F8.965784284662087
sS'/html/body/div/img'
p335
F9.965784284662087
sS'/html/body/div/div/div/div/div/div/div/div/dl/dt/a/img'
p336
F8.965784284662087
sS'/html/body/div/div/div/div/ul/li/br'
p337
F8.965784284662087
sS'/html/body/div/div/div/div/p/span'
p338
F8.965784284662087
sS'/html/body/div/div/div/div/div/div/div/div/span/span/a'
p339
F2.84684321193858
sS'/html/body/div/div/div/div/div/div/div/img'
p340
F8.965784284662087
sS'/html/body/div/div/div/div/div/ul/li/a/div/img'
p341
F7.158429362604482
sS'/html/body/div/div/div/div/div/ul/li'
p342
F1.5691795034802285
sS'/html/body/div/div/div/div/div/div/div/div/div/div/span/em'
p343
F4.237863830098888
sS'/html/body/div/div/div/div/div/div/div/div/ul/li/a/strong'
p344
F4.411195432984449
sS'/html/body/div/div/div/div/div/div/div/div/div/br'
p345
F2.698997743967186
sS'/html/body/div/div/div/div/div/div/div/div/div/address/a'
p346
F8.380821783940931
sS'/html/body/div/div/div/div/form/div/div/span'
p347
F9.965784284662087
sS'/html/body/div/div/div/div/div/div/ul/li/div/div'
p348
F5.265344566520995
sS'/html/body/div/div/div/form/input'
p349
F3.77595972578207
sS'/html/body/div/div/div/div/div/div/h2/span/a'
p350
F2.217591435072627
sS'/html/body/div/div/div/ul/li/div/table/tr/td/a'
p351
F0.25842515258120435
sS'/html/body/div/div/div/div/form/fieldset/label'
p352
F0.25497785096273534
sS'/html/body/div/div/div/div/div/div/div/table/tbody/tr/td'
p353
F6.158429362604484
sS'/html/body/div/div/div/div/div/h2/img'
p354
F8.965784284662087
sS'/html/body/rss/channel/link'
p355
F4.411195432984449
sS'/html/body/div/div/div/div/div/div/div/div/span/span'
p356
F2.84684321193858
sS'/html/body/template/div/div/div/div/div/div/h3'
p357
F9.965784284662087
sS'/html/body/template/div/div/div/div/div/div/div/ul/li'
p358
F9.965784284662087
sS'/html/body/div/div/div/div/div/div/div/div/div/div/div/ul/li'
p359
F7.380821783940932
sS'/html/body/template/div/div/div/div/div/h2'
p360
F9.965784284662087
sS'/html/body/div/div/div/div/div/div/div/div/p/span'
p361
F4.965784284662088
sS'/html/body/header/div/a'
p362
F7.965784284662087
sS'/html/body/template/ul/li'
p363
F9.965784284662087
sS'/html/body/div/div/div/div/div/table/tbody/tr/td'
p364
F6.265344566520995
sS'/html/body/div/div/div/div/a/img'
p365
F0.5994620704162712
sS'/html/body/div/div/div/div/div/div/table/tr/td'
p366
F7.158429362604482
sS'/html/body/template/div/div/div/div/div/object/param'
p367
F9.965784284662087
sS'/html/body/div/div/div/div/div/form/div/div'
p368
F9.965784284662087
sS'/html/body/div/div/div/div/div/ul/li/dt'
p369
F6.158429362604484
sS'/html/body/div/div/div/div/div/div/div/ul/li/span'
p370
F2.4188898247744506
sS'/html/body/div/div/div/div/style'
p371
F0.5563933485243854
sS'/html/body/div/div/div/div/div/div/a/div/b'
p372
F9.965784284662087
sS'/html/body/div/div/div/div/div/ul/li/div/div'
p373
F3.4111954329844494
sS'/html/body/div/div/div/div/div/ul/li/p'
p374
F4.473931188332412
sS'/html/body/div/div/ul/li/a'
p375
F3.7369655941662066
sS'/html/body/div/div/div/div/div/ul/li/ul/li/a/img'
p376
F9.965784284662087
sS'/html/body/div/div/div/div/div/div/span/a'
p377
F1.3770696490798233
sS'/html/body/div/div/div/div/div/div/style'
p378
F7.158429362604482
sS'/html/body/div/div/div/div/div/ul/li/a'
p379
F1.3621579396758952
sS'/html/body/div/div/div/div/div/div/div/div/div/div/div/form/input'
p380
F6.965784284662088
sS'/html/body/div/div/div/div/div'
p381
F0.641603738043346
sS'/html/body/div/div/div/div/div/div/ul/li/span/div'
p382
F8.965784284662087
sS'/html/body/div/div/div/div/div/div/div/div/div/span/a'
p383
F2.4035418604410146
sS'/html/body/div/div/div/div/div/div/div/div/dl/dd/a'
p384
F8.965784284662087
sS'/html/body/div/div/div/div/ol/li/div/div/div/span'
p385
F9.965784284662087
sS'/html/body/div/div/div/div/div/div/br'
p386
F3.7369655941662066
sS'/html/body/div/div/div/div/div/form/div/div/span'
p387
F9.965784284662087
sS'/html/body/div/div/div/div/div/div/div/div/p/span/a'
p388
F6.265344566520995
sS'/html/body/div/div/div/div/div/div/ul/li/ul/li/h2/b'
p389
F9.965784284662087
sS'/html/body/div/div/div/div/div/div/div/div/div/div/span/div'
p390
F4.836501267717121
sS'/html/body/div/div/div/div/div/div/ul/li/ul/li/h2/a'
p391
F9.965784284662087
sS'/html/body/div/div/div/div/div/div/ul/li/p/span'
p392
F6.265344566520995
sS'/html/body/div/div/div/div/h2/a/span'
p393
F3.921390165303634
sS'/html/body/div/div/div/div/div/div/div/div/div/div/h3/a/img'
p394
F8.380821783940931
sS'/html/body/div/div/div/div/div/div/div/div/div/div/div/div/b/i/b'
p395
F9.965784284662087
sS'/html/body/div/div/div/div/div/div/div/div/div/div/div/span/form/input'
p396
F2.8365012677171206
sS'/html/body/div/div/div/div/div/div/ul/li/a/span'
p397
F6.265344566520995
sS'/html/body/div/div/div/div/div/div/div/div/div/div/div/div/div/div/span'
p398
F9.965784284662087
sS'/html/body/div/div/div/div/div/div/div/div/div/div/span/div/a/img'
p399
F7.380821783940932
sS'/html/body/div/div/div/div/div/ul/li/h3/a'
p400
F4.293358942690592
sS'/html/body/div/div/div/div/div/div/div/a/img'
p401
F1.780908941753803
sS'/html/body/div/div/div/div/div/span/a'
p402
F2.63486740654747
sS'/html/body/div/div/span'
p403
F0.13447704086003642
sS'/html/body/div/div/div/div/div/div/div/div/div/span/form/input'
p404
F4.442222328605075
sS'/html/body/div/div/div/div/div/a/img'
p405
F3.6259342817774622
sS'/html/body/div/div/div/div/div/div/div/div/div/h4/a'
p406
F8.380821783940931
sS'/html/body/rss/channel/item/title'
p407
F4.473931188332412
sS'/html/body/div/div/div/div/div/div/ul/li/span/a'
p408
F2.8262329322632938
sS'/html/body/div/div/div/div/div/div/span/link'
p409
F5.158429362604483
sS'/html/body/div/div/div/div/div/span/span/a'
p410
F4.380821783940931
sS'/html/body/template/div/div/div/div/div/a'
p411
F9.965784284662087
sS'/html/body/div/div/div/div/div/div/div/div/div/div/div/h3/span/span'
p412
F7.158429362604482
sS'/html/body/template/div/div/div/div/a'
p413
F9.965784284662087
sS'/html/body/rss/channel/item/encoded/a'
p414
F4.473931188332412
sS'/html/body/div/div/div/div/div/div/div/div/form/input'
p415
F5.643856189774724
sS'/html/body/div/div/div/div/div/div/span/span/a'
p416
F4.351074440546879
sS'/html/body/div/div/div/form/div/p/a'
p417
F3.473931188332412
sS'/html/body/div/div/div/div/div/div/div/div/div/div/div/div/div/div/span/a'
p418
F8.380821783940931
sS'/html/body/rss/channel/title'
p419
F4.411195432984449
sS'/html/body/div/div/div/div/div/span/script'
p420
F4.473931188332412
sS'/html/body/div/div/div/div/div/div/div/div/ul/li/ul/li/a'
p421
F9.965784284662087
sS'/html/body/div/div/div/div/div/div/table/tr/td/p/span'
p422
F4.442222328605075
sS'/html/body/div/div/div/div/div/ul/li/ul/li/a'
p423
F9.965784284662087
sS'/html/body/div/div/h1'
p424
F0.9545570292388329
sS'/html/body/header/div/img'
p425
F9.965784284662087
sS'/html/body/div/div/div/div/div/div/div/div/div/div/div/a'
p426
F1.741782610463982
sS'/html/body/div/div/div/div/div/div/table/tbody/tr/td/div/div'
p427
F9.965784284662087
sS'/html/body/div/div/div/div/div/div/div/div/div/div/h3/span/input'
p428
F2.899695094204315
sS'/html/body/div/div/div/div/div/div/div/div/div/div/div/p'
p429
F7.158429362604482
sS'/html/body/div/div/div/div/div/div/div/div/div/img'
p430
F9.965784284662087
sS'/html/body/div/div/div/div/div/div/div/div/p'
p431
F4.411195432984449
sS'/html/body/div/div/div/div/div/ul/li/a/span'
p432
F2.7178567712185013
sS'/html/body/header/div/a/img'
p433
F7.965784284662087
sS'/html/body/div/div/div/div/div/address/a'
p434
F9.965784284662087
sS'/html/body/div/div/div/div/div/div/div/div/b'
p435
F9.965784284662087
sS'/html/body/div/div/div/div/div/div/div/div/div/span/div'
p436
F2.7563309190331373
sS'/html/body/div/div/div/div/div/div/label/input'
p437
F4.473931188332412
sS'/html/body/div/div/div'
p438
F0.22095044716254156
sS'/html/body/div/div/div/span'
p439
F7.643856189774724
sS'/html/body/div/div/div/div/form/fieldset/input'
p440
F0.25497785096273534
sS'/html/body/div/div/div/div/div/div/div/div/h2/span/a'
p441
F8.965784284662087
sS'/html/body/div/div/div/div/div/div/span/script'
p442
F2.6711635357704604
sS'/html/body/div/div/div/div/div/script'
p443
F2.1265804965651434
sS'/html/body/div/div/div/div/a/h2'
p444
F9.965784284662087
sS'/html/body/div/div/div/div/h1/img'
p445
F7.965784284662087
sS'/html/body/div/div/div/div/div/ul/li/div/a/span'
p446
F7.380821783940932
sS'/html/body/div/div'
p447
F9.965784284662087
sS'/html/body/div/div/div/div/div/div/div/div/dl/dd/span/a'
p448
F6.158429362604484
sS'/html/body/div/div/a/img'
p449
F8.380821783940931
sS'/html/body/div/div/div/div/div/div/div/div/input'
p450
F6.965784284662088
sS'/html/body/div/div/div/div/div/div/div/div/h3/a'
p451
F2.6896598793878495
sS'/html/body/div/div/div/div/div/ul/li/div/span/div'
p452
F7.380821783940932
sS'/html/body/div/div/div/div/ol/li/div/div/a/img'
p453
F9.965784284662087
sS'/html/body/div/div/div/div/div/div/ul/li/div/div/div/a/h3'
p454
F7.158429362604482
sS'/html/body/div'
p455
F7.158429362604482
sS'/html/body/div/div/div/div/div/div/div/div/div/div/h3/div/a/img'
p456
F8.380821783940931
sS'/html/body/div/div/div/div/div/div/div/div/div/div/div/div/div/span/a'
p457
F4.836501267717121
sS'/html/body/rss/channel/pubdate'
p458
F4.411195432984449
sS'/html/body/div/div/div/form/div/p/input'
p459
F3.77595972578207
sS'/html/body/div/div/div/div/div/div/div/div/div/div/p/a/img'
p460
F5.158429362604483
sS'/html/body/div/div/div/div/div/div/div/dl/dt'
p461
F6.058893689053569
sS'/html/body/div/div/div/div/div/div/div/div/div/h3/a'
p462
F4.836501267717121
sS'/html/body/div/div/div/div/div/div/table/tbody/tr/td/div/div/div'
p463
F9.965784284662087
sS'/html/body/div/div/div/div/div/div/div/h2/span/a'
p464
F4.473931188332412
sS'/html/body/div/div/div/form/div/img'
p465
F3.77595972578207
sS'/html/body/div/div/div/div/div/div/div/div/h3/a/img'
p466
F2.7563309190331373
sS'/html/body/div/div/div/div/div/div/div/form/div/p/strong'
p467
F6.795859283219775
sS'/html/body/div/div/div/div/p/br'
p468
F2.231074664436249
sS'/html/body/div/div/div/div/div/button'
p469
F4.473931188332412
sS'/html/body/div/div/div/div/div/form/div/span'
p470
F9.965784284662087
sS'/html/body/div/div/div/div/ul/li/span'
p471
F3.9885043611621707
sS'/html/body/div/div/div/div/div/div/div/br'
p472
F8.965784284662087
sS'/html/body/div/div/div/div/div/div/span/p/a'
p473
F3.680382065799839
sS'/html/body/div/div/div/div/div/div/ul'
p474
F5.643856189774724
sS'/html/body/div/div/div/ul/li/a/span'
p475
F0.25842515258120435
sS'/html/body/div/div/div/div/div/ul/li/div/div/span'
p476
F3.0469210473874924
sS'/html/body/div/div/div/div/div/div/div/div/span/form/input'
p477
F4.680382065799838
sS'/html/body/div/div/div/div/div/div/a/img'
p478
F2.5228407888133586
sS'/html/body/div/div/div/div/div/div/div/div/form/textarea'
p479
F5.643856189774724
sS'/html/body/div/div/div/div/div/div/div/div/ul/li/ul/li/span'
p480
F9.965784284662087
sS'/html/body/div/div/div/div/form/div/div/input'
p481
F9.965784284662087
sS'/html/body/div/div/div/div/h1'
p482
F4.473931188332412
sS'/html/body/div/div/div/div/form/fieldset/div/input'
p483
F0.25497785096273534
sS'/html/body/div/div/div/div/div/div/div/div/div/div/div/div/div/ul/li/a'
p484
F8.380821783940931
sS'/html/body/div/div/div/div/div/span/div/span'
p485
F9.965784284662087
sS'/html/body/div/div/div/div/div/div/ul/li/div/a/img'
p486
F4.756330919033137
sS'/html/body/div/div/div/div/ul/li/p'
p487
F8.965784284662087
sS'/html/body/div/div/div/div/div/div/span/span/br'
p488
F7.158429362604482
sS'/html/head/title'
p489
F0.06945188075214527
sS'/html/body/div/div/div/div/div/div/div/div/div/div/div/div/div/b/i/b/br'
p490
F9.965784284662087
sS'/html/body/div/div/div/div/div/div/h4'
p491
F5.878321443411747
sS'/html/body/div/div/div/div/div/div/div/div/div/div/h3/span/a'
p492
F2.899695094204315
sS'/html/body/div/div/div/div/ul/li'
p493
F4.210896782498619
sS'/html/body/div/div/div/div/div/div/p/span/a'
p494
F4.50635266602479
sS'/html/body/div/div/div/div/div/div/div/h3/span/span'
p495
F6.380821783940931
sS'/html/body/div/div/div/div/div/div/div/div/div/div/ul/script'
p496
F4.237863830098888
sS'/html/body/div/div/div/div/div/div/div/span/a'
p497
F3.083141235300246
sS'/html/body/div/div/div/div/div/div/div/form/div/div/label/input'
p498
F6.795859283219775
sS'/html/body/rss/channel/description'
p499
F4.411195432984449
sS'/html/body/div/div/div/div/div/div/div/div/a/span'
p500
F6.380821783940931
sS'/html/body/div/div/div/div/div/div/div/form/div/input'
p501
F6.795859283219775
sS'/html/body/div/div/div/div/div/ul/li/div/div/a'
p502
F6.265344566520995
sS'/html/body/div/div/div/div/div/h1/a'
p503
F8.380821783940931
sS'/html/body/div/div/div/div/div/div/div/div/div/div/div/form/span/input'
p504
F6.965784284662088
sS'/html/body/div/div/div/div/div/div/div/div/div/div/div/div/div/div/a'
p505
F9.965784284662087
sS'/html/body/div/div/div/div/div/h3/b'
p506
F8.380821783940931
sS'/html/body/div/div/div/div/div/h3/a'
p507
F7.965784284662087
sS'/html/body/div/div/div/div/script'
p508
F1.8520421186128988
sS'/html/body/div/div/div/div/div/div/div/div/div/div/div/div/div/img'
p509
F9.965784284662087
sS'/html/body/div/div/div/div/div/h2/a'
p510
F8.380821783940931
sS'/html/body/div/div/div/div/div/div/div/span/link'
p511
F5.573466861883327
sS'/html/body/div/div/div/div/div/ul'
p512
F6.795859283219775
sS'/html/body/div/div/div/div/div/h2/i'
p513
F2.7273795453370084
sS'/html/body/div/div/div/div/div/div/div/div/div/div/div/a/span'
p514
F2.15200309344505
sS'/html/body/div/div/div/div/div/div/div/div/h4/a'
p515
F5.573466861883327
sS'/html/body/div/div/div/div/div/div/div/h3'
p516
F6.265344566520995
sS'/html/body/div/div/div/div/div/div/div/h2'
p517
F2.5734668618833267
sS'/html/body/link'
p518
F0.2792837574788685
sS'/html/body/script'
p519
F0.12658049656514322
sS'/html/body/div/div/div/div/div/div/div/div/div/div'
p520
F1.6896598793878495
sS'/html/body/div/div/div/div/div/div/div/style'
p521
F9.965784284662087
sS'/html/body/div/div/div/div/div/div/div/div/span/em'
p522
F9.965784284662087
sS'/html/body/div/div/div/div/div/div/div/div/ul/li/a/img'
p523
F4.411195432984449
sS'/html/body/div/div/img'
p524
F3.6989977439671855
sS'/html/body/div/div/div/div/fieldset/legend'
p525
F9.965784284662087
sS'/html/body/div/div/div/div/div/div/ul/li/a/strong/em'
p526
F6.265344566520995
sS'/html/body/div/div/div/div/div/div/div/div/span/div'
p527
F4.237863830098888
sS'/html/body/rss/channel/item/guid'
p528
F4.473931188332412
sS'/html/body/div/div/div/div/div/div/div/div/div/div/div/div/h3/span/div'
p529
F9.965784284662087
sS'/html/body/div/div/div/div/div/div/div/ul/li/a/img'
p530
F4.411195432984449
sS'/html/body/div/div/div/div/div/div/div/p/br'
p531
F5.965784284662088
sS'/html/body/div/div/div/div/div/div/div/div/div/div/div/ul/li/a'
p532
F2.643856189774725
sS'/html/body/header/div/div/div/div/script'
p533
F7.965784284662087
sS'/html/body/div/div/div/div/div/ul/li/div/span'
p534
F6.265344566520995
sS'/html/body/div/div/div/div/div/div/ul/li/ul/li/h2/span'
p535
F9.965784284662087
sS'/html/body/div/div/div/div/div/div/div/div/div/div/h3/a'
p536
F8.380821783940931
sS'/html/body/div/div/div/div/div/div/a/div'
p537
F9.965784284662087
sS'/html/body/div/div/div/div/div/div/div/div/ul/li/ul/li'
p538
F9.965784284662087
sS'/html/body/div/div/div/div/div/div/p/span'
p539
F3.4111954329844494
sS'/html/body/div/div/div/div/div/h3/img'
p540
F8.380821783940931
sS'/html/body/div/div/div/div/div/div/div/div/div/div/div'
p541
F1.8059129478836977
sS'/html/body/div/div/div/form/div/div/div/p/span/img'
p542
F5.878321443411747
sS'/html/body/div/div/div/div/form/div/div'
p543
F9.965784284662087
sS'/html/body/div/div/div/div/div/p'
p544
F3.5563933485243853
sS'/html/body/div/div/div/div/div/div/div/p/span'
p545
F2.6896598793878495
sS'/html/body/div/div/div/div/div/div/div/div/div'
p546
F1.3183258582071669
sS'/html/body/div/div/div/div/div/h3/span'
p547
F9.965784284662087
sS'/html/body/div/div/div/div/div/div/h5'
p548
F7.643856189774724
sS'/html/body/div/div/div/div/div/a'
p549
F0.25842515258120435
sS'/html/body/div/div/div/div/div/div/h3'
p550
F8.380821783940931
sS'/html/body/div/div/div/div/div/div/h2'
p551
F3.7178567712185013
sS'/html/body/div/div/div/div/div/div/h1'
p552
F8.965784284662087
sS'/html/body/div/div/div/div/div/i'
p553
F5.878321443411747
sS'/html/body/div/div/div/div/ul/li/a'
p554
F3.921390165303634
sS'/html/body/div/div/div/div/div/div/div/div/div/div/div/div/div/span'
p555
F9.965784284662087
sS'/html/body/div/div/div/form/div/div/div/a'
p556
F5.878321443411747
sS'/html/body/div/div/div/script'
p557
F6.058893689053569
sS'/html/body/div/div/div/form/div/div/div/p/input'
p558
F5.878321443411747
sS'/html/body/div/div/div/div/div/div/div/p/a'
p559
F4.878321443411748
sS'/html/body/div/div/div/div/div/img'
p560
F7.158429362604482
sS'/html/body/div/div/div/div/form/a'
p561
F7.965784284662087
sS'/html/body/div/div/div/div/div/a/div/span'
p562
F6.380821783940931
sS'/html/body/div/div/div/div/div/h1/span'
p563
F9.965784284662087
sS'/html/body/div/div/div/div/div/div/div/div/div/div/div/div/ul/script'
p564
F4.836501267717121
sS'/html/body/div/div/div/div/div/div/div/div/script'
p565
F4.411195432984449
s.