(dp0
S'/html/body/div/div/div/div/div/div/div/div/div/a'
p1
F1.5330563514295048
sS'/html/body/div/div/div/div/div/div/div/div/a/img'
p2
F0.6051001462922324
sS'/html/body/div/div/div/div/div/div/div/div/div/i'
p3
F7.6582114827517955
sS'/html/body/div/div/div/div/div/div/div/p/span/a'
p4
F9.980139577639157
sS'/html/body/div/div/div/div/div/div/p/br'
p5
F8.980139577639157
sS'/html/body/div/div/div/div/div/div/div/div/dl/dt'
p6
F7.6582114827517955
sS'/html/body/div/div/div/div/div/div/form/ol/div/div/div/div'
p7
F9.980139577639157
sS'/html/body/div/div/div/div/div/p/b'
p8
F7.6582114827517955
sS'/html/body/div/div/div/div/a/div/span'
p9
F2.448758117122845
sS'/html/body/div/div/div/div/div/div/table/tr/td/a'
p10
F4.395177076918001
sS'/html/body/div/div/div/div/div/div/table/tbody/tr/td/p'
p11
F9.980139577639157
sS'/html/body/div/div/div/div/div/div/div/div/div/div/div/div/span/span'
p12
F8.980139577639157
sS'/html/body/div/div/div/div/div/div/div/div/div/div/p/br'
p13
F2.7706862120102076
sS'/html/body/div/div/div/div/div/div/table/thead/tr/th/a'
p14
F2.4802936905559516
sS'/html/body/div/div/div/div/div/div/table/tr/td/div/em'
p15
F9.980139577639157
sS'/html/body/div/div/div/div/ul/li/div/div/div/div/h2'
p16
F0.8077120689936748
sS'/html/body/div/div/div/a'
p17
F0.0
sS'/html/body/div/div/div/div/div/div/table/tbody/tr/td/a'
p18
F6.6582114827517955
sS'/html/body/div/div/div/div/div/div/div/ul/li/div/div/a/span'
p19
F0.8077120689936748
sS'/html/body/div/div/div/div/div/div/div/div/div/span'
p20
F1.5044061466727594
sS'/html/body/div/div/div/div/div/table/tr/td/span'
p21
F4.307714235667662
sS'/html/body/div/div/div/div/h2/em'
p22
F0.47234493744046074
sS'/html/head/meta'
p23
F0.0
sS'/html/body/div/div/div/div/a/div/div/div/div/p/em'
p24
F7.980139577639158
sS'/html/body/div/div/div/div/div/div/table/tr/td/a/span'
p25
F1.7369655941662063
sS'/html/body/div/div/div/div/div/div/div/div/div/p'
p26
F5.732212064195571
sS'/html/body/div/div/div/div/ul/li/div/div/div/div/a/h2'
p27
F0.8077120689936748
sS'/html/body/div/div/div/div/form/div/div/button'
p28
F0.0
sS'/html/body/div/div/div/div/div/div/div/div/div/strong'
p29
F5.810214576196844
sS'/html/body/div/div/div/div/div/div/div/h4/span'
p30
F9.980139577639157
sS'/html/body/div/div/div/div/div/div/dl'
p31
F8.980139577639157
sS'/html/body/div/div/div/div/div/div/div/a/strong'
p32
F9.980139577639157
sS'/html/body/div/div/div/div/ul/li/div/div/div/div/div/img'
p33
F0.8077120689936748
sS'/html/body/div/div/div/div/div/div/div/div/ul/li/div/div/a'
p34
F1.2219163629124323
sS'/html/body/div/div/div/div/form/div/button'
p35
F0.0
sS'/html/body/div/div/div/div/div/div/div/a/div/div'
p36
F1.67180054749975
sS'/html/body/div/div/div/div/h1/span'
p37
F5.587822154860397
sS'/html/body/div/div/div/div/div/div/div/div/div/div/div/p/span'
p38
F6.520707959001861
sS'/html/body/div/div/div/div/div/div/div/a/p/span'
p39
F2.4178971534180844
sS'/html/body/div/div/div/div/a/div/div/div/div/div'
p40
F7.980139577639158
sS'/html/body/div/div/div/div/div/div/div/div/div/div/div/div/span'
p41
F3.3802267354520295
sS'/html/body/div/div/div/div/div/div/div/div/div/div/span/span/span'
p42
F6.2796998594980655
sS'/html/head/script'
p43
F0.0
sS'/html/body/div/div/div/div/ul/li/div/div/div/div'
p44
F0.8077120689936748
sS'/html/body/div/div/div/div/div/div/ul/li/div/div/dl/dt'
p45
F7.395177076918001
sS'/html/body/div/div/div/div/ul/li/div/div/div/div/div/a/span'
p46
F0.8077120689936748
sS'/html/body/div/div/div/div/div/table'
p47
F6.073248982030639
sS'/html/body/div/div/div/div/div/p/br'
p48
F0.0
sS'/html/body/div/div/div/div/div/form/div/div/div/button/span'
p49
F0.8077120689936748
sS'/html/body/div/div/div/div/div/div/div/div/div/div/div/div/a'
p50
F8.980139577639157
sS'/html/body/div/div/div/div/div/div/div/div/div/div/div/div/i'
p51
F8.980139577639157
sS'/html/body/div/div/div/div/div/div/div/div/span'
p52
F0.0
sS'/html/body/div/div/div/div/div/div/table/tbody/tr/td/h2'
p53
F9.980139577639157
sS'/html/body/div/div/div/div/div/div/div/div/div/div/div/div/p'
p54
F6.6582114827517955
sS'/html/body/div/div/div/div/div/div/div/div/div/div/p/a'
p55
F5.732212064195571
sS'/html/body/div/div/div/div/div/div/a/p/span'
p56
F0.5371960817904288
sS'/html/body/div/div/div/div/div/div/div/div/div/div/div/div/div/div/span/span'
p57
F6.395177076918001
sS'/html/body/div/div/div/div/div/div/div/br'
p58
F1.5921222922940224
sS'/html/body/div/div/div/div/div/div/h3/span'
p59
F1.5622870627532592
sS'/html/body/div/div/div/div/div/div/div/div/div/div/p'
p60
F1.7853827232169095
sS'/html/head/noscript/iframe'
p61
F0.0
sS'/html/body/div/div/div/div/div/div/ul/li/div/div/div/span'
p62
F7.395177076918001
sS'/html/body/div/div/div/div/a/div/div/p'
p63
F8.395177076918001
sS'/html/body/div/div/div/div/div/div/div/div/table/tr/td/button'
p64
F7.6582114827517955
sS'/html/body/div/div/div/div/div/div/a/div/div/div/div/p'
p65
F7.980139577639158
sS'/html/body/div/div/div/div/div/div/div/p/strong'
p66
F0.0
sS'/html/body/div/div/div/div/div/div/link'
p67
F9.980139577639157
sS'/html/body/div/div/div/div/div/table/tr/td'
p68
F3.0494022400762706
sS'/html/body/div/div/div/div/a/h1/span'
p69
F2.448758117122845
sS'/html/body/div/div/div/div/div/div/div/div/button/span'
p70
F6.810214576196845
sS'/html/body/div/div/div/div/div/div/div/div/a/p/span'
p71
F2.903323980588327
sS'/html/body/div/div/div/div/div/div/div/a/span'
p72
F0.7322120641955716
sS'/html/body/div/div/div/div/div/div/div/div/ul/li'
p73
F5.732212064195571
sS'/html/body/div/div/div/div/div/div/a/button'
p74
F7.6582114827517955
sS'/html/body/div/div/div/div/div/div/div/ul/li/form/div/label/span/span'
p75
F8.980139577639157
sS'/html/body/div/div/div/div/ul/li/div/div/div/div/div/br'
p76
F0.8077120689936748
sS'/html/body/div/div/div/div/form/div/p/small/a'
p77
F0.0
sS'/html/body/div/div/div/div/form/div/div/label/span'
p78
F0.0
sS'/html/body/div/div/div/div/div/div/table/tr/td/div/b'
p79
F9.980139577639157
sS'/html/body/div/div/div/div/div/div/table/tr/td/div/a'
p80
F7.395177076918001
sS'/html/body/div/div/div/div/div/div/div/a/div/div/span/em'
p81
F7.980139577639158
sS'/html/body/div/div/div/div/div/div/a/span/span'
p82
F7.980139577639158
sS'/html/body/div/div/div/div/div/div/div/div/div/div/span/span'
p83
F6.2796998594980655
sS'/html/body/div/div/div/div/div/div/table/tr/td/div/p'
p84
F9.980139577639157
sS'/html/body/div/div/div/div/ul/li/div/div/div/div/table/tr/td/img'
p85
F0.8077120689936748
sS'/html/body/div/div/div/div/div/div/span'
p86
F5.587822154860397
sS'/html/body/div/div/div/div/div/div/dl/dd/a'
p87
F8.395177076918001
sS'/html/body/div/div/div/div/div/ul/li/div/div/div/div/div/img'
p88
F1.2219163629124323
sS'/html/body/div/div/div/div/div/div/form/label/span'
p89
F9.980139577639157
sS'/html/body/div/div/div/div/div/a/span'
p90
F6.810214576196845
sS'/html/body/div/div/div/div/div/div/form/ol/div/div/div/label/div/span'
p91
F9.980139577639157
sS'/html/body/div/div/div/div/div/div/form/ol/div/div/div/textarea'
p92
F9.980139577639157
sS'/html/body/div/div/div/div/div/div/img'
p93
F3.2658940599730344
sS'/html/body/div/div/div/div/div/div/div/div/form/div/label/input'
p94
F8.980139577639157
sS'/html/body/div/div/div/div/div/ul/li/a/img'
p95
F1.0913963287408979
sS'/html/body/div/div/div/div/div/ul/li/div/div/div/div/a/h2'
p96
F1.2219163629124323
sS'/html/body/div/div/div/div/div/div/form/div/div/div/button/em'
p97
F1.2219163629124323
sS'/html/body/div/div/div/div/div/div/ul/li/div/a'
p98
F5.073248982030639
sS'/html/body/div/div/div/div/div/div/meta'
p99
F6.810214576196845
sS'/html/body/div/div/div/div/div/div/a/div/img'
p100
F7.980139577639158
sS'/html/body/div/div/div/div/div/div/div/p'
p101
F0.0
sS'/html/body/div/div/div/div/div/div/div/div/div/div/div/guidesratingwidget'
p102
F8.980139577639157
sS'/html/body/div/div/div/div/div/div/div/i'
p103
F0.0
sS'/html/body/div/div/div/div/h3/a/span'
p104
F5.587822154860397
sS'/html/body/div/div/div/div/div/div/div/strong'
p105
F7.6582114827517955
sS'/html/body/div/div/div/div/div/div/div/a'
p106
F0.3507829575595475
sS'/html/body/div/div/div/div/div/div/div/ul/li/form/div/label/input'
p107
F8.980139577639157
sS'/html/body/div/div/div/div/div/p/small/a'
p108
F0.0
sS'/html/body/div/div/div/div/div/div/div/div/div/span/span'
p109
F6.520707959001861
sS'/html/body/div/div/div/div/div/div/div/div/div/div/br'
p110
F6.810214576196845
sS'/html/body/div/div/div/div/div/div/div/div/div/button'
p111
F8.980139577639157
sS'/html/body/div/div/div/div/div/div/ul/li'
p112
F1.492299543816106
sS'/html/body/div/div/div/div/div/p/span/a'
p113
F1.941220588346855
sS'/html/body/div/div/div/div/div/button/div/span'
p114
F8.980139577639157
sS'/html/body/div/div/div/div/div/div/div/div/div/div/div/img'
p115
F4.587822154860397
sS'/html/body/div/div/div/div/div/ul/li/div/p'
p116
F3.0143552929770703
sS'/html/body/div/div/div/div/div/div/div/div/br'
p117
F9.980139577639157
sS'/html/body/div/div/div/div'
p118
F0.0
sS'/html/body/div/div/div/div/div/div/ul/li/h3'
p119
F8.980139577639157
sS'/html/body/div/div/div/div/a/div/span/strong'
p120
F7.6582114827517955
sS'/html/body/div/div/div/div/div/div/h2/a'
p121
F4.42555072596152
sS'/html/body/div/div/div/div/div/ul/li/div'
p122
F7.980139577639158
sS'/html/body/div/div/div/div/p/small/a'
p123
F0.0
sS'/html/body/div/div/div/div/div/div/strong'
p124
F8.980139577639157
sS'/html/body/div/div/div/div/div/div/title'
p125
F9.980139577639157
sS'/html/body/div/div/div/div/div/div/form/ol/input'
p126
F9.980139577639157
sS'/html/body/div/div/div/div/div/form/p'
p127
F7.395177076918001
sS'/html/body/div/div/div/div/div/div/form/ol/div/div/div/label/div'
p128
F9.980139577639157
sS'/html/body/div/div/div/div/div/div/div/div/div/input'
p129
F1.6181958039039157
sS'/html/body/div/div/div/div/div/span/span'
p130
F6.810214576196845
sS'/html/body/div/div/div/div/div/div/div/button/span'
p131
F1.1440892225810873
sS'/html/body/div/div/div/div/div/div/div/a/meta'
p132
F4.395177076918001
sS'/html/body/div/div/div/div/div/div/div/div/div/div/label/a'
p133
F8.980139577639157
sS'/html/body/div/div/div/div/div/div/i'
p134
F7.1727846555815535
sS'/html/body/div/div/div/div/div/div/div/div/div/div/span'
p135
F1.830392458134475
sS'/html/body/div/div/div/div/div/div/a'
p136
F0.0
sS'/html/body/div/div/div/div/div/hr'
p137
F3.850856560694191
sS'/html/body/div/div/div/div/div/div/ul/li/div/div/div/div/img'
p138
F7.395177076918001
sS'/html/body/div/div/div/div/div/div/div/div/form/div/label/span/span'
p139
F8.980139577639157
sS'/html/body/div/div/div/div/div/div/div/table/tr/td/span/a/span'
p140
F4.336283387864433
sS'/html/body/div/div/div/div/a/div/div/div/h3'
p141
F7.980139577639158
sS'/html/body/div/div/div/div/div/div/div/a/div/img'
p142
F7.980139577639158
sS'/html/body/div/div/div/div/div/div/div/a/div/div/span'
p143
F7.980139577639158
sS'/html/body/div/div/div/div/div/div/div/a/div/div/div/div'
p144
F4.892676736388817
sS'/html/body/div/div/div/div/div/div/div/span'
p145
F0.0
sS'/html/body/div/div/div/div/div/div/div/ul/li/a'
p146
F0.7585524563743522
sS'/html/body/div/div/div/div/div/h3'
p147
F3.395177076918001
sS'/html/body/div/div/div/div/div/h2'
p148
F0.0
sS'/html/body/div/div/div/div/div/div/div/ul/li/h3'
p149
F8.980139577639157
sS'/html/body/div/div/div/div/div/div/ul/li/div/div/div/p/span/span'
p150
F7.395177076918001
sS'/html/body/div/div/div/div/div/div/table/tr/td/span/span'
p151
F1.5707486415014555
sS'/html/body/div/div/div/div/div/ul/li/div/div/div/div/ul/li/img'
p152
F1.2219163629124323
sS'/html/body/div/div/div/div/div/ul/li/br'
p153
F8.395177076918001
sS'/html/body/div/div/div/div/div/div/div/meta'
p154
F5.732212064195571
sS'/html/body/div/div/div/div/h2/span'
p155
F0.0
sS'/html/body/div/div/div/div/div/div/div/div/ul/li/a'
p156
F1.1824780517853972
sS'/html/head/link'
p157
F0.0
sS'/html/body/div/div/div/div/div/div/div/div/div/div/div/span'
p158
F1.7658204568383915
sS'/html/body/div/div/div/div/div/div/div/a/div/span'
p159
F6.395177076918001
sS'/html/body/div/div/div/div/div/div/div/table/tr/td/a/span'
p160
F0.7633937194438513
sS'/html/body/div/div/div/div/div/div/div/div/div/p/a'
p161
F5.732212064195571
sS'/html/body/div/div/div/div/form/div/div/div/div'
p162
F0.0
sS'/html/body/div/div/div/div/div/div/div/div/div/div/div/meta'
p163
F1.8611985049156496
sS'/html/body/div/div/div/div/div/div/div/form/button/span'
p164
F1.5622870627532592
sS'/html/body/div/div/div/div/div/div/div/div/div/div/a/div/div/h3'
p165
F6.520707959001861
sS'/html/body/div/style'
p166
F0.02885486267218499
sS'/html/body/div/div/div/div/div/div/ul/li/div/div/div/p/a'
p167
F7.395177076918001
sS'/html/body/div/div/div/div/form/div/p/small/br'
p168
F0.0
sS'/html/body/div/div/div/div/a/div/div'
p169
F2.448758117122845
sS'/html/body/div/div/div/div/div/div/ul/li/a/img'
p170
F5.810214576196844
sS'/html/body/div/div/div/div/div/div/div/div/strong/span'
p171
F7.980139577639158
sS'/html/body/div/div/div/div/div/div/div'
p172
F1.1824780517853972
sS'/html/body/div/div/div/a/img'
p173
F7.1727846555815535
sS'/html/body/div/div/div/div/div/div/div/div/ul'
p174
F1.587822154860397
sS'/html/body/div/div/h3/a'
p175
F7.6582114827517955
sS'/html/body/div/div/div/div/div/span'
p176
F4.395177076918001
sS'/html/body/div/div/div/div/div/div/span/span'
p177
F5.025943267252282
sS'/html/body/div/div/div/div/form/div/div/div/div/span/a/i'
p178
F0.0
sS'/html/body/div/div/div/div/div/p/a/i'
p179
F0.0
sS'/html/body/div/div/div/div/div/div/div/div/div/div/div/div/a/meta'
p180
F2.115953432984877
sS'/html/body/div/div/div/div/div/div/div/div'
p181
F1.4102839693082092
sS'/html/body/div/div/div/div/div/div/div/div/div/div/div/div/p/br'
p182
F9.980139577639157
sS'/html/body/div/div/div/div/div/div/div/table/thead/tr/th/a'
p183
F1.8253214685870531
sS'/html/body/div/div/div/div/form/div/span/button'
p184
F0.0
sS'/html/body/div/div/div/div/div/ul/li/div/a'
p185
F1.2901416062197117
sS'/html/body/div/div/div/div/div/div/div/div/div/div/div/div'
p186
F1.850856560694191
sS'/html/body/div/div/div/div/div/div/div/div/a/div/div/p'
p187
F2.1857237112890515
sS'/html/head/style'
p188
F5.980139577639157
sS'/html/body/div/div/div/div/div/div/div/div/div/div/div/div/div/meta'
p189
F6.395177076918001
sS'/html/body/div/div/div/div/div/div/em'
p190
F9.980139577639157
sS'/html/body/div/div/div/div/div/div/form/ol/div/div/div/label/div/label'
p191
F9.980139577639157
sS'/html/body/div/div/div/div/div/div/a/div/div/div/img'
p192
F7.980139577639158
sS'/html/body/div/div/div/div/ul/li/div/div/div/h2'
p193
F0.8077120689936748
sS'/html/body/div/div/div/div/div/div/div/div/div/label/a'
p194
F8.980139577639157
sS'/html/body/div/div/div/div/div/div/div/div/div/div/a/span'
p195
F5.587822154860397
sS'/html/body/div/div/div/div/p'
p196
F0.0
sS'/html/body/div/div/div/div/div/div/a/div/div/div/div/div'
p197
F7.980139577639158
sS'/html/body/div/div/div/div/div/div/form/input'
p198
F9.980139577639157
sS'/html/body/div/div/script'
p199
F0.01868988324096106
sS'/html/body/div/div/div/div/div/form/div/div/input'
p200
F0.8077120689936748
sS'/html/body/div/div/div/div/div/div/ul/li/span'
p201
F5.025943267252282
sS'/html/body/div/div/div/div/div/br'
p202
F0.0
sS'/html/body/div/div/div/div/div/div/p/a'
p203
F5.980139577639157
sS'/html/body/div/div/div/div/div/div/style'
p204
F9.980139577639157
sS'/html/body/div/div/div/div/div/ol/li'
p205
F7.980139577639158
sS'/html/body/div/div/div/div/div/div/div/div/div/div/a'
p206
F1.7952642347308734
sS'/html/body/div/div/div/div/form/input'
p207
F0.0
sS'/html/body/div/div/div/div/div/ul/li/span'
p208
F5.892676736388818
sS'/html/body/div/div/div/h1'
p209
F7.980139577639158
sS'/html/body/div/div/div/div/div/div/div/div/table/tr/td/select/option'
p210
F7.980139577639158
sS'/html/body/div/div/div/div/h3/a'
p211
F4.049402240076271
sS'/html/body/div/div/div/div/div/div/div/div/span/br'
p212
F1.6763588294620544
sS'/html/body/div/div/div/div/div/div'
p213
F0.33808788471118034
sS'/html/body/div/div/div/div/div/div/div/table/tr/td/a/span/span'
p214
F7.980139577639158
sS'/html/body/div/div/div/div/div/div/div/div/div/a/span/span'
p215
F9.980139577639157
sS'/html/body/div/div/div/div/div/div/div/button/div/div'
p216
F8.980139577639157
sS'/html/body/div/div/div/div/div/div/a/div/div/div/div/p/em'
p217
F7.980139577639158
sS'/html/body/div/script'
p218
F0.0
sS'/html/body/div/div/div/div/div/div/ul/li/p'
p219
F9.980139577639157
sS'/html/body/div/div/div/div/button/span'
p220
F0.0
sS'/html/body/div/div/div/div/h2'
p221
F0.0
sS'/html/body/div/div/div/div/h1'
p222
F2.7322120641955716
sS'/html/body/div/div/div/div/a/div/div/p/em'
p223
F9.980139577639157
sS'/html/body/div/div/div/div/div/div/ul/li/a'
p224
F1.3876825403710766
sS'/html/body/div/div/div/div/div/div/div/span/span'
p225
F6.980139577639157
sS'/html/body/div/div/div/ul/li/a'
p226
F0.8052138951384783
sS'/html/body/div/div/div/div/div/div/a/h3'
p227
F7.1727846555815535
sS'/html/body/div/div/div/div/div/div/div/div/div/div/a/img'
p228
F6.6582114827517955
sS'/html/body/div/div/div/div/div/div/div/span/a/span'
p229
F8.980139577639157
sS'/html/body/div/div/div/div/div/div/div/div/strong/a'
p230
F5.732212064195571
sS'/html/body/div/div/div/div/div/ul/li/div/div/div/div/div/br'
p231
F1.2219163629124323
sS'/html/body/div/div/div/div/div/div/p/span'
p232
F1.5538748229370591
sS'/html/body/div/div/div/div/ul/li/a/span'
p233
F0.8077120689936748
sS'/html/body/div/div/div/div/div/div/div/div/div/img'
p234
F1.8002304876242228
sS'/html/body/div/div/div/div/div/div/div/div/meta'
p235
F2.0792727696584086
sS'/html/body/div/div/div/div/div/div/ul/li/br'
p236
F9.980139577639157
sS'/html/body/div/div/div/div/div/p/a'
p237
F1.941220588346855
sS'/html/body/div/div/div/div/div/div/ul/li/em'
p238
F9.980139577639157
sS'/html/body/div/div/div/div/button'
p239
F9.980139577639157
sS'/html/body/div/div/div/div/div/div/div/script'
p240
F0.5921222922940222
sS'/html/body/div/div/div/div/div/div/ul/li/p/a'
p241
F9.980139577639157
sS'/html/body/div/div/div/div/div/div/table/tbody/tr/td/textarea'
p242
F7.395177076918001
sS'/html/body/div/div/div/div/div/div/script'
p243
F0.510497760399641
sS'/html/body/div/div/div/div/div/div/a/div/div/div/h3'
p244
F7.980139577639158
sS'/html/body/div/div/div/div/div/div/div/div/textarea'
p245
F1.6269927521410745
sS'/html/body/div/div/div/div/div/ul/li/h3'
p246
F8.980139577639157
sS'/html/body/div/div/div/div/div/div/div/div/div/div/img'
p247
F6.6582114827517955
sS'/html/body/div/div/div/div/div/div/form/ol/div/div/div/ul/li/label/span/a'
p248
F9.980139577639157
sS'/html/body/div/div/div/div/a/div/h3'
p249
F7.980139577639158
sS'/html/body/div/div/div/div/div/div/div/div/div/em'
p250
F6.810214576196845
sS'/html/body/div/div/div/div/div/div/div/div/h3'
p251
F8.980139577639157
sS'/html/body/div/div/div/div/div/div/div/div/h2'
p252
F1.6269927521410745
sS'/html/body/div/div/div/div/div/div/div/div/div/div/input'
p253
F8.980139577639157
sS'/html/body/div/div/div/div/div/div/table/tr/td/ul/li/em'
p254
F3.2386725912380103
sS'/html/body/div/div/div/div/div/div/ul/li/ol/li/span'
p255
F8.395177076918001
sS'/html/body/div/div/div/div/div/div/div/div/img'
p256
F4.279699859498065
sS'/html/body/div/div/div/div/a'
p257
F0.0
sS'/html/body/div/div/div/div/div/div/ul/li/div/a/span'
p258
F5.225252075475689
sS'/html/body/div/div/div/div/div/div/dl/dt'
p259
F6.2796998594980655
sS'/html/body/div/div/div/div/div/div/div/div/div/script'
p260
F5.732212064195571
sS'/html/body/div/div/div/div/div/div/dl/dd'
p261
F6.2796998594980655
sS'/html/script'
p262
F5.587822154860397
sS'/html/body/div/div/div/div/div/div/button'
p263
F5.122158582511585
sS'/html/body/div/div/div/div/div/div/div/div/div/div/a/div/img'
p264
F1.6269927521410745
sS'/html/body/div/div/div/div/div/ul/li/div/div/div/div/h2'
p265
F1.2219163629124323
sS'/html/body/div/div/div/div/p/img'
p266
F0.0
sS'/html/body/div/div/div/div/div/div/table/tbody/tr/td'
p267
F7.980139577639158
sS'/html/body/div/div/div/div/div/div/div/a/div'
p268
F6.1727846555815535
sS'/html/body/div/div/div/div/div/ul/li/span/span'
p269
F1.850856560694191
sS'/html/body/div/div/div/div/div/div/div/h2/a'
p270
F7.395177076918001
sS'/html/body/div/div/div/div/div/div/div/table/tr/td/a'
p271
F1.444864201018354
sS'/html/body/div/div/div/div/div/div/div/p/span/br'
p272
F9.980139577639157
sS'/html/body/div/div/div/div/div/table/tr/td/a'
p273
F4.935745458280704
sS'/html/body/div/div/div/div/div/form/textarea'
p274
F7.395177076918001
sS'/html/body/div/div/div/div/a/div/div/div/div/p'
p275
F7.980139577639158
sS'/html/body/div/div/div/h3/a'
p276
F2.464439739355115
sS'/html/body/div/div/div/div/div/div/div/img'
p277
F5.025943267252282
sS'/html/body/div/div/div/div/div/div/a/div/div/img'
p278
F0.0
sS'/html/body/div/div/div/div/div/div/div/div/button'
p279
F5.892676736388818
sS'/html/body/div/div/div/div/div/ul/li'
p280
F1.2219163629124323
sS'/html/body/div/div/div/div/div/div/form/label/input'
p281
F9.980139577639157
sS'/html/body/div/div/div/div/div/div/table/tbody/tr/td/select'
p282
F7.395177076918001
sS'/html/body/div/div/div/div/div/div/div/div/div/br'
p283
F7.980139577639158
sS'/html/body/div/div/div/div/div/div/div/div/div/div/a/div/div/img'
p284
F6.520707959001861
sS'/html/body/div/div/div/div/div/div/div/a/div/div/p'
p285
F7.980139577639158
sS'/html/body/div/div/div/div/div/div/ul/li/a/span'
p286
F5.025943267252282
sS'/html/body/div/div/div/div/div/div/div/div/p/span'
p287
F9.980139577639157
sS'/html/body/div/div/div/div/div/div/div/div/h3/div/a'
p288
F8.980139577639157
sS'/html/body/div/div/div/div/div/div/p'
p289
F1.406492390145835
sS'/html/body/div/div/div/div/div/div/div/button/div'
p290
F8.980139577639157
sS'/html/body/div/div/div/div/h3/a/meta'
p291
F5.587822154860397
sS'/html/body/div/div/div/div/div/div/a/br'
p292
F7.6582114827517955
sS'/html/body/div/div/div/div/form/div/div/div/div/input'
p293
F0.0
sS'/html/body/div/div/div/div/div/div/table/tr/td'
p294
F1.5248123573345964
sS'/html/body/div/div/div/style'
p295
F3.0143552929770703
sS'/html/body/div/div/div/div/div/div/div/ul/li/div/div'
p296
F8.980139577639157
sS'/html/body/div/div/div/div/div/div/div/div/button/span/span'
p297
F6.810214576196845
sS'/html/body/div/div/div/div/div/div/div/div/table/tr/td/textarea'
p298
F7.6582114827517955
sS'/html/body/div/div/div/div/div/div/div/a/button/em'
p299
F1.2219163629124323
sS'/html/body/div/div/div/div/div/div/ul/li/div/div/p'
p300
F7.980139577639158
sS'/html/body/div/div/div/div/div/div/div/div/div/div/div/div/div/a'
p301
F5.025943267252282
sS'/html/body/div/div/div/div/div/div/div/table/tr/td/ul/li/em'
p302
F2.5125340275561596
sS'/html/body/div/div/div/div/div/div/div/div/div/div/a/div/div/p'
p303
F1.5792601413569727
sS'/html/body/div/div/div/div/div/ul/li/a'
p304
F0.0
sS'/html/body/div/div/div/div/div'
p305
F0.0
sS'/html/body/div/div/div/div/div/div/a/p'
p306
F7.980139577639158
sS'/html/body/div/div/div/div/div/div/div/table/tr/td'
p307
F0.6225875730210734
sS'/html/body/div/div/div/div/div/div/div/div/div/span/a'
p308
F7.395177076918001
sS'/html/body/div/div/div/div/div/script'
p309
F0.02885486267218499
sS'/html/body/div/div/div/div/div/div/table/tr/td/span'
p310
F4.6947373587769095
sS'/html/body/div/div/div/div/div/div/div/table/tr/td/span/span'
p311
F0.6425176756466495
sS'/html/body/div/div/div/div/div/div/div/div/div/div/div/div/div/div'
p312
F6.395177076918001
sS'/html/body/div/div/div/div/ul/li/div/div/div/div/ul/li/a'
p313
F0.8077120689936748
sS'/html/body/div/div/div/div/div/ul/li/div/div/div/div/table/tr/td/img'
p314
F1.2219163629124323
sS'/html/body/div/div/div/div/div/div/p/a/span'
p315
F9.980139577639157
sS'/html/body/div/div/div/div/div/div/div/div/ul/li/div/div/a/span'
p316
F1.2219163629124323
sS'/html/body/div/div/div/div/div/div/div/ul/div/div'
p317
F8.980139577639157
sS'/html/body/div/div/div/div/div/div/div/div/table/tr/td/select'
p318
F9.980139577639157
sS'/html/body/div/div/div/div/div/div/form/label/textarea'
p319
F9.980139577639157
sS'/html/body/div/div/div/div/div/div/div/div/a/sub'
p320
F7.395177076918001
sS'/html/body/div/div/div/div/div/div/div/a/div/div/div/span'
p321
F1.67180054749975
sS'/html/body/div/div/div/div/div/div/div/div/div/div/div/div/div/div/span'
p322
F6.395177076918001
sS'/html/body/div/div/div/div/a/div/div/div/div/span'
p323
F7.980139577639158
sS'/html/body/div/div/div/div/div/div/div/a/img'
p324
F0.0
sS'/html/body/div/div/div/div/div/span/a'
p325
F6.810214576196845
sS'/html/body/div/div/div/div/div/div/h1'
p326
F1.6672566223548018
sS'/html/body/div/div/div/div/div/div/div/div/div/div/a/div/div/p/em'
p327
F1.6269927521410745
sS'/html/body/div/div/div/div/div/a/img'
p328
F5.587822154860397
sS'/html/body/div/div/div/div/div/div/form/ol/div/div/div/br'
p329
F9.980139577639157
sS'/html/body/div/div/div/div/div/div/div/div/div/a/span'
p330
F5.456577621582144
sS'/html/body/div/div/div/div/div/div/div/div/a/div/div/div'
p331
F2.1857237112890515
sS'/html/body/div/div/div/div/div/form/p/i'
p332
F7.395177076918001
sS'/html/body/div/div/div/div/div/input'
p333
F6.810214576196845
sS'/html/body/div/div/div/div/form/div/div/select/option'
p334
F0.0
sS'/html/body/div/div/div/div/a/div'
p335
F2.4178971534180844
sS'/html/body/div/div/div/div/div/img'
p336
F2.4882864813094825
sS'/html/body/div/div/div/div/div/div/div/a/div/div/p/em'
p337
F7.980139577639158
sS'/html/body/div/div/div/div/div/div/a/button/em'
p338
F0.8077120689936748
sS'/html/body/div/div/div/div/div/div/a/div/div/div'
p339
F2.3290878864602287
sS'/html/body/div/div/div/div/div/div/form/label/br'
p340
F9.980139577639157
sS'/html/body/div/div/div/div/div/div/div/table/tr/td/time'
p341
F1.7952642347308734
sS'/html/body/div/div/div/div/div/div/a/div/div/div/div/span'
p342
F7.980139577639158
sS'/html/body/div/div/div/div/div/ul/li/div/div/div/h2'
p343
F1.2219163629124323
sS'/html/body/div/div/div/div/div/div/div/div/div/div/div/a'
p344
F1.7133530369442558
sS'/html/body/div/div/div/div/div/div/div/ol/li/span'
p345
F9.980139577639157
sS'/html/body/div/div/div/div/div/div/div/div/ul/li/div'
p346
F6.810214576196845
sS'/html/body/div/div/div/div/div/div/table/tbody/tr/td/p/a'
p347
F9.980139577639157
sS'/html/body/div/div/div/div/div/div/div/div/div/div/div/div/img'
p348
F8.980139577639157
sS'/html/body/div/div/div/div/div/div/div/div/p'
p349
F0.0
sS'/html/body/div/div/div/div/div/ul/li/a/span'
p350
F1.2219163629124323
sS'/html/body/div/div/div/div/p/a/i'
p351
F0.0
sS'/html/body/div/div/div/div/div/div/div/h2'
p352
F4.279699859498065
sS'/html/body/div/div/div/div/div/div/div/div/table/thead/tr/th'
p353
F7.6582114827517955
sS'/html/body/div/div/div/div/div/div/select/option'
p354
F7.395177076918001
sS'/html/body/div/div/div/div/div/div/br'
p355
F5.980139577639157
sS'/html/body/div/div/div'
p356
F2.903323980588327
sS'/html/body/div/div/div/div/div/div/div/div/a/span/span'
p357
F9.980139577639157
sS'/html/body/div/div/div/div/div/div/a/div/div'
p358
F2.3290878864602287
sS'/html/body/div/div/div/div/div/form/button/span'
p359
F7.395177076918001
sS'/html/body/div/div/div/span'
p360
F0.0
sS'/html/body/div/div/div/div/div/div/div/div/div/div/span/meta'
p361
F6.2796998594980655
sS'/html/body/div/div/div/div/div/div/ul/li/div/div/dl/dd/a'
p362
F7.395177076918001
sS'/html/body/div/div/div/div/div/div/div/a/h5'
p363
F6.810214576196845
sS'/html/body/div/div/div/div/div/div/div/table/tr/td/span'
p364
F1.4605033247959445
sS'/html/body/div/div/div/div/div/div/table/thead/tr/th'
p365
F4.122158582511585
sS'/html/body/div/div/div/div/div/div/table/tr/td/div'
p366
F2.1987798641144978
sS'/html/body/div/div/div/div/a/h3'
p367
F4.122158582511585
sS'/html/body/div/div/div/div/div/div/div/div/p/strong'
p368
F4.395177076918001
sS'/html/body/div/div'
p369
F6.520707959001861
sS'/html/body/div/div/div/div/div/div/div/div/div/div/div/div/div/div/meta'
p370
F6.395177076918001
sS'/html/body/div/div/div/div/div/div/div/div/h1/a'
p371
F8.980139577639157
sS'/html/body/div/div/div/div/div/div/div/div/h2/a'
p372
F6.810214576196845
sS'/html/body/div/div/div/div/div/div/div/table/tr/td/ul/li/span'
p373
F1.9689123222159028
sS'/html/body/div/div/div/div/div/div/div/div/div/a/p/span'
p374
F1.6269927521410745
sS'/html/body/div/div/div/div/div/button/span'
p375
F0.0
sS'/html/body/div/div/div/div/div/div/div/div/div/div/div/em'
p376
F5.025943267252282
sS'/html/body/div/div/div/div/div/div/table/tbody/tr/td/p/a/span'
p377
F9.980139577639157
sS'/html/body/div'
p378
F0.0
sS'/html/body/div/div/div/meta'
p379
F5.732212064195571
sS'/html/body/div/div/div/div/div/div/div/ul/h3'
p380
F8.980139577639157
sS'/html/body/div/div/div/div/div/div/div/div/div/div/meta'
p381
F1.79031501875914
sS'/html/body/div/div/div/div/div/div/div/div/div/div/a/div/div/div/span'
p382
F6.520707959001861
sS'/html/body/div/div/div/div/div/form/span'
p383
F7.395177076918001
sS'/html/body/div/div/div/div/div/button'
p384
F8.980139577639157
sS'/html/body/div/div/div/div/div/div/a/div/span'
p385
F7.980139577639158
sS'/html/body/div/div/div/div/div/div/div/div/div/div/div/div/div'
p386
F5.025943267252282
sS'/html/body/div/div/div/div/div/div/button/span'
p387
F0.7977452242346282
sS'/html/body/div/div/div/div/form/div/div/label/span/br'
p388
F0.0
sS'/html/body/div/div/div/div/div/ul/li/p/a'
p389
F1.8405882252403636
sS'/html/body/div/div/div/div/div/ul/li/div/div/span'
p390
F8.395177076918001
sS'/html/body/div/div/div/div/div/div/div/div/div/p/span'
p391
F2.350782957559548
sS'/html/body/div/div/div/div/div/meta'
p392
F4.658211482751795
sS'/html/body/div/div/div/div/div/div/form/div/button/span'
p393
F9.980139577639157
sS'/html/body/div/div/div/div/div/div/div/div/a/button/span'
p394
F2.38022673545203
sS'/html/body/div/div/div/div/div/div/a/img'
p395
F0.20370654519442405
sS'/html/body/div/div/div/div/div/div/div/div/a/h5'
p396
F4.980139577639157
sS'/html/body/div/div/div/div/h4'
p397
F0.0
sS'/html/body/div/div/div/div/div/div/a/div/div/span'
p398
F0.0
sS'/html/body/div/div/div/div/form/div/div/input'
p399
F0.0
sS'/html/body/div/div/div/div/div/a/h3'
p400
F4.049402240076271
sS'/html/body/div/div/div/div/div/ul/li/div/div/div/div/div/a/span'
p401
F1.2219163629124323
sS'/html/body/div/div/div/div/div/div/ul/li/div/a/img'
p402
F4.935745458280704
sS'/html/body/div/div/div/div/div/div/div/a/div/meta'
p403
F1.6181958039039157
sS'/html/head/title'
p404
F0.0
sS'/html/body/div/div/div/div/form/div/div/small/a'
p405
F0.0
sS'/html/body/div/div/div/div/div/table/tr/td/a/span'
p406
F5.980139577639157
sS'/html/body/div/div/div/div/div/div/div/a/div/h3'
p407
F7.980139577639158
sS'/html/body/div/div/div/div/form/div/input'
p408
F0.0
sS'/html/body/div/div/div/div/ul/li/a'
p409
F0.0
sS'/html/body/div/div/div/div/ul/li'
p410
F0.0
sS'/html/body/div/div/div/div/form/div/label'
p411
F0.0
sS'/html/body/div/div/div/div/div/div/div/span/a'
p412
F9.980139577639157
sS'/html/body/div/div/div/div/div/div/table/tr/td/ul/li/span'
p413
F2.7609710571769956
sS'/html/body/div/div/div/div/div/div/h2'
p414
F1.6051001462922323
sS'/html/body/div/div/div/div/form/div/div/label/span/a/i'
p415
F0.0
sS'/html/body/div/div/div/div/div/ul/li/a/br'
p416
F1.4605033247959445
sS'/html/body/div/div/div/div/div/div/div/div/a/span'
p417
F0.5003593136100575
sS'/html/body/div/div/div/div/div/div/ul/li/div/div/p/i'
p418
F9.980139577639157
sS'/html/body/div/div/div/div/h2/a/em'
p419
F5.587822154860397
sS'/html/body/div/div/div/div/div/ul/li/div/div/div/div'
p420
F1.2219163629124323
sS'/html/body/div/div/div/div/ul/li/div/div/div/div/ul/li/img'
p421
F0.8077120689936748
sS'/html/body/div/div/div/div/div/div/div/div/a/div/img'
p422
F2.115953432984877
sS'/html/body/div/div/div/div/div/div/ul/li/div/div/p/em'
p423
F7.395177076918001
sS'/html/body/div/div/div/div/div/div/div/div/a/div/div/span'
p424
F2.115953432984877
sS'/html/body/div/div/div/div/div/div/form/div/div/input'
p425
F1.2219163629124323
sS'/html/body/div/div/div/div/script'
p426
F0.0
sS'/html/body/div/div/div/div/div/div/div/div/a'
p427
F1.6855188287475302
sS'/html/body/div/div/div/div/div/div/div/div/em'
p428
F9.980139577639157
sS'/html/body/div/div/div/div/div/div/a/span'
p429
F0.0
sS'/html/body/div/div/div/div/div/style'
p430
F7.1727846555815535
sS'/html/body/div/div/div/div/div/ul'
p431
F7.1727846555815535
sS'/html/body/div/div/div/div/div/div/div/div/div/div/div/div/a/span'
p432
F2.1036226310741575
sS'/html/body/div/div/div/div/div/div/div/div/div/a/sub'
p433
F9.980139577639157
sS'/html/body/div/div/div/div/div/div/div/div/div/div/p/span'
p434
F2.115953432984877
sS'/html/body/div/div/div/div/div/div/div/h4'
p435
F8.980139577639157
sS'/html/body/div/div/div/div/div/div/div/h3'
p436
F0.0
sS'/html/body/div/div/div/ul/li'
p437
F0.8077120689936748
sS'/html/body/div/div/div/div/div/div/div/h1'
p438
F8.980139577639157
sS'/html/body/div/div/div/div/div/div/form/ol/div/div/div/input'
p439
F9.980139577639157
sS'/html/body/div/div/div/div/a/div/em/span'
p440
F7.6582114827517955
sS'/html/body/div/div/div/div/div/div/form/button/span'
p441
F4.658211482751795
sS'/html/body/script'
p442
F0.0
sS'/html/body/div/div/div/div/div/div/div/div/div/div'
p443
F1.4963238003749006
sS'/html/body/div/div/div/div/div/div/div/style'
p444
F1.456577621582144
sS'/html/body/div/div/div/div/div/div/div/div/div/div/div/br'
p445
F5.025943267252282
sS'/html/body/div/div/div/div/div/div/ul/ul/li/p'
p446
F9.980139577639157
sS'/html/body/div/div/div/div/div/form/div/div/div/button/em'
p447
F0.8077120689936748
sS'/html/body/div/div/div/div/div/div/form/div/div/div/button/span'
p448
F1.2219163629124323
sS'/html/body/div/div/div/div/div/div/form/br'
p449
F9.980139577639157
sS'/html/body/div/div/div/div/div/div/div/ul/li/a/img'
p450
F0.8077120689936748
sS'/html/body/div/div/div/div/div/div/div/ul/li/div/div/a'
p451
F0.8077120689936748
sS'/html/body/div/div/div/div/div/div/form/ol/div/table/tbody/tr/td/input'
p452
F9.980139577639157
sS'/html/body/div/div/div/div/a/div/button'
p453
F7.6582114827517955
sS'/html/body/div/div/div/div/div/div/a/p/em'
p454
F0.5921222922940222
sS'/html/body/div/div/div/div/div/div/div/ul/li/span'
p455
F9.980139577639157
sS'/html/body/div/div/div/div/div/div/hr'
p456
F9.980139577639157
sS'/html/body/div/div/div/div/div/div/div/div/div/div/div/div/a/span/span'
p457
F2.115953432984877
sS'/html/body/div/div/div/h1/span'
p458
F1.6358436697233403
sS'/html/body/div/div/div/div/div/div/ul/li/div/div'
p459
F5.225252075475689
sS'/html/body/div/div/div/div/div/ul/li/div/div/div/div/ul/li/a'
p460
F1.2219163629124323
sS'/html/body/div/div/div/div/div/div/div/a/div/div/div'
p461
F1.8354813348072747
sS'/html/body/div/div/div/div/div/div/div/div/div/div/div'
p462
F3.279699859498065
sS'/html/body/div/div/div/div/div/div/div/div/dl/dd'
p463
F7.6582114827517955
sS'/html/body/div/div/div/div/form/div/div'
p464
F0.0
sS'/html/body/div/div/div/div/div/div/form/ol/div/div/div/ul/li/label/span/input'
p465
F9.980139577639157
sS'/html/body/div/div/div/div/div/p'
p466
F0.0
sS'/html/body/div/div/div/div/div/div/div/p/span'
p467
F9.980139577639157
sS'/html/body/div/div/div/div/div/div/div/div/div'
p468
F2.6225875730210735
sS'/html/body/div/div/div/div/div/h3/span'
p469
F1.6269927521410745
sS'/html/body/div/div/div/div/div/div/div/div/div/div/div/h3/a'
p470
F8.980139577639157
sS'/html/body/div/div/div/div/div/a'
p471
F0.0
sS'/html/body/div/div/div/div/div/div/h3'
p472
F6.980139577639157
sS'/html/body/div/div/div/div/div/div/div/table/thead/tr/th/span'
p473
F1.8253214685870531
sS'/html/body/div/div/div/div/div/div/div/div/h3/span'
p474
F0.0
sS'/html/body/div/div/div/div/div/div/div/div/ul/li/a/img'
p475
F1.2219163629124323
sS'/html/body/div/div/div/div/div/div/div/div/div/div/div/div/em'
p476
F8.980139577639157
sS'/html/body/div/div/div/div/div/div/div/div/div/div/div/div/div/span'
p477
F1.8821074946786305
sS'/html/body/div/div/div/div/div/div/div/div/div/meta'
p478
F5.6582114827517955
sS'/html/body/div/div/div/div/a/div/div/div/img'
p479
F7.980139577639158
sS'/html/body/div/div/div/div/div/table/tr/td/a/meta'
p480
F5.980139577639157
sS'/html/body/div/div/div/script'
p481
F0.02885486267218499
sS'/html/body/div/div/div/div/div/div/div/p/a'
p482
F7.6582114827517955
sS'/html/body/div/div/div/div/div/div/ul'
p483
F8.980139577639157
sS'/html/body/div/div/div/div/div/span/button'
p484
F6.810214576196845
sS'/html/body/div/div/div/div/div/a/div/span'
p485
F8.980139577639157
sS'/html/body/div/div/div/div/div/h1/span'
p486
F5.336283387864433
sS'/html/body/div/div/div/div/div/div/div/div/script'
p487
F1.2086501081385588
s.