(dp0
S'/html/body/div/div/div/div/div/div/div/div/div/div/div/ol/li/ol/li/ul/li/span/div/div/div/div'
p1
F8.965784284662087
sS'/html/body/div/div/div/div/div/div/div/div/div/div/button/span/span/span/span'
p2
F5.011587974275212
sS'/html/body/div/div/div/div/div/div/div/div/div/div/ul/li/div/div/div/section/div/div/div/div/div'
p3
F5.573466861883327
sS'/html/body/div/div/div/div/div/div/div/div/div/div/div/button/span/span'
p4
F0.013043037475598814
sS'/html/body/div/footer/div/ul/li/a'
p5
F9.965784284662087
sS'/html/body/div/div/div/div/div/div/div/div/div/div/div/span/button/span'
p6
F0.9517638143471525
sS'/html/body/div/div/div/div/div/div/div/div/div/div/div/div/div/div/span/span/span/img'
p7
F9.965784284662087
sS'/html/body/div/div/div/div/div/div/div/div/div/p'
p8
F4.965784284662088
sS'/html/body/div/div/div/div/div/div/div/div/div/div/div/div/ul/li/a'
p9
F3.5563933485243853
sS'/html/body/div/div/div/div/div/div/div/div/div/div/h3'
p10
F0.013043037475598814
sS'/html/body/div/div/div/div/div/div/div/div/div/div'
p11
F0.6803820657998387
sS'/html/body/div/div/div/div/div/div/div/div/div/div/ul/li/div/table/tbody/tr/td/span/button'
p12
F3.5563933485243853
sS'/html/body/div/div/div/div/div/div/div/div/div/div/div/h1/span/span/span/a'
p13
F1.117161344232749
sS'/html/body/div/div/div/div/div/div/div/div/div/div/ul/li/div/div/div/div/div/wbr/wbr/wbr/br'
p14
F8.380821783940931
sS'/html/body/iframe'
p15
F4.351074440546879
sS'/html/body/div/div/div/div/div/div/div/div/div/div/ul/li/div/div/div/div/div/br'
p16
F2.888968687611256
sS'/html/body/div/div/div/div/div/div/div/div/div/div/div/div/div/div/div/p/span'
p17
F8.965784284662087
sS'/html/body/div/div/div/div/form/div/div/div/span'
p18
F9.965784284662087
sS'/html/body/div/div/div/div/div/div/div/div/div/div/ul/li/span'
p19
F4.795859283219775
sS'/html/body/div/div/div/div/div/div/div/div/div/span/button/span/span'
p20
F5.058893689053569
sS'/html/body/div/div/div/div/div/div/div/div/div/div/ul/li/div/div/div/div/div/div/div/ul/li/div/div/div/span/a/span/span/span/span'
p21
F2.286304185156641
sS'/html/body/div/div/div/div/div/div/div/div/ul/li/div/form/span/input'
p22
F1.4659383975788818
sS'/html/body/div/div/div/div/div/div/div/div/div/div/div/div/div/div/h2'
p23
F9.965784284662087
sS'/html/body/div/div/div/p/span'
p24
F0.013043037475598814
sS'/html/body/div/div/div/div/div/div/div/div/div/div/ul/li/div/div/div/div/div/div/div/ul/li/div/div/div/h3/a'
p25
F2.1844245711374275
sS'/html/body/div/div/div/div/div/div/div/div/div/div/ul/li/a/span/span'
p26
F3.279283757478869
sS'/html/body/div/div/div/div/div/div/div/div/div/div/div/div/ol/li/ol/li/div/div/div/div/h2/span'
p27
F9.965784284662087
sS'/html/body/div/div/div/div/div/div/div/div/div/div/div/div/span/span'
p28
F1.117161344232749
sS'/html/body/div/div/div/div/div/div/div/div/div/div/ul/li/div/div/div/div/div/div/span/span/button/ul/li/span'
p29
F7.380821783940932
sS'/html/body/div/div/div/div/div/div/div/div/div/div/ul/li/div/div/div/div/div/div/a'
p30
F5.965784284662088
sS'/html/body/div/div/div/div/div/div/div/div/div/div/div/div/div/div/div/div/span/button'
p31
F8.965784284662087
sS'/html/body/div/div/div/img'
p32
F9.965784284662087
sS'/html/body/div/div/div/div/div/div/div/div/div/div/ul/li/div/div/div/div/div/ul/li/div/div/div/a/span/span/span/span/span'
p33
F5.011587974275212
sS'/html/body/div/div/div/div/div/div/div/div/div/div/div/script'
p34
F1.926865295369785
sS'/html/body/div/div/div/a/span/img'
p35
F8.380821783940931
sS'/html/body/div/div/div/div/div/div/div/div/div/div/div/div/ol/li/ol/li/div/div/div/div/div/a/span'
p36
F9.965784284662087
sS'/html/body/div/div/div/div/div/div/div/div/div/div/div/div/h3/span/span'
p37
F8.380821783940931
sS'/html/body/div/div/div/div/div/div/div/div/div/div/ul/li/ul/li/div/div/div/a/span/span/span/span/span'
p38
F5.717856771218502
sS'/html/body/div/div/div/div/div/div/div/div/div/div/div/div/div/div/div/div/div/div/div/span/span/button/span'
p39
F9.965784284662087
sS'/html/body/div/div/div/div/form/div/div/div/div/div/input'
p40
F9.965784284662087
sS'/html/body/div/div/div/div/div/div/div/div/div/div/ul/li/ul/li/div/div/div/span/span'
p41
F9.965784284662087
sS'/html/body/div/div/div/div/div/div/div/div/div/div/div/div/ol/li/ol/li/div/div/div/div/ul/li/div/div/div/span/button/span'
p42
F9.965784284662087
sS'/html/head/meta'
p43
F0.0
sS'/html/body/div/div/div/div/form/div/div/div/div/div/label'
p44
F9.965784284662087
sS'/html/body/div/div/div/div/div/div/div/div/div/div/ul/li/ul/li/div/div/span/button/span/span'
p45
F5.380821783940931
sS'/html/body/div/div/div/div/div/div/div/div/div/div/div/ol/li/ol/li/ul/li/span/div/div/div/div/div/div/p/span'
p46
F8.965784284662087
sS'/html/body/div/div/div/div/div/div/div/div/div/div/ul/li/div/div/div/div/div/wbr/a'
p47
F6.158429362604484
sS'/html/body/div/div/div/div/div/div/div/div/h1/img'
p48
F9.965784284662087
sS'/html/body/div/div/div/div/div/div/div/div/div/div/ul/li/div/div/div/div/div/div/button/span/span'
p49
F2.107803289534515
sS'/html/body/div/div/div/div/div/div/div/div/div/ul/li/span/div/h3/a/span/span'
p50
F2.1584293626044833
sS'/html/body/div/div/div/div/div/div/div/div/div/div/div/div/ul/li/a/span/span/span/button/ul/li/span'
p51
F2.977099597889921
sS'/html/body/div/div/div/div/div/div/div/div/div/div/div/div/div/span/div/div/a'
p52
F9.965784284662087
sS'/html/body/div/div/div/div/div/div/div/div/div/div/div/div/div/ul/li/div/span'
p53
F1.6348674065474702
sS'/html/body/div/div/div/div/div/div/div/div/div/strong'
p54
F9.965784284662087
sS'/html/body/div/div/div/div/div/div/div/div/div/div/div/div/ol/li/ol/li/div/div/div/div/div/div/span/button/span/span'
p55
F9.965784284662087
sS'/html/body/span/meta'
p56
F1.4111954329844496
sS'/html/body/div/div/div/button/span'
p57
F0.00723156923107573
sS'/html/body/div/div/div/div/div/div/div/div/div/div/ul/li/div/div/div/div/div/ul/li/div/div/h3/span'
p58
F7.965784284662087
sS'/html/body/div/div/div/div/div/div/div/div/div/div/ul/li/div/div'
p59
F1.9159357352115256
sS'/html/body/div/div/div/div/div/div/div/div/div/div/ul/li/div/div/div/div/div/div/br'
p60
F5.265344566520995
sS'/html/body/div/div/div/div/div/div/div/div/div/div/div/p/span'
p61
F0.9517638143471525
sS'/html/body/div/div/div/div/div/div/div/div/div/div/ul/li/div/table/tbody/tr/td/span/span/button/span'
p62
F3.5563933485243853
sS'/html/body/div/div/div/div/div/div/div/div/div/div/div/div/span'
p63
F0.013043037475598814
sS'/html/body/div/div/div/div/div/div/div/div/div/div/div/div/ol/li/ol/li/div/div/div/div/div/div/a/span'
p64
F9.965784284662087
sS'/html/body/div/div/div/div/div/div/div/div/div/div/span/span/span'
p65
F0.98564470702293
sS'/html/body/div/div/div/nav/nav/div/button'
p66
F8.965784284662087
sS'/html/head/script'
p67
F0.001443416869668845
sS'/html/body/div/div/div/div/div/div/div/div/div/div/ul/li/div/div/a/span/span/span/span/span'
p68
F7.380821783940932
sS'/html/body/div/div/div/div/div/form/div/input'
p69
F0.013043037475598814
sS'/html/body/div/div/div/div/div/div/div/div/div/div/div/div/ol/li/ol/li/div/div/div/div/ul/li/div/div/div/h3/a'
p70
F9.965784284662087
sS'/html/body/div/div/div/div/div/div/div/div/div/div/div/div/a/span/span/span/span'
p71
F8.965784284662087
sS'/html/body/div/div/div/div/div/div/div/div/div/div/ul/li/div/div/div/div/div/div/span/button'
p72
F7.380821783940932
sS'/html/body/div/section/div/article/div/div/div/div'
p73
F9.965784284662087
sS'/html/body/div/div/div/div/div/div/div/div/div/ol/li/a/div/h4'
p74
F2.395928676331139
sS'/html/body/div/div/div/div/div/div/div/div/div/div/ul/li/div/table/tbody/tr/td/div/a'
p75
F3.7178567712185013
sS'/html/body/div/div/div/div/div/div/div/div/div/div/span/span/div/div/div/div/div/div/div/p/span'
p76
F0.9517638143471525
sS'/html/body/div/div/div/div/div/div/div/div/div/div/ul/li/ul/li/div/div/a/span/span/span/img'
p77
F5.380821783940931
sS'/html/body/div/div/div/div/div/div/div/div/div/div/span/span/div/div/div/div/div/div/div'
p78
F0.9517638143471525
sS'/html/body/div/div/div/div/div/button/span/span'
p79
F0.013043037475598814
sS'/html/body/div/header/div/form/button'
p80
F9.965784284662087
sS'/html/body/div/div/div/div/div/div/div/div/div/ol/li/span'
p81
F2.395928676331139
sS'/html/body/div/div/div/div/div/div/div/div/div/div/ul/li/ul/li/div/div/div/div/ul/li'
p82
F4.442222328605075
sS'/html/body/div/div/div/div/div/div/div/div/div/div/ul/li/div/div/div/section/div/div/div/div/button'
p83
F5.717856771218502
sS'/html/body/div/div/div/div/div/div/div/div/div/div/div/div/span/button/span/span'
p84
F1.117161344232749
sS'/html/body/div/div/div/div/div/div/div/div/div/div/div/div/p'
p85
F8.380821783940931
sS'/html/body/div/div/div/div/div/div/div/div/div/div/ul/li/div/div/div/section/div/div/div/button'
p86
F5.50635266602479
sS'/html/body/div/section/div/div/div/nav/div/h4/a'
p87
F9.965784284662087
sS'/html/body/div/div/div/div/div/div/div/div/div/div/div/div/ol/li/ol/li/div/div/div/div/div/button/span'
p88
F9.965784284662087
sS'/html/body/div/div/div/div/div/div/div/div/div/div/div/div/div/div/div/div/div/div/div/span/button'
p89
F9.965784284662087
sS'/html/body/div/div/div/div/div/div/div/div/div/a'
p90
F9.965784284662087
sS'/html/body/div/div/div/div/div/div/div/div/div/div/ul/li/div/div/div/section/div/div/div/div/b'
p91
F7.965784284662087
sS'/html/body/div/div/div/div/div/div/div/div/div/div/ul/li/div/div/div/div/div/ul/li/div/div/div/ul/li/span/span'
p92
F7.380821783940932
sS'/html/body/div/div/div/div/div/div/div/div/div/div/div/div/ul/li/a/span'
p93
F2.4035418604410146
sS'/html/body/div/div/div/div/div/div/div/div/div/div/div/div/div/div/span/span/span/span'
p94
F9.965784284662087
sS'/html/body/div/div/div/div/div/div/div/div/div/div/ul/li/div/div/div/div/div/h2/a/span/span/span/span'
p95
F4.107803289534515
sS'/html/body/div/div/div/div/div/div/div/div/div/div/ul/li/div/div/div/div/div/div/div/ul/li/div/div/div/a/span/span/span/button/ul/li/span'
p96
F3.878321443411748
sS'/html/body/div/div/div/div/div/div/div/div/div/div/ul/li/div/div/div/div/div/ul/li/div/div/div/span/a/span/span/span/span'
p97
F4.210896782498619
sS'/html/body/div/div/div/div/div/div/div/div/div/div/div/div/ol/li/ol/li/div/div/div/div/div/div/span/span'
p98
F9.965784284662087
sS'/html/body/div/div/div/div/div/div/div/div/div/div/div/div/div/p/wbr/wbr/wbr/wbr/wbr/wbr/br'
p99
F9.965784284662087
sS'/html/body/div/div/div/div/div/div/div/div/style'
p100
F1.117161344232749
sS'/html/body/div/div/div/div/div/div/div/div/div/div/ul/li/div/div/div/section/div/div/div/div/span/a'
p101
F5.717856771218502
sS'/html/body/div/div/div/div/div/div/div/div/div/div/img'
p102
F2.3291596641184387
sS'/html/body/div/div/div/div/div/div/div/div/div/div/ul/li/div/div/h3'
p103
F8.965784284662087
sS'/html/body/div/div/div/div/div/div/div/div/div/div/div/div/ol/li/ol/li/div/div/div/div/ul/li/div/div/div/h3/span'
p104
F9.965784284662087
sS'/html/body/div/div/div/div/div/div/div/div/div/div/ul/li/div/div/div/div/div/div/h3/span'
p105
F7.380821783940932
sS'/html/body/div/div/div/div/div/div/div/div/div/div/ul/li/div/div/div/div/div/h3/span'
p106
F9.965784284662087
sS'/html/body/div/div/div/nav/a'
p107
F9.965784284662087
sS'/html/body/div/div/div/div/div/div/div/div/div/div/div/div/form/div/span/input'
p108
F8.380821783940931
sS'/html/body/div/div/div/div/div/div/div/div/div/div/div/div/div/div/div/div/div/div'
p109
F9.965784284662087
sS'/html/body/div/div/div/div/div/div/div/div/div/div/ul/li/div/table/tbody/tr/td/span/a/span/span/span/img'
p110
F3.5563933485243853
sS'/html/body/div/div/div/div/div/div/div/div/span/a'
p111
F9.965784284662087
sS'/html/body/div/div/div/div/div/div/div/div/div/div/ul/li/div/table/tbody/tr/td/span/a/span/span/span/span'
p112
F3.5563933485243853
sS'/html/body/div/div/div/div/div/div/div/div/div/div/ul/li/div/div/div/div/div/ul/li/div/div/div/a/span/span/span/span'
p113
F5.011587974275212
sS'/html/body/div/div/div/div/div/div/div/div/div/div/ul/li/div/div/div/div/div/ul/li/div/div/div/ul/li/h4/a'
p114
F5.717856771218502
sS'/html/body/div/div/div/div/div/div/div/div/ol/li'
p115
F9.965784284662087
sS'/html/body/div/div/div/div/div/div/div/div/div/div/ul/li/div/div/div/div/div/div/div/ul/li/div/div/div/div/a'
p116
F2.3584539709124765
sS'/html/body/div/div/div/div/div/div/div/div/div/div/ul/li/div/div/div/section/div/div/div'
p117
F5.717856771218502
sS'/html/body/div/div/div/div/div/div/div/div/div/ul/li/span/div/h3/a'
p118
F2.3584539709124765
sS'/html/body/div/div/div/div/div/div/div/div/div/div/div/div/ol/li/ol/li/div/div/div/div/div/div/a'
p119
F9.965784284662087
sS'/html/body/div/div/div/div/div/div/div/div/div/div/ul/li/div/div/div/section/div/div/div/div/div/div/button'
p120
F5.795859283219775
sS'/html/body/div/div/div/div/div/div/div/div/div/div/ul/li/div/div/h2/span'
p121
F5.50635266602479
sS'/html/body/div/div/div/div/div/div/div/div/div/div/ul/li/ul/li/div/div/div/h3/span'
p122
F4.265344566520995
sS'/html/body/div/div/div/div/div/div/div/div/div/div/ul/li/div/div/div/div/div/div/div/ul/li/div/div/a/span/button/span'
p123
F8.380821783940931
sS'/html/body/div/div/div/div/div/div/div/div/div/div/ul/li/div/div/div/div/div/div/ul/li/span'
p124
F9.965784284662087
sS'/html/body/div/div/div/div/div/span/link'
p125
F9.965784284662087
sS'/html/body/div/div/div/div/div/div/div/div/ol/li/address/br'
p126
F9.965784284662087
sS'/html/body/div/div/div/div/div/div/div/div/div/button/span'
p127
F0.9461935563042062
sS'/html/body/div/div/div/div/div/div/div/div/div/div/ul/li/div/div/div/section/div/div/div/div/div/button/span'
p128
F5.50635266602479
sS'/html/body/div/div/div/div/div/div/div/div/div/div/div/div/ol/li/ol/li/div/div/div/div/div/div/h3/span'
p129
F9.965784284662087
sS'/html/body/div/div/div/div/div/div/div/div/div/div/ul/li/div/div/button/span/span/span/span'
p130
F5.50635266602479
sS'/html/body/div/div/div/div/div/div/div/div/div/div/ul/li/div/div/span/button/span'
p131
F7.158429362604482
sS'/html/body/div/div/div/a/span/span'
p132
F0.00723156923107573
sS'/html/body/div/div/div/div/div/div/div/div/div/div/ul/li/div/table/tbody/tr/td/span/button/span'
p133
F3.5563933485243853
sS'/html/body/div/div/div/div/div/div/div/div/div/div/ul/li/ul/li/div/div/div/a/span/span/span/span/img'
p134
F5.795859283219775
sS'/html/body/div/div/div/div/div/div/div/div/div/div/span/span/div/div/div/span'
p135
F0.9517638143471525
sS'/html/body/div/div/div/div/div/div/div/ul/li/div/ul/li/a/span/span/span/span/span/img'
p136
F1.0923401721467105
sS'/html/body/div/div/div/div/div/div/div/ul/li/div/ul/li/a/span/span/span'
p137
F1.0923401721467105
sS'/html/body/div/div/div/div/div/div/div/div/div/div/div/div/div/div/div/div/div/div/div'
p138
F9.965784284662087
sS'/html/body/div/div/div/div/div/div/div/div/div/div/div/div/div/div/div/div/div/h1/span/span/span/a'
p139
F9.965784284662087
sS'/html/body/div/div/div/div/div/div/div/div/div/div/ul/li/div/div/div/div/div/wbr/wbr/a'
p140
F8.380821783940931
sS'/html/body/div/div/div/div/div/div/div/div/div/div/div/div/div/ul/li/span/div/h3'
p141
F0.9517638143471525
sS'/html/body/div/div/div/div/div/div/div/div/div/div/ul/li/a/span'
p142
F1.5691795034802285
sS'/html/body/div/div/div/div/div/div/div/div/div/div/ul/li/div/div/div/div/div/div/div/br'
p143
F7.965784284662087
sS'/html/body/div/div/div/div/form/button/span'
p144
F7.158429362604482
sS'/html/body/div/div/div/div/div/div/div/div/div/div/div/ol/li/ol/li/div/div/div/ul/li/div/div/div/div/button'
p145
F9.965784284662087
sS'/html/body/div/div/div/div/div/div/div/div/div/div/div/div/div/p/wbr/wbr/wbr/wbr/wbr/wbr/wbr/wbr/a'
p146
F9.965784284662087
sS'/html/body/div/div/div/div/div/div/div/div/div/div/ul/li/div/div/div/button/span'
p147
F4.442222328605075
sS'/html/body/div/div/div/div/div/div/div/div/div/div/div/div/div/p/wbr/wbr/wbr/wbr/wbr/br'
p148
F9.965784284662087
sS'/html/body/div/div/div/div/div/a/span'
p149
F0.024736678321506545
sS'/html/body/div/div/div/div/div/div/div/div/div/div/div/div/div/p/wbr/wbr/wbr/wbr/wbr/wbr/a'
p150
F9.965784284662087
sS'/html/body/div/div/div/div/div/div/div/div/div/div/ul/li/div/div/div/div/div/div/div/ul/li/div/div/div/div/span'
p151
F2.5649048483799026
sS'/html/body/div/div/div/div/div/div/div/div/div/div/ul/li/div/div/div/div/div/ul/li/div/div/div/h3/span'
p152
F3.6259342817774622
sS'/html/body/div/div/div/div/div/div/img'
p153
F0.9573556625915063
sS'/html/body/div/div/div/div/div/div/div/div/div/div/ul/li/div/div/div/div/div/div/div/ul/li/div/div/h3/a'
p154
F5.011587974275212
sS'/html/body/div/div/div/div/div/div/div/div/div/div/div/strong'
p155
F0.9517638143471525
sS'/html/body/div/div/div/div/div/div/div/div/div/div/div/div/div/span/button/span/span'
p156
F7.643856189774724
sS'/html/body/div/div/div/div/div/div/div/div/div/div/div/div/ol/li/ol/li/div/div/div/div/ul/li/div/div/div/div/ul/li'
p157
F9.965784284662087
sS'/html/body/div/div/div/div/div/div/div/div/div/div/ul/li/div/div/div/div/div/div/div/ul/li/div/div/div/a/span/span/span/span/span/img'
p158
F9.965784284662087
sS'/html/body/div/div/div/div/div/div/div/div/div/div/ul/li/ul/li/div/div/div/div/span'
p159
F7.965784284662087
sS'/html/body/div/span/meta'
p160
F1.4111954329844496
sS'/html/body/div/div/div/div/div/div/div/div/div/div/div/div/ol/li/ol/li/div/div/div/div/div/div/button/span'
p161
F9.965784284662087
sS'/html/body/div/div/div/div/div/div/div/div/div/div/ul/li/div/div/div/section/div/div/div/div/a/span/span/span/img'
p162
F5.795859283219775
sS'/html/body/div/div/div/div/div/div/div/div/div/div/div/div/div/a/span'
p163
F3.5563933485243853
sS'/html/body/div/div/div/div/div/div/div/div/div/div/ul/li/div/div/div/div/div/button/span'
p164
F3.7563309190331378
sS'/html/body/div/div/div/div/div/div/div/div/div/div/ul/li/div/div/div/div/div/a/span/span/span/span'
p165
F9.965784284662087
sS'/html/body/div/div/div/div/div/div/div/div/div/div/ul/li/div/div/div/section/div/div/div/div'
p166
F5.50635266602479
sS'/html/body/span/link'
p167
F1.4111954329844496
sS'/html/body/div/div/div/div/div/span/span/img'
p168
F9.965784284662087
sS'/html/body/div/div/div/div/div/div/div/div/div/div/ul/li/div/div/div'
p169
F2.4035418604410146
sS'/html/body/div/div/div/div/div/div/div/p'
p170
F9.965784284662087
sS'/html/body/div/div/div/div/div/div/div/div/div/div/span/button/ul/li/span'
p171
F0.013043037475598814
sS'/html/body/div/div/div/div/div/div/div/div/div/div/ul/li/div/div/div/div/div/ul/li/div/div/div/span/span'
p172
F7.380821783940932
sS'/html/body/div/div/div/div/div/div/div/div/div/div/ul/li/ul/li/div/div/div/a/span/span/button'
p173
F5.717856771218502
sS'/html/body/div/div/div/div/div/div/div/div/span/meta'
p174
F0.9517638143471525
sS'/html/body/div/div/div/div/div/div/div/div/div/div/div/div/div/div/div/div/div/div/span/a/span/span/span/img'
p175
F9.965784284662087
sS'/html/body/div/div/div/div/div/div/div/div/div/div/ul/li/div/div/div/div/div/wbr/wbr/br'
p176
F7.965784284662087
sS'/html/body/div/div/div/div/div/div/div/div/div/div/ul/li/span/div/h3/span'
p177
F8.380821783940931
sS'/html/body/div/div/div/div/div/div/div/div/div/div/ul/li/div/div/div/div/div/a/span/span/span/img'
p178
F9.965784284662087
sS'/html/body/div/div/div/div/div/div/div/div/div/div/ul/li/div/div/div/div/div/ul/li/div/div'
p179
F3.6082322800440036
sS'/html/body/div/header/div/div/ul/li/a/span'
p180
F9.965784284662087
sS'/html/body/div/div/div/div/div/div/div/div/div/div/ul/li/div/div/div/div/div/div/div/ul/li/div/div/div/span/span/span'
p181
F2.286304185156641
sS'/html/body/div/div/div/div/div/div/div/div/div/div/span/span/button/span/span'
p182
F0.9517638143471525
sS'/html/body/div/div/div/div/div/div/div/div/div/div/ul/li/div/div/div/div/div/ul/li/div/div/div/h3/a'
p183
F3.6082322800440036
sS'/html/body/div/div/div/div/div/div/div/div/div/div/ul/li/div/div/div/div/div/ul/li/div/div/div/div/ul/li'
p184
F3.816037165157405
sS'/html/body/div/div/div/div/div/div/div/div/div/div/div/span/span/div/div'
p185
F0.9517638143471525
sS'/html/body/div/div/div/div/div/div/div/div/div/div/div/div/ol/li/ol/li/div/div/div/div/div/div/button'
p186
F9.965784284662087
sS'/html/body/div/div/div/div/div/div/div/div/div/button'
p187
F0.9517638143471525
sS'/html/body/div/div/div/div/div/div/div/div/p/a'
p188
F7.643856189774724
sS'/html/body/div/div/div/div/div/div/div'
p189
F0.9186603725480613
sS'/html/body/div/div/div/div/div/div/div/div/ol/li/address/span'
p190
F9.965784284662087
sS'/html/body/div/div/div/div/div/div/div/div/div/div/div/img'
p191
F8.380821783940931
sS'/html/body/div/div/div/div/div/div/div/div/div/div/ul/li/div/div/div/div/div/ul/li/div/div/div/div/br'
p192
F4.380821783940931
sS'/html/body/div/div/div/div'
p193
F0.011587974275211823
sS'/html/body/div/header/div/div/button/svg/path'
p194
F9.965784284662087
sS'/html/body/div/div/div/div/div/div/ul/li/h3'
p195
F9.965784284662087
sS'/html/body/div/div/div/div/div/div/ul/li/h2'
p196
F1.4305089080412836
sS'/html/body/div/div/div/div/div/div/h3/a'
p197
F9.965784284662087
sS'/html/body/div/div/div/div/div/div/div/div/div/div/div/div/ul/li/a/span/span'
p198
F3.4422223286050744
sS'/html/body/div/div/div/div/div/div/div/div/div/div/ul/li/ul/li/div/div/div/span/button'
p199
F4.9213901653036345
sS'/html/body/div/div/div/div/div/div/div/div/div/div/div/div/div/p/a'
p200
F1.1297339296040172
sS'/html/body/div/div/div/div/div/div/div/div/div/ol/li/ul/li'
p201
F9.965784284662087
sS'/html/body/div/div/div/div/div/div/div/div/div/div/ul/li/ul/li/div/div'
p202
F4.265344566520995
sS'/html/body/div/div/div/div/div/div/div/div/div/div/div/div/div/p/span'
p203
F9.965784284662087
sS'/html/body/div/div/div/div/div/div/div/div/div/div/ul/li/button/span'
p204
F3.2515387669959646
sS'/html/body/div/div/div/div/div/div/div/div/div/div/ul/li/div/div/div/div/div/div/div/ul/li/div/div/div/span/span'
p205
F7.380821783940932
sS'/html/body/div/div/div/div/div/div/div/div/div/div/div/div/ol/li/ol/li/div/div/div/div/ul/li/div/div/div/a/div/span/img'
p206
F9.965784284662087
sS'/html/body/div/div/div/div/div/div/div/ul/li/p'
p207
F1.0923401721467105
sS'/html/body/div/div/div/div/div/div/div/div/div/div/div/div/div/div/div/div/span/span'
p208
F8.965784284662087
sS'/html/body/div/div/div/div/div/div/div/div/div/div/ul/li/ul/li/div/div/h3/a/span/span'
p209
F5.573466861883327
sS'/html/body/div/div/div/div/div/div/div/ul/li/div/ul/li/a/span/span'
p210
F1.0923401721467105
sS'/html/body/div/header/div/form/input'
p211
F9.965784284662087
sS'/html/body/div/div/div/div/div/div/ul/li/img'
p212
F9.965784284662087
sS'/html/body/div/div/div/div/div/div/div/div/div/div/ul/li/div/button/span/span'
p213
F5.058893689053569
sS'/html/body/div/div/div/div/div/div/div/div/div/ol/li/a/span/span/span/img'
p214
F2.395928676331139
sS'/html/body/div/div/div/div/div/div/div/div/div/div/div/div/script'
p215
F9.965784284662087
sS'/html/body/div/div/div/div/div/div/p'
p216
F8.965784284662087
sS'/html/body/div/div/div/div/div/div/div/div/div/div/div/div/p/a'
p217
F9.965784284662087
sS'/html/body/div/div/div/div/div/div/div/div/div/div/ul/li/div/div/div/section/div/div/div/span/span'
p218
F7.643856189774724
sS'/html/body/div/div/div/div/div/div/div/div/div/div/div/ol/li/ol/li/ul/li/span/div/div/div/div/div/div/button/span'
p219
F8.965784284662087
sS'/html/body/div/div/div/div/div/div/div/div/div/div/span'
p220
F0.013043037475598814
sS'/html/body/div/div/div/div/div/div/div/div/div/div/ul/li/div/div/div/div/div/div/div/ul/li/div/div/div/span/span/button/span'
p221
F2.286304185156641
sS'/html/body/div/div/div/div/div/div/div/button/span/span'
p222
F0.9406447223835789
sS'/html/body/div/div/div/div/div/div/div/div/div/div/ul/li/div/div/div/div/button/span'
p223
F5.50635266602479
sS'/html/body/div/div/div/div/div/div/div/div/div/div/ul/li/div/div/div/div/div/ul/li/div/div/div/span/button/span'
p224
F4.210896782498619
sS'/html/body/div/div/div/div/div/div/div/div/div/div/div/div/div/div/div/div/span/span/button/ul/li/span'
p225
F8.965784284662087
sS'/html/body/div/div/div/div/div/div/div/ul/li/div/a/span'
p226
F1.0923401721467105
sS'/html/body/div/div/div/div/div/div/div/div/div/div/ul/li/div/div/button/span/span'
p227
F5.50635266602479
sS'/html/body/div/section/div/article/section/h1'
p228
F9.965784284662087
sS'/html/body/div/div/div/div/div/div/div/div/div/ul/li/span/div/a/span/span/span/span'
p229
F2.1202942337177118
sS'/html/body/div/div/div/div/div/div/div/div/div/ol/li/a'
p230
F9.965784284662087
sS'/html/body/div/div/div/div/div/div/div/div/div/div/ul/li/div/div/div/div/div/ul/li/div/div/div/span/span/button/span'
p231
F4.210896782498619
sS'/html/body/div/div/div/div/div/div/div/div/div/div/div/div/button/span/span/span/span'
p232
F9.965784284662087
sS'/html/body/div/div/div/div/div/div/div/div/div/div/ul/li/div/div/div/div/div/div/div/ul/li/a/h4/span'
p233
F2.2243172982609405
sS'/html/body/div/div/div/div/div/div/div/div/div/div/div/div/div/div/div/div/div/div/span/button/span'
p234
F9.965784284662087
sS'/html/body/div/div/div/div/div/div/div/div/div/div/ul/li/div/div/ul/li/b'
p235
F8.965784284662087
sS'/html/body/div/section/div/script'
p236
F9.965784284662087
sS'/html/body/div/div/div/div/div/div/div/div/div/div/ul/li/div/div/ul/li/a/span'
p237
F5.380821783940931
sS'/html/body/div/div/div/div/div/div/div/span'
p238
F0.9378782880922025
sS'/html/body/div/div/div/div/div/div/div/div/div/div/ul/li/div/div/div/div/div/div/div/ul/li/div/div/div/a/span/span/button'
p239
F3.878321443411748
sS'/html/body/div/section/div/article/section/div/div/p/strong'
p240
F9.965784284662087
sS'/html/body/div/div/div/div/div/div/div/div/div/div/ul/li/div/div/div/div/div/div/div/ul/li/div/div/a/button/span'
p241
F8.380821783940931
sS'/html/body/div/div/div/div/div/div/div/div/div/div/div/div/ol/li/ol/li/div/div/div/div/div/div/div/ul/li'
p242
F9.965784284662087
sS'/html/body/div/div/div/div/div/div/div/div/div/div/div/div/div/span/div/div/br'
p243
F8.380821783940931
sS'/html/body/div/div/div/div/div/div/div/div/div/div/ul/li/div/div/div/div/div/div/div/ul/li'
p244
F7.380821783940932
sS'/html/body/div/div/div/div/div/div/div/div/div/div/div/div/div/span/span/button/span'
p245
F3.5563933485243853
sS'/html/body/div/div/div/div/div/div/div/div/div/div/div/div/ol/li/ol/li/div/div/div/div/div/a/div/span/img'
p246
F9.965784284662087
sS'/html/body/div/footer/div/form/select/option'
p247
F9.965784284662087
sS'/html/body/div/div/div/div/div/div/div/div/div/div/div/div/button/span/span'
p248
F9.965784284662087
sS'/html/body/div/div/div/div/div/div/div/div/div/div/ul/li/div/div/div/div/div/div/div/ul/li/div/div/h3/a/span/span'
p249
F4.836501267717121
sS'/html/body/div/div/div/div/div/div/div/div/div/div/ul/li/div/div/div/div/div/ul/li/div/div/div/div'
p250
F4.795859283219775
sS'/html/body/div/div/div/div/div/div/div/div/div/div/ul/li/div/div/div/div/div/div/span/a/span/span/span/img'
p251
F7.380821783940932
sS'/html/body/div/div/div/div/span/span'
p252
F8.380821783940931
sS'/html/body/div/div/div/div/div/div/div/div/div/div/ul/li/div/div/div/div/div/ul/li/div/div/h3/a'
p253
F7.965784284662087
sS'/html/body/div/div/div/div/div/div/div/div/ul/li/a'
p254
F9.965784284662087
sS'/html/body/div/div/div/div/div/div/div/div/ul/li'
p255
F8.965784284662087
sS'/html/body/div/div/div/div/div/div/div/div/div/div/div/div/ol/li/ol/li/div/div/div/div/ul/li/div/div/div/a/span'
p256
F9.965784284662087
sS'/html/body/div/div/div/div/div/div/div/div/ol/li/p/a'
p257
F9.965784284662087
sS'/html/body/div/div/div/div/div/div/div/div/div/div/a/span/span/span/img'
p258
F0.9517638143471525
sS'/html/body/div/div/div/div/div/div/div/div/div/div/div/h1/span/span'
p259
F9.965784284662087
sS'/html/body/div/div/div/div/div/div/div/div/div/div/ul/li/div/div/div/div/div/div/div/ul/li/div/div/a/button'
p260
F8.380821783940931
sS'/html/body/div/div/div/div/div/div/div/div/ul/li/p'
p261
F9.965784284662087
sS'/html/head/link'
p262
F0.001443416869668845
sS'/html/body/div/div/div/div/div/div/div/div/div/div/ul/li/ul/li/div/div/h3/span'
p263
F5.380821783940931
sS'/html/body/div/div/div/div/div/div/div/div/div/div/div/div/ol/li/ol/li/div/div/div/div/ul/li/div/div/div/button'
p264
F9.965784284662087
sS'/html/body/div/div/div/div/div/div/div/div/ul/li/div/button/span'
p265
F1.4659383975788818
sS'/html/body/div/div/div/div/div/div/div/div/div/div/div/span'
p266
F0.013043037475598814
sS'/html/body/div/div/div/div/div/div/div/div/div/div/ul/li/div/div/div/div/div/h2/a/span'
p267
F2.2042330522176075
sS'/html/body/div/div/div/div/div/div/div/div/div/div/ul/li/div/div/ul/li/a/img'
p268
F5.380821783940931
sS'/html/body/div/div/div/div/div/div/div/div/div/div/div/h1/span/a/span'
p269
F1.926865295369785
sS'/html/body/div/div/div/div/div/div/div/ul/li/hr'
p270
F1.0923401721467105
sS'/html/body/div/div/div/div/div/div/div/div/div/div/ul/li/div/div/div/div/div/div'
p271
F2.954557029238833
sS'/html/body/div/div/div/div/div/div/div/div/div/p/a'
p272
F4.573466861883327
sS'/html/body/div/div/div/div/div/div/div/div/div/div/ul/li/div/div/div/div/div/div/div/ul/li/div/div/a/span/span/span/span'
p273
F4.442222328605075
sS'/html/body/div/div/div/div/div/div/div/div/div/div/div/div/div/div/div/div/a/span/span/span/span'
p274
F9.965784284662087
sS'/html/body/div/div/div/div/label'
p275
F8.380821783940931
sS'/html/body/div/header/div/div/div/div/span/a/svg/path'
p276
F9.965784284662087
sS'/html/body/div/div/div/div/div/div/div/div/div/div/div/div/div/span/br'
p277
F9.965784284662087
sS'/html/body/div/div/div/div/div/div/div/div/div/div/ul/li/div/div/div/div/div/ul/li/div/div/a/span/span/span/span'
p278
F7.965784284662087
sS'/html/body/div/div/div/div/div/div/div/div/div/div/ul/li/div/div/div/div/div/div/div/ul/li/div/div/div/div/ul'
p279
F3.6989977439671855
sS'/html/body/div/div/div/div/div/div/div/div/div/div/div/div/ul/li/a/span/span/span/span/span/b'
p280
F2.4188898247744506
sS'/html/body/div/div/div/div/div/div/div/div/div/div/ul/li/ul/li/div/div/div/span/span/button/span'
p281
F4.9213901653036345
sS'/html/body/div/div/div/div/div/div/div/div/div/div/div/div/div/div/span/span/span'
p282
F8.380821783940931
sS'/html/body/div/section/div/article/div/div/div/form/div/textarea'
p283
F9.965784284662087
sS'/html/body/div/div/div/div/div/div/div/div/div/div/div/div/ul/li/div/a/span/img'
p284
F0.9517638143471525
sS'/html/body/div/section/div/article/div/div/div/form/button'
p285
F9.965784284662087
sS'/html/body/div/div/div/div/div/div/div/div/div/div/ul/li/div/div/div/div/div/div/div/ul/li/div/div/span/button/span/span'
p286
F4.539519529959989
sS'/html/body/div/div/div/div/div/div/div/div/div/div/div/span/span/button/span'
p287
F0.9573556625915063
sS'/html/body/div/div/div/div/div/div/div/div/div/div/ul/li/div/div/div/section/div/div/div/div/button/span'
p288
F5.717856771218502
sS'/html/body/div/div/div/div/div/div/div/div/div/div/div/div/div/div/div'
p289
F7.965784284662087
sS'/html/body/div/div/div/div/div/div/div/div/div/div/div/div/ul/button/span'
p290
F0.9714308478032291
sS'/html/body/div/div/div/div/div/div/div/div/div/div/div/div/ol/li/ol/li/div/div/div/div/div/div/a/div/span/img'
p291
F9.965784284662087
sS'/html/body/div/div/div/div/link'
p292
F8.965784284662087
sS'/html/body/div/div/div/div/div/div/div/div/div/div/ul/li/ul/li/div/div/div/span/button/span'
p293
F4.9213901653036345
sS'/html/body/div/div/div/div/div/div/div/div/div/div/div/h1/span/span/span'
p294
F3.457989644463391
sS'/html/body/div/div/div/div/div/div/div/div/div/div/ul/li/ul/li/div/div/div/div/a'
p295
F7.158429362604482
sS'/html/body/div/div/div/div/div/div/div/div/div/div/ul/li/div/table/tbody/tr/td'
p296
F3.5563933485243853
sS'/html/body/div/div/div/div/div/div/div/div/div/div/ul/li/ul/li/div/div/div/span/a/span/span/span/span'
p297
F4.9213901653036345
sS'/html/body/div/div/div/div/div/div/div/div'
p298
F0.929610672108602
sS'/html/body/div/div/div/div/div/div/div/div/div/div/div/div/div/ul/li/div/a/span/ul/li/span'
p299
F6.265344566520995
sS'/html/body/div/div/div/div/div/div/div/div/div/div/div/div/div/div/div/div/div/div/span/span'
p300
F9.965784284662087
sS'/html/body/div/div/div/div/div/div/div/div/div/h3'
p301
F5.011587974275212
sS'/html/body/div/div/div/div/div/div/div/div/div/h2'
p302
F2.1328942704973457
sS'/html/body/div/div/div/div/div/div/div/div/div/div/ul/li/button/ul/li/span'
p303
F3.2515387669959646
sS'/html/body/div/div/div/div/div/div/div/div/div/div/ul/li/div/div/div/div/div/div/div/ul/li/div/div/div/span/a/span/span/span/img'
p304
F2.286304185156641
sS'/html/body/div/div/div/div/div/div/div/div/div/div/div/div/div/div/div/div/div/div/div/span/a/span/span/span/img'
p305
F9.965784284662087
sS'/html/body/div/div/div/div/div/div/div/div/div/div/div/div/div/div/div/div/div/h1/span/a/span'
p306
F9.965784284662087
sS'/html/body/div/div/div/div/div/div/div/div/div/ul/li/span/div/div/span/span'
p307
F2.1202942337177118
sS'/html/body/div/div/div/div/div/div/div/div/div/div/div/div/div/div/div/div/span/a/span/span/span/img'
p308
F8.965784284662087
sS'/html/body/div/span/link'
p309
F1.4111954329844496
sS'/html/body/div/meta'
p310
F1.4111954329844496
sS'/html/body/div/div/div/div/div/div/div/div/div/div/div/ol/li/ol/li/ul/li/span/div/div/div/div/div/div'
p311
F8.965784284662087
sS'/html/body/div/div/div/div/div/div/div/div/div/div/div/ol/li/ol/li/ul/li/span/div/div/div/div/div/p'
p312
F8.965784284662087
sS'/html/body/div/div/a'
p313
F0.00723156923107573
sS'/html/body/div/div/div/div/div/div/div/div/div/div/div/div'
p314
F0.3566055465201076
sS'/html/body/style'
p315
F2.3883554566263383
sS'/html/body/div/div/div/div/div/div/div/div/ul/li/a/span'
p316
F1.1424170446158521
sS'/html/body/div/div/div/div/div/div/div/div/div/div/div/div/ul/li/div/a/span/span'
p317
F0.9517638143471525
sS'/html/body/div/div/div/div/div/div/div/div/div/div/div/div/div/a/span/span/span/img'
p318
F8.965784284662087
sS'/html/body/div/div/div/div/div/div/div/div/div/div/ul/li/div/div/div/div/div/wbr/wbr/wbr/wbr/wbr/wbr/br'
p319
F9.965784284662087
sS'/html/body/div/div/div/div/div/div/div/div/div/ol/li/a/div/span'
p320
F5.107803289534515
sS'/html/body/div/div/div/div/div/a/span/span'
p321
F6.965784284662088
sS'/html/body/div/div/div/div/div/div/div/div/div/div/div/div/div/div/div/div/div/div/div/span/span'
p322
F9.965784284662087
sS'/html/body/div/div/div/div/div/div/div/div/div/div/ul/li/div/table/tbody/tr/td/div/span'
p323
F8.380821783940931
sS'/html/body/div/div/div/div/div/div/div/div/div/div/ul/li/div/div/div/div/div/div/span/span'
p324
F9.965784284662087
sS'/html/body/div/div/div/div/div/div/div/div/div/div/ul/li/ul/li/div/div/div/a/span/span/span/span/span/b'
p325
F5.717856771218502
sS'/html/body/div/div/div/div/div/div/div/div/div/div/ul/li/div/div/div/div/div/div/span/a/span/span/span/span'
p326
F7.380821783940932
sS'/html/body/div/div/div/div/div/div/ul/li/span'
p327
F9.965784284662087
sS'/html/body/div/div/div/div/div/div/div/div/div/div/ul/li/div/div/div/div/div/ul/li/div/div/div/div/ul'
p328
F6.380821783940931
sS'/html/body/div/div/div/div/div/div/div/div/div/div/div/div/div/div/div/a/span/span/span/img'
p329
F9.965784284662087
sS'/html/body/div/div/div/div/div/div/div/div/div/div/div/div/ul/li/div/a/span'
p330
F0.9517638143471525
sS'/html/body/div/div/div/div/div/div/div/div/div/div/ul/li/div/div/div/div/div/ul/li/div/div/div/ul/li'
p331
F7.965784284662087
sS'/html/body/div/section/div/article/section/div/p/a'
p332
F9.965784284662087
sS'/html/body/div/div/div/div/div/div/div/div/div/div/ul/li/div/div/div/div/div/ul/li/div/div/div/br'
p333
F9.965784284662087
sS'/html/body/div/div/div/div/div/div/div/div/div/ol/li/a/span/span/span/span'
p334
F2.395928676331139
sS'/html/body/div/div/div/div/div/div/div/div/div/div/div/div/div/span/input'
p335
F1.6303939299681622
sS'/html/body/div/div/div/div/div/form/button/span'
p336
F0.015957573902976287
sS'/html/body/div/div/div/button'
p337
F0.013043037475598814
sS'/html/body/div/div/div/div/div/div/div/div/div/div/div/div/ol/li/ol/li/div/div/div/div/ul/li/div/div/div/button/span'
p338
F9.965784284662087
sS'/html/body/div/div/div/div/div/div/div/div/div/div/ul/li/ul/li/div/div/div/a/span/span/span/button/ul/li/span'
p339
F5.717856771218502
sS'/html/body/div/div/div/div/form/input'
p340
F9.965784284662087
sS'/html/body/div/div/div/div/div/div/div/div/div/div/ul/li/div/div/div/div/div/div/div/ul/li/div/div/div/ul/li/span'
p341
F8.380821783940931
sS'/html/body/div/div/div/div/div/div/div/div/div/div/div/div/div/p/wbr/wbr/wbr/wbr/a'
p342
F9.965784284662087
sS'/html/body/div/div/div/div/div/div/div/div/div/div/div/div/ul/li/a/span/span/span/span'
p343
F2.4188898247744506
sS'/html/body/div/div/div/h3'
p344
F0.013043037475598814
sS'/html/body/div/div/div/div/div/div/div/div/div/div/ul/script'
p345
F1.4073635713934227
sS'/html/body/div/div/div/h1'
p346
F9.965784284662087
sS'/html/body/div/div/div/div/div/div/div/div/div/div/div/div/ol/li/ol/li/div/div/div/div/div/h3/span'
p347
F9.965784284662087
sS'/html/body/div/div/div/div/div/div/div/div/div/div/ul/li/div/div/div/section/div/div/div/div/div/div/div/a'
p348
F6.50635266602479
sS'/html/body/div/div/div/div/div/div/div/div/div/div/ul/li/ul/li/div/div/div/a/span/span/span/span/span/img'
p349
F9.965784284662087
sS'/html/body/div/div/div/div/div/div/div/div/div/div/div/ol/li/ol/li/div/div/div/ul/li/div/div/div/div/div/br'
p350
F9.965784284662087
sS'/html/body/div/div/div/div/div/div'
p351
F0.010134377133713133
sS'/html/body/div/div/div/ul/li'
p352
F0.008682243099800773
sS'/html/body/div/div/div/div/div/div/div/div/div/div/ul/li/ul/li/div/div/div/span/span/span'
p353
F4.9213901653036345
sS'/html/body/div/div/div/div/div/div/div/div/div/div/ul/li/div/div/div/div/div/div/div/ul/li/div/div/div/span/span/button/ul/li/span'
p354
F2.286304185156641
sS'/html/body/div/section/div/article/div/div/span'
p355
F9.965784284662087
sS'/html/body/div/div/div/div/div/div/div/div/div/div/ul/li/ul/li/div/div/a/span/span/span/span'
p356
F5.380821783940931
sS'/html/body/div/div/div/div/div/div/div/div/div/div/div/div/div/div/div/div/span/button/span'
p357
F8.965784284662087
sS'/html/body/div/div/div/div/div/div/div/div/div/div/ul/li/div/div/div/section/div/div/div/div/div/div/div/div/button/span'
p358
F5.795859283219775
sS'/html/body/div/div/div/div/div/div/div/div/div/div/ul/li/ul/li/div/div/div/a/span/span/span/span'
p359
F5.717856771218502
sS'/html/body/div/script'
p360
F9.965784284662087
sS'/html/body/div/div/div/div/div/div/div/div/div/div/div/div/ul/li/a/span/span/span/span/img'
p361
F2.4188898247744506
sS'/html/body/div/div/div/div/div/div/div/div/div/ol/li/a/div/span/span'
p362
F2.395928676331139
sS'/html/body/div/div/div/div/div/div/div/div/div/div/ul/li/div/div/div/div/div/ul/li/div/div/a/span/span/span/img'
p363
F7.965784284662087
sS'/html/body/div/div/div/div/div/div/div/div/div/div/h4/strong'
p364
F8.965784284662087
sS'/html/body/div/div/div/ul/li/span'
p365
F9.965784284662087
sS'/html/body/div/div/div/div/div/div/div/div/div/div/div/div/ol/li/ol/li/div/div/div/button/span/span'
p366
F9.965784284662087
sS'/html/body/div/div/div/div/div/div/div/div/div/div/ul/li/div/div/div/div/div/div/div/ul/li/div/div/div/ul'
p367
F8.380821783940931
sS'/html/body/div/div/div/div/div/div/div/div/div/div/div/ol/li/ol/li/div/div/div/ul/li/div/div/div/div/h3/span'
p368
F9.965784284662087
sS'/html/body/div/div/div/div/div/div/div/div/div/div/ul/li/div/div/div/section/div/div/div/button/span'
p369
F5.50635266602479
sS'/html/body/div/div/div/div/div/div/div/div/div/div/ul/li/div'
p370
F7.380821783940932
sS'/html/body/div/div/div/div/div/div/div/div/div/div/ul/li/div/div/div/div/div/div/div/ul/li/div/div/a/span/button/ul/li/span'
p371
F8.380821783940931
sS'/html/body/div/div/div/div/div/div/div/div/div/div/div/ol/li/ol/li/ul/li/button/span'
p372
F8.965784284662087
sS'/html/body/div/div/div/div/div/div/div/div/div/div/div/div/div/div/div/div/div/p/span'
p373
F8.380821783940931
sS'/html/body/div/div/div/div/div/div/div/div/div/div/div/div/div/div/div/div/p'
p374
F9.965784284662087
sS'/html/body/div/div/div/ul/li/a'
p375
F0.001443416869668845
sS'/html/body/div/header/div/div/form/input'
p376
F9.965784284662087
sS'/html/body/div/div/div/button/span/span'
p377
F0.00723156923107573
sS'/html/body/div/div/div/div/div/div/div/div/div/div/ul/li/div/div/div/div/div/div/h3/a'
p378
F7.380821783940932
sS'/html/body/div/div/div/div/div/div/div/div/div/div/ul/li/div/div/div/div/div/ul/li/div/div/div/a/span/span/span/span/span/b'
p379
F5.011587974275212
sS'/html/body/div/header/div/a/img'
p380
F9.965784284662087
sS'/html/body/div/div/div/div/div/div/div/div/div/div/div/div/ol/li/ol/li/div/div/div/div/div/div/span/button/ul/li/span'
p381
F9.965784284662087
sS'/html/body/div/div/div/div/div/div/div/div/div/div/div/div/h3/a/span'
p382
F8.965784284662087
sS'/html/body/div/div/div/div/div/div/div/div/div/div/ul/li/ul/li/div/div/div/span/span/button/ul/li/span'
p383
F4.9213901653036345
sS'/html/body/div/div/div/div/div/div/div/div/link'
p384
F0.9517638143471525
sS'/html/body/div/div/div/div/div/div/div/div/div/div/ul/li/div/div/div/div/div/ul/li/div/div/div'
p385
F8.380821783940931
sS'/html/body/div/div/div/div/div/div/p/span'
p386
F0.013043037475598814
sS'/html/body/div/div/div/div/div/div/div/div/div/div/div/h3'
p387
F5.442222328605075
sS'/html/body/div/div/div/div/div/div/div/div/div/div/h2'
p388
F8.380821783940931
sS'/html/body/div/div/div/div/div/div/div/div/div/div/ul/li/span/div/h3/a'
p389
F8.380821783940931
sS'/html/body/div/div/div/div/div/div/div/div/div/div/div/div/div/span/div/div/button/span/img'
p390
F7.965784284662087
sS'/html/body/div/div/div/div/div/div/div/div/div/div/ul/li/div/div/div/div/div/ul/li/div/div/div/span/span/button/ul/li/span'
p391
F4.210896782498619
sS'/html/body/div/div/div/div/div/span/a/span'
p392
F0.5002178798526882
sS'/html/body/div/div/div/div/div/div/div/div/meta'
p393
F0.9517638143471525
sS'/html/body/div/div/div/div/div/div/div/div/div/div/div/div/div/div/div/div/a/span/span/span/img'
p394
F9.965784284662087
sS'/html/body/div/div/div/div/div/div/div/div/div/div/div/div/ul/li'
p395
F3.5563933485243853
sS'/html/body/div/div/div/div/div/div/div/div/div/div/div/div/div/p/wbr/wbr/br'
p396
F6.965784284662088
sS'/html/body/div/div/div/div/div/div/div/div/div/div/ul/li/div/div/div/div/div/ul/li/div/div/div/a/span/span/button'
p397
F5.011587974275212
sS'/html/body/div/div/div/div/div/div/div/div/div/div/div/div/ol/li/ol/li/div/div/div/div/ul/li/div/div/div/span/button/ul/li/span'
p398
F9.965784284662087
sS'/html/body/div/div/div/div/div/div/div/div/div/div/ul/li/div/div/div/div/span'
p399
F2.473931188332412
sS'/html/body/div/div/div/div/div/div/div/div/div/div/ul/li/button/span/span'
p400
F4.756330919033137
sS'/html/body/div/div/div/div/div/div/div/div/div/div/ul/li/div/div/div/div/div/div/span/button/span/span'
p401
F9.965784284662087
sS'/html/body/div/div/div/div/div/div/div/div/div/div/span/span/div/div/div/div/div'
p402
F0.9517638143471525
sS'/html/body/div/div/div/div/div/div/div/div/div/div/div/span/div/h3'
p403
F0.9489759969755331
sS'/html/body/div/div/div/div/div/div/div/div/div/div/div/ul/li/span'
p404
F2.5734668618833267
sS'/html/body/div/div/div/div/div/div/div/div/div/div/ul/li/div/div/div/div/div/div/span/span/button/span'
p405
F7.380821783940932
sS'/html/body/div/div/div/div/div/div/div/div/div/div/div/ol/li/ol/li/div/div/div/ul/li/div/div/div/div/div/span'
p406
F9.965784284662087
sS'/html/body/div/div/div/div/div/div/div/div/div/div/ul/li/div/div/div/div/div/ul/li/div/div/div/div/a'
p407
F3.921390165303634
sS'/html/body/script'
p408
F0.0
sS'/html/body/div/div/div/div/div/div/div/div/div/div/ul/li/div/div/div/div/div/div/span/button/span'
p409
F7.380821783940932
sS'/html/body/div/div/div/div/div/div/div/div/div/div/div/ol/li/ol/li/div/div'
p410
F9.965784284662087
sS'/html/body/div/div/div/div/div/div/div/div/h4'
p411
F9.965784284662087
sS'/html/body/div/div/div/div/div/div/div/div/h2'
p412
F8.380821783940931
sS'/html/body/div/div/div/div/div/div/div/div/div/div/ul/li/div/div/div/span/b/a'
p413
F7.380821783940932
sS'/html/body/div/div/div/div/div/div/div/div/div/div/ul/li/div/div/div/section/div/div/div/div/span/span'
p414
F8.380821783940931
sS'/html/body/div/div/div/div/div/div/div/div/div/div/ul/li/div/div/div/section/div/div/div/button/span/span'
p415
F5.795859283219775
sS'/html/body/div/form/input'
p416
F0.00723156923107573
sS'/html/body/div/div/div/div/div/div/div/div/div/div/div/hr'
p417
F1.6082322800440034
sS'/html/body/div/div/div/div/div/div/div/div/div/div/ul/li/div/div/a/span/span/span/span/img'
p418
F7.380821783940932
sS'/html/body/div/div/div/div/div/div/div/div/div/div/div/ol/li/ol/li/ul/li/span/div/div/div/div/div/div/div/p/span'
p419
F8.965784284662087
sS'/html/body/div/div/div/div/div/div/div/div/div/div/div/div/div/ul/li/span/div/div'
p420
F0.9517638143471525
sS'/html/body/div/div/div/div/div/div/div/div/div/div/div/div/ol/li/ol/li/div/div/div/div/div/span/button/ul/li/span'
p421
F9.965784284662087
sS'/html/body/div/div/div/ul/li/button/span'
p422
F0.00723156923107573
sS'/html/body/div/div/div/div/div/div/div/div/div/div/ul/li/div/div/div/div/div/div/div/ul/li/div/div/div/span'
p423
F7.965784284662087
sS'/html/body/div/div/div/div/div/div/div/img'
p424
F1.0320936297098533
sS'/html/body/div/div/div/div/div/div/div/div/ul/li/div/p/a'
p425
F9.965784284662087
sS'/html/body/div/div/div/div/div/div/div/div/div/div/div/div/ol/li/ol/li/div/div/div/div/div'
p426
F9.965784284662087
sS'/html/body/div/div/div/div/div/div/div/button/span'
p427
F0.9378782880922025
sS'/html/body/div/div/div/div/div/div/div/div/div/div/ul/li/div/div/div/div/div/div/div/ul/li/div/div'
p428
F2.1844245711374275
sS'/html/body/div/div/div/div/div/div/div/div/div/ol/li'
p429
F9.965784284662087
sS'/html/body/div/div/div/div/div/div/div/p/span'
p430
F0.00723156923107573
sS'/html/body/div/div/div/div/div/div/div/div/div/div/div/div/div/div/button/span'
p431
F9.965784284662087
sS'/html/body/div/div/div/div/div/div/div/div/div/div/ul/li/div/div/div/section/div/div/a/span/span/span/span'
p432
F5.717856771218502
sS'/html/body/div/div/div/div/div/div/div/div/div/div/ul/li/div/div/div/div/div'
p433
F1.894321922105463
sS'/html/body/div/div/div/div/div/div/div/div/div/script'
p434
F2.395928676331139
sS'/html/body/div/div/div/div/div/div/div/div/div/div/div/ol/li/ol/li/div/div/div/ul/li/div/div/div/div/div/a'
p435
F9.965784284662087
sS'/html/body/div/div/div/div/div/div/div/div/div/div/div/div/h4'
p436
F1.6303939299681622
sS'/html/body/div/div/div/div/div/div/div/div/div/div/div/div/h3'
p437
F9.965784284662087
sS'/html/body/div/div/div/div/div/div/div/div/div/div/div/div/h1'
p438
F3.5563933485243853
sS'/html/body/div/div/div/div/div/div/div/div/div/div/ul/li/div/div/div/div'
p439
F2.279283757478869
sS'/html/body/div/section/div/article/div/div/button/span'
p440
F9.965784284662087
sS'/html/body/div/div/div/div/div/div/div/div/div/div/ul/li/div/div/div/div/div/ul/li/div/div/div/span/span/span'
p441
F4.237863830098888
sS'/html/body/div/div/div/div/div/div/div/div/div/div/ul/li/ul/li/div/div/div/a/span/span/span/span/span/span'
p442
F9.965784284662087
sS'/html/body/div/div/div/div/form/label/input'
p443
F8.380821783940931
sS'/html/body/div/div/div/div/div/span/meta'
p444
F9.965784284662087
sS'/html/body/div/div/div/div/div/div/div/div/div/a/img'
p445
F1.117161344232749
sS'/html/body/div/div/div/div/div/div/div/div/div/div/div/h2'
p446
F1.960159735468209
sS'/html/body/div/div/div/div/div/div/div/div/div/div/div/div/ol/li/ol/li/div/div/div/div/h2/span/b/a'
p447
F9.965784284662087
sS'/html/body/div/div/button'
p448
F7.965784284662087
sS'/html/body/div/div/div/div/div/div/div/div/div/div/ul/li/div/div/div/section/div/a/span/span/span/img'
p449
F5.50635266602479
sS'/html/body/div/div/div/div/div/div/div/div/div/div/div/div/a'
p450
F3.5563933485243853
sS'/html/body/div/div/div/div/div/div/div/div/div/div/div/ol/li/ol/li/div/div/div/ul/li/div/div/div/div/span/button/ul/li/span'
p451
F9.965784284662087
sS'/html/body/div/div/div/div/div/div/div/div/div/div/ul/li/div/div/div/span/span'
p452
F7.380821783940932
sS'/html/body/div/div/div/div/div/div/div/h2/a'
p453
F9.965784284662087
sS'/html/body/div/div/div/div/div/div/div/div/div/div/ul/li/div/div/div/section/div/div/div/span'
p454
F5.50635266602479
sS'/html/body/div/div/div/div/img'
p455
F9.965784284662087
sS'/html/body/div/div/div/div/div/div/div/div/div/div/ul/li/div/button/span/span/span/span'
p456
F5.058893689053569
sS'/html/body/div/div/div/div/div/div/div/div/div/div/div/span/span/div/a/span'
p457
F0.9517638143471525
sS'/html/body/div/div/div/div/p/span'
p458
F0.00723156923107573
sS'/html/body/div/div/div/div/div/div/div/div/div/div/div/ol/li/ol/li/div/div/div/div/h2/span'
p459
F9.965784284662087
sS'/html/body/div/div/div/div/div/div/div/div/div/div/div/div/div/div/div/div/div/div/div/span/button/span'
p460
F9.965784284662087
sS'/html/body/div/div/div/div/div/div/div/div/div/div/div/div/div/div/p'
p461
F8.965784284662087
sS'/html/body/div/div/div/div/div/div/div/div/div/div/div/div/ol/li/ol/li/div/div/div/div/div/div/ul/li'
p462
F9.965784284662087
sS'/html/body/div/div/div/div/div/div/div/div/div/div/div/div/div/strong'
p463
F0.9517638143471525
sS'/html/body/div/div/div/div/div/div/div/div/div/div/ul/li/div/div/div/section/div/div/div/button/span/span/span/span'
p464
F5.795859283219775
sS'/html/body/div/div/div/div/div/div/div/div/div/div/div/div/div/ul/li/ul/li'
p465
F0.9517638143471525
sS'/html/body/div/div/div/div/div/div/div/div/div/div/span/span/div/div/div/div/div/div/div/div'
p466
F0.9517638143471525
sS'/html/body/div/div/div/div/div/div/div/div/div/div/ul/li/div/div/div/div/div/ul/li/a/h4/span'
p467
F4.058893689053568
sS'/html/body/div/div/div/div/div/div/div/div/div/div/ul/li/div/div/div/section/div/div/div/div/div/a'
p468
F7.380821783940932
sS'/html/body/div/div/div/div/div/div/div/div/div/div/div/div/div/span/div/h3'
p469
F3.5563933485243853
sS'/html/body/div/div/div/div/div/div/div/div/div/div/div/div/span/div/div/div/span'
p470
F1.434402824145775
sS'/html/body/div/div/div/div/div/div/div/div/span'
p471
F7.965784284662087
sS'/html/body/div/div/div/div/div/div/div/div/div/div/div/div/div/div/div/div/span/span/button/span'
p472
F8.965784284662087
sS'/html/body/div/div/div/div/div/div/div/div/div/div/ul/li/div/div/div/section/div/div/div/div/div/div/span/a'
p473
F5.795859283219775
sS'/html/body/div/div/div/div/div/div/div/div/div/div/div/div/span/div/div/div/div/div/div/div'
p474
F1.434402824145775
sS'/html/body/div/div/div/div/div/div/div/div/div/div/div/div/h3/span/a/span'
p475
F9.965784284662087
sS'/html/body/div/div/div/div/div/div/div/div/div/div/ul/li/button/span/span/span/span'
p476
F4.756330919033137
sS'/html/body/div/div/div/div/div/div/div/ol/li/a'
p477
F8.380821783940931
sS'/html/body/div/div/div/div/div/div/div/div/div/ul/li/span/div/h3/span'
p478
F2.1202942337177118
sS'/html/body/div/header/div/div/div/span/a/span'
p479
F9.965784284662087
sS'/html/body/div/div/div/div/div/div/div/div/div/div/div/div/div/ul/li/span/a/img'
p480
F5.442222328605075
sS'/html/body/div/div/div/div/div/div/div/div/div/div/div/div/div/p/wbr/wbr/wbr/wbr/wbr/a'
p481
F9.965784284662087
sS'/html/body/div/div/div/div/div/div/div/div/div/div/div/div/div/div/div/div/div/div/span/button'
p482
F9.965784284662087
sS'/html/body/div/div/div/span/a/img'
p483
F8.380821783940931
sS'/html/body/div/div/div/div/div/div/div/div/div/div/div/div/span/div/div/div/div/div/div/div/p/span'
p484
F1.434402824145775
sS'/html/body/div/div/div/div/div/div/div/div/div/div/ul/li/div/div/span'
p485
F4.442222328605075
sS'/html/body/div/div/div/div/div/div/div/div/p/span'
p486
F7.965784284662087
sS'/html/body/div/div/div/div/div/div/div/div/div/div/div/div/div/div/div/div'
p487
F8.965784284662087
sS'/html/body/div/div/div/div/div/div/div/div/div/div/div/div/div/div/div/a/span/span/span/span'
p488
F9.965784284662087
sS'/html/body/div/div/div/div/div/div/div/div/div/div/ul/li/ul/li/div/div/div/div/ul/li/span'
p489
F6.965784284662088
sS'/html/body/div/div/div/nav'
p490
F9.965784284662087
sS'/html/body/div/div/div/div/a/img'
p491
F8.380821783940931
sS'/html/body/div/div/div/div/div/div/div/div/div/div/ul/li/div/div/div/div/div/div/div/ul/li/div/div/div/div/ul/li/span'
p492
F3.265344566520995
sS'/html/body/div/div/div/div/div/div/div/div/div/div/ul/li/ul/li/div/div/div/span/a/span/span/span/img'
p493
F4.9213901653036345
sS'/html/body/div/div/div/div/div/div/div/div/div/div/div/div/p/strong'
p494
F7.643856189774724
sS'/html/body/div/div/div/div/div/div/div/div/div/div/ul/li/div/div/div/div/div/div/div/ul/li/div/div/div/a/span/span/span/span/span/span'
p495
F9.965784284662087
sS'/html/body/div/div/div/div/div/div/div/div/div/div/div/div/div/div/div/div/p/span'
p496
F9.965784284662087
sS'/html/body/div/div/div/div/div/div/div/div/div/div/ul/li/div/div/div/div/div/ul/li/div/div/div/div/span'
p497
F4.717856771218502
sS'/html/body/div/div/div/div/div/div/div/div/div/div/div/ol/li/ol/li/ul/li/span/div/div/div/div/div/h2'
p498
F8.965784284662087
sS'/html/body/div/div/div/div/div/div/div/div/div/div/div/div/div/span/div/div/p/span'
p499
F3.5563933485243853
sS'/html/body/div/header/div/div/div/div/span/a/span'
p500
F9.965784284662087
sS'/html/body/div/div/div/div/div/div/div/div/div/div/div/div/div/div/div/div/div/div/div/span/a/span/span/span/span'
p501
F9.965784284662087
sS'/html/body/div/footer/div/ul/li'
p502
F9.965784284662087
sS'/html/body/div/div/div/div/div/div/div/div/div/div/div/div/button/span'
p503
F0.9434164716336326
sS'/html/body/div/div/div/div/div/div/div/div/div/div/ul/li/ul/li/div/div/span/span'
p504
F5.380821783940931
sS'/html/body/div/div/div/div/div/div/div/div/div/div/ul/li/div/div/div/section/div/div/div/span/a'
p505
F5.50635266602479
sS'/html/body/div/div/div/div/div/div/div/div/div/div/ul/li/div/div/div/div/div/h3/a'
p506
F9.965784284662087
sS'/html/body/div/div/div/div/div'
p507
F0.00723156923107573
sS'/html/body/div/div/div/div/div/div/div/div/div/div/ul/li/div/div/div/div/div/ul/li/div/div/div/div/ul/li/span'
p508
F6.380821783940931
sS'/html/body/div/div/div/div/div/div/div/div/div/div/div/ul/li/a'
p509
F2.5734668618833267
sS'/html/body/div/div/div/div/div/div/div/div/div/div/ul/li/div/div/div/div/div/div/ul/li'
p510
F9.965784284662087
sS'/html/body/div/div/div/div/div/div/div/div/div/div/div/ol/li/ol/li/div/div/div/ul/li/div/div/div/div/button/span'
p511
F9.965784284662087
sS'/html/body/div/div/div/div/div/div/div/div/div/div/div/div/p/span'
p512
F0.9517638143471525
sS'/html/body/div/div/div/div/div/div/div/div/div/div/ul/li/div/div/div/div/div/wbr/wbr/wbr/wbr/wbr/wbr/a'
p513
F8.965784284662087
sS'/html/body/div/div/div/div/div/div/div/div/div/div/div/div/ol/li/ol/li/div/div/div/div/div/div/span/button/span'
p514
F9.965784284662087
sS'/html/body/div/div/div/div/div/div/div/div/div/div/ul/li/div/div/div/section/div/div/div/div/div/div/button/span'
p515
F5.573466861883327
sS'/html/body/div/div/div/ul/li/button/span/span'
p516
F0.00723156923107573
sS'/html/body/div/div/div/div/div/div/div/div/div/div/div/div/div/div'
p517
F0.9545570292388329
sS'/html/body/div/div/div/div/div/div/div/div/div/div/div/div/div/p/br'
p518
F1.1140352432460294
sS'/html/body/div/div/div/div/div/div/div/div/div/div/ul/li/div/div/div/section/div/div/div/a'
p519
F5.50635266602479
sS'/html/body/div/div/div/div/div/div/div/div/div/div/div/div/span/span/span/span'
p520
F8.380821783940931
sS'/html/body/div/div/div/div/div/div/div/div/div/div/div/div/ul/li/div/span'
p521
F0.9517638143471525
sS'/html/body/div/div/div/div/div/div/a'
p522
F9.965784284662087
sS'/html/body/div/div/div/div/div/div/div/div/ul/li/div/ul/li'
p523
F9.965784284662087
sS'/html/body/div/div/div/div/div/div/div/div/div/div/div/div/div/div/p/a'
p524
F9.965784284662087
sS'/html/body/div/div/div/div/div/div/div/div/div/div/ul/li/div/div/div/div/div/ul/li/div/div/div/a/span/span/span/button/span'
p525
F5.011587974275212
sS'/html/body/div/div/div/div/div/div/div/div/div/div/div/span/span/button'
p526
F2.434402824145775
sS'/html/body/div/div/div/div/div/div/div/div/div/div/ul/li/div/div/div/div/div/wbr/wbr/wbr/a'
p527
F8.380821783940931
sS'/html/body/div/section/div/article/div/div/div/button'
p528
F9.965784284662087
sS'/html/body/div/div/div/div/div/div/div/div/div/div/div/ol/li/ol/li/ul/li/span/div/div/div/div/div/button/span'
p529
F8.965784284662087
sS'/html/body/div/div/div/div/div/div/div/div/div/div/ul/li/div/div/div/div/div/div/span/span/span'
p530
F7.380821783940932
sS'/html/body/div/div/div/div/div/div/div/div/div/div/ul/li/div/div/div/div/div/div/div/ul/li/div/div/div/div/ul/li'
p531
F2.265344566520995
sS'/html/body/div/div/div/div/div/div/div/div/div/div/div/div/ol/li/ol/li/div/div/div/div/ul/li/div/div/div/div/a'
p532
F9.965784284662087
sS'/html/body/div/div/div/div/div/div/ul/li/a/span'
p533
F1.1265804965651434
sS'/html/body/div/div/div/div/div/div/div/div/div/div/div/div/div/div/span'
p534
F8.380821783940931
sS'/html/body/div/div/div/div/div/div/div/div/div/div/div/div/div/p/wbr/br'
p535
F6.965784284662088
sS'/html/body/div/div/div/div/div/div/div/div/div/div/div/span/div/a/span'
p536
F0.9489759969755331
sS'/html/body/div/div/div/div/div/div/div/div/div/div/ul/li/div/div/div/div/button'
p537
F5.50635266602479
sS'/html/body/div/div/div/div/div/div/div/div/div/div/ul/li/span/div/div/span/button/span/span'
p538
F8.380821783940931
sS'/html/body/div/div/span'
p539
F0.013043037475598814
sS'/html/body/div/div/div/div/div/div/div/div/div/div/div/div/ol/li/ol/li/div/div/div/div/div/div/div/a'
p540
F9.965784284662087
sS'/html/body/div/div/div/div/div/div/div/div/div/div/ul/li/ul/li/div/div/div/a/span/span/span/button/span'
p541
F5.717856771218502
sS'/html/body/div/div/div/div/div/div/div/div/div/div/div/div/div/span/div/div'
p542
F3.5563933485243853
sS'/html/body/div/div/div/div/div/div/div/div/div/ul/li/span/div/div/span/button/span/span'
p543
F2.1202942337177118
sS'/html/body/div/div/div/div/div/div/div/div/div/div/div/div/ol/li/ol/li/div/div/div/div/ul/li/div/div/div/div/span'
p544
F9.965784284662087
sS'/html/body/div/div/div/div/div/div/div/div/div/div/div/div/ol/li/ol/li/div/div/div/div/div/span/button/span'
p545
F9.965784284662087
sS'/html/body/div/div/div/div/div/div/div/div/div/div/ul/li/div/div/div/span/b'
p546
F5.380821783940931
sS'/html/body/div/div/div/div/div/a/img'
p547
F8.965784284662087
sS'/html/body/div/div/div/div/div/div/div/div/div/div/ul/li/div/table/tbody/tr/td/span/span/button/ul/li/span'
p548
F3.5563933485243853
sS'/html/body/div/div/div/div/div/div/div/div/div/div/div/div/ol/li/ol/li/div/div/div/div/h2/a/div/div/span/img'
p549
F9.965784284662087
sS'/html/body/div/div/div/div/div/div/div/div/div/div/div/ul/li'
p550
F5.50635266602479
sS'/html/body/div/div/div/div/div/div/div/div/div/div/span/button/span'
p551
F0.013043037475598814
sS'/html/body/div/div/div/div/div/div/div/div/ul/li/h2'
p552
F1.4500844463780445
sS'/html/body/div/div/div/div/div/div/div/div/div/div/ul/li/div/div/div/section/div/div/div/div/div/div/a'
p553
F5.795859283219775
sS'/html/body/div/div/div/div/div/div/div/div/div/div/div/div/div/div/span/a'
p554
F8.380821783940931
sS'/html/body/div/div/div/div/div/div/div/div/div/div/div/div/ol/li/ol/li/div/div/div/div/div/div/h3/a'
p555
F9.965784284662087
sS'/html/body/div/div/div/div/div/div/div/div/div/div/ul/li/div/div/div/div/div/ul/li/div/div/div/a/span/span/span/span/img'
p556
F5.011587974275212
sS'/html/body/div/div/div/h2'
p557
F9.965784284662087
sS'/html/head/style'
p558
F0.004334590263891124
sS'/html/body/div/div/div/div/div/div/div/div/div/div/div/div/div/div/div/h1/span/span/span/a'
p559
F8.965784284662087
sS'/html/body/div/div/div/div/div/div/div/ul/li/div/h3'
p560
F1.0923401721467105
sS'/html/body/div/div/div/div/div/div/div/div/div/div/div/a'
p561
F0.9517638143471525
sS'/html/body/div/div/div/div/div/div/div/div/div/div/div/div/div/p/wbr/wbr/a'
p562
F6.965784284662088
sS'/html/body/div/div/div/div/div/div/div/div/div/div/ul/li/div/div/div/section/div/div/div/div/div/div/div'
p563
F5.878321443411747
sS'/html/body/div/div/div/div/div/div/div/div/div/div/div/div/ol/li/ol/li/div/div/div/div/div/button'
p564
F9.965784284662087
sS'/html/body/div/div/div/div/div/div/div/div/div/div/div/ol/li/ol/li/div/div/div/ul/li/div/div/div/div/div'
p565
F9.965784284662087
sS'/html/body/div/div/div/div/div/div/div/div/div/div/div/div/div/div/div/div/div/p'
p566
F9.965784284662087
sS'/html/body/div/div/div/div/div/div/div/div/div/div/ul/li/div/div/div/div/div/h2/a/span/span'
p567
F2.0528949484321255
sS'/html/body/div/div/div/div/div/div/div/div/div/div/ul/li/ul/li/div/div/div/div/ul'
p568
F6.380821783940931
sS'/html/body/div/div/div/div/div/div/div/div/div/div/button/span/span'
p569
F5.011587974275212
sS'/html/body/div/div/div/div/div/div/div/div/div/div/ul/li/div/div/div/div/div/div/div/ul/li/div/div/div/a/span/span/span/span/span/b'
p570
F3.878321443411748
sS'/html/body/div/div/div/div/div/div/div/div/div/div/div/div/ul/li/a/span/span/span/button/span'
p571
F2.977099597889921
sS'/html/body/div/div/div/div/div/div/div/div/div/div/div/div/img'
p572
F3.5563933485243853
sS'/html/body/div/div/div/div/div/div/div/div/p'
p573
F7.380821783940932
sS'/html/body/div/div/div/div/div/div/div/div/div/div/ul/li/div/div/div/div/div/div/div/ul/li/div/div/a/span'
p574
F8.380821783940931
sS'/html/body/div/div/div/div/div/div/div/div/div/div/ul/li/span/div/a/span/span/span/img'
p575
F8.380821783940931
sS'/html/body/div/div/div/div/div/div/div/div/div/div/ul/li/div/div/div/br'
p576
F5.380821783940931
sS'/html/body/div/div/div/div/div/div/div/div/a'
p577
F9.965784284662087
sS'/html/body/div/div/div'
p578
F0.010134377133713133
sS'/html/body/div/div/div/div/div/div/div/ol/li/ol/li/a'
p579
F8.380821783940931
sS'/html/body/div/div/div/div/div/div/div/div/div/div/div/h1/span'
p580
F0.9517638143471525
sS'/html/body/div/div/div/div/div/div/div/div/div/div/div/div/div/ul/li/ul/li/a'
p581
F0.9517638143471525
sS'/html/body/div/div/div/span'
p582
F7.965784284662087
sS'/html/body/div/div/div/div/div/div/div/div/div/div/ul/li/div/div/div/div/div/div/div/ul/li/span'
p583
F9.965784284662087
sS'/html/body/div/header/div/div/form/span/svg/path'
p584
F9.965784284662087
sS'/html/body/div/div/div/div/div/div/div/div/div/div/div/ol/li/ol/li/div/div/div/ul/li/div/div/div/div/div/ul/li'
p585
F9.965784284662087
sS'/html/body/div/div/div/div/div/div/div/div/div/div/div/div/div/div/div/div/div/div/div/span/span/button/ul/li/span'
p586
F9.965784284662087
sS'/html/body/div/div/div/div/div/div/div/div/div/div/ul/li/div/div/div/a/span/span/span/span'
p587
F5.50635266602479
sS'/html/body/div/div/div/a/span'
p588
F0.0028882793248263526
sS'/html/body/div/div/div/div/div/div/div/div/div/div/ul/li/div/div/div/section/div/div/div/div/span'
p589
F5.717856771218502
sS'/html/body/div/div/div/div/div/div/div/div/div/div/ul/li/div/div/div/div/div/div/div/ul/li/div/div/div/a/span/span/span/button/span'
p590
F3.878321443411748
sS'/html/body/div/div/div/div/div/div/div/div/div/div/ul/li/div/div/div/div/div/div/div/ul/li/div/div/a/span/span/span/img'
p591
F4.442222328605075
sS'/html/body/div/div/div/div/div/script'
p592
F0.03061923505839191
sS'/html/body/div/div/div/div/div/div/div/div/div/div/ul/li/a/img'
p593
F1.5104570643575264
sS'/html/body/div/div/div/div/div/div/div/div/div/div/div/ol/li/ol/li/ul/li/span/span/button/span'
p594
F8.965784284662087
sS'/html/body/div/div/div/div/div/div/div/div/div/div/div/ol/li/ol/li/div/div/div/ul/li/div/div/div/div/a/span'
p595
F9.965784284662087
sS'/html/body/div/div/div/div/form/div/div/a'
p596
F9.965784284662087
sS'/html/body/div/div/div/div/div/div/div/div/div/div/ul/li/div/div/div/div/div/div/div/span'
p597
F8.965784284662087
sS'/html/body/div/div'
p598
F0.0028882793248263526
sS'/html/body/div/div/div/div/div/div/div/div/div/div/div/ol/li/ol/li/div'
p599
F9.965784284662087
sS'/html/body/div/div/div/div/div/div/div/div/div/div/ul/li/span/div/div/span/span'
p600
F8.380821783940931
sS'/html/body/div/div/div/div/div/div/div/div/div/div/ul/li/div/div/div/a/span/span/span/img'
p601
F5.50635266602479
sS'/html/body/div/div/div/div/div/div/div/div/div/div/div/div/div/div/div/div/div/h1/span/span/span'
p602
F9.965784284662087
sS'/html/body/div/div/div/div/div/div/div/div/ul/li/div/p'
p603
F9.965784284662087
sS'/html/body/div/div/div/div/div/div/div/div/div/div/div/div/div/div/div/div/div/div/h1/span/span/span/a'
p604
F9.965784284662087
sS'/html/body/div/div/div/div/div/div/div/div/div/div/ul/li/div/div/div/span'
p605
F4.380821783940931
sS'/html/body/div/div/div/div/div/div/div/div/div/div/div/div/div/div/div/div/div/div/h1/span/a/span'
p606
F9.965784284662087
sS'/html/body/div/header/div/div/ul/li/svg/path'
p607
F9.965784284662087
sS'/html/body/div/div/div/div/div/div/div/div/div/div/div/div/div/div/div/div/div/div/span/a/span/span/span/span'
p608
F9.965784284662087
sS'/html/body/div/div/div/div/div/div/div/div/div/div/div/div/div/div/div/div/div/div/div/span/button/span/span'
p609
F9.965784284662087
sS'/html/body/div'
p610
F0.013043037475598814
sS'/html/body/div/div/div/div/div/div/div/div/div/div/div/div/span/div/div/div/div/div/div/div/div'
p611
F1.434402824145775
sS'/html/body/div/div/div/div/div/div/div/div/div/div/div/div/div/span/a'
p612
F8.965784284662087
sS'/html/body/div/div/div/div/div/div/div/div/div/div/ul/li/div/div/div/div/div/div/div/ul/li/div/div/div/div'
p613
F8.380821783940931
sS'/html/body/div/div/div/div/div/div/div/div/div/div/ul/li/div/div/div/div/div/ul/li/div/div/div/span/button/span/span'
p614
F7.965784284662087
sS'/html/body/div/div/div/div/div/div/div/div/div/div/div/div/span/div/div/div/div/div'
p615
F1.434402824145775
sS'/html/body/div/div/div/div/div/div/div/div/div/div/ul/li/div/div/div/div/div/ul/li/div/div/div/ul/li/span'
p616
F5.878321443411747
sS'/html/body/div/div/div/div/div/div/div/div/div/div/span/span/div/div/div/div/div/div/div/div/p/span'
p617
F0.9517638143471525
sS'/html/body/div/div/div/div/div/div/div/div/div/div/div/button/span'
p618
F0.9517638143471525
sS'/html/body/div/div/div/div/div/div/div/div/div/div/ul/li/div/div/div/div/div/div/div/ul/li/div/div/div/span/button/span'
p619
F2.286304185156641
sS'/html/body/div/div/div/div/div/div/div/div/div/div/ul/li/div/div/div/div/div/wbr/br'
p620
F6.380821783940931
sS'/html/body/div/header/div/a'
p621
F9.965784284662087
sS'/html/body/div/div/div/div/div/div/div/div/div/div/div/a/span'
p622
F0.9517638143471525
sS'/html/body/div/div/div/div/div/div/div/div/div/div/div/div/div/span/div/a/span'
p623
F3.5563933485243853
sS'/html/body/div/div/div/div/div/div/div/div/div/div/ul/li/div/div/div/div/div/a'
p624
F2.7273795453370084
sS'/html/body/textarea'
p625
F9.965784284662087
sS'/html/body/div/div/div/div/div/div/div/div/div/div/ul/li/p'
p626
F7.158429362604482
sS'/html/body/div/div/div/div/div/div/div/ul/li/div/ul/li/a/span/span/span/span/span/span'
p627
F1.0923401721467105
sS'/html/body/div/div/div/div/div/div/div/div/div/div/div/div/div'
p628
F0.7369655941662062
sS'/html/body/div/div/div/div/div/div/div/div/div/div/ul/li/div/div/div/div/div/ul/li/div/div/div/span/button'
p629
F4.210896782498619
sS'/html/body/div/div/div/div/div/div/div/div/p/strong'
p630
F8.965784284662087
sS'/html/body/div/div/div/div/div/div/div/div/button/span'
p631
F8.380821783940931
sS'/html/body/div/div/div/div/a/span'
p632
F0.00723156923107573
sS'/html/body/div/div/div/div/div/div/div/div/div/div/ul/li/div/div/div/div/div/div/wbr/br'
p633
F9.965784284662087
sS'/html/body/div/div/div/div/div/div/div/div/div/div/ul/li/ul/li/div/div/div/h3/a'
p634
F4.265344566520995
sS'/html/body/div/div/div/div/div/div/div/div/div/div/div/ol/li/ol/li/ul/li/span/div/div/span'
p635
F8.965784284662087
sS'/html/body/div/div/div/div/div/div/div/div/div/div/ul/li/div/table/tbody/tr/td/div/div'
p636
F3.5563933485243853
sS'/html/body/div/div/div/div/div/div/div/div/div/div/ul/li/div/table/tbody/tr/td/span/button/span/span'
p637
F9.965784284662087
sS'/html/body/div/div/div/div/div/div/div/div/div/div/ul/li/div/div/div/section/div/div/a/span/span/span/img'
p638
F5.717856771218502
sS'/html/body/div/div/div/div/div/div/div/div/div/div/div/span/span/div/h3'
p639
F0.9517638143471525
sS'/html/body/div/div/div/div/div/meta'
p640
F9.965784284662087
sS'/html/body/div/section/div/div/div/nav/div/ul/li/a'
p641
F9.965784284662087
sS'/html/body/div/div/div/div/div/div/div/div/div/div/ul/li/div/div/div/div/a'
p642
F2.662003536484984
sS'/html/body/div/link'
p643
F1.4111954329844496
sS'/html/body/div/div/div/div/div/div/div/div/div/div/div/div/div/span/label/span'
p644
F1.6303939299681622
sS'/html/body/div/div/div/div/div/div/a/img'
p645
F1.139235797371172
sS'/html/body/div/div/div/div/div/div/div/div/div/div/ul/li/div/div/div/div/div/ul/li/div/div/div/a/span/span/span/button/ul/li/span'
p646
F5.011587974275212
sS'/html/body/div/div/div/div/div/div/div/div/div/div/div/div/div/ul/li/button/span'
p647
F1.2042330522176077
sS'/html/body/div/div/div/div/div/div/div/div/div/div/ul/li/div/table/tbody/tr/td/div'
p648
F3.5563933485243853
sS'/html/body/div/div/div/div/div/link'
p649
F9.965784284662087
sS'/html/body/div/div/div/div/div/div/div/div/div/div/ul/li/div/div/div/div/div/div/div/ul/li/div/div/div/a/span/span/span/span/img'
p650
F3.878321443411748
sS'/html/body/div/div/div/div/div/div/div/div/div/div/div/div/div/div/div/div/div/div/h1/span/span/span'
p651
F9.965784284662087
sS'/html/body/div/div/div/div/div/div/div/div/div/div/ul/li/div/div/div/section/div/div/div/div/a'
p652
F5.573466861883327
sS'/html/body/div/div/div/div/form/div/div/input'
p653
F9.965784284662087
sS'/html/body/div/div/div/div/div/div/div/div/div/div/div/div/ul/div/li'
p654
F0.9714308478032291
sS'/html/body/div/div/div/div/div/div/div/div/div/div/ul/li/div/div/div/div/div/div/div/ul/li/div/div/div/div/span/button/span'
p655
F7.380821783940932
sS'/html/body/div/div/div/div/div/div/div/div/div/div/ul/li/div/div/div/section/div/div/div/div/a/span/span/span/span'
p656
F5.795859283219775
sS'/html/body/div/div/div/div/div/div/div/div/div/div/div/div/div/ul/li/span/div/a/span'
p657
F0.9517638143471525
sS'/html/body/div/div/div/div/div/div/div/div/div/div/div/div/div/div/div/div/div/div/span/span/button/ul/li/span'
p658
F9.965784284662087
sS'/html/head/title'
p659
F0.0
sS'/html/body/div/div/div/div/div/div/div/div/div/div/ul/li/div/div/div/div/div/div/div/ul/li/div/div/div/span/button'
p660
F2.286304185156641
sS'/html/body/div/div/div/div/div/h2'
p661
F9.965784284662087
sS'/html/body/div/div/div/div/form/div/input'
p662
F7.965784284662087
sS'/html/body/div/div/div/div/div/div/div/div/div/div/ul/li/div/div/div/div/div/div/div/ul/li/div/div/div/a/span/span/span/span/span'
p663
F3.878321443411748
sS'/html/body/div/div/div/div/div/div/p/span/a'
p664
F9.965784284662087
sS'/html/body/div/div/div/div/div/div/div/div/div/div/ul/li/span/div/a/span/span/span/span'
p665
F8.380821783940931
sS'/html/body/div/div/div/div/div/div/div/div/span/link'
p666
F0.9517638143471525
sS'/html/body/div/div/div/div/div/div/div/div/div/div/div/div/div/p/wbr/wbr/wbr/wbr/br'
p667
F8.380821783940931
sS'/html/body/div/div/ul/li/a'
p668
F7.965784284662087
sS'/html/body/div/div/div/div/div/div/div/div/div/div/ul/li/div/div/div/div/div/div/div/ul/li/div/div/span/span'
p669
F4.442222328605075
sS'/html/body/div/div/div/div/div/div/div/div/a/span'
p670
F8.965784284662087
sS'/html/body/div/div/div/div/div/div/div/div/div/div/ul/li/div/div/div/h3/a'
p671
F2.643856189774725
sS'/html/body/div/div/div/div/div/div/div/div/div/div/div/div/div/div/div/div/div'
p672
F8.380821783940931
sS'/html/body/div/div/div/div/div/div/ul/li/span/a'
p673
F9.965784284662087
sS'/html/body/div/div/div/div/div/div/div/div/div/div/ul/li/div/div/div/section/div/div/div/div/div/div/span'
p674
F5.795859283219775
sS'/html/body/div/div/div/div/div/button/span'
p675
F7.965784284662087
sS'/html/body/div/div/div/div/div/div/div/div/div/div/ul/li/div/div/div/div/div/div/div'
p676
F7.965784284662087
sS'/html/body/div/div/div/div/div/div/div/div/div/div/div/ol/li/ol/li/div/a'
p677
F9.965784284662087
sS'/html/body/div/div/div/div/div/div/div/div/div/div/div/div/div/p/wbr/wbr/wbr/a'
p678
F9.965784284662087
sS'/html/body/div/div/div/div/div/div/div/div/div/div/div/ol/li/ol/li/div/div/div/div/div'
p679
F9.965784284662087
sS'/html/body/div/div/div/div/div/div/div/div/div/div/div/div/div/p/wbr/a'
p680
F6.965784284662088
sS'/html/body/div/div/div/div/div/div/div/div/div/div/div/div/ol/li/ol/li/div/div/div/div/h2/a/span'
p681
F9.965784284662087
sS'/html/body/div/div/div/div/div/div/div/div/div/div/ul/li/div/div/div/div/div/div/div/a'
p682
F7.380821783940932
sS'/html/body/div/div/div/div/div/div/div/div/div/div/div/div/div/a'
p683
F8.380821783940931
sS'/html/body/div/div/div/div/div/div/div/div/div/div/ul/li/div/div/pre'
p684
F5.442222328605075
sS'/html/body/div/div/div/div/div/div/div/div/div/div/ul/li/div/div/div/section/div/a/span/span/span/span'
p685
F5.50635266602479
sS'/html/body/div/div/div/div/div/div/div/div/div/div/div/div/div/p/wbr/wbr/wbr/br'
p686
F8.965784284662087
sS'/html/body/div/div/div/div/div/div/div/div/div/div/ul/li/div/div/div/div/p/a'
p687
F9.965784284662087
sS'/html/body/div/div/div/div/div/div/div/div/div/div/div/div/div/div/div/div/span/a/span/span/span/span'
p688
F8.965784284662087
sS'/html/body/div/div/div/div/div/div/div/div/div/div/div/div/ol/li/ol/li/div/div/div/div/div/h3/a'
p689
F9.965784284662087
sS'/html/body/div/div/div/div/div/div/div/div/div/div/ul/li/div/div/div/div/ul/li/button/span'
p690
F5.50635266602479
sS'/html/body/div/div/div/div/div/div/div/div/div/div/div/div/div/p/wbr/wbr/wbr/wbr/wbr/wbr/wbr/wbr/br'
p691
F9.965784284662087
sS'/html/body/div/div/div/div/div/div/div/div/div/div/div/div/div/ul/li/div/a/span/span'
p692
F1.6303939299681622
sS'/html/body/div/div/div/div/div/div/div/div/ol/li/address/div/br'
p693
F9.965784284662087
sS'/html/body/div/div/div/div/div/div/div/div/div/div/p/span'
p694
F8.965784284662087
sS'/html/body/div/div/div/div/div/div/div/div/div/div/div/div/ul/li/a/span/span/button'
p695
F2.977099597889921
sS'/html/body/div/div/div/div/div/div/div/div/div/div/div/div/ul/li/a/span/span/span/span/span'
p696
F2.4188898247744506
sS'/html/body/div/div/div/div/div/div/div/h3'
p697
F9.965784284662087
sS'/html/body/div/div/div/div/div/div/div/h2'
p698
F9.965784284662087
sS'/html/body/div/div/div/div/div/div/div/h1'
p699
F0.9323612831246368
sS'/html/body/div/div/div/div/div/div/div/div/div/div/div/div/span/div/div/div/div/div/div/div/div/p/span'
p700
F1.434402824145775
sS'/html/body/div/div/div/div/div/div/div/div/div/div/div/div/ul/li/button'
p701
F9.965784284662087
sS'/html/body/link'
p702
F1.4111954329844496
sS'/html/body/div/div/div/div/div/div/div/div/div/div/ul/li/div/div/div/div/div/div/div/ul/li/div/div/div/h3/span'
p703
F2.1844245711374275
sS'/html/body/div/div/div/nav/nav/div/a'
p704
F8.965784284662087
sS'/html/body/div/div/div/div/div/div/div/div/div/div/div/div/div/ul/li/div/a/span'
p705
F1.6303939299681622
sS'/html/body/div/div/div/div/div/div/div/div/div/div/div/a/span/span'
p706
F2.395928676331139
sS'/html/body/div/div/div/div/div/div/div/div/div/div/ul/li/div/div/div/div/div/div/div/ul/li/div/div/h3/span'
p707
F4.442222328605075
sS'/html/body/div/div/div/div/div/div/div/div/div/div/ul/li/div/table/tbody/tr/td/div/div/span'
p708
F3.5563933485243853
sS'/html/body/div/div/div/div/div/div/div/div/div/div/div/div/h3/img'
p709
F8.965784284662087
sS'/html/body/div/div/div/div/div/div/div/div/div/div/div/div/span/span/span/img'
p710
F8.380821783940931
sS'/html/body/div/div/div/div/div/div/div/div/div/div/div/div/div/button'
p711
F9.965784284662087
sS'/html/body/div/div/div/div/div/div/div/div/div/div/ul/li/ul/li/div/div/h3/a'
p712
F5.878321443411747
sS'/html/body/div/div/div/div/div/div/div/div/div/div/div/ol/li/ol/li/div/div/div/ul/li/div/div/div/div/span/button/span'
p713
F9.965784284662087
sS'/html/body/div/div/div/div/div/div/div/div/div/div/ul/li/div/div/div/section/div'
p714
F5.50635266602479
sS'/html/body/div/div/div/div/div/div/div/div/div/div/div/div/div/ul/li/span/button/span'
p715
F0.9517638143471525
sS'/html/body/div/div/div/div/div/div/div/div/div/div/div/div/ul/li/h2'
p716
F8.965784284662087
sS'/html/body/div/div/div/div/div/div/div/div/div/div/ul/li/div/div/div/div/div/div/div/ul/li/div/div/div/a/span/span/span/span'
p717
F3.878321443411748
sS'/html/body/div/div/div/div/div/div/div/div/div/div/div/div/div/button/span'
p718
F9.965784284662087
sS'/html/body/div/div/div/div/div/div/div/div/div/div/div/div/div/ul/li/ul/li/span/a'
p719
F7.380821783940932
sS'/html/body/div/div/div/div/div/span/span/map/area'
p720
F9.965784284662087
sS'/html/body/div/div/div/div/div/div/div/div/div/div/div/div/div/ul/li/div/a/span/img'
p721
F1.6303939299681622
sS'/html/body/div/div/div/div/div/div/div/div/div/div/div/ol/li/ol/li/div/div/div/ul/li/div/div/div/div/h3/a'
p722
F9.965784284662087
sS'/html/body/div/div/div/div/div/div/div/div/div/div/div/div/div/div/div/h1/span/a/span'
p723
F8.965784284662087
sS'/html/body/div/div/div/div/div/div/div/div/div/div/a/span/span/span/span'
p724
F0.9517638143471525
sS'/html/body/div/div/div/div/div/div/div/div/ul/li/button/span'
p725
F9.965784284662087
sS'/html/body/div/div/div/div/div/div/div/div/div/ol/p/span'
p726
F0.013043037475598814
sS'/html/body/div/div/div/div/div/div/div/div/div/div/ul/li/div/div/div/section/div/div'
p727
F5.50635266602479
sS'/html/body/meta'
p728
F1.4111954329844496
sS'/html/body/div/div/div/div/div/div/div/div/div/div/div/div/ul/li/div/a/span/ul/li/span'
p729
F2.8365012677171206
sS'/html/body/div/div/div/div/div/div/div/div/div/div/div/div/div/div/div/div/div/div/p/span'
p730
F8.380821783940931
sS'/html/body/div/div/div/div/div/div/div/div/div/div/div'
p731
F0.03209362970985334
sS'/html/body/div/div/div/div/div/div/div/div/div/ul/li/span/div/a/span/span/span/img'
p732
F2.1202942337177118
sS'/html/body/div/div/div/div/div/div/div/div/div/div/div/div/div/div/div/div/span/button/span/span'
p733
F8.965784284662087
sS'/html/body/div/div/div/div/div/div/div/div/div/div/div/div/div/div/div/div/div/div/span/span/button/span'
p734
F9.965784284662087
sS'/html/body/div/div/div/div/div/div/div/div/div/h2/a'
p735
F4.680382065799838
sS'/html/body/div/div/div/div/div/div/div/div/div/div/div/div/a/span/span/span/img'
p736
F8.965784284662087
sS'/html/body/div/div/div/div/div/div/div/div/div/div/div/span/div/div'
p737
F0.9489759969755331
sS'/html/body/div/section/div/article/section/div/a'
p738
F9.965784284662087
sS'/html/body/div/div/div/div/span/select/option'
p739
F8.380821783940931
sS'/html/body/div/div/div/div/div/div/div/div/div/div/ul/li/div/div/div/div/div/ul/li/div/div/div/span/a/span/span/span/img'
p740
F4.210896782498619
sS'/html/body/div/div/div/div/div/div/div/div/ol/li/address/div/span'
p741
F9.965784284662087
sS'/html/body/div/div/div/div/div/div/div/div/div'
p742
F0.011587974275211823
sS'/html/body/div/div/div/div/div/div/div/div/div/div/div/div/div/ul/li/h4'
p743
F0.9517638143471525
sS'/html/body/div/div/div/div/div/div/div/div/div/div/div/h3/a'
p744
F2.582079992188035
sS'/html/body/div/div/div/div/div/div/button/span'
p745
F0.013043037475598814
sS'/html/body/div/div/div/div/div/div/h2'
p746
F9.965784284662087
sS'/html/body/div/div/div/div/div/div/h1'
p747
F8.965784284662087
sS'/html/body/div/div/div/div/div/div/div/div/div/div/div/div/ol/li/ol/li/div/div'
p748
F9.965784284662087
sS'/html/body/div/div/div/div/div/div/div/div/div/div/div/div/div/div/div/div/div/div/span/button/span/span'
p749
F9.965784284662087
sS'/html/body/div/section/div/article/section/div/p'
p750
F9.965784284662087
sS'/html/body/div/div/div/div/div/div/div/div/div/div/div/div/div/a/span/span/span/span'
p751
F8.965784284662087
sS'/html/body/div/div/div/div/div/div/div/div/div/div/div/div/div/label'
p752
F1.6303939299681622
sS'/html/body/div/div/div/div/div/div/div/div/div/div/div/div/div/div/div/div/div/img'
p753
F8.380821783940931
sS'/html/body/div/div/div/div/div/div/div/div/div/div/ul/li/div/div/div/div/div/h2/a/span/span/span/img'
p754
F4.107803289534515
sS'/html/body/div/div/div/div/div/div/div/div/div/div/ul/li/div/div/h2/b'
p755
F5.50635266602479
sS'/html/body/div/div/div/div/div/div/div/div/div/div/div/div/div/span'
p756
F5.380821783940931
sS'/html/body/div/div/div/div/div/div/div/div/div/div/ul/li/span/div/h3/a/span/span'
p757
F8.380821783940931
sS'/html/body/div/div/div/div/div/div/div/div/div/div/div/div/div/p'
p758
F4.50635266602479
sS'/html/body/div/div/div/div/div/div/div/div/div/div/ul/li/div/table/tbody/tr/td/a'
p759
F3.5563933485243853
sS'/html/body/div/div/div/div/div/div/div/p/a'
p760
F9.965784284662087
sS'/html/body/div/div/div/div/div/div/div/div/ol/li/address/strong'
p761
F9.965784284662087
sS'/html/body/div/div/div/div/div/div/div/div/div/div/div/div/div/span/span'
p762
F1.6303939299681622
sS'/html/body/div/div/div/div/div/div/div/div/div/div/ul/li/div/div/div/div/p'
p763
F9.965784284662087
sS'/html/body/div/div/div/div/div/div/div/div/div/div/div/ol/li/ol/li/div/div/div/ul/li/div/div/div/div/a/div/span/img'
p764
F9.965784284662087
s.