(dp0
S'/html/body/div/div/div/div/div/div/div/div/div/div/div/ol/li/ol/li/ul/li/span/div/div/div/div'
p1
F5.643856189774724
sS'/html/body/div/div/div/div/div/div/div/div/div/div/button/span/span/span/span'
p2
F3.6438561897747253
sS'/html/body/div/div/div/div/div/div/div/div/div/div/ul/li/div/div/div/section/div/div/div/div/div'
p3
F5.643856189774724
sS'/html/body/div/div/div/div/div/div/div/div/div/div/div/button/span/span'
p4
F0.02914634565951651
sS'/html/body/div/div/div/div/div/div/div/div/div/div/div/span/button/span'
p5
F1.3219280948873624
sS'/html/body/div/div/div/div/div/div/div/div/div/div/div/div/div/div/span/span/span/img'
p6
F6.643856189774725
sS'/html/body/div/div/div/div/div/div/div/div/div/p'
p7
F5.058893689053569
sS'/html/body/div/div/div/div/div/div/div/div/div/div/div/div/ul/li/a'
p8
F3.473931188332412
sS'/html/body/div/div/div/div/div/div/div/div/div/div/ul/li/div/table/tbody/tr/td/span/button'
p9
F3.473931188332412
sS'/html/body/div/div/div/div/div/div/div/div/div/div/div/h1/span/span/span/a'
p10
F0.9159357352115255
sS'/html/body/div/div/div/div/div/div/div/div/div/div/h2'
p11
F6.643856189774725
sS'/html/body/iframe'
p12
F4.643856189774724
sS'/html/body/div/div/div/div/div/div/div/div/div/div/ul/li/div/div/div/div/div/br'
p13
F2.643856189774725
sS'/html/body/div/div/div/div/div/div/div/div/div/div/div/div/div/div/div/p/span'
p14
F6.643856189774725
sS'/html/body/div/div/div/div/div/div/div/div/div/div/ul/li/span'
p15
F5.643856189774724
sS'/html/body/div/div/div/div/div/div/div/div/div/span/button/span/span'
p16
F5.643856189774724
sS'/html/head/link'
p17
F0.0
sS'/html/body/div/div/div/div/div/div/div/div/ul/li/div/form/span/input'
p18
F1.5563933485243855
sS'/html/body/div/div/div/p/span'
p19
F0.02914634565951651
sS'/html/body/div/div/div/div/div/div/div/div/div/div/ul/li/div/div/div/div/div/div/div/ul/li/div/div/div/h3/a'
p20
F1.7369655941662063
sS'/html/body/div/div/div/div/div/div/div/div/div/div/ul/li/a/span'
p21
F1.5994620704162712
sS'/html/body/div/div/div/div/div/div/div/div/div/div/div/div/ol/li/ol/li/div/div/div/div/h2/span'
p22
F6.643856189774725
sS'/html/body/div/div/div/div/div/div/div/div/div/div/div/div/span/span'
p23
F0.9159357352115255
sS'/html/body/div/div/div/div/div/div/div/div/div/div/ul/li/div/div/div/div/div/ul/li/div/div/div/a/span/span/span/span/span'
p24
F4.643856189774724
sS'/html/body/div/div/div/div/div/div/div/div/div/div/div/script'
p25
F1.7369655941662063
sS'/html/body/div/div/div/div/div/div/div/div/div/div/ul/li/div/div/div/section/div/div/div/div/div/div/div/div/button/span'
p26
F5.643856189774724
sS'/html/body/div/div/div/div/div/div/div/div/div/div/div/div/ol/li/ol/li/div/div/div/div/div/a/span'
p27
F6.643856189774725
sS'/html/body/div/div/div/div/div/div/div/div/div/div/div/div/h3/span/span'
p28
F6.643856189774725
sS'/html/body/div/div/div/div/div/div/div/div/div/div/div/div/div/div/div/div/div/div/div/span/span/button/span'
p29
F6.643856189774725
sS'/html/body/div/div/div/div/div/div/div/div/div/div/div/div/ol/li/ol/li/div/div/div/div/ul/li/div/div/div/span/button/span'
p30
F6.643856189774725
sS'/html/head/meta'
p31
F0.0
sS'/html/body/div/div/div/div/div/div/div/div/div/div/ul/li/ul/li/div/div/span/button/span/span'
p32
F5.643856189774724
sS'/html/body/div/div/div/div/div/div/div/div/div/div/div/ol/li/ol/li/ul/li/span/div/div/div/div/div/div/p/span'
p33
F5.643856189774724
sS'/html/body/div/div/div/div/div/div/div/div/div/div/ul/li/div/div/div/div/div/div/button/span/span'
p34
F1.6896598793878495
sS'/html/body/div/div/div/div/div/div/div/div/div/ul/li/span/div/h3/a/span/span'
p35
F1.8889686876112561
sS'/html/body/div/div/div/div/div/div/div/div/div/div/div/div/ul/li/a/span/span/span/button/ul/li/span'
p36
F2.8365012677171206
sS'/html/body/div/div/div/div/div/div/div/div/div/div/div/div/div/ul/li/div/span'
p37
F1.6438561897747248
sS'/html/body/div/div/div/div/div/div/div/div/div/strong'
p38
F6.643856189774725
sS'/html/body/div/div/div/div/div/div/div/div/div/div/div/div/ol/li/ol/li/div/div/div/div/div/div/span/button/span/span'
p39
F6.643856189774725
sS'/html/body/div/div/div/button/span'
p40
F0.0
sS'/html/body/div/div/div/div/div/div/div/div/div/div/ul/li/div/div'
p41
F1.4739311883324122
sS'/html/body/div/div/div/div/div/div/div/div/div/div/div/p/span'
p42
F1.3219280948873624
sS'/html/body/div/div/div/div/div/div/div/div/div/div/ul/li/div/table/tbody/tr/td/span/span/button/span'
p43
F3.473931188332412
sS'/html/body/div/div/div/div/div/div/div/div/div/div/div/div/span'
p44
F0.02914634565951651
sS'/html/body/div/div/div/div/div/div/div/div/div/div/div/div/ol/li/ol/li/div/div/div/div/div/div/a/span'
p45
F6.643856189774725
sS'/html/body/div/div/div/div/div/div/div/div/div/div/span/span/span'
p46
F1.3219280948873624
sS'/html/head/script'
p47
F0.0
sS'/html/body/div/div/div/div/div/form/div/input'
p48
F0.02914634565951651
sS'/html/body/div/div/div/div/div/div/div/div/div/div/div/div/ol/li/ol/li/div/div/div/div/ul/li/div/div/div/h3/a'
p49
F6.643856189774725
sS'/html/body/div/div/div/div/div/div/div/div/div/div/div/div/ol/li/ol/li/div/div/div/div/ul/li/div/div/div/span/button/ul/li/span'
p50
F6.643856189774725
sS'/html/body/div/div/div/div/div/div/div/div/div/ol/li/a/div/h4'
p51
F3.6438561897747253
sS'/html/body/div/div/div/div/div/div/div/div/div/div/ul/li/div/table/tbody/tr/td/div/a'
p52
F3.6438561897747253
sS'/html/body/div/div/div/div/div/div/div/div/div/div/span/span/div/div/div/div/div/div/div/p/span'
p53
F1.3219280948873624
sS'/html/body/div/div/div/div/div/div/div/div/div/div/ul/li/ul/li/div/div/a/span/span/span/img'
p54
F5.643856189774724
sS'/html/body/div/div/div/div/div/div/div/div/div/div/span/span/div/div/div/div/div/div/div'
p55
F1.3219280948873624
sS'/html/body/div/div/div/div/div/div/div/div/div/div/div/div/a'
p56
F3.473931188332412
sS'/html/body/div/div/div/div/div/div/div/div/div/ol/li/span'
p57
F3.6438561897747253
sS'/html/body/div/div/div/div/div/div/div/div/div/div/div/div/div/button'
p58
F6.643856189774725
sS'/html/body/div/div/div/div/div/div/div/div/span'
p59
F6.643856189774725
sS'/html/body/div/div/div/div/div/div/div/div/div/div/div/div/span/button/span/span'
p60
F0.9159357352115255
sS'/html/body/div/div/div/div/div/div/div/div/div/div/div/div/p'
p61
F6.643856189774725
sS'/html/body/div/div/div/div/div/div/div/div/div/div/ul/li/div/div/div/section/div/div/div/button'
p62
F5.643856189774724
sS'/html/body/div/div/div/div/div/div/div/div/div/div/div/div/ol/li/ol/li/div/div/div/div/div/button/span'
p63
F6.643856189774725
sS'/html/body/div/div/div/div/div/div/div/div/div/div/div/div/div/div/div/div/div/div/div/span/button'
p64
F6.643856189774725
sS'/html/body/div/div/div/div/div/div/div/div/div/a'
p65
F6.643856189774725
sS'/html/body/div/div/div/div/div/div/div/div/div/div/div/div/ul/li/a/span'
p66
F2.643856189774725
sS'/html/body/div/div/div/div/div/div/div/div/div/div/div/div/div/div/span/span/span/span'
p67
F6.643856189774725
sS'/html/body/div/div/div/div/div/div/div/div/div/div/div/ol/li/ol/li/div/a'
p68
F6.643856189774725
sS'/html/body/div/div/div/div/div/div/div/div/div/div/ul/li/div/div/div/div/div/div/div/ul/li/div/div/div/a/span/span/span/button/ul/li/span'
p69
F3.6438561897747253
sS'/html/body/div/div/div/div/div/div/div/div/div/div/ul/li/div/div/div/div/div/ul/li/div/div/div/span/a/span/span/span/span'
p70
F3.3219280948873626
sS'/html/body/div/div/div/div/div/div/div/div/div/div/div/div/ol/li/ol/li/div/div/div/div/div/div/span/span'
p71
F6.643856189774725
sS'/html/body/div/div/div/div/div/div/div/div/div/div/ul/li/div/div/div'
p72
F2.321928094887362
sS'/html/body/div/div/div/div/div/div/div/div/style'
p73
F0.9159357352115255
sS'/html/body/div/div/div/div/div/div/div/ul/li/div/a/span'
p74
F0.7858751946471525
sS'/html/body/div/div/div/div/div/div/div/div/div/div/img'
p75
F2.2515387669959646
sS'/html/body/div/div/div/div/div/div/div/div/div/div/ul/li/div/div/h3'
p76
F6.643856189774725
sS'/html/body/div/div/div/div/div/div/div/div/div/div/div/div/ol/li/ol/li/div/div/div/div/ul/li/div/div/div/h3/span'
p77
F6.643856189774725
sS'/html/body/div/div/div/div/div/div/div/div/div/div/div/div/form/div/span/input'
p78
F6.643856189774725
sS'/html/body/div/div/div/div/div/div/div/div/div/div/div/div/div/div/div/div/div/div'
p79
F6.643856189774725
sS'/html/body/div/div/div/div/div/div/div/div/div/div/ul/li/div/table/tbody/tr/td/span/a/span/span/span/img'
p80
F3.473931188332412
sS'/html/body/div/div/div/div/div/div/div/div/div/div/ul/li/button/ul/li/span'
p81
F3.473931188332412
sS'/html/body/div/div/div/div/div/div/div/div/div/div/ul/li/div/table/tbody/tr/td/span/a/span/span/span/span'
p82
F3.473931188332412
sS'/html/body/div/div/div/div/div/div/div/div/div/div/ul/li/div/div/div/div/div/ul/li/div/div/div/a/span/span/span/span'
p83
F4.643856189774724
sS'/html/body/div/div/div/div/div/div/div/div/div/div/ul/li/div/div/div/div/div/ul/li/div/div/div/ul/li/h4/a'
p84
F5.643856189774724
sS'/html/body/div/div/div/div/div/div/div/div/button/span'
p85
F6.643856189774725
sS'/html/body/div/div/div/div/div/div/div/div/div/div/ul/li/div/div/div/section/div/div/div'
p86
F6.643856189774725
sS'/html/body/div/div/div/div/div/div/div/div/div/ul/li/span/div/h3/a'
p87
F2.0588936890535687
sS'/html/body/div/div/div/div/div/div/div/div/div/div/div/div/ol/li/ol/li/div/div/div/div/div/div/a'
p88
F6.643856189774725
sS'/html/body/div/div/div/div/div/div/div/div/div/div/ul/li/div/div/div/section/div/div/div/div/a/span/span/span/span'
p89
F5.643856189774724
sS'/html/body/div/div/div/div/div/div/div/div/div/div/ul/li/div/div/h2/span'
p90
F5.643856189774724
sS'/html/body/div/div/div/div/div/div/div/div/div/div/ul/li/ul/li/div/div/div/h3/span'
p91
F4.643856189774724
sS'/html/body/div/div/div/div/div/div/div/div/div/div/ul/li/ul/li/div/div/span/span'
p92
F5.643856189774724
sS'/html/body/div/div/div/div/div/div/div/div/div/div/div/div/div/div/div/div/div'
p93
F6.643856189774725
sS'/html/body/div/div/div/div/div/div/div/div/div/button/span'
p94
F1.3219280948873624
sS'/html/body/div/div/div/div/div/div/div/div/div/div/ul/li/div/div/div/section/div/div/div/div/div/button/span'
p95
F5.643856189774724
sS'/html/body/div/div/div/div/div/div/div/div/div/div/div/div/ol/li/ol/li/div/div/div/div/div/div/h3/span'
p96
F6.643856189774725
sS'/html/body/div/div/div/div/div/div/div/div/div/div/ul/li/div/div/div/section/div/div/div/div/a/span/span/span/img'
p97
F5.643856189774724
sS'/html/body/div/div/div/a/span/span'
p98
F0.0
sS'/html/body/div/div/div/div/div/div/div/div/div/div/ul/li/div/table/tbody/tr/td/span/button/span'
p99
F3.473931188332412
sS'/html/body/div/div/div/div/div/div/div/div/div/div/span/span/div/div/div/span'
p100
F1.3219280948873624
sS'/html/body/div/div/div/div/div/div/div/div/div/div/div/div/div/div/div/div/div/div/span/span/button/ul/li/span'
p101
F6.643856189774725
sS'/html/body/div/div/div/div/div/div/div/div/div/div/div/div/div/div/div/div/div/div/div'
p102
F6.643856189774725
sS'/html/body/div/div/div/div/div/div/div/div/div/div/div/div/div/div/div/div/div/h1/span/span/span/a'
p103
F6.643856189774725
sS'/html/body/div/div/div/div/div/div/div/div/div/div/div/div/div/ul/li/span/div/h3'
p104
F1.3219280948873624
sS'/html/body/div/div/div/div/div/div/div/div/div/div/ul/li/a/span/span'
p105
F3.473931188332412
sS'/html/body/div/div/div/div/form/button/span'
p106
F5.643856189774724
sS'/html/body/div/div/div/div/div/div/div/div/div/div/div/ol/li/ol/li/div/div/div/ul/li/div/div/div/div/button'
p107
F6.643856189774725
sS'/html/body/div/div/div/div/div/div/div/div/div/div/ul/li/div/div/div/button/span'
p108
F4.321928094887363
sS'/html/body/div/div/div/div/div/a/span'
p109
F0.02914634565951651
sS'/html/body/div/div/div/div/div/div/div/div/div/div/ul/li/div/div/div/div/div/div/div/ul/li/div/div/div/div/span'
p110
F1.9434164716336328
sS'/html/body/div/div/div/div/div/div/div/div/div/div/ul/li/div/div/div/div/div/ul/li/div/div/div/h3/span'
p111
F2.9434164716336326
sS'/html/body/div/div/div/div/div/div/img'
p112
F1.3219280948873624
sS'/html/body/div/div/div/div/div/div/div/div/div/div/ul/li/div/div/div/div/div/div/div/ul/li/div/div/h3/a'
p113
F4.321928094887363
sS'/html/body/div/div/div/div/div/div/div/div/div/div/div/strong'
p114
F1.3219280948873624
sS'/html/body/div/div/div/div/div/div/div/div/div/div/div/div/ol/li/ol/li/div/div/div/div/ul/li/div/div/div/div/ul/li'
p115
F6.643856189774725
sS'/html/body/div/div/div/div/div/div/div/div/div/div/ul/li/div/div/div/div/div/div/div/ul/li/div/div/div/a/span/span/span/span/span/img'
p116
F6.643856189774725
sS'/html/body/div/span/meta'
p117
F1.1844245711374277
sS'/html/body/div/div/div/div/div/div/div/div/div/div/div/div/ol/li/ol/li/div/div/div/div/div/div/button/span'
p118
F6.643856189774725
sS'/html/body/div/div/div/div/div/div/div/div/div/div/ul/li/div/div/button/span/span/span/span'
p119
F5.643856189774724
sS'/html/body/div/div/div/div/div/div/div/div/div/div/div/div/div/a/span'
p120
F3.473931188332412
sS'/html/body/div/div/div/div/div/div/div/div/div/div/ul/li/div/div/div/div/div/button/span'
p121
F3.0588936890535687
sS'/html/body/div/div/div/div/div/div/div/div/div/div/ul/li/div/div/div/section/div/div/div/div'
p122
F5.643856189774724
sS'/html/body/span/link'
p123
F1.1844245711374277
sS'/html/body/div/div/div/div/div/div/div/div/div/div/span/button/ul/li/span'
p124
F0.02914634565951651
sS'/html/body/div/div/div/div/div/div/div/div/span/meta'
p125
F1.3219280948873624
sS'/html/body/div/div/div/div/div/div/div/div/div/div/div/div/div/div/div/div/div/div/span/a/span/span/span/img'
p126
F6.643856189774725
sS'/html/body/div/div/div/div/div/div/div/div/div/div/div/div/button/span/span/span/span'
p127
F6.643856189774725
sS'/html/body/div/div/div/div/div/div/div/div/div/div/ul/li/span/div/h3/span'
p128
F6.643856189774725
sS'/html/body/div/div/div/div/div/div/div/div/div/div/ul/li/div/div/div/div/div/ul/li/div/div'
p129
F2.8365012677171206
sS'/html/body/div/div/div/div/div/div/div/div/div/div/ul/li/div/div/div/div/div/div/div/ul/li/div/div/div/span/span/span'
p130
F1.8365012677171209
sS'/html/body/div/div/div/div/div/div/div/div/div/div/span/span/button/span/span'
p131
F1.3219280948873624
sS'/html/body/div/div/div/div/div/div/div/div/div/div/ul/li/div/div/div/div/div/ul/li/div/div/div/h3/a'
p132
F2.8365012677171206
sS'/html/body/div/div/div/div/div/div/div/div/div/div/div/span/span/div/div'
p133
F1.3219280948873624
sS'/html/body/div/div/div/div/div/div/div/div/div/div/div/div/ol/li/ol/li/div/div/div/div/div/div/button'
p134
F6.643856189774725
sS'/html/body/div/div/div/div/div/div/div/div/div/button'
p135
F1.3219280948873624
sS'/html/body/div/div/div/div/div/div/div/div/p/a'
p136
F6.643856189774725
sS'/html/body/div/div/div/div/div/div/div'
p137
F1.2515387669959643
sS'/html/body/div/div/div/div/div/div/div/div/div/div/ul/li/div/div/div/div/div/ul/li/div/div/div/div/br'
p138
F3.6438561897747253
sS'/html/body/div/div/div/div'
p139
F0.02914634565951651
sS'/html/body/div/div/div/div/div/div/ul/li/h2'
p140
F1.0892673380970874
sS'/html/body/div/div/div/ul/li/button/span'
p141
F0.0
sS'/html/body/div/div/div/div/div/div/div/div/div/div/ul/li/ul/li/div/div/div/span/button'
p142
F4.643856189774724
sS'/html/body/div/div/div/div/div/div/div/div/div/div/div/div/div/p/a'
p143
F1.3584539709124765
sS'/html/body/div/div/div/div/div/div/div/div/div/ol/li/ul/li'
p144
F6.643856189774725
sS'/html/body/div/div/div/div/div/div/div/div/div/div/div/div/div/p/span'
p145
F6.643856189774725
sS'/html/body/div/div/div/div/div/div/div/div/div/div/ul/li/button/span'
p146
F3.473931188332412
sS'/html/body/div/div/div/div/div/div/div/div/div/div/ul/li/div/div/div/div/div/div/div/ul/li/div/div/div/span/span'
p147
F6.643856189774725
sS'/html/body/div/div/div/div/div/div/div/div/div/div/ul/li/div/div/div/section/div/div/div/button/span/span'
p148
F5.643856189774724
sS'/html/body/div/div/div/div/div/div/div/div/div/div/ul/li/div/div/div/div/div/div/div/ul/li/div/div/div/a/span/span/span/span'
p149
F3.6438561897747253
sS'/html/body/div/div/div/div/div/div/div/div/div/div/ul/li/ul/li/div/div/h3/a/span/span'
p150
F5.643856189774724
sS'/html/body/div/div/div/div/div/div/div/ul/li/div/ul/li/a/span/span'
p151
F0.7858751946471525
sS'/html/body/div/div/div/div/div/div/div/div/div/div/ul/li/div/button/span/span'
p152
F4.643856189774724
sS'/html/body/div/div/div/div/div/div/div/div/div/ol/li/a/span/span/span/img'
p153
F3.6438561897747253
sS'/html/body/div/div/div/div/div/div/div/div/div/div/div/div/script'
p154
F6.643856189774725
sS'/html/body/div/div/div/div/div/div/div/div/div/div/ul/li/div/div/div/section/div/div/div/span/span'
p155
F6.643856189774725
sS'/html/body/div/div/div/div/div/div/div/div/div/div/div/ol/li/ol/li/ul/li/span/div/div/div/div/div/div/button/span'
p156
F5.643856189774724
sS'/html/body/div/div/div/div/div/div/div/div/div/div/span'
p157
F0.02914634565951651
sS'/html/body/div/div/div/div/div/div/div/div/div/div/ul/li/div/div/div/div/div/div/div/ul/li/div/div/div/span/span/button/span'
p158
F1.8365012677171209
sS'/html/body/div/div/div/div/div/div/div/button/span/span'
p159
F1.3219280948873624
sS'/html/body/div/div/div/div/div/div/div/div/div/div/ul/li/div/div/div/div/button/span'
p160
F5.643856189774724
sS'/html/body/div/div/div/div/div/div/div/div/div/div/ul/li/div/div/div/div/div/ul/li/div/div/div/span/button/span'
p161
F3.3219280948873626
sS'/html/body/div/div/div/div/div/div/div/div/div/div/ul/li/div/div/button/span/span'
p162
F5.643856189774724
sS'/html/body/div/div/div/div/div/div/div/div/div/div/div/div/ol/li/ol/li/div/div/div/div/div/div/span/button/ul/li/span'
p163
F6.643856189774725
sS'/html/body/div/div/div/div/div/div/div/div/div/ul/li/span/div/a/span/span/span/span'
p164
F1.8889686876112561
sS'/html/body/div/div/div/div/div/div/div/div/div/ol/li/a'
p165
F6.643856189774725
sS'/html/body/div/div/div/div/div/div/div/div/div/div/div/ol/li/ol/li/div/div/div/ul/li/div/div/div/div/a/span'
p166
F6.643856189774725
sS'/html/body/div/div/div/div/div/div/div/div/div/div/ul/li/div/div/div/div/div/div/div/ul/li/a/h4/span'
p167
F1.7369655941662063
sS'/html/body/div/div/div/div/div/div/div/div/div/div/div/div/div/div/div/div/div/div/span/button/span'
p168
F6.643856189774725
sS'/html/body/div/div/div/div/div/div/div/div/div/div/ul/li/div/div/ul/li/b'
p169
F6.643856189774725
sS'/html/body/div/div/div/div/div/div/div/div/div/div/ul/li/div/div/ul/li/a/span'
p170
F5.058893689053569
sS'/html/body/div/div/div/div/div/div/div/span'
p171
F1.3219280948873624
sS'/html/body/div/div/div/div/div/div/div/div/div/div/ul/li/div/div/div/div/div/div/div/ul/li/div/div/div/a/span/span/button'
p172
F3.6438561897747253
sS'/html/body/div/div/div/div/div/div/div/div/div/div/ul/li/div/div/div/section/div/div/div/div/button/span'
p173
F6.643856189774725
sS'/html/body/div/div/div/div/div/div/div/div/div/div/div/div/ol/li/ol/li/div/div/div/div/div/div/div/ul/li'
p174
F6.643856189774725
sS'/html/body/div/div/div/div/div/div/div/div/div/div/div/div/div/span/span/button/span'
p175
F3.473931188332412
sS'/html/body/div/div/div/div/div/div/div/div/div/div/div/div/ol/li/ol/li/div/div/div/div/div/a/div/span/img'
p176
F6.643856189774725
sS'/html/body/div/div/div/div/div/div/div/div/div/div/div/div/button/span/span'
p177
F6.643856189774725
sS'/html/body/div/div/div/div/div/div/div/div/div/div/ul/li/div/div/div/div/div/div/div/ul/li/div/div/h3/a/span/span'
p178
F4.058893689053568
sS'/html/body/div/div/div/div/div/div/div/div/div/div/ul/li/div/div/div/div/div/ul/li/div/div/div/div'
p179
F4.058893689053568
sS'/html/body/div/div/div/div/div/div/div/div/div/div/div/div/ol/li/ol/li/div/div/div/div/ul/li/div/div/div/a/span'
p180
F6.643856189774725
sS'/html/body/div/div/div/div/div/div/div/div/div/div/a/span/span/span/img'
p181
F1.3219280948873624
sS'/html/body/div/div/div/div/div/div/div/div/div/div/ul/li/div/div/div/div/div/div/div/ul/li/div/div/div/span/a/span/span/span/span'
p182
F1.8365012677171209
sS'/html/body/div/div/div/div/div/div/div/div/div/div/ul/li/ul/li/div/div/h3/span'
p183
F5.643856189774724
sS'/html/body/div/div/div/div/div/div/div/div/div/div/div/div/ol/li/ol/li/div/div/div/div/ul/li/div/div/div/button'
p184
F6.643856189774725
sS'/html/body/div/div/div/div/div/div/div/div/ul/li/div/button/span'
p185
F1.5563933485243855
sS'/html/body/div/div/div/div/div/div/div/div/div/div/div/span'
p186
F0.02914634565951651
sS'/html/body/div/div/div/div/div/div/div/div/div/div/ul/li/div/div/ul/li/a/img'
p187
F5.058893689053569
sS'/html/body/div/div/div/div/div/div/div/div/div/div/div/h1/span/a/span'
p188
F2.0
sS'/html/body/div/div/div/div/div/div/div/ul/li/hr'
p189
F0.7858751946471525
sS'/html/body/div/div/div/div/div/div/div/div/div/div/ul/li/div/div/div/div/div/div'
p190
F2.321928094887362
sS'/html/body/div/div/div/div/div/div/div/div/div/p/a'
p191
F4.643856189774724
sS'/html/body/div/div/div/div/div/div/div/div/div/div/ul/li/div/div/div/div/div/div/div/ul/li/div/div/a/span/span/span/span'
p192
F3.8365012677171206
sS'/html/body/div/div/div/div/div/div/div/div/div/div/div/div/ol/li/ol/li/div/div/div/div/h2/a/div/div/span/img'
p193
F6.643856189774725
sS'/html/body/div/div/div/div/div/div/div/div/div/div/div/div/div/div/div/div/a/span/span/span/span'
p194
F6.643856189774725
sS'/html/body/div/div/div/div/div/div/div/div/div/div/ul/li/div/div/div/div/div/h2/a/span'
p195
F1.7369655941662063
sS'/html/body/div/div/div/div/div/div/div/div/div/div/ul/li/div/div/div/div/div/div/div/ul/li/div/div/div/div/ul'
p196
F3.473931188332412
sS'/html/body/div/div/div/div/div/div/div/div/div/div/div/div/ul/li/a/span/span/span/span/span/b'
p197
F2.8365012677171206
sS'/html/body/div/div/div/div/div/div/div/div/div/div/div/div/ul/li/div/a/span/img'
p198
F1.3219280948873624
sS'/html/body/div/div/div/div/div/div/div/div/div/div/div/div/ol/li/ol/li/div/div/div/div/ul/li/div/div/div/a/div/span/img'
p199
F6.643856189774725
sS'/html/body/div/div/div/div/div/div/div/div/div/div/div/span/span/button/span'
p200
F1.3219280948873624
sS'/html/body/div/div/div/div/div/div/div/div/div/div/div/ol/li/ol/li/ul/li/span/span/button/span'
p201
F5.643856189774724
sS'/html/body/div/div/div/div/div/div/div/div/div/div/div/div/div/div/div'
p202
F6.643856189774725
sS'/html/body/div/div/div/div/div/div/div/div/div/div/div/div/ul/button/span'
p203
F1.3584539709124765
sS'/html/body/div/div/div/div/div/div/div/div/div/div/div/div/ol/li/ol/li/div/div/div/div/div/div/a/div/span/img'
p204
F6.643856189774725
sS'/html/body/div/div/div/div/div/div/div/div/div/div/ul/li/ul/li/div/div/div/span/button/span'
p205
F4.643856189774724
sS'/html/body/div/div/div/div/div/div/div/div/div/div/div/h1/span/span/span'
p206
F2.395928676331139
sS'/html/body/div/div/div/div/div/div/div/div/div/div/ul/li/div/table/tbody/tr/td'
p207
F3.473931188332412
sS'/html/body/div/div/div/div/div/div/div/div/div/div/ul/li/ul/li/div/div/div/span/a/span/span/span/span'
p208
F4.643856189774724
sS'/html/body/div/div/div/div/div/div/div/div'
p209
F1.286304185156641
sS'/html/body/div/div/div/div/div/div/div/div/div/div/div/div/ol/li/ol/li/div/div/div/div/ul/li/div/div/div/div/a'
p210
F6.643856189774725
sS'/html/body/div/div/div/div/div/div/div/div/div/div/div/div/div/div/div/div/div/div/p/span'
p211
F6.643856189774725
sS'/html/body/div/div/div/div/div/div/div/div/div/h3'
p212
F5.058893689053569
sS'/html/body/div/div/div/div/div/div/div/div/div/h2'
p213
F1.8365012677171209
sS'/html/body/div/div/div/div/div/div/div/div/div/div/ul/li/div/div/div/div/div/div/div/ul/li/div/div/div/span/a/span/span/span/img'
p214
F1.8365012677171209
sS'/html/body/div/div/div/div/div/div/div/div/div/div/div/div/div/div/div/div/div/div/div/span/a/span/span/span/img'
p215
F6.643856189774725
sS'/html/body/div/div/div/div/div/div/div/div/div/div/div/div/div/div/div/div/div/h1/span/a/span'
p216
F6.643856189774725
sS'/html/body/div/div/div/div/div/div/div/div/div/ul/li/span/div/div/span/span'
p217
F1.8889686876112561
sS'/html/body/div/span/link'
p218
F1.1844245711374277
sS'/html/body/div/div/div/div/div/a/img'
p219
F6.643856189774725
sS'/html/body/div/meta'
p220
F1.1844245711374277
sS'/html/body/div/div/div/div/div/div/div/div/div/div/div/ol/li/ol/li/ul/li/span/div/div/div/div/div/div'
p221
F5.643856189774724
sS'/html/body/div/div/div/div/div/div/div/div/div/div/div/ol/li/ol/li/ul/li/span/div/div/div/div/div/p'
p222
F5.643856189774724
sS'/html/body/div/div/a'
p223
F0.0
sS'/html/body/div/div/div/div/div/div/div/div/div/div/div/div'
p224
F0.5145731728297582
sS'/html/body/style'
p225
F1.1844245711374277
sS'/html/body/div/div/div/div/div/div/div/div/ul/li/a/span'
p226
F0.9159357352115255
sS'/html/body/div/div/div/div/div/div/div/div/div/div/div/div/ul/li/div/a/span/span'
p227
F1.3219280948873624
sS'/html/body/div/div/div/div/div/div/div/ul/li/div/ul/li/a/span/span/span/span/span/img'
p228
F0.7858751946471525
sS'/html/body/div/div/div/div/div/div/div/div/div/div/div/div/div/div/div/div/div/div/div/span/span'
p229
F6.643856189774725
sS'/html/body/div/div/div/div/div/div/div/div/div/div/ul/li/div/table/tbody/tr/td/div/span'
p230
F6.643856189774725
sS'/html/body/div/div/div/div/div/div/div/div/div/div/div/div/ul/li/div/a/span'
p231
F1.3219280948873624
sS'/html/body/div/div/div/div/div/div/div/div/div/ol/li/a/span/span/span/span'
p232
F3.6438561897747253
sS'/html/body/div/div/div/div/div/div/div/div/div/div/div/div/div/span/input'
p233
F1.6438561897747248
sS'/html/body/div/div/div/div/div/form/button/span'
p234
F0.02914634565951651
sS'/html/body/div/div/div/button'
p235
F0.02914634565951651
sS'/html/body/div/div/div/div/div/div/div/div/div/div/div/div/ol/li/ol/li/div/div/div/div/ul/li/div/div/div/button/span'
p236
F6.643856189774725
sS'/html/body/div/div/div/div/div/div/div/div/div/div/ul/li/span/div/div/span/button/span/span'
p237
F6.643856189774725
sS'/html/body/div/div/div/div/div/div/div/div/div/div/ul/li/div/div/div/div/div/ul/li/div/div/div/span/span/button/ul/li/span'
p238
F3.3219280948873626
sS'/html/body/div/div/div/h3'
p239
F0.02914634565951651
sS'/html/body/div/div/div/div/div/div/div/div/div/div/ul/script'
p240
F1.1844245711374277
sS'/html/body/div/div/div/div/div/div/div/div/div/div/div/div/ol/li/ol/li/div/div/div/div/div/h3/span'
p241
F6.643856189774725
sS'/html/body/div/div/div/div/div/div/div/div/div/div/ul/li/div/div/div/section/div/div/div/div/div/div/div/a'
p242
F6.643856189774725
sS'/html/body/div/div/div/div/div/div/div/div/div/div/div/ol/li/ol/li/div/div/div/ul/li/div/div/div/div/div/br'
p243
F6.643856189774725
sS'/html/body/div/div/div/div/div/div'
p244
F0.01449956969511517
sS'/html/body/div/div/div/div/div/div/div/div/div/div/ul/li/div/div/div/div/div/div/div/ul/li/div/div/div/span/span/button/ul/li/span'
p245
F1.8365012677171209
sS'/html/body/div/div/div/div/div/div/div/div/div/div/div/div/ul/li/a/span/span/span/span/img'
p246
F2.8365012677171206
sS'/html/body/div/div/div/div/div/div/div/div/div/ol/li/a/div/span/span'
p247
F3.6438561897747253
sS'/html/body/div/div/div/ul/li/span'
p248
F6.643856189774725
sS'/html/body/div/div/div/div/div/div/div/div/div/div/div/div/ol/li/ol/li/div/div/div/button/span/span'
p249
F6.643856189774725
sS'/html/body/div/div/div/div/div/div/div/div/div/div/div/ol/li/ol/li/div/div/div/ul/li/div/div/div/div/h3/span'
p250
F6.643856189774725
sS'/html/body/div/div/div/div/div/div/div/div/div/div/ul/li/div/div/div/section/div/div/div/button/span'
p251
F5.643856189774724
sS'/html/body/div/div/div/div/div/div/div/div/div/div/div/ol/li/ol/li/ul/li/button/span'
p252
F5.643856189774724
sS'/html/body/div/div/div/div/div/div/div/div/div/div/div/div/div/div/div/div/div/p/span'
p253
F6.643856189774725
sS'/html/body/div/div/div/div/div/div/div/div/div/div/div/div/div/div/div/div/p'
p254
F6.643856189774725
sS'/html/body/div/div/div/ul/li/a'
p255
F0.0
sS'/html/body/div/div/div/button/span/span'
p256
F0.0
sS'/html/body/div/div/div/div/div/div/div/div/div/div/ul/li/div/div/div/div/div/ul/li/div/div/div/a/span/span/span/span/span/b'
p257
F4.643856189774724
sS'/html/body/div/div/div/div/div/div/div/div/div/div/ul/li/div/div/div/div/div/ul/li/div/div/div/span/a/span/span/span/img'
p258
F3.3219280948873626
sS'/html/body/div/div/div/div/div/div/div/div/div/div/ul/li/div/div/div/div/div/h2/a/span/span/span/img'
p259
F3.8365012677171206
sS'/html/body/div/div/div/div/div/div/div/div/link'
p260
F1.3219280948873624
sS'/html/body/div/div/div/div/div/div/p/span'
p261
F0.02914634565951651
sS'/html/body/div/div/div/div/div/div/div/div/div/div/h3'
p262
F0.02914634565951651
sS'/html/body/div/div/div/div/div/div/div/div/div/div/div/h2'
p263
F2.643856189774725
sS'/html/body/div/div/div/div/div/div/div/div/div/div/ul/li/span/div/h3/a'
p264
F6.643856189774725
sS'/html/body/div/div/div/div/div/div/div/div/div/div/ul/li/span/div/a/span/span/span/span'
p265
F6.643856189774725
sS'/html/body/div/div/div/div/div/span/a/span'
p266
F1.3219280948873624
sS'/html/body/div/div/div/div/div/div/div/div/meta'
p267
F1.3219280948873624
sS'/html/body/div/div/div/div/div/div/div/div/div/div/div/div/div/div/div/div/a/span/span/span/img'
p268
F6.643856189774725
sS'/html/body/div/div/div/div/div/div/div/div/div/div/div/div/ul/li'
p269
F3.473931188332412
sS'/html/body/span/meta'
p270
F1.1844245711374277
sS'/html/body/div/div/div/div/div/div/div/div/div/div/ul/li/div/div/div/div/div/ul/li/div/div/div/a/span/span/button'
p271
F4.643856189774724
sS'/html/body/div/div/div/div/div/div/div/div/div/div/div/div/div/span/div/a/span'
p272
F3.473931188332412
sS'/html/body/div/div/div/div/div/div/div/div/div/div/ul/li/div/div/div/div/span'
p273
F2.321928094887362
sS'/html/body/div/div/div/div/div/div/div/div/div/div/span/span/div/div/div/div/div'
p274
F1.3219280948873624
sS'/html/body/div/div/div/div/div/div/div/div/div/div/div/span/div/h3'
p275
F1.3219280948873624
sS'/html/body/div/div/div/div/div/div/div/div/div/div/div/ul/li/span'
p276
F3.6438561897747253
sS'/html/body/div/div/div/div/div/div/div/div/div/div/div/ol/li/ol/li/div/div/div/ul/li/div/div/div/div/div/span'
p277
F6.643856189774725
sS'/html/body/div/div/div/div/div/div/div/div/div/div/ul/li/div/div/div/div/div/ul/li/div/div/div/div/a'
p278
F3.0588936890535687
sS'/html/body/script'
p279
F0.0
sS'/html/body/div/div/div/div/div/div/div/div/div/div/div/ol/li/ol/li/div/div'
p280
F6.643856189774725
sS'/html/body/div/form/input'
p281
F0.0
sS'/html/body/div/div/div/div/div/div/div/div/div/div/div/hr'
p282
F1.6438561897747248
sS'/html/body/div/div/div/div/div/div/div/div/div/div/div/ol/li/ol/li/ul/li/span/div/div/div/div/div/div/div/p/span'
p283
F5.643856189774724
sS'/html/body/div/div/div/div/div/div/div/div/div/div/div/div/div/ul/li/span/div/div'
p284
F1.3219280948873624
sS'/html/body/div/div/div/div/div/div/div/div/div/div/div/div/ol/li/ol/li/div/div/div/div/div/span/button/ul/li/span'
p285
F6.643856189774725
sS'/html/body/div/div/div/div/div/div/div/div/div/div/div/div/ul/li/a/span/span'
p286
F5.058893689053569
sS'/html/body/div/div/div/div/div/div/div/div/div/div/ul/li/ul/li/div/div'
p287
F4.643856189774724
sS'/html/body/div/div/div/div/div/div/div/img'
p288
F1.3219280948873624
sS'/html/body/div/div/div/div/div/div/div/div/div/div/div/div/ol/li/ol/li/div/div/div/div/div'
p289
F6.643856189774725
sS'/html/body/div/div/div/div/div/div/div/button/span'
p290
F1.3219280948873624
sS'/html/body/div/div/div/div/div/div/div/div/div/div/ul/li/div/div/div/div/div/div/div/ul/li/div/div'
p291
F1.7369655941662063
sS'/html/body/div/div/div/div/div/div/div/div/div/ol/li'
p292
F6.643856189774725
sS'/html/body/div/div/div/div/div/div/div/div/div/div/ul/li/div/div/div/section/div/div/a/span/span/span/span'
p293
F6.643856189774725
sS'/html/body/div/div/div/div/div/div/div/div/div/div/ul/li/div/div/div/div/div'
p294
F1.5145731728297582
sS'/html/body/div/div/div/div/div/div/div/div/div/script'
p295
F3.6438561897747253
sS'/html/body/div/div/div/div/div/div/div/div/div/div/div/ol/li/ol/li/div/div/div/ul/li/div/div/div/div/div/a'
p296
F6.643856189774725
sS'/html/body/div/div/div/div/div/div/div/div/div/div/div/div/h4'
p297
F1.6438561897747248
sS'/html/body/div/div/div/div/div/div/div/div/div/div/div/div/h1'
p298
F3.473931188332412
sS'/html/body/div/div/div/div/div/div/div/div/div/div/ul/li/div/div/div/div/div/ul/li/a/h4/span'
p299
F3.3219280948873626
sS'/html/body/div/div/div/div/div/div/div/div/div/div/ul/li/div/div/div/div/div/ul/li/div/div/div/span/span/span'
p300
F3.473931188332412
sS'/html/body/div/div/div/div/div/div/div/div/div/a/img'
p301
F0.9159357352115255
sS'/html/body/div/div/div/div/div/div/div/div/div/div/div/div/ol/li/ol/li/div/div/div/div/h2/span/b/a'
p302
F6.643856189774725
sS'/html/body/div/div/button'
p303
F5.643856189774724
sS'/html/body/div/div/div/div/div/div/div/div/div/div/ul/li/div/div/div/section/div/a/span/span/span/img'
p304
F5.643856189774724
sS'/html/body/div/div/div/div/div/button/span/span'
p305
F0.02914634565951651
sS'/html/body/div/div/div/div/div/div/div/div/div/div/div/ol/li/ol/li/div/div/div/ul/li/div/div/div/div/span/button/ul/li/span'
p306
F6.643856189774725
sS'/html/body/div/div/div/div/div/div/div/div/div/div/div/div/ul/li/a/span/span/span/span'
p307
F2.8365012677171206
sS'/html/body/div/div/div/div/div/div/div/div/div/div/ul/li/div/div/div/section/div/div/div/span'
p308
F5.643856189774724
sS'/html/body/div/div/div/div/div/div/div/div/div/div/div/span/span/div/a/span'
p309
F1.3219280948873624
sS'/html/body/div/div/div/div/p/span'
p310
F0.0
sS'/html/body/div/div/div/div/div/div/div/div/div/div/div/ol/li/ol/li/div/div/div/div/h2/span'
p311
F6.643856189774725
sS'/html/body/div/div/div/div/div/div/div/div/div/div/div/div/div/div/div/div/div/div/div/span/button/span'
p312
F6.643856189774725
sS'/html/body/div/div/div/div/div/div/div/div/div/div/div/div/ol/li/ol/li/div/div/div/div/div/div/ul/li'
p313
F6.643856189774725
sS'/html/body/div/div/div/div/div/div/div/div/div/div/div/div/div/strong'
p314
F1.3219280948873624
sS'/html/body/div/div/div/div/div/div/div/div/div/div/ul/li/div/div/div/section/div/div/div/button/span/span/span/span'
p315
F5.643856189774724
sS'/html/body/div/div/div/div/div/div/div/div/div/div/div/div/div/ul/li/ul/li'
p316
F1.3219280948873624
sS'/html/body/div/div/div/div/div/div/div/div/div/div/span/span/div/div/div/div/div/div/div/div'
p317
F1.3219280948873624
sS'/html/body/div/div/div/div/div/div/div/div/div/div/ul/li/div/div/div/div'
p318
F2.1202942337177118
sS'/html/body/div/div/div/div/div/div/div/div/div/div/div/div/div/span/div/h3'
p319
F3.473931188332412
sS'/html/body/div/div/div/div/div/div/div/div/div/div/div/div/span/div/div/div/span'
p320
F1.5563933485243855
sS'/html/body/div/div/div/div/div/div/div/div/div/div/ul/li/ul/li/div/div/div/div/ul/li'
p321
F4.643856189774724
sS'/html/body/div/div/div/div/div/div/div/div/div/div/div/div/div/div/div/div/div/div/div/span/a/span/span/span/span'
p322
F6.643856189774725
sS'/html/body/div/div/div/div/div/div/div/div/div/div/div/div/span/div/div/div/div/div/div/div'
p323
F1.5563933485243855
sS'/html/body/div/div/div/div/div/div/div/div/div/div/div/div/h3/span/a/span'
p324
F6.643856189774725
sS'/html/body/div/div/div/div/div/div/div/div/div/div/ul/li/button/span/span/span/span'
p325
F4.643856189774724
sS'/html/body/div/div/div/div/div/div/div/ol/li/a'
p326
F6.643856189774725
sS'/html/body/div/div/div/div/div/div/div/div/div/ul/li/span/div/h3/span'
p327
F1.8889686876112561
sS'/html/body/div/div/div/div/div/div/ul/li/a/span'
p328
F0.8365012677171206
sS'/html/body/div/div/div/div/div/div/div/div/div/div/div/div/div/div/div/div/div/div/span/button'
p329
F6.643856189774725
sS'/html/body/div/div/div/div/div/div/div/div/div/div/div/div/span/div/div/div/div/div/div/div/p/span'
p330
F1.5563933485243855
sS'/html/body/div/div/div/div/div/div/div/div/div/div/ul/li/div/div/span'
p331
F4.321928094887363
sS'/html/body/div/div/div/div/div/div/div/div/p/span'
p332
F5.643856189774724
sS'/html/body/div/div/div/div/div/div/div/div/div/div/div/div/div/div/div/a/span/span/span/span'
p333
F6.643856189774725
sS'/html/body/div/div/div/div/div/div/div/div/div/div/ul/li/div/div/div/div/div/div/div/ul/li/div/div/div/div/ul/li/span'
p334
F2.643856189774725
sS'/html/body/div/div/div/div/div/div/div/div/div/div/ul/li/ul/li/div/div/div/span/a/span/span/span/img'
p335
F4.643856189774724
sS'/html/body/div/div/div/div/div/div/div/div/div/div/div/div/div/div/div/div/div/div/h1/span/a/span'
p336
F6.643856189774725
sS'/html/body/div/div/div/div/div/div/div/div/div/div/ul/li/div/div/div/div/div/div/div/ul/li/div/div/div/a/span/span/span/span/span/span'
p337
F6.643856189774725
sS'/html/body/div/div/div/div/div/div/div/div/div/div/ul/li/div/div/div/div/div/ul/li/div/div/div/div/span'
p338
F4.321928094887363
sS'/html/body/div/div/div/div/div/div/div/div/div/div/div/ol/li/ol/li/ul/li/span/div/div/div/div/div/h2'
p339
F5.643856189774724
sS'/html/body/div/div/div/div/div/div/div/div/div/div/div/div/div/span/div/div/p/span'
p340
F3.473931188332412
sS'/html/body/div/div/div/div/div/div/div/div/div/div/div/div/div/p'
p341
F6.643856189774725
sS'/html/body/div/div/div/div/div/div/div/div/div/div/ul/li/div/div/div/section/div/div/div/div/div/div/span/a'
p342
F5.643856189774724
sS'/html/body/div/div/div/div/div/div/div/div/div/div/div/div/button/span'
p343
F1.286304185156641
sS'/html/body/div/div/div/div/div/div/div/div/div/div/div/ol/li/ol/li/div/div/div/div/div'
p344
F6.643856189774725
sS'/html/body/div/div/div/div/div/div/div/div/div/div/ul/li/div/div/div/section/div/div/div/span/a'
p345
F5.643856189774724
sS'/html/body/div/div/div/div/div/div/div/div/div/div/div/div/ol/li/ol/li/div/div/div/div/div/h3/a'
p346
F6.643856189774725
sS'/html/body/div/div/div/div/div'
p347
F0.0
sS'/html/body/div/div/div/div/div/div/div/div/div/div/ul/li/div/div/div/div/div/ul/li/div/div/div/div/ul/li/span'
p348
F6.643856189774725
sS'/html/body/div/div/div/div/div/div/div/div/div/div/div/ul/li/a'
p349
F3.6438561897747253
sS'/html/body/div/div/div/div/div/div/div/div/div/div/div/ol/li/ol/li/div/div/div/ul/li/div/div/div/div/button/span'
p350
F6.643856189774725
sS'/html/body/div/div/div/div/div/div/div/div/div/div/div/div/p/span'
p351
F1.3219280948873624
sS'/html/body/div/div/div/div/div/div/div/div/div/div/div/div/ol/li/ol/li/div/div/div/div/div/div/span/button/span'
p352
F6.643856189774725
sS'/html/body/div/div/div/div/div/div/div/div/div/div/div/div/div/div/div/div/div/div/span/a/span/span/span/span'
p353
F6.643856189774725
sS'/html/body/div/div/div/div/div/div/div/div/div/div/div/div/div/div'
p354
F1.3219280948873624
sS'/html/body/div/div/div/div/div/div/div/div/div/div/div/div/div/p/br'
p355
F1.3584539709124765
sS'/html/body/div/div/div/div/div/div/div/div/div/div/ul/li/div/div/div/section/div/div/div/a'
p356
F5.643856189774724
sS'/html/body/div/div/div/div/div/div/div/div/div/div/div/div/ul/li/div/span'
p357
F1.3219280948873624
sS'/html/body/div/div/div/div/div/div/div/div/div/div/ul/li/div/div/div/div/ul/li/button/span'
p358
F5.643856189774724
sS'/html/body/div/div/div/div/div/div/div/div/div/div/ul/li/div/div/div/div/div/ul/li/div/div/div/a/span/span/span/button/span'
p359
F4.643856189774724
sS'/html/body/div/div/div/div/div/div/div/div/div/div/ul/li/div/div/div/div/div/h2/a/span/span/span/span'
p360
F3.8365012677171206
sS'/html/body/div/div/div/div/div/div/div/div/div/div/div/ol/li/ol/li/ul/li/span/div/div/div/div/div/button/span'
p361
F5.643856189774724
sS'/html/body/div/div/div/div/div/div/div/div/div/div/ul/li/div/div/div/div/div/div/div/ul/li/div/div/div/div/ul/li'
p362
F1.8365012677171209
sS'/html/body/div/div/div/div/div/div/div/div/div/div/div/div/div/ul/li/span/a/img'
p363
F6.643856189774725
sS'/html/body/div/div/div/div/div/div/div/div/div/div/div/span/div/a/span'
p364
F1.3219280948873624
sS'/html/body/div/div/span'
p365
F0.02914634565951651
sS'/html/body/div/div/div/div/div/div/div/div/div/div/div/div/ol/li/ol/li/div/div/div/div/div/div/div/a'
p366
F6.643856189774725
sS'/html/body/div/div/div/div/div/div/div/div/div/div/div/div/div/span/div/div'
p367
F3.473931188332412
sS'/html/body/div/div/div/div/div/div/div/div/div/ul/li/span/div/div/span/button/span/span'
p368
F1.8889686876112561
sS'/html/body/div/div/div/div/div/div/div/div/div/div/div/div/ol/li/ol/li/div/div/div/div/ul/li/div/div/div/div/span'
p369
F6.643856189774725
sS'/html/body/div/div/div/div/div/div/div/div/div/div/div/div/ol/li/ol/li/div/div/div/div/div/span/button/span'
p370
F6.643856189774725
sS'/html/body/div/div/div/div/div/div/div/div/div/div/ul/li/div/div/div/span/b'
p371
F5.058893689053569
sS'/html/body/div/div/div/div/div/div/div/div/div/div/div/div/ul/li/a/span/span/span/button/span'
p372
F2.8365012677171206
sS'/html/body/div/div/div/div/div/div/div/div/div/div/ul/li/div/table/tbody/tr/td/span/span/button/ul/li/span'
p373
F3.473931188332412
sS'/html/body/div/div/div/div/div/div/div/div/div/div/ul/li/div/div/div/section/div/div/div/div/span/a'
p374
F6.643856189774725
sS'/html/body/div/div/div/div/div/div/div/div/div/div/span/button/span'
p375
F0.02914634565951651
sS'/html/body/div/div/div/div/div/div/div/div/ul/li/h2'
p376
F1.1844245711374277
sS'/html/body/div/div/div/div/div/div/div/div/div/div/ul/li/div/div/div/section/div/div/div/div/div/div/a'
p377
F5.643856189774724
sS'/html/body/div/div/div/div/div/div/div/div/div/div/div/div/ol/li/ol/li/div/div/div/div/div/div/h3/a'
p378
F6.643856189774725
sS'/html/body/div/div/div/div/div/div/div/div/div/div/ul/li/div/div/div/div/div/ul/li/div/div/div/a/span/span/span/span/img'
p379
F4.643856189774724
sS'/html/head/style'
p380
F0.0
sS'/html/body/div/div/div/div/div/div/div/ul/li/div/h3'
p381
F0.7858751946471525
sS'/html/body/div/div/div/div/div/div/div/div/div/div/div/a'
p382
F1.3219280948873624
sS'/html/body/div/div/div/div/div/div/div/div/div/div/ul/li/div/div/div/section/div/div/div/div/div/div/div'
p383
F5.643856189774724
sS'/html/body/div/div/div/div/div/div/div/div/div/div/div/div/ol/li/ol/li/div/div/div/div/div/button'
p384
F6.643856189774725
sS'/html/body/div/div/div/div/div/div/div/div/div/div/div/ol/li/ol/li/div/div/div/ul/li/div/div/div/div/div'
p385
F6.643856189774725
sS'/html/body/div/div/div/div/div/div/div/div/div/div/div/div/div/div/div/div/div/p'
p386
F6.643856189774725
sS'/html/body/div/div/div/div/div/div/div/div/div/div/ul/li/div/div/div/div/div/h2/a/span/span'
p387
F1.5994620704162712
sS'/html/body/div/div/div/div/div/div/div/div/div/div/button/span/span'
p388
F3.6438561897747253
sS'/html/body/div/div/div/div/div/div/div/div/div/div/ul/li/div/div/div/div/div/div/div/ul/li/div/div/div/a/span/span/span/span/span/b'
p389
F3.6438561897747253
sS'/html/body/div/div/div/div/div/div/div/div/div/div/div/div/img'
p390
F3.473931188332412
sS'/html/body/div/div/div/ul/li/button/span/span'
p391
F0.0
sS'/html/body/div/div/div/div/div/div/div/div/div/div/ul/li/span/div/a/span/span/span/img'
p392
F6.643856189774725
sS'/html/body/div/div/div/div/div/div/div/div/div/div/ul/li/div/div/div/div/div/div/div/ul/li/div/div/span/button/span/span'
p393
F3.8365012677171206
sS'/html/body/div/div/div'
p394
F0.02914634565951651
sS'/html/body/div/div/div/div/div/div/div/ol/li/ol/li/a'
p395
F6.643856189774725
sS'/html/body/div/div/div/div/div/div/div/div/div/div/div/h1/span'
p396
F1.3219280948873624
sS'/html/body/div/div/div/div/div/div/div/div/div/div/div/div/div/ul/li/ul/li/a'
p397
F1.3219280948873624
sS'/html/body/div/div/div/span'
p398
F5.643856189774724
sS'/html/body/div/div/div/div/div/div/div/div/div/div/div/ol/li/ol/li/div/div/div/ul/li/div/div/div/div/div/ul/li'
p399
F6.643856189774725
sS'/html/body/div/div/div/div/div/div/div/div/div/div/div/div/div/div/div/div/div/div/div/span/span/button/ul/li/span'
p400
F6.643856189774725
sS'/html/body/div/div/div/a/span'
p401
F0.0
sS'/html/body/div/div/div/div/div/div/div/div/div/div/ul/li/div/div/div/div/div/div/div/ul/li/div/div/div/a/span/span/span/button/span'
p402
F3.6438561897747253
sS'/html/body/div/div/div/div/div/div/div/div/div/div/ul/li/div/div/div/div/div/div/div/ul/li/div/div/a/span/span/span/img'
p403
F3.8365012677171206
sS'/html/body/div/div/div/div/div/script'
p404
F0.07400058144377678
sS'/html/body/div/div/div/div/div/div/div/div/div/div/ul/li/a/img'
p405
F1.5563933485243855
sS'/html/body/div/div/div/div/div/div/div/div/div/div/ul/li/div/div/div/div/div/ul/li/div/div/div/span/span/button/span'
p406
F3.3219280948873626
sS'/html/body/div/div'
p407
F0.0
sS'/html/body/div/div/div/div/div/div/div/div/div/div/ul/li/span/div/div/span/span'
p408
F6.643856189774725
sS'/html/body/div/div/div/div/div/div/div/div/div/div/ul/li/ul/li/div/div/div/span/span/button/ul/li/span'
p409
F4.643856189774724
sS'/html/body/div/div/div/div/div/div/div/div/div/div/ul/li/div/div/div/a/span/span/span/img'
p410
F5.643856189774724
sS'/html/body/div/div/div/div/div/div/div/div/div/div/div/div/div/div/div/div/div/h1/span/span/span'
p411
F6.643856189774725
sS'/html/body/div/div/div/div/div/div/div/div/div/div/div/div/div/div/div/div/div/div/h1/span/span/span/a'
p412
F6.643856189774725
sS'/html/body/div/div/div/div/div/div/div/div/div/div/ul/li/div/div/div/span'
p413
F4.321928094887363
sS'/html/body/div/div/div/div/div/div/div/div/div/div/div/ol/li/ol/li/div'
p414
F6.643856189774725
sS'/html/body/div/div/div/div/div/div/div/div/div/div/ul/li/ul/li/div/div/a/span/span/span/span'
p415
F5.643856189774724
sS'/html/body/div/div/div/div/div/div/div/div/div/div/div/div/div/div/div/div/div/div/div/span/button/span/span'
p416
F6.643856189774725
sS'/html/body/div'
p417
F0.02914634565951651
sS'/html/body/div/div/div/div/div/div/div/div/div/div/div/div/span/div/div/div/div/div/div/div/div'
p418
F1.5563933485243855
sS'/html/body/div/div/div/div/div/div/div/div/div/div/div/div/div/ul/li/div/a/span/img'
p419
F1.6438561897747248
sS'/html/body/div/div/div/div/div/div/div/div/div/div/ul/li/div/table/tbody/tr/td/div'
p420
F3.473931188332412
sS'/html/body/div/div/div/div/div/div/div/div/div/div/div/div/span/div/div/div/div/div'
p421
F1.5563933485243855
sS'/html/body/div/div/div/div/div/div/div/div/div/div/ul/li/div/div/div/div/div/ul/li/div/div/div/ul/li/span'
p422
F5.643856189774724
sS'/html/body/div/div/div/div/div/div/div/div/div/div/span/span/div/div/div/div/div/div/div/div/p/span'
p423
F1.3219280948873624
sS'/html/body/div/div/div/div/div/div/div/div/div/div/div/button/span'
p424
F1.3219280948873624
sS'/html/body/div/div/div/div/div/div/div/div/div/div/ul/li/div/div/div/div/div/div/div/ul/li/div/div/div/span/button/span'
p425
F1.8365012677171209
sS'/html/body/div/div/div/div/div/div/div/div/div/div/div/a/span'
p426
F1.3219280948873624
sS'/html/body/div/div/div/div/div/div/div/div/div/div/ul/li/div/div/div/div/div/a'
p427
F2.473931188332412
sS'/html/body/div/div/div/div/div/div/div/ul/li/div/ul/li/a/span/span/span/span/span/span'
p428
F0.7858751946471525
sS'/html/body/div/div/div/div/div/div/div/div/div/div/div/div/div'
p429
F1.0
sS'/html/body/div/div/div/div/div/div/div/div/div/div/ul/li/div/div/div/div/div/ul/li/div/div/div/span/button'
p430
F3.3219280948873626
sS'/html/body/div/div/div/div/div/div/div/div/div/div/ul/li/div/div/div/div/div/div/div/ul/li/div/div/div/div/a'
p431
F1.8889686876112561
sS'/html/body/div/div/div/div/a/span'
p432
F0.0
sS'/html/body/div/div/div/div/div/div/div/div/div/div/ul/li/ul/li/div/div/div/h3/a'
p433
F4.643856189774724
sS'/html/body/div/div/div/div/div/div/div/div/div/div/div/ol/li/ol/li/ul/li/span/div/div/span'
p434
F5.643856189774724
sS'/html/body/div/div/div/div/div/div/div/div/div/div/ul/li/div/table/tbody/tr/td/div/div'
p435
F3.473931188332412
sS'/html/body/div/div/div/div/div/div/div/div/div/div/ul/li/div/div/div/section/div/div/a/span/span/span/img'
p436
F6.643856189774725
sS'/html/body/div/div/div/div/div/div/div/div/div/div/div/span/span/div/h3'
p437
F1.3219280948873624
sS'/html/body/div/div/div/div/div/div/div/div/div/div/div/div/div/div/div/div/div/div/span/span'
p438
F6.643856189774725
sS'/html/body/div/div/div/div/div/div/div/div/div/div/ul/li/div/div/div/div/a'
p439
F2.473931188332412
sS'/html/body/div/link'
p440
F1.1844245711374277
sS'/html/body/div/div/div/div/div/div/div/div/div/div/div/div/div/span/label/span'
p441
F1.6438561897747248
sS'/html/body/div/div/div/div/div/div/a/img'
p442
F0.9159357352115255
sS'/html/body/div/div/div/div/div/div/div/div/div/div/ul/li/div/div/div/div/div/ul/li/div/div/div/a/span/span/span/button/ul/li/span'
p443
F4.643856189774724
sS'/html/body/div/div/div/div/div/div/div/div/div/div/ul/li/div/div/div/section/div/div/div/div/button'
p444
F6.643856189774725
sS'/html/body/div/div/div/div/div/div/div/div/div/div/ul/li/div/div/div/div/div/div/div/ul/li/div/div/div/a/span/span/span/span/img'
p445
F3.6438561897747253
sS'/html/body/div/div/div/div/div/div/div/div/div/div/div/div/div/div/div/div/div/div/h1/span/span/span'
p446
F6.643856189774725
sS'/html/body/div/div/div/div/div/div/div/div/div/div/ul/li/div/div/div/section/div/div/div/div/a'
p447
F5.643856189774724
sS'/html/body/div/div/div/div/div/div/div/div/div/div/div/div/ul/div/li'
p448
F1.3584539709124765
sS'/html/body/div/div/div/div/div/div/div/div/div/div/ul/li/div/div/div/div/div/div/div/ul/li/div/div/div/div/span/button/span'
p449
F5.643856189774724
sS'/html/body/div/div/div/div/div/div/div/div/div/div/ul/li/div/button/span/span/span/span'
p450
F4.643856189774724
sS'/html/body/div/div/div/div/div/div/div/div/div/div/div/div/div/ul/li/span/div/a/span'
p451
F1.3219280948873624
sS'/html/body/div/div/div/div/div/div/div/ul/li/div/ul/li/a/span/span/span'
p452
F0.7858751946471525
sS'/html/head/title'
p453
F0.0
sS'/html/body/div/div/div/div/div/div/div/div/div/div/ul/li/div/div/div/div/div/div/div/ul/li/div/div/div/span/button'
p454
F1.8365012677171209
sS'/html/body/div/div/div/div/form/div/input'
p455
F5.643856189774724
sS'/html/body/div/div/div/div/div/div/div/div/div/div/ul/li/div/div/div/div/div/div/div/ul/li/div/div/div/a/span/span/span/span/span'
p456
F3.6438561897747253
sS'/html/body/div/div/div/div/div/div/div/div/div/div/ul/li/div/div/div/br'
p457
F5.058893689053569
sS'/html/body/div/div/div/div/div/div/div/div/span/link'
p458
F1.3219280948873624
sS'/html/body/div/div/div/div/div/div/div/ul/li/p'
p459
F0.7858751946471525
sS'/html/body/div/div/ul/li/a'
p460
F5.643856189774724
sS'/html/body/div/div/div/div/div/div/div/div/div/div/ul/li/div/div/div/section/div/div/div/div/div/div/button'
p461
F5.643856189774724
sS'/html/body/div/div/div/div/div/div/div/div/div/div/ul/li/div/div/div/div/div/div/div/ul/li/div/div/span/span'
p462
F3.8365012677171206
sS'/html/body/div/div/div/div/div/div/div/div/a/span'
p463
F6.643856189774725
sS'/html/body/div/div/div/div/div/div/div/div/div/div/ul/li/div/div/div/h3/a'
p464
F2.473931188332412
sS'/html/body/div/div/div/div/div/div/div/div/div/div/ul/li/div/div/div/section/div/div/div/div/div/div/span'
p465
F5.643856189774724
sS'/html/body/div/div/div/div/div/button/span'
p466
F5.643856189774724
sS'/html/body/div/div/div/div/div/div/div/div/div/div/ul/li/ul/li/div/div/div/span/span/button/span'
p467
F4.643856189774724
sS'/html/body/div/div/div/div/div/div/div/div/div/div/div/div/ol/li/ol/li/div/div/div/div/h2/a/span'
p468
F6.643856189774725
sS'/html/body/div/div/div/div/div/div/div/div/div/div/ul/li/div/div/pre'
p469
F5.058893689053569
sS'/html/body/div/div/div/div/div/div/div/div/div/div/ul/li/div/div/div/section/div/a/span/span/span/span'
p470
F5.643856189774724
sS'/html/body/div/div/div/div/div/div/div/div/div/div/div/div/div/ul/li/div/a/span/ul/li/span'
p471
F5.643856189774724
sS'/html/body/div/div/div/div/div/div/div/div/div/div/ul/li/ul/li/div/div/div/span/span/span'
p472
F4.643856189774724
sS'/html/body/div/div/div/div/div/div/div/div/div/div/div/div/div/ul/li/div/a/span/span'
p473
F1.6438561897747248
sS'/html/body/div/div/div/div/div/div/div/div/div/div/ul/li/div/div/div/a/span/span/span/span'
p474
F5.643856189774724
sS'/html/body/div/div/div/div/div/div/div/div/div/div/div/div/ul/li/a/span/span/button'
p475
F2.8365012677171206
sS'/html/body/div/div/div/div/div/div/div/div/div/div/div/div/ul/li/a/span/span/span/span/span'
p476
F2.8365012677171206
sS'/html/body/div/div/div/ul/li'
p477
F0.01449956969511517
sS'/html/body/div/div/div/div/div/div/div/h1'
p478
F1.286304185156641
sS'/html/body/div/div/div/div/div/div/div/div/div/div/div/div/span/div/div/div/div/div/div/div/div/p/span'
p479
F1.5563933485243855
sS'/html/body/div/div/div/div/div/div/div/div/div/div/ul/li/button/span/span'
p480
F4.643856189774724
sS'/html/body/link'
p481
F1.1844245711374277
sS'/html/body/div/div/div/div/div/div/div/div/div/div/ul/li/div/div/div/div/div/div/div/ul/li/div/div/div/h3/span'
p482
F1.7369655941662063
sS'/html/body/div/div/div/div/div/div/div/div/div/div/div/div/div/span'
p483
F5.058893689053569
sS'/html/body/div/div/div/div/div/div/div/div/div/div/div/div/div/ul/li/div/a/span'
p484
F1.6438561897747248
sS'/html/body/div/div/div/div/div/div/div/div/div/div/div/a/span/span'
p485
F3.6438561897747253
sS'/html/body/div/div/div/div/div/div/div/div/div/div/ul/li/span/div/h3/a/span/span'
p486
F6.643856189774725
sS'/html/body/div/div/div/div/div/div/div/div/div/div/ul/li/div/table/tbody/tr/td/div/div/span'
p487
F3.473931188332412
sS'/html/body/div/div/div/div/div/div/div/div/div/div/div/div/div/div/div/a/span/span/span/img'
p488
F6.643856189774725
sS'/html/body/div/div/div/div/div/div/div/div/div/div/ul/li/div/div/div/div/button'
p489
F5.643856189774724
sS'/html/body/div/div/div/div/div/div/div/div/div/div/ul/li/div/div/div/section/div'
p490
F5.643856189774724
sS'/html/body/div/div/div/div/div/div/div/div/div/div/div/div/div/ul/li/span/button/span'
p491
F1.3219280948873624
sS'/html/body/div/div/div/div/div/div/div/div/div/div/div/div/ul/li/h2'
p492
F5.643856189774724
sS'/html/body/div/div/div/div/div/div/div/div/div/div/div/ol/li/ol/li/div/div/div/ul/li/div/div/div/div/span/button/span'
p493
F6.643856189774725
sS'/html/body/div/div/div/div/div/div/div/div/div/div/ul/li/div/div/div/div/div/ul/li/div/div/div/div/ul/li'
p494
F2.9434164716336326
sS'/html/body/div/div/div/div/div/div/div/div/div/div/div/ol/li/ol/li/div/div/div/ul/li/div/div/div/div/h3/a'
p495
F6.643856189774725
sS'/html/body/div/div/div/div/div/div/div/div/div/div/a/span/span/span/span'
p496
F1.3219280948873624
sS'/html/body/div/div/div/div/div/div/div/div/div/ol/p/span'
p497
F0.02914634565951651
sS'/html/body/div/div/div/div/div/div/div/div/div/div/ul/li/div/div/div/section/div/div'
p498
F5.643856189774724
sS'/html/body/meta'
p499
F1.1844245711374277
sS'/html/body/div/div/div/div/div/div/div/div/div/div/div/div/ul/li/div/a/span/ul/li/span'
p500
F5.643856189774724
sS'/html/body/div/div/div/div/div/div/div/div/div/div/div/span/span/button'
p501
F3.6438561897747253
sS'/html/body/div/div/div/div/div/div/div/div/div/div/div'
p502
F0.10469737866669322
sS'/html/body/div/div/div/div/div/div/div/div/div/ul/li/span/div/a/span/span/span/img'
p503
F1.8889686876112561
sS'/html/body/div/div/div/div/div/div/div/div/div/div/ul/li/div/div/div/section/div/div/div/div/span'
p504
F6.643856189774725
sS'/html/body/div/div/div/div/div/div/div/div/div/div/div/div/div/div/div/div/div/div/span/span/button/span'
p505
F6.643856189774725
sS'/html/body/div/div/div/div/div/div/div/div/div/h2/a'
p506
F5.643856189774724
sS'/html/body/div/div/div/div/div/div/div/div/div/div/div/span/div/div'
p507
F1.3219280948873624
sS'/html/body/div/div/div/div/div/div/div/p/span'
p508
F0.0
sS'/html/body/div/div/div/div/div/div/div/div/div/div/div/div/div/ul/li/button/span'
p509
F1.5563933485243855
sS'/html/body/div/div/div/div/div/div/div/div/div'
p510
F0.02914634565951651
sS'/html/body/div/div/div/div/div/div/div/div/div/div/div/div/div/ul/li/h4'
p511
F1.3219280948873624
sS'/html/body/div/div/div/div/div/div/div/div/div/div/div/h3/a'
p512
F3.6438561897747253
sS'/html/body/div/div/div/div/div/div/button/span'
p513
F0.02914634565951651
sS'/html/body/div/div/div/div/div/div/div/div/div/div/div/div/ol/li/ol/li/div/div'
p514
F6.643856189774725
sS'/html/body/div/div/div/div/div/div/div/div/div/div/div/div/div/div/div/div/div/div/span/button/span/span'
p515
F6.643856189774725
sS'/html/body/div/div/div/div/div/div/div/div/div/div/div/div/div/label'
p516
F1.6438561897747248
sS'/html/body/div/div/div/div/div/div/div/div/div/div/div/div/div/div/div/div/div/img'
p517
F6.643856189774725
sS'/html/body/div/div/div/div/div/div/div/div/div/div/ul/li/div/div/div/section/div/div/div/div/div/div/button/span'
p518
F5.643856189774724
sS'/html/body/div/div/div/div/div/div/div/div/div/div/ul/li/div/div/h2/b'
p519
F5.643856189774724
sS'/html/body/div/div/div/div/div/div/div/div/div/div'
p520
F0.7131188522118386
sS'/html/body/div/div/div/div/div/div/div/div/div/div/ul/li/div/div/div/div/div/div/div/ul/li/div/div/h3/span'
p521
F3.8365012677171206
sS'/html/body/div/div/div/div/div/div/div/div/div/div/ul/li/div/table/tbody/tr/td/a'
p522
F3.473931188332412
sS'/html/body/div/div/div/div/div/div/div/div/div/div/div/div/div/span/span'
p523
F1.6438561897747248
sS'/html/body/div/div/div/div/div/div/div/div/div/div/div/ol/li/ol/li/div/div/div/ul/li/div/div/div/div/a/div/span/img'
p524
F6.643856189774725
s.