(dp0
S'/html/body/div/div/div/p/a'
p1
F2.007253384011321
sS'/html/body/div/nav/div/ul/li/div/div/ul/li/a'
p2
F0.11752864310916149
sS'/html/body/div/div/div/div/ul/li/a/span'
p3
F2.007253384011321
sS'/html/body/div/div/div/form/div/div/input'
p4
F2.6038976897801125
sS'/html/body/div/div/ul/li/div/h3/a'
p5
F1.6127215401671184
sS'/html/body/div/div/div/div/div/div/div/div/a/img'
p6
F9.961449694398196
sS'/html/body/div/div/div/div/div/table/tbody/tr/td'
p7
F2.7915246929558837
sS'/html/body/div/div/div/div/div/div/h4'
p8
F3.103468699270624
sS'/html/body/div/header/div/div/a/svg/circle'
p9
F0.11752864310916149
sS'/html/body/div/footer/div/ul/li/a'
p10
F0.11752864310916149
sS'/html/body/div/div/div/div/table/tbody/tr/td/h4/a'
p11
F7.639521599510833
sS'/html/body/div/div/ul/li/div/div/table/tbody/tr/th'
p12
F8.961449694398196
sS'/html/body/div/div/div'
p13
F1.0880055818828194
sS'/html/body/div/div/div/div/table/tbody/tr/td/p/a'
p14
F2.648566739113841
sS'/html/body/div/div/ul/li/div/div/p/em/strong/a'
p15
F8.37648719367704
sS'/html/body/div/div/ul/li/div/div/h3'
p16
F7.961449694398196
sS'/html/body/div/div/ul/li/div/div/h1'
p17
F8.37648719367704
sS'/html/body/div/header/div/a/svg/g/g/path'
p18
F0.11752864310916149
sS'/html/body/div/div/div/span'
p19
F2.007253384011321
sS'/html/body/div/div/ul/li/div/div/table/tbody/tr/td'
p20
F8.37648719367704
sS'/html/body/div/div/ul/li/div/p/a'
p21
F1.6127215401671184
sS'/html/body/div/div/div/div/ul/li'
p22
F2.801578357619807
sS'/html/body/div/div/div/div/div/div/table/thead/tr/th'
p23
F2.801578357619807
sS'/html/body/div/div/ul/li/div/div/br'
p24
F5.713522180954611
sS'/html/body/div/nav/div/a'
p25
F0.11752864310916149
sS'/html/body/div/div/div/div/div/h2/span/a'
p26
F2.811702574893514
sS'/html/body/div/div/div/div/form/p/input'
p27
F9.961449694398196
sS'/html/body/div/div/ul/li/div/div/ul/li/em'
p28
F7.376487193677039
sS'/html/body/div/div/ul/li/div/div/p/strong/a/em'
p29
F9.961449694398196
sS'/html/body/div/div/div/div/div/div/a'
p30
F1.6171537864823793
sS'/html/body/div/div/div/div/span'
p31
F5.154094772340592
sS'/html/body/rss/channel/item/link'
p32
F3.6760474755359476
sS'/html/body/div/div/ul/li/div/div/ul/li/strong/a'
p33
F9.961449694398196
sS'/html/body/div/div/div/div/form/div/p/label'
p34
F3.4068608427205587
sS'/html/body/div/div/div/div/table/tbody/tr/td/div'
p35
F2.648566739113841
sS'/html/body/div/form/input'
p36
F0.40111686018575454
sS'/html/body/div/div'
p37
F0.40111686018575454
sS'/html/body/div/div/ul/li/div/div/blockquote/p/i/b'
p38
F9.961449694398196
sS'/html/body/div/div/ul/li/div/div/p/span/img'
p39
F9.961449694398196
sS'/html/body/div/div/ul/li/div/div/p/span/strong'
p40
F8.961449694398196
sS'/html/body/div/div/ul/li/div/p/span/span'
p41
F1.6127215401671184
sS'/html/body/div/div/div/a'
p42
F1.0849327478331963
sS'/html/body/div/div/ul/li/div/div/p'
p43
F1.6395215995108339
sS'/html/body/div/div/ul/li/div/div/p/strong/span'
p44
F9.961449694398196
sS'/html/body/div/div/ul/li/div/div/p/code'
p45
F9.961449694398196
sS'/html/body/div/div/div/div/form/div/p/input'
p46
F3.4068608427205587
sS'/html/body/div/div/ul/li/div/div/hr'
p47
F8.37648719367704
sS'/html/body/div/div/div/p'
p48
F6.054559098789678
sS'/html/body/div/div/ul/li/div/div/h2/i'
p49
F8.37648719367704
sS'/html/body/div/div/div/div/select/optgroup/option'
p50
F5.154094772340592
sS'/html/body/div/div/div/div/div/div/span'
p51
F2.801578357619807
sS'/html/body/div/div/ul/li/div/div/p/span/b'
p52
F7.961449694398196
sS'/html/head/meta'
p53
F0.11752864310916149
sS'/html/body/div/div/div/div/table/tbody/tr/td/h2/a'
p54
F2.648566739113841
sS'/html/body/div/div/ul/li/div/div/blockquote/pre/em/strong/span'
p55
F9.961449694398196
sS'/html/body/div'
p56
F0.40111686018575454
sS'/html/body/div/div/ul/li/div/img'
p57
F6.261009976257104
sS'/html/body/div/div/ul/li/div/div/pre/em/span/strong'
p58
F7.961449694398196
sS'/html/body/div/noscript/img'
p59
F2.6038976897801125
sS'/html/body/div/div/ul/li/div/div/blockquote/h4'
p60
F3.346739850282988
sS'/html/body/div/div/ul/li/div/div/pre/strong/br'
p61
F9.961449694398196
sS'/html/body/div/div/ul/li/div/p/b/i'
p62
F7.376487193677039
sS'/html/body/div/div/div/div/div/div/table/tbody/tr/td'
p63
F2.801578357619807
sS'/html/body/div/div/div/div/div/h2'
p64
F1.9446414067116422
sS'/html/body/div/div/ul/li/div/b'
p65
F5.713522180954611
sS'/html/body/div/header/div/div/input'
p66
F0.11752864310916149
sS'/html/body/div/div/ul/li/div/div/pre/strong/em/span'
p67
F7.639521599510833
sS'/html/body/div/div/div/div/form/div/select/option'
p68
F3.4068608427205587
sS'/html/body/div/div/ul/li/div/div/p/strong/em'
p69
F9.961449694398196
sS'/html/body/div/div/div/div/p/br'
p70
F6.376487193677041
sS'/html/body/div/div/ul/li/div/div/ul/li/a'
p71
F8.37648719367704
sS'/html/body/div/div/div/h1/a'
p72
F2.7915246929558837
sS'/html/body/div/div/div/div/div/table/thead/tr/th'
p73
F9.961449694398196
sS'/html/body/div/div/div/form/div/div/button'
p74
F2.6038976897801125
sS'/html/body/div/div/div/div/p/a'
p75
F8.961449694398196
sS'/html/body/div/div/div/div/table/tbody/tr/td/br'
p76
F7.639521599510833
sS'/html/body/div/div/ul/li/div/p'
p77
F1.6127215401671184
sS'/html/body/div/div/div/div/p/b'
p78
F9.961449694398196
sS'/html/body/div/div/h1'
p79
F2.6038976897801125
sS'/html/body/div/div/ul/li/div/div/p/span/span'
p80
F5.791524692955884
sS'/html/body/div/div/ul/li/div/div/p/a/em/strong/span'
p81
F8.37648719367704
sS'/html/body/div/div/ul/li/div/div/pre/span/strong'
p82
F9.961449694398196
sS'/html/body/div/div/ul/li/div/div/p/em/strong'
p83
F8.37648719367704
sS'/html/body/div/a'
p84
F2.801578357619807
sS'/html/head/script'
p85
F0.11752864310916149
sS'/html/body/div/div/div/div/form/div/div/p/label'
p86
F3.4068608427205587
sS'/html/body/div/div/div/form/div/br'
p87
F2.6038976897801125
sS'/html/body/div/div/ul/li/div/div/blockquote/span/span'
p88
F7.961449694398196
sS'/html/body/div/div/ul/li/div/div/pre/code/span'
p89
F9.961449694398196
sS'/html/body/div/div/div/div/div/table/tbody/tr/td/a'
p90
F2.801578357619807
sS'/html/head/link'
p91
F0.11752864310916149
sS'/html/body/div/div/ul/li/div/div/pre/span/strong/em'
p92
F9.961449694398196
sS'/html/body/div/div/ul/li/div/div/p/a/em/strong'
p93
F7.961449694398196
sS'/html/body/div/div/ul/li/div/div/p/span/br'
p94
F7.961449694398196
sS'/html/body/div/div/ul/li/div/div/h2/em'
p95
F9.961449694398196
sS'/html/body/div/footer/div/div'
p96
F0.11752864310916149
sS'/html/body/div/div/ul/li/div/div/p/strong/img'
p97
F9.961449694398196
sS'/html/body/div/div/ul/li/div'
p98
F4.603897689780112
sS'/html/body/div/div/div/form/div/input'
p99
F2.6038976897801125
sS'/html/body/div/nav/div/ul/li/div/div/h2'
p100
F0.13490120710728098
sS'/html/body/div/div/ul/li/div/div/p/img'
p101
F5.713522180954611
sS'/html/body/div/div/ul/li/div/div/ol/li/span'
p102
F9.961449694398196
sS'/html/body/div/div/div/div/table/tbody/tr/td/p/b/a/img'
p103
F5.261009976257104
sS'/html/body/div/div/ul/li/div/div/table/tbody/tr/td/p/br'
p104
F9.961449694398196
sS'/html/body/div/div/div/div/form/div/div/label'
p105
F3.4068608427205587
sS'/html/body/div/div/div/div/form/div/div/input'
p106
F3.4068608427205587
sS'/html/body/div/div/ul/li/div/div/blockquote/pre/span/em/strong'
p107
F9.961449694398196
sS'/html/body/div/div/div/div/a/img'
p108
F6.961449694398196
sS'/html/body/div/footer/div/ul/li/span'
p109
F0.11752864310916149
sS'/html/body/div/div/div/form/input'
p110
F2.6038976897801125
sS'/html/body/div/div/div/div/form/div/h4'
p111
F3.4068608427205587
sS'/html/body/div/div/ul/li/div/div/blockquote/strong'
p112
F8.37648719367704
sS'/html/head/title'
p113
F0.11752864310916149
sS'/html/body/div/div/div/div/div/img'
p114
F2.801578357619807
sS'/html/body/div/div/ul/li/div/div/p/strong/a'
p115
F7.639521599510833
sS'/html/body/div/div/div/div/div/div/h3/span'
p116
F3.103468699270624
sS'/html/body/div/div/ul/li/div/div/p/a/img'
p117
F7.961449694398196
sS'/html/body/div/div/div/div/ul/li/a'
p118
F1.1317269593121375
sS'/html/body/noscript/img'
p119
F0.40111686018575454
sS'/html/body/div/div/ul/li/div/div/table/tbody/tr/td/pre/span/span'
p120
F9.961449694398196
sS'/html/body/div/div/div/div/div/div/h3'
p121
F2.801578357619807
sS'/html/body/div/footer/div/ul/li/h2/a/svg/path'
p122
F0.11752864310916149
sS'/html/body/div/div/div/div/div/div/h2'
p123
F2.3764871936770398
sS'/html/body/div/div/ul/li/div/div/blockquote/a'
p124
F8.961449694398196
sS'/html/body/noscript/a/img'
p125
F0.465594667511025
sS'/html/body/div/div/div/div/form/h2/a'
p126
F3.4068608427205587
sS'/html/body/div/div/ul/li/div/div/blockquote/p/strong'
p127
F8.961449694398196
sS'/html/body/div/div/ul/li/div/div/ol/li'
p128
F7.154094772340592
sS'/html/body/div/div/ul/li/div/div/pre/strong'
p129
F6.639521599510833
sS'/html/body/div/div/ul/li/div/div/blockquote/p/i'
p130
F7.639521599510833
sS'/html/body/div/div/div/div/form/h3/a'
p131
F3.4068608427205587
sS'/html/body/div/div/ul/li/div/div/blockquote/blockquote/h4'
p132
F9.961449694398196
sS'/html/body/div/div/ul/li/div/div/p/span/a/br'
p133
F8.37648719367704
sS'/html/body/div/div/ul/li/div/a/img'
p134
F1.6127215401671184
sS'/html/body/div/div/ul/li/div/div/p/span/span/span'
p135
F9.961449694398196
sS'/html/body/div/div/ul/li/div/div/blockquote/p'
p136
F5.437887738341183
sS'/html/body/div/div/ul/li/div/a'
p137
F1.6127215401671184
sS'/html/body/div/div/h1/a'
p138
F2.007253384011321
sS'/html/body/div/div/ul/li/div/div/pre/br'
p139
F6.261009976257104
sS'/html/body/div/div/ul/li/div/div/ul/li/a/strong'
p140
F9.961449694398196
sS'/html/body/div/div/div/div/br'
p141
F9.961449694398196
sS'/html/body/div/div/ul/li/div/div/p/b/a'
p142
F8.37648719367704
sS'/html/body/div/div/ul/li/div/strong'
p143
F7.639521599510833
sS'/html/body/div/div/ul/li/div/div/ul/li'
p144
F6.376487193677041
sS'/html/body/div/div/div/div/table/tbody'
p145
F8.37648719367704
sS'/html/body/div/div/div/form/p/input'
p146
F2.648566739113841
sS'/html/body/div/div/div/div/p'
p147
F1.7230449550731168
sS'/html/body/div/div/ul/li/div/div/p/b/i'
p148
F9.961449694398196
sS'/html/body/div/div/div/div/select/option'
p149
F5.154094772340592
sS'/html/body/div/div/ul/li/div/div/pre/span/em/strong'
p150
F7.376487193677039
sS'/html/body/div/div/ul/li/div/div/table/tbody/tr/td/p/span'
p151
F6.639521599510833
sS'/html/body/div/div/div/div/div/div/a/span'
p152
F2.4536550541995
sS'/html/body/div/div/ul/li/div/b/a'
p153
F5.502018075760899
sS'/html/body/div/div/ul/li/div/br'
p154
F2.7716251355181787
sS'/html/body/div/div/div/div/div/ul/li/a'
p155
F1.955825145204318
sS'/html/body/div/header/div/a'
p156
F0.11752864310916149
sS'/html/body/div/div/ul/li/div/div/p/a/span'
p157
F7.376487193677039
sS'/html/body/div/div/ul/li/div/div/blockquote/p/span'
p158
F9.961449694398196
sS'/html/body/div/div/ul/li/div/div/p/span/span/strong'
p159
F9.961449694398196
sS'/html/body/rss/channel/item/description'
p160
F3.6760474755359476
sS'/html/body/div/div/h1/span'
p161
F3.7135221809546106
sS'/html/body/div/div/a'
p162
F0.20823294521924104
sS'/html/head/style'
p163
F0.11752864310916149
sS'/html/body/div/div/div/ul/li'
p164
F2.648566739113841
sS'/html/body/div/div/ul/li/div/div/blockquote/br'
p165
F7.961449694398196
sS'/html/body/div/div/div/div'
p166
F1.4736096605751445
sS'/html/body/div/div/div/div/table/tbody/tr/td'
p167
F2.612721540167118
sS'/html/body/script'
p168
F0.40111686018575454
sS'/html/body/div/div/ul/li/div/div/p/strong'
p169
F4.206562192234728
sS'/html/body/div/div/ul/li/div/h3'
p170
F1.6127215401671184
sS'/html/body/div/div/ul/li/div/div/pre/strong/span'
p171
F9.961449694398196
sS'/html/body/div/div/div/div/a'
p172
F5.154094772340592
sS'/html/body/div/div/ul/li/div/div/blockquote/h4/a'
p173
F9.961449694398196
sS'/html/body/div/div/ul/li/div/div/h3/strong'
p174
F8.961449694398196
sS'/html/body/div/div/div/div/table/tbody/tr/td/a'
p175
F6.791524692955884
sS'/html/body/div/div/ul/li/div/div/table/tbody/tr/td/pre/span/span/br'
p176
F9.961449694398196
sS'/html/body/div/header/div/div/div/a'
p177
F0.11752864310916149
sS'/html/body/div/div/ul/li/div/p/br'
p178
F9.961449694398196
sS'/html/body/div/div/div/div/div'
p179
F1.7617773495618314
sS'/html/body/div/div/div/div/div/table/tbody/tr/th'
p180
F2.801578357619807
sS'/html/body/rss/channel/id'
p181
F3.6760474755359476
sS'/html/body/div/div/div/div/table/tbody/tr/td/p/span'
p182
F6.154094772340591
sS'/html/body/div/div/ul/li/div/div/a'
p183
F9.961449694398196
sS'/html/body/div/div/ul/li/div/div'
p184
F1.6127215401671184
sS'/html/body/div/div/div/form/h2'
p185
F2.6038976897801125
sS'/html/body/rss/channel/item/guid'
p186
F3.6760474755359476
sS'/html/body/div/footer/div/ul/li/h2'
p187
F0.11752864310916149
sS'/html/body/div/div/div/div/div/div/ul/li/span'
p188
F3.1412707319830084
sS'/html/body/div/div/ul/li/div/div/pre/span'
p189
F6.5020180757608985
sS'/html/body/div/div/div/div/div/h2/span'
p190
F3.1285596802334545
sS'/html/body/div/div/div/div/div/div/div/div/p/strong'
p191
F9.961449694398196
sS'/html/body/div/div/ul/li/div/div/p/a/strong'
p192
F7.376487193677039
sS'/html/body/div/div/ul/li/div/div/p/span/a'
p193
F6.5020180757608985
sS'/html/body/div/header/div/a/svg/path'
p194
F0.11752864310916149
sS'/html/body/div/div/div/div/form/h3/span'
p195
F3.4068608427205587
sS'/html/body/rss/channel/item/updated'
p196
F3.6760474755359476
sS'/html/body/div/div/ul/li/div/div/p/span/span/br'
p197
F7.961449694398196
sS'/html/body/div/header/div/a/svg/g/g/defs/rect'
p198
F0.11752864310916149
sS'/html/body/div/div/ul/li/div/p/span'
p199
F5.054559098789677
sS'/html/body/rss/channel/link'
p200
F3.6760474755359476
sS'/html/body/div/div/ul/li/div/div/blockquote/pre'
p201
F6.5020180757608985
sS'/html/body/div/div/div/h2/span'
p202
F6.961449694398196
sS'/html/body/div/div/div/h1'
p203
F2.0425864571236017
sS'/html/body/div/div/ul/li/div/p/span/a'
p204
F1.6127215401671184
sS'/html/body/div/div/ul/li/div/div/blockquote/blockquote/span'
p205
F9.961449694398196
sS'/html/body/div/div/div/div/form/div/input'
p206
F3.4068608427205587
sS'/html/body/div/div/div/h1/span'
p207
F2.4145552345105594
sS'/html/body/div/div/div/h2'
p208
F0.8451057331607277
sS'/html/body/div/div/ul/li/div/div/blockquote/blockquote/p/i'
p209
F9.961449694398196
sS'/html/body/div/div/ul/li/div/div/p/strong/span/span'
p210
F9.961449694398196
sS'/html/body/div/div/span'
p211
F0.40111686018575454
sS'/html/body/div/div/div/div/div/div/p/strong'
p212
F2.801578357619807
sS'/html/body/div/div/ul/li/div/div/p/span/span/b'
p213
F7.961449694398196
sS'/html/body/div/header/div/div/a/svg/path'
p214
F0.11752864310916149
sS'/html/body/div/div/ul/li/div/div/table/tbody/tr/td/pre'
p215
F9.961449694398196
sS'/html/body/div/nav/div/ul/li/a'
p216
F0.11752864310916149
sS'/html/body/div/div/div/div/form/div/div/h4'
p217
F3.4068608427205587
sS'/html/body/div/div/div/div/form/div/div/p/input'
p218
F3.4068608427205587
sS'/html/body/div/div/div/div/div/div'
p219
F9.961449694398196
sS'/html/body/rss/channel/item/title'
p220
F3.6760474755359476
sS'/html/body/div/div/div/div/div/div/div/div/h4/a'
p221
F9.961449694398196
sS'/html/body/div/div/ul/li/div/div/ul/li/br'
p222
F9.961449694398196
sS'/html/body/div/div/ul/li/div/div/blockquote/p/br'
p223
F8.37648719367704
sS'/html/body/div/div/div/div/form/div/div'
p224
F3.4068608427205587
sS'/html/body/div/div/ul/li/div/div/p/i'
p225
F7.639521599510833
sS'/html/body/div/div/ul/li/div/div/pre/pre'
p226
F7.639521599510833
sS'/html/body/rss/channel/lastbuilddate'
p227
F3.6760474755359476
sS'/html/body/div/script'
p228
F2.6038976897801125
sS'/html/body/div/div/ul/li/div/div/p/a'
p229
F2.917055575039743
sS'/html/body/div/div/ul/li/div/div/p/b'
p230
F6.961449694398196
sS'/html/body/div/div/ul/li/div/div/blockquote/span'
p231
F3.346739850282988
sS'/html/body/div/div/div/div/h2'
p232
F0.8218983419994024
sS'/html/body/div/div/ul/li/div/div/blockquote/p/a'
p233
F8.961449694398196
sS'/html/body/div/header/div/a/svg/rect'
p234
F6.791524692955884
sS'/html/body/rss/channel/description'
p235
F3.6760474755359476
sS'/html/body/div/div/ul/li/div/div/p/strong/br'
p236
F8.961449694398196
sS'/html/body/div/div/ul/li/ul/li/a'
p237
F1.6127215401671184
sS'/html/body/div/div/ul/li/div/div/p/span/span/span/span/span'
p238
F8.37648719367704
sS'/html/body/rss/channel/title'
p239
F3.6760474755359476
sS'/html/body/div/div/ul/li/div/div/pre'
p240
F3.0666319310902526
sS'/html/body/div/div/div/div/div/div/h3/span/a'
p241
F3.103468699270624
sS'/html/body/div/div/ul/li/div/div/p/br'
p242
F3.361536852211068
sS'/html/body/div/div/div/div/div/div/ul/li/a'
p243
F2.3764871936770398
sS'/html/body/div/div/div/div/table/thead/tr/th'
p244
F4.469596598068521
sS'/html/body/div/div/ul/li/div/div/h3/a'
p245
F7.639521599510833
sS'/html/body/div/div/h2'
p246
F2.801578357619807
sS'/html/body/div/div/ul/li/div/div/p/span/span/span/span'
p247
F8.37648719367704
sS'/html/body/div/div/ul/li/div/div/p/b/span'
p248
F8.37648719367704
sS'/html/body/div/div/div/div/div/div/div'
p249
F2.801578357619807
sS'/html/body/div/div/div/form/div/label'
p250
F2.6038976897801125
sS'/html/body/div/div/div/form/div/a'
p251
F2.6038976897801125
sS'/html/body/div/div/div/form/div/div/label'
p252
F2.6038976897801125
sS'/html/body/div/div/div/div/table/tbody/tr/td/p/br'
p253
F5.261009976257104
sS'/html/body/div/div/ul/li/div/div/table/tbody/tr/td/a'
p254
F8.961449694398196
sS'/html/body/div/div/ul/li/div/div/p/em'
p255
F7.154094772340592
sS'/html/body/div/div/ul/li/div/div/p/span/span/a'
p256
F7.639521599510833
sS'/html/body/div/div/ul/li/div/div/p/span'
p257
F4.206562192234728
sS'/html/body/div/div/ul/li/div/div/table/tbody/tr/td/pre/span'
p258
F8.961449694398196
sS'/html/body/rss/channel/item/pubdate'
p259
F6.376487193677041
sS'/html/body/div/header/div/a/svg/g/g/clippath/use'
p260
F0.11752864310916149
sS'/html/body/div/div/div/div/table/thead/tr/th/a'
p261
F2.6038976897801125
sS'/html/body/div/div/ul/li/div/div/table/tbody/tr/td/p'
p262
F6.5020180757608985
sS'/html/body/div/div/ul/li/div/div/blockquote/span/em/strong'
p263
F8.37648719367704
s.