(dp0
S'/html/body/div/div/div/div/div/div/div/div/div/a'
p1
F1.6438561897747248
sS'/html/body/div/div/div/div/div/div/div/div/a/img'
p2
F0.021804370318348337
sS'/html/body/div/div/div/div/div/div/div/div/div/i'
p3
F7.643856189774724
sS'/html/body/div/div/div/div/div/div/div/p/span/a'
p4
F4.836501267717121
sS'/html/body/div/div/div/div/div/div/div/div/div/p'
p5
F4.836501267717121
sS'/html/body/div/div/div/div/div/div/div/div/div/div/span/span'
p6
F5.058893689053569
sS'/html/body/div/div/div/div/div/p/a'
p7
F2.395928676331139
sS'/html/body/div/div/div/div/div/p/b'
p8
F7.643856189774724
sS'/html/body/div/div/div/div/ul/li/div/div/div/div/ul/li/a'
p9
F7.643856189774724
sS'/html/body/div/div/div/div/div/div/table/tr/td/a'
p10
F3.5563933485243853
sS'/html/body/div/div/div/div/div/form/input'
p11
F7.643856189774724
sS'/html/body/div/div/div/div/div/div/table/tr/td/p'
p12
F7.643856189774724
sS'/html/body/div/div/div/div/div/div/table/tbody/tr/td/p'
p13
F6.058893689053569
sS'/html/body/div/div/div/div/div/div/div/div/div/div/p/br'
p14
F4.473931188332412
sS'/html/body/div/div/div/div/div/div/table/thead/tr/th/a'
p15
F2.8365012677171206
sS'/html/body/div/div/div/div/ul/li/div/div/div/div/h2'
p16
F7.643856189774724
sS'/html/body/div/div/div/a'
p17
F0.021804370318348337
sS'/html/body/div/div/div/div/div/div/table/tbody/tr/td/a'
p18
F4.836501267717121
sS'/html/body/div/div/div/div/div/div/div/ul/li/div/div/a/span'
p19
F7.643856189774724
sS'/html/body/div/div/div/div/div/div/div/div/div/span'
p20
F2.1202942337177118
sS'/html/body/div/div/div/div/div/div/div/div/div/div/p/em'
p21
F7.643856189774724
sS'/html/body/div/div/div/div/div/table/tr/td/span'
p22
F4.321928094887363
sS'/html/body/div/div/div/div/div/div/span'
p23
F4.473931188332412
sS'/html/head/meta'
p24
F0.0
sS'/html/body/div/div/div/div/a/div/div/div/div/p/em'
p25
F7.643856189774724
sS'/html/body/div/div/div/div/div/div/table/tr/td/a/span'
p26
F2.888968687611256
sS'/html/body/div/div/div/div/ul/li/div/div/div/div/a/h2'
p27
F7.643856189774724
sS'/html/body/div/div/div/div/form/div/div/button'
p28
F0.021804370318348337
sS'/html/body/div/div/div/div/div/div/div/div/ul/li/br'
p29
F6.643856189774725
sS'/html/body/div/div/div/div/div/div/div/div/div/strong'
p30
F4.473931188332412
sS'/html/body/div/div/div/div/div/div/div/h4/span'
p31
F6.643856189774725
sS'/html/body/div/div/div/div/ul/li/div/div/div/div/div/img'
p32
F7.643856189774724
sS'/html/body/div/div/div/div/div/div/div/div/ul/li/div/div/a'
p33
F0.02914634565951651
sS'/html/body/div/div/div/div/form/div/button'
p34
F0.021804370318348337
sS'/html/body/div/div/div/div/div/div/div/a/div/span'
p35
F5.058893689053569
sS'/html/body/div/div/div/div/h1/span'
p36
F3.5563933485243853
sS'/html/body/div/div/div/div/div/div/a/div/h5/em'
p37
F7.643856189774724
sS'/html/body/div/div/div/div/div/div/div/div/div/div/div/p/span'
p38
F4.058893689053568
sS'/html/body/div/div/div/div/div/div/div/a/p/span'
p39
F2.2515387669959646
sS'/html/body/div/div/div/div/a/div/div/div/div/div'
p40
F7.643856189774724
sS'/html/body/div/div/div/div/div/div/div/div/div/div/div/div/span'
p41
F3.473931188332412
sS'/html/body/div/div/div/div/div/div/div/div/div/div/span/span/span'
p42
F5.058893689053569
sS'/html/head/script'
p43
F0.01449956969511517
sS'/html/body/div/div/div/div/ul/li/div/div/div/div'
p44
F7.643856189774724
sS'/html/body/div/div/div/div/div/form/div/input'
p45
F6.643856189774725
sS'/html/body/div/div/div/div/div/div/ul/li/div/div/dl/dt'
p46
F7.643856189774724
sS'/html/body/div/div/div/div/div/table/tbody/tr/td/a'
p47
F6.643856189774725
sS'/html/body/div/div/div/div/ul/li/div/div/div/div/div/a/span'
p48
F7.643856189774724
sS'/html/body/div/div/div/div/div/table'
p49
F4.836501267717121
sS'/html/body/div/div/div/div/div/p/br'
p50
F0.021804370318348337
sS'/html/body/div/div/div/div/div/table/tbody/tr/td/span/span'
p51
F6.643856189774725
sS'/html/body/div/div/div/div/div/div/div/div/div/div/a/h3'
p52
F6.643856189774725
sS'/html/body/div/div/div/div/div/form/div/div/div/button/span'
p53
F6.058893689053569
sS'/html/body/div/div/div/div/div/div/div/div/ul/li/a/i'
p54
F6.643856189774725
sS'/html/body/div/div/div/div/div/div/div/div/span'
p55
F0.021804370318348337
sS'/html/body/div/div/div/div/div/div/table/tbody/tr/td/h2'
p56
F6.643856189774725
sS'/html/body/div/div/div/div/div/div/div/div/div/div/div/div/p'
p57
F4.058893689053568
sS'/html/body/div/div/div/div/div/div/div/div/div/div/p/a'
p58
F3.5563933485243853
sS'/html/body/div/div/div/div/div/div/a/p/span'
p59
F1.1360615495760285
sS'/html/body/div/div/div/div/div/div/div/div/div/div/div/div/div/div/span/span'
p60
F5.058893689053569
sS'/html/body/div/div/div/div/div/div/div/br'
p61
F2.6896598793878495
sS'/html/body/div/div/div/div/div/div/h3/span'
p62
F1.971430847803229
sS'/html/body/div/div/div/div/div/div/div/div/p/span/em'
p63
F7.643856189774724
sS'/html/head/title/script'
p64
F6.643856189774725
sS'/html/body/div/div/div/div/div/div/div/div/div/div/p'
p65
F2.0291463456595165
sS'/html/head/noscript/iframe'
p66
F0.01449956969511517
sS'/html/body/div/div/div/div/a/div/div/p'
p67
F6.643856189774725
sS'/html/body/div/div/div/div/div/div/div/div/table/tr/td/button'
p68
F7.643856189774724
sS'/html/body/div/div/div/div/div/div/a/div/div/div/div/p'
p69
F7.643856189774724
sS'/html/body/div/div/div/div/div/div/div/p/strong'
p70
F0.021804370318348337
sS'/html/body/div/div/div/div/div/div/link'
p71
F4.836501267717121
sS'/html/body/div/div/div/div/div/table/tr/td'
p72
F3.473931188332412
sS'/html/body/div/div/div/div/div/ol/li/ol/li'
p73
F6.643856189774725
sS'/html/body/div/div/div/div/a/h1/span'
p74
F3.7369655941662066
sS'/html/body/div/div/div/div/div/div/div/div/button/span'
p75
F6.643856189774725
sS'/html/head/title/style'
p76
F6.643856189774725
sS'/html/body/div/div/div/div/div/div/div/div/a/p/span'
p77
F2.7858751946471525
sS'/html/body/div/div/div/div/div/table/tbody/tr/td/span'
p78
F6.643856189774725
sS'/html/body/div/div/div/div/div/div/div/div/ul/li'
p79
F5.058893689053569
sS'/html/body/div/div/div/div/div/style'
p80
F7.643856189774724
sS'/html/body/div/div/div/div/div/div/a/button'
p81
F7.643856189774724
sS'/html/body/div/div/div/div/div/div/div/ul/li/form/div/label/span/span'
p82
F3.473931188332412
sS'/html/body/div/div/div/div/div/form/div/span/button'
p83
F6.643856189774725
sS'/html/head/title/meta'
p84
F6.643856189774725
sS'/html/body/div/div/div/div/ul/li/div/div/div/div/div/br'
p85
F7.643856189774724
sS'/html/body/div/div/div/div/form/div/p/small/a'
p86
F0.021804370318348337
sS'/html/body/div/div/div/div/form/div/div/label/span'
p87
F0.021804370318348337
sS'/html/body/div/div/div/div/div/div/div/div/dl/dd'
p88
F7.643856189774724
sS'/html/body/div/div/div/div/div/div/table/tr/td/div/a'
p89
F6.643856189774725
sS'/html/body/div/div/div/div/div/div/div/a/div/div/span/em'
p90
F6.643856189774725
sS'/html/body/div/div/div/div/div/div/span/a/span'
p91
F6.643856189774725
sS'/html/body/div/div/div/div/div/div/div/div/dl/dt'
p92
F7.643856189774724
sS'/html/body/div/div/div/div/ul/li/div/div/div/div/table/tr/td/img'
p93
F7.643856189774724
sS'/html/body/div/div/div/div/h2/em'
p94
F1.2009126939259964
sS'/html/body/div/div/div/div/div/div/dl/dd/a'
p95
F6.643856189774725
sS'/html/body/div/div/div/div/div/ul/li/div/div/div/div/div/img'
p96
F0.02914634565951651
sS'/html/body/div/div/div/div/div/div/div/div/h2'
p97
F2.5145731728297585
sS'/html/body/div/div/div/div/div/div/form/label/span'
p98
F6.643856189774725
sS'/html/body/div/div/div/div/div/a/span'
p99
F5.643856189774724
sS'/html/body/div/div/div/div/div/div/form/ol/div/div/div/label/div/span'
p100
F6.643856189774725
sS'/html/body/div/div/div/div/div/div/form/ol/div/div/div/textarea'
p101
F6.643856189774725
sS'/html/body/div/div/div/div/div/div/img'
p102
F3.184424571137428
sS'/html/body/div/div/div/div/div/div/div/div/form/div/label/input'
p103
F3.473931188332412
sS'/html/body/div/div/div/div/div/ul/li/a/img'
p104
F2.1202942337177118
sS'/html/body/div/div/div/div/div/ul/li/div/div/div/div/a/h2'
p105
F0.02914634565951651
sS'/html/body/div/div/div/div/div/div/form/div/div/div/button/em'
p106
F0.02914634565951651
sS'/html/body/div/div/div/div/div/div/table/tbody/tr/td/span'
p107
F7.643856189774724
sS'/html/body/div/div/div/div/div/div/table/tr/td/p/a'
p108
F7.643856189774724
sS'/html/body/div/div/div/div/div/div/meta'
p109
F5.643856189774724
sS'/html/body/div/div/div/div/div/div/a/div/img'
p110
F6.643856189774725
sS'/html/body/div/div/div/div/div/div/div/p'
p111
F0.01449956969511517
sS'/html/body/div/div/div/div/div/div/div/i'
p112
F0.021804370318348337
sS'/html/body/div/div/div/div/h3/a/span'
p113
F3.5563933485243853
sS'/html/body/div/div/div/div/div/div/div/a'
p114
F0.01449956969511517
sS'/html/body/div/div/div/div/div/div/div/ul/li/form/div/label/input'
p115
F3.473931188332412
sS'/html/body/div/div/div/div/div/p/small/a'
p116
F0.021804370318348337
sS'/html/body/div/div/div/div/div/div/div/div/div/span/span'
p117
F5.643856189774724
sS'/html/body/div/div/div/div/div/div/div/div/div/div/br'
p118
F7.643856189774724
sS'/html/body/div/div/div/div/div/div/div/div/div/button'
p119
F3.473931188332412
sS'/html/body/div/div/div/div/div/div/ul/li'
p120
F2.286304185156641
sS'/html/body/div/div/div/div/div/p/span'
p121
F6.058893689053569
sS'/html/body/div/div/div/div/div/div/div/span/a'
p122
F4.836501267717121
sS'/html/body/div/div/div/div/div/p/span/a'
p123
F2.643856189774725
sS'/html/body/div/div/div/div/div/div/div/a/span'
p124
F2.736965594166206
sS'/html/body/div/div/div/div/div/button/div/span'
p125
F3.473931188332412
sS'/html/body/div/div/div/div/div/div/div/div/div/div/div/img'
p126
F3.120294233717712
sS'/html/body/div/div/div/div/div/ul/li/div/p'
p127
F3.8365012677171206
sS'/html/body/div/div/div/div/div/div/div/div/br'
p128
F6.058893689053569
sS'/html/body/div/div/div/div'
p129
F0.0
sS'/html/body/div/div/div/div/div/div/ul/li/h3'
p130
F3.473931188332412
sS'/html/body/div/div/div/div/a/div/span/strong'
p131
F7.643856189774724
sS'/html/body/div/div/style'
p132
F6.058893689053569
sS'/html/body/div/div/div/div/div/ul/li/div/a'
p133
F2.395928676331139
sS'/html/body/div/div/div/div/div/ul/li/div'
p134
F7.643856189774724
sS'/html/body/div/div/div/div/div/div/div/div/div/div/a/div/div'
p135
F6.643856189774725
sS'/html/body/div/div/div/div/p/small/a'
p136
F0.021804370318348337
sS'/html/body/div/div/div/div/div/div/div/a/div/a'
p137
F7.643856189774724
sS'/html/body/div/div/div/div/div/div/div/div/div/a/em'
p138
F7.643856189774724
sS'/html/body/div/div/div/div/div/div/title'
p139
F4.836501267717121
sS'/html/body/div/div/div/div/div/div/form/ol/input'
p140
F6.643856189774725
sS'/html/body/div/div/div/div/div/div/div/div/table/tr/td/textarea'
p141
F7.643856189774724
sS'/html/body/div/div/div/div/div/div/form/ol/div/div/div/label/div'
p142
F6.643856189774725
sS'/html/body/div/div/div/div/div/div/div/div/div/input'
p143
F1.971430847803229
sS'/html/body/div/div/div/div/div/span/span'
p144
F6.058893689053569
sS'/html/body/div/div/div/div/div/div/div/div/div/a/span'
p145
F3.2515387669959646
sS'/html/body/div/div/div/div/div/div/div/a/meta'
p146
F4.058893689053568
sS'/html/body/div/div/div/div/div/div/div/div/div/div/label/a'
p147
F3.473931188332412
sS'/html/body/div/div/div/div/div/div/i'
p148
F6.058893689053569
sS'/html/body/div/div/div/div/div/div/div/div/div/div/span'
p149
F1.9159357352115256
sS'/html/body/div/div/div/div/div/p/strong'
p150
F6.643856189774725
sS'/html/body/div/div/div/div/div/hr'
p151
F4.321928094887363
sS'/html/body/div/div/div/div/div/div/div/div/form/div/label/span/span'
p152
F3.473931188332412
sS'/html/body/div/div/div/div/div/div/div/table/tr/td/span/a/span'
p153
F2.473931188332412
sS'/html/body/div/div/div/div/a/div/div/div/h3'
p154
F7.643856189774724
sS'/html/body/div/div/div/div/div/div/div/a/div/img'
p155
F6.643856189774725
sS'/html/body/div/div/div/div/div/div/div/a/div/div/span'
p156
F7.643856189774724
sS'/html/body/div/div/div/div/div/div/div/a/div/div/div/div'
p157
F5.058893689053569
sS'/html/body/div/div/div/div/div/div/div/span'
p158
F0.01449956969511517
sS'/html/body/div/div/div/div/div/div/div/ul/li/a'
p159
F3.6438561897747253
sS'/html/body/div/div/div/div/div/h6'
p160
F6.643856189774725
sS'/html/body/div/div/div/div/div/h3'
p161
F3.3959286763311396
sS'/html/body/div/div/div/div/div/h2'
p162
F0.00723156923107573
sS'/html/body/div/div/div/div/div/h1'
p163
F6.058893689053569
sS'/html/body/div/div/div/div/div/div/div/div/em/a'
p164
F7.643856189774724
sS'/html/body/div/div/div/div/div/div/div/ul/li/h3'
p165
F3.473931188332412
sS'/html/body/div/div/div/div/div/div/table/table/tr/td/a'
p166
F7.643856189774724
sS'/html/body/div/div/div/div/div/div/ul/li/div/div/div/p/span/span'
p167
F7.643856189774724
sS'/html/body/div/div/div/div/div/div/table/tr/td/span/span'
p168
F2.217591435072627
sS'/html/body/div/div/div/div/input'
p169
F7.643856189774724
sS'/html/body/div/div/div/div/div/ul/li/div/div/div/div/ul/li/img'
p170
F0.02914634565951651
sS'/html/body/div/div/div/div/div/ul/li/br'
p171
F7.643856189774724
sS'/html/body/div/div/div/div/ul/li/div/div/div/div/ul/li/img'
p172
F7.643856189774724
sS'/html/body/div/div/div/div/div/div/div/div/div/a/div/div/div'
p173
F7.643856189774724
sS'/html/body/div/div/div/div/div/div/div/meta'
p174
F5.058893689053569
sS'/html/body/div/div/div/div/h2/span'
p175
F0.021804370318348337
sS'/html/body/div/div/div/div/div/div/div/div/ul/li/a'
p176
F0.01449956969511517
sS'/html/head/link'
p177
F0.01449956969511517
sS'/html/body/div/div/div/div/div/div/div/div/div/div/div/span'
p178
F1.9434164716336328
sS'/html/body/div/div/div/div/div/ul/li/div/div/div/div/ul/li/a'
p179
F0.02914634565951651
sS'/html/body/div/div/div/div/div/div/div/a/div/div'
p180
F2.5994620704162714
sS'/html/body/div/div/div/div/div/div/div/table/tr/td/a/span'
p181
F2.321928094887362
sS'/html/body/div/div/div/div/div/div/div/div/div/p/a'
p182
F3.5563933485243853
sS'/html/body/div/div/div/div/div/div/div/div/div/a/img'
p183
F6.058893689053569
sS'/html/body/div/div/div/div/div/div/div/div/div/div/div/meta'
p184
F2.0291463456595165
sS'/html/body/div/div/div/div/div/div/div/form/button/span'
p185
F2.5994620704162714
sS'/html/body/div/div/div/div/div/div/div/div/div/div/a/div/div/h3'
p186
F5.321928094887363
sS'/html/body/div/style'
p187
F0.19264507794239583
sS'/html/body/div/div/div/div/form/div/p/small/br'
p188
F0.021804370318348337
sS'/html/body/div/div/div/div/a/div/div'
p189
F3.7369655941662066
sS'/html/body/div/div/div/div/div/div/div/div/strong/span'
p190
F6.058893689053569
sS'/html/body/div/div/div/div/div/div/div'
p191
F1.2515387669959643
sS'/html/body/div/div/div/div/div/div/form/div/span/button'
p192
F7.643856189774724
sS'/html/body/div/div/div/div/div/div/div/div/p/br'
p193
F6.058893689053569
sS'/html/body/div/div/div/a/img'
p194
F7.643856189774724
sS'/html/body/div/div/div/div/div/div/div/div/ul'
p195
F2.5145731728297585
sS'/html/body/div/div/div/div/div/p/b/i'
p196
F7.643856189774724
sS'/html/body/div/div/h3/a'
p197
F7.643856189774724
sS'/html/body/div/div/div/div/div/span'
p198
F2.217591435072627
sS'/html/body/div/div/div/div/div/div/span/span'
p199
F4.473931188332412
sS'/html/body/div/div/div/div/form/div/div/div/div/span/a/i'
p200
F0.021804370318348337
sS'/html/body/div/div/div/div/div/ol/li/a'
p201
F6.643856189774725
sS'/html/body/div/div/div/div/div/p/a/i'
p202
F0.021804370318348337
sS'/html/body/div/div/div/ul/li/a'
p203
F4.473931188332412
sS'/html/body/div/div/div/div/div/div/div/div/div/div/div/div/a/meta'
p204
F2.0588936890535687
sS'/html/body/div/div/div/div/div/div/div/div'
p205
F2.0
sS'/html/body/div/div/div/div/div/div/div/div/ul/li/div/div/a/span'
p206
F0.02914634565951651
sS'/html/body/div/div/div/div/div/div/div/div/div/div/div/div/p/br'
p207
F7.643856189774724
sS'/html/body/div/div/div/div/div/div/div/div/div/a/div/span'
p208
F7.643856189774724
sS'/html/body/div/div/div/div/div/div/div/table/thead/tr/th/a'
p209
F3.120294233717712
sS'/html/body/div/div/div/div/form/div/span/button'
p210
F0.021804370318348337
sS'/html/body/div/div/div/div/div/div/div/div/p/a'
p211
F6.643856189774725
sS'/html/body/div/div/div/button/span'
p212
F7.643856189774724
sS'/html/body/div/div/div/div/div/div/div/ul/li/span/span'
p213
F7.643856189774724
sS'/html/body/div/div/div/div/div/div/form/div/input'
p214
F5.643856189774724
sS'/html/body/div/div/div/div/div/div/div/div/div/div/div/div'
p215
F1.6214883767462702
sS'/html/body/div/div/div/div/div/div/form/div/label'
p216
F6.058893689053569
sS'/html/body/div/div/div/div/div/div/div/div/a/div/div/p'
p217
F2.9434164716336326
sS'/html/head/style'
p218
F4.643856189774724
sS'/html/body/div/div/div/div/div/div/div/div/div/div/div/div/div/meta'
p219
F5.058893689053569
sS'/html/body/div/div/div/div/div/div/div/p/em'
p220
F6.643856189774725
sS'/html/body/div/div/div/div/div/div/a/div/div/div/img'
p221
F7.643856189774724
sS'/html/body/div/div/div/div/ul/li/div/div/div/h2'
p222
F7.643856189774724
sS'/html/body/div/div/div/div/div/div/div/div/div/label/a'
p223
F3.473931188332412
sS'/html/body/div/div/div/div/div/div/div/div/div/div/a/span'
p224
F3.5563933485243853
sS'/html/body/div/div/div/div/div/div/p/a/i'
p225
F6.058893689053569
sS'/html/body/div/div/div/div/p'
p226
F0.021804370318348337
sS'/html/body/div/div/div/div/div/div/a/div/div/div/div/div'
p227
F7.643856189774724
sS'/html/body/div/div/div/div/div/div/form/input'
p228
F5.321928094887363
sS'/html/body/div/div/script'
p229
F0.11247472925841266
sS'/html/body/div/div/div/div/div/form/div/div/input'
p230
F6.058893689053569
sS'/html/body/div/div/div/div/div/div/ul/li/span'
p231
F4.643856189774724
sS'/html/body/div/div/div/div/div/h2/span'
p232
F6.643856189774725
sS'/html/body/div/div/div/div/div/br'
p233
F0.021804370318348337
sS'/html/body/div/div/div/div/div/div/p/a'
p234
F4.321928094887363
sS'/html/body/div/div/div/div/div/div/style'
p235
F4.643856189774724
sS'/html/body/div/div/div/div/div/ol/li'
p236
F6.643856189774725
sS'/html/body/div/div/div/div/div/div/div/div/div/div/a'
p237
F1.9434164716336328
sS'/html/body/div/div/div/div/div/div/a/div/h5'
p238
F7.643856189774724
sS'/html/body/div/div/div/div/form/input'
p239
F0.021804370318348337
sS'/html/body/div/div/div/div/div/div/div/div/div/a/p'
p240
F7.643856189774724
sS'/html/body/div/div/div/h2'
p241
F5.643856189774724
sS'/html/body/div/div/div/h1'
p242
F6.058893689053569
sS'/html/body/div/div/div/div/div/div/div/div/table/tr/td/select/option'
p243
F7.643856189774724
sS'/html/body/div/div/div/div/div/div/form/ol/div/div/div/label/div/label'
p244
F6.643856189774725
sS'/html/body/div/div/div/div/h3/a'
p245
F2.395928676331139
sS'/html/body/div/div/div/div/div/div/div/div/span/br'
p246
F1.7612131404128835
sS'/html/body/div/div/div/div/div/div'
p247
F0.43440282414577486
sS'/html/body/div/div/div/div/div/div/div/table/tr/td/a/span/span'
p248
F7.643856189774724
sS'/html/body/div/div/div/div/div/div/a/span/span'
p249
F7.643856189774724
sS'/html/body/div/div/div/div/div/div/div/div/div/a/span/span'
p250
F4.473931188332412
sS'/html/body/div/div/div/div/div/a'
p251
F0.00723156923107573
sS'/html/body/div/div/div/div/div/div/div/button/div/div'
p252
F3.473931188332412
sS'/html/body/div/div/div/div/div/div/a/div/div/div/div/p/em'
p253
F7.643856189774724
sS'/html/body/div/script'
p254
F0.021804370318348337
sS'/html/body/div/div/div/div/div/div/ul/li/p'
p255
F6.643856189774725
sS'/html/body/div/div/div/div/button/span'
p256
F0.00723156923107573
sS'/html/body/div/div/div/div/h2'
p257
F0.021804370318348337
sS'/html/body/div/div/div/div/h1'
p258
F2.8365012677171206
sS'/html/body/div/div/div/div/div/div/div/div/div/div/script'
p259
F6.643856189774725
sS'/html/body/div/div/div/div/div/div/ul/li/a'
p260
F1.5145731728297582
sS'/html/body/div/div/div/div/form/div/div/div/button/em'
p261
F6.643856189774725
sS'/html/body/div/div/div/div/div/div/div/span/span'
p262
F7.643856189774724
sS'/html/body/div/div/div/div/div/div/h2/a'
p263
F3.473931188332412
sS'/html/body/div/div/div/div/div/div/a/span'
p264
F0.021804370318348337
sS'/html/body/div/div/div/div/div/div/a/h3'
p265
F5.643856189774724
sS'/html/body/div/div/div/div/div/div/div/div/div/div/a/img'
p266
F6.058893689053569
sS'/html/body/div/div/div/div/div/div/ul/li/div/a'
p267
F4.643856189774724
sS'/html/body/div/div/div/div/div/div/div/div/strong/a'
p268
F5.058893689053569
sS'/html/body/div/div/div/div/div/div/div/div/strong'
p269
F7.643856189774724
sS'/html/body/div/div/div/div/div/ul/li/div/div/div/div/div/br'
p270
F0.02914634565951651
sS'/html/body/div/div/div/div/div/div/p/span'
p271
F1.8624964762500653
sS'/html/body/div/div/div/div/ul/li/a/span'
p272
F6.058893689053569
sS'/html/body/div/div/div/div/div/div/div/div/form/div/div/input'
p273
F7.643856189774724
sS'/html/body/div/div/div/div/div/div/div/div/div/img'
p274
F1.971430847803229
sS'/html/body/div/div/div/div/div/div/div/div/meta'
p275
F2.0291463456595165
sS'/html/body/div/div/div/div/form/div/div/div/button/span'
p276
F6.643856189774725
sS'/html/body/div/div/div/div/button'
p277
F4.836501267717121
sS'/html/body/div/div/div/div/div/div/div/script'
p278
F2.3584539709124765
sS'/html/body/div/div/div/div/div/div/ul/li/p/a'
p279
F6.643856189774725
sS'/html/body/div/div/div/div/div/div/div/div/div/p/em'
p280
F7.643856189774724
sS'/html/body/div/div/div/div/div/div/script'
p281
F0.13606154957602856
sS'/html/body/div/div/div/div/div/div/a/div/div/div/h3'
p282
F7.643856189774724
sS'/html/body/div/div/div/div/div/div/div/div/textarea'
p283
F2.5994620704162714
sS'/html/body/div/div/div/div/div/ul/li/h3'
p284
F3.473931188332412
sS'/html/body/div/div/div/div/div/div/div/div/div/div/img'
p285
F6.058893689053569
sS'/html/body/div/div/div/div/div/div/form/ol/div/div/div/ul/li/label/span/a'
p286
F6.643856189774725
sS'/html/body/div/div/div/div/a/div/h3'
p287
F6.643856189774725
sS'/html/body/div/div/div/div/div/div/div/div/div/em'
p288
F5.058893689053569
sS'/html/body/div/div/div/div/div/div/div/div/h3'
p289
F3.473931188332412
sS'/html/body/div/div/div/div/span'
p290
F6.643856189774725
sS'/html/body/div/div/div/div/div/div/div/div/div/div/input'
p291
F3.473931188332412
sS'/html/body/div/div/div/div/div/div/table/tr/td/ul/li/em'
p292
F3.2515387669959646
sS'/html/body/div/div/div/div/div/div/div/div/img'
p293
F3.9434164716336326
sS'/html/body/div/div/div/div/a'
p294
F0.00723156923107573
sS'/html/body/div/div/div/div/div/div/div/div/p/span/span'
p295
F7.643856189774724
sS'/html/body/div/div/div/div/div/div/div/button/span'
p296
F0.02914634565951651
sS'/html/body/div/div/div/div/div/div/dl/dt'
p297
F5.643856189774724
sS'/html/body/div/div/div/div/div/div/div/div/div/li'
p298
F7.643856189774724
sS'/html/body/div/div/div/div/div/div/div/div/div/script'
p299
F3.473931188332412
sS'/html/body/div/div/div/div/div/div/dl/dd'
p300
F5.643856189774724
sS'/html/script'
p301
F3.5563933485243853
sS'/html/body/div/div/div/div/div/div/div/div/a'
p302
F1.6665762662748083
sS'/html/body/div/div/div/div/form/div/div/div/div'
p303
F0.021804370318348337
sS'/html/body/div/div/div/div/div/ul/li/div/div/div/div/h2'
p304
F0.02914634565951651
sS'/html/body/div/div/div/div/p/img'
p305
F0.021804370318348337
sS'/html/body/div/div/div/div/div/div/table/tbody/tr/td'
p306
F5.058893689053569
sS'/html/body/div/div/div/div/div/div/div/a/div'
p307
F6.058893689053569
sS'/html/body/div/div/div/div/div/div/form/ol/div/div/div/div'
p308
F6.643856189774725
sS'/html/body/div/div/div/div/div/ul/li/span/span'
p309
F3.0
sS'/html/body/div/div/div/div/div/div/div/div/form/div/div/span/button/em'
p310
F7.643856189774724
sS'/html/body/div/div/div/div/div/div/div/table/tr/td/a'
p311
F1.8365012677171209
sS'/html/body/div/div/div/div/img'
p312
F7.643856189774724
sS'/html/body/div/div/div/div/div/div/div/p/span/br'
p313
F6.643856189774725
sS'/html/body/div/div/div/div/div/table/tr/td/a'
p314
F5.058893689053569
sS'/html/body/div/div/div/div/a/div/div/div/div/p'
p315
F7.643856189774724
sS'/html/body/div/div/div/div/div/div/div/a/p/em'
p316
F7.643856189774724
sS'/html/body/div/div/div/h3/a'
p317
F3.3219280948873626
sS'/html/body/div/div/div/div/div/div/table/table/tr/td/span/span'
p318
F7.643856189774724
sS'/html/body/div/div/div/div/div/div/div/img'
p319
F3.473931188332412
sS'/html/body/div/div/div/div/div/div/table/tbody/tr/td/p/br'
p320
F7.643856189774724
sS'/html/body/div/div/div/div/div/div/a/div/div/img'
p321
F0.00723156923107573
sS'/html/body/div/div/div/div/div/div/div/div/button'
p322
F3.0588936890535687
sS'/html/body/div/div/div/div/div/ul/li'
p323
F0.02914634565951651
sS'/html/body/div/div/div/div/div/div/form/label/input'
p324
F6.643856189774725
sS'/html/body/div/div/div/div/div/div/div/div/div/h2/span'
p325
F7.643856189774724
sS'/html/body/div/div/div/div/div/div/div/div/div/br'
p326
F7.643856189774724
sS'/html/body/div/div/div/div/div/div/div/div/div/div/a/div/div/img'
p327
F5.321928094887363
sS'/html/body/div/div/div/div/div/div/div/a/div/div/p'
p328
F7.643856189774724
sS'/html/body/div/div/div/div/div/div/div/div/div/a/div/span/span'
p329
F7.643856189774724
sS'/html/body/div/div/div/div/div/div/div/div/span/span'
p330
F7.643856189774724
sS'/html/body/div/div/div/nav/ul/li/a'
p331
F6.643856189774725
sS'/html/body/div/div/div/div/div/div/div/div/p/span'
p332
F6.058893689053569
sS'/html/body/div/div/div/div/div/div/div/div/h3/div/a'
p333
F3.473931188332412
sS'/html/body/div/div/div/div/div/div/p'
p334
F1.5777669993169523
sS'/html/body/div/div/div/div/div/div/div/button/div'
p335
F3.473931188332412
sS'/html/body/div/div/div/div/div/table/tbody/tr/td'
p336
F6.643856189774725
sS'/html/body/div/div/div/div/div/div/a/br'
p337
F7.643856189774724
sS'/html/body/div/div/div/div/form/div/div/div/div/input'
p338
F0.021804370318348337
sS'/html/body/div/div/div/div/div/div/table/tr/td'
p339
F2.2515387669959646
sS'/html/body/div/div/div/style'
p340
F3.8365012677171206
sS'/html/body/div/div/div/div/div/div/div/div/div/a/p/em'
p341
F7.643856189774724
sS'/html/body/div/div/div/div/div/div/div/a/div/div/div/span'
p342
F2.5994620704162714
sS'/html/body/div/div/div/div/div/div/div/div/div/div/a/div/img'
p343
F2.5994620704162714
sS'/html/body/div/div/div/div/div/ul/li/div/div/span'
p344
F7.643856189774724
sS'/html/body/div/div/div/div/div/div/ul/li/div/div/div/span/a'
p345
F7.643856189774724
sS'/html/body/div/div/div/div/div/div/div/a/button/em'
p346
F0.02914634565951651
sS'/html/body/div/div/div/div/div/div/div/div/div/div/div/div/div/a'
p347
F4.184424571137428
sS'/html/body/div/div/div/div/div/div/div/table/tr/td/ul/li/em'
p348
F3.3959286763311396
sS'/html/body/div/div/div/div/div/div/ul/li/div/div/div/img'
p349
F7.643856189774724
sS'/html/body/div/div/div/div/div/div/div/div/div/div/a/div/div/p'
p350
F2.395928676331139
sS'/html/body/div/div/div/div/div/ul/li/a'
p351
F0.00723156923107573
sS'/html/body/div/div/div/div/div'
p352
F0.00723156923107573
sS'/html/body/div/div/div/div/div/div/a/p'
p353
F7.643856189774724
sS'/html/body/div/div/div/div/div/div/div/table/tr/td'
p354
F1.3584539709124765
sS'/html/body/div/div/div/div/div/div/div/div/div/span/a'
p355
F5.643856189774724
sS'/html/body/div/div/div/div/div/script'
p356
F0.1762506396917273
sS'/html/body/div/div/div/div/div/div/br'
p357
F3.184424571137428
sS'/html/body/div/div/div/div/div/div/table/tr/td/span'
p358
F3.7369655941662066
sS'/html/body/div/div/div/div/div/div/div/table/tr/td/span/span'
p359
F1.3584539709124765
sS'/html/body/div/div/div/div/div/div/div/div/p/span/a'
p360
F7.643856189774724
sS'/html/body/div/div/div/div/div/div/h1/em'
p361
F6.643856189774725
sS'/html/body/div/div/div/div/div/div/ul/li/div/a/span'
p362
F4.643856189774724
sS'/html/body/div/div/div/div/div/div/div/div/div/div/div/div/div/div'
p363
F5.058893689053569
sS'/html/body/div/div/div/div/div/form/div/span/a'
p364
F7.643856189774724
sS'/html/body/div/div/div/div/a/div/span'
p365
F3.7369655941662066
sS'/html/body/div/div/div/div/div/ul/li/div/div/div/div/table/tr/td/img'
p366
F0.02914634565951651
sS'/html/body/div/div/div/div/div/p/a/strong'
p367
F6.643856189774725
sS'/html/body/div/div/div/div/div/div/p/a/span'
p368
F6.643856189774725
sS'/html/body/div/div/div/div/div/div/a'
p369
F0.00723156923107573
sS'/html/body/div/div/div/div/div/div/div/ul/div/div'
p370
F3.473931188332412
sS'/html/body/div/div/div/div/div/div/a/p/em'
p371
F1.3040061868900998
sS'/html/body/div/div/div/div/div/div/form/label/textarea'
p372
F6.643856189774725
sS'/html/body/div/div/div/div/div/div/div/div/a/sub'
p373
F5.643856189774724
sS'/html/body/div/div/div/div/div/div/ul/li/a/span'
p374
F4.643856189774724
sS'/html/body/div/div/div/div/div/div/div/div/div/div/div/div/div/div/span'
p375
F5.058893689053569
sS'/html/body/div/div/div/div/a/div/div/div/div/span'
p376
F7.643856189774724
sS'/html/body/div/div/div/div/div/div/div/a/img'
p377
F0.021804370318348337
sS'/html/body/div/div/div/div/div/span/a'
p378
F6.058893689053569
sS'/html/body/div/div/div/div/div/div/h1'
p379
F1.9434164716336328
sS'/html/body/div/div/div/div/div/div/div/div/div/div/a/div/div/p/em'
p380
F2.5994620704162714
sS'/html/body/div/div/div/div/div/a/img'
p381
F3.5563933485243853
sS'/html/body/div/div/div/div/div/div/form/ol/div/div/div/br'
p382
F6.643856189774725
sS'/html/body/div/div/div/div/div/div/table/tr/td/p/br'
p383
F7.643856189774724
sS'/html/body/div/div/div/div/div/div/div/div/a/div/div/div'
p384
F2.9434164716336326
sS'/html/body/div/div/div/div/div/input'
p385
F6.058893689053569
sS'/html/body/div/div/div/div/div/div/div/div/div/a/div/div/p'
p386
F6.643856189774725
sS'/html/body/div/div/div/div/a/div'
p387
F3.5563933485243853
sS'/html/body/div/div/div/div/div/img'
p388
F2.3584539709124765
sS'/html/body/div/div/div/div/div/div/div/a/div/div/p/em'
p389
F7.643856189774724
sS'/html/body/div/div/div/div/div/div/div/div/div/a/div/h3'
p390
F7.643856189774724
sS'/html/body/div/div/div/div/div/div/a/button/em'
p391
F6.058893689053569
sS'/html/body/div/div/div/div/div/div/a/div/div/div'
p392
F5.643856189774724
sS'/html/body/div/div/div/div/div/div/form/label/br'
p393
F6.643856189774725
sS'/html/body/div/div/div/div/div/ul/li/span'
p394
F4.643856189774724
sS'/html/body/div/div/div/div/div/div/div/table/tr/td/time'
p395
F3.6438561897747253
sS'/html/body/div/div/div/div/div/div/a/div/div/div/div/span'
p396
F7.643856189774724
sS'/html/body/div/div/h1'
p397
F7.643856189774724
sS'/html/body/div/div/div/div/div/ul/li/div/div/div/h2'
p398
F0.02914634565951651
sS'/html/body/div/div/div/div/div/div/div/div/div/div/div/a'
p399
F1.7369655941662063
sS'/html/body/div/div/div/div/div/div/div/ol/li/span'
p400
F6.643856189774725
sS'/html/body/div/div/div/div/div/div/div/div/table/tr/td/p/a'
p401
F7.643856189774724
sS'/html/body/div/div/div/div/div/div/div/div/ul/li/div'
p402
F6.643856189774725
sS'/html/body/div/div/div/div/div/div/table/tbody/tr/td/p/a'
p403
F6.058893689053569
sS'/html/body/div/div/div/div/div/div/div/div/div/div/div/div/img'
p404
F5.321928094887363
sS'/html/body/div/div/div/div/div/div/div/div/p'
p405
F0.021804370318348337
sS'/html/body/div/div/div/div/div/ul/li/a/span'
p406
F0.02914634565951651
sS'/html/body/div/div/div/div/p/a/i'
p407
F0.021804370318348337
sS'/html/body/div/div/div/div/div/ol/li/p/a'
p408
F6.643856189774725
sS'/html/body/div/div/div/div/div/div/div/h2'
p409
F3.6438561897747253
sS'/html/body/div/div/div/div/div/div/div/div/table/thead/tr/th'
p410
F7.643856189774724
sS'/html/body/div/div/div/div/h3/a/meta'
p411
F3.5563933485243853
sS'/html/body/div/div/div'
p412
F2.888968687611256
sS'/html/body/div/div/div/div/div/div/div/div/a/span/span'
p413
F4.473931188332412
sS'/html/body/div/div/div/div/div/div/a/div/div'
p414
F5.643856189774724
sS'/html/body/div/div/div/span'
p415
F0.021804370318348337
sS'/html/body/div/div/div/div/div/div/div/div/div/div/span/meta'
p416
F5.058893689053569
sS'/html/body/div/div/div/div/div/div/ul/li/div/div/dl/dd/a'
p417
F7.643856189774724
sS'/html/body/div/div/div/div/div/div/div/a/h5'
p418
F6.643856189774725
sS'/html/body/div/div/div/div/div/div/div/table/tr/td/span'
p419
F1.8889686876112561
sS'/html/body/div/div/div/div/div/div/table/thead/tr/th'
p420
F3.3219280948873626
sS'/html/body/div/div/div/div/div/div/table/tr/td/div'
p421
F2.395928676331139
sS'/html/body/div/div/div/div/a/h3'
p422
F5.058893689053569
sS'/html/body/div/div/div/div/div/div/div/div/p/strong'
p423
F4.058893689053568
sS'/html/body/div/div/div/div/div/div/div/div/ul/li/span'
p424
F6.643856189774725
sS'/html/body/div/div/div/div/div/div/div/div/div/div/div/div/div/div/meta'
p425
F5.058893689053569
sS'/html/body/div/div/div/div/form/div/div/select/option'
p426
F0.021804370318348337
sS'/html/body/div/div/div/div/div/div/div/div/h2/a'
p427
F6.643856189774725
sS'/html/body/div/div/div/div/div/div/div/table/tr/td/ul/li/span'
p428
F3.3219280948873626
sS'/html/body/div/div/div/div/div/ol/li/p/strong'
p429
F6.643856189774725
sS'/html/body/div/div/div/div/div/div/div/div/div/a/p/span'
p430
F2.5994620704162714
sS'/html/body/div/div/div/div/div/div/div/div/div/h2/a'
p431
F7.643856189774724
sS'/html/body/div/div/div/div/div/div/div/div/div/div/div/em'
p432
F4.184424571137428
sS'/html/body/div/div/div/div/div/div/div/div/div/ul/li/a'
p433
F6.643856189774725
sS'/html/body/div/div/div/div/div/div/table/tbody/tr/td/p/a/span'
p434
F6.643856189774725
sS'/html/body/div'
p435
F0.021804370318348337
sS'/html/body/div/div/div/meta'
p436
F5.058893689053569
sS'/html/body/div/div/div/div/div/div/div/ul/h3'
p437
F3.473931188332412
sS'/html/body/div/div/div/div/div/div/div/div/div/div/meta'
p438
F1.8624964762500653
sS'/html/body/div/div/div/div/div/form/div/span'
p439
F7.643856189774724
sS'/html/body/div/div/div/div/div/div/div/div/div/div/a/div/div/div/span'
p440
F5.321928094887363
sS'/html/body/div/div/div/div/div/div/form/select/option'
p441
F6.643856189774725
sS'/html/body/div/div/div/div/div/button'
p442
F3.473931188332412
sS'/html/body/div/div/div/div/div/div/a/div/span'
p443
F6.643856189774725
sS'/html/body/div/div/div/div/div/div/div/div/div/div/div/div/div'
p444
F3.9434164716336326
sS'/html/body/div/div/div/div/div/div/button/span'
p445
F3.2515387669959646
sS'/html/body/div/div/div/div/form/div/div/label/span/br'
p446
F0.021804370318348337
sS'/html/body/div/div/div/div/div/ul/li/p/a'
p447
F2.9434164716336326
sS'/html/body/div/div/div/div/div/div/div/ul/li/div/div'
p448
F3.473931188332412
sS'/html/body/div/div/div/div/div/div/div/div/div/p/span'
p449
F4.321928094887363
sS'/html/body/div/div/div/div/div/div/div/div/div/a/div'
p450
F7.643856189774724
sS'/html/body/div/div/div/div/div/meta'
p451
F3.2515387669959646
sS'/html/body/div/div/div/div/div/div/form/div/button/span'
p452
F6.643856189774725
sS'/html/body/div/div/div/div/div/div/div/div/div/a/div/div/p/em'
p453
F6.643856189774725
sS'/html/body/div/div/div/div/div/div/div/div/a/button/span'
p454
F5.058893689053569
sS'/html/body/div/div/div/div/div/div/a/img'
p455
F1.2515387669959643
sS'/html/body/div/div/div/div/div/div/div/div/a/h5'
p456
F3.9434164716336326
sS'/html/body/noscript/iframe'
p457
F6.643856189774725
sS'/html/body/div/div/div/div/div/div/a/div/div/span'
p458
F0.00723156923107573
sS'/html/body/div/div/div/div/div/div/div/div/button/span/span'
p459
F6.643856189774725
sS'/html/body/div/div/div/div/form/div/div/input'
p460
F0.00723156923107573
sS'/html/body/div/div/div/div/div/a/h3'
p461
F2.395928676331139
sS'/html/body/div/div/div/div/div/ul/li/div/div/div/div/div/a/span'
p462
F0.02914634565951651
sS'/html/body/div/div/div/div/div/div/ul/li/div/a/img'
p463
F4.473931188332412
sS'/html/body/div/div/div/div/div/div/div/a/div/meta'
p464
F2.3584539709124765
sS'/html/body/div/div/div/div/div/div/div/div/div/div/a/div/span'
p465
F6.643856189774725
sS'/html/body/div/div/div/div/div/table/tr/td/span/span'
p466
F7.643856189774724
sS'/html/head/title'
p467
F0.021804370318348337
sS'/html/body/div/div/div/div/form/div/div/small/a'
p468
F0.021804370318348337
sS'/html/body/div/div/div/div/div/table/tr/td/a/span'
p469
F5.058893689053569
sS'/html/body/div/div/div/div/div/div/div/a/div/h3'
p470
F6.643856189774725
sS'/html/body/div/div/div/div/form/div/input'
p471
F0.021804370318348337
sS'/html/body/div/div/div/div/ul/li/a'
p472
F0.00723156923107573
sS'/html/body/div/div/div/div/ul/li'
p473
F0.00723156923107573
sS'/html/body/div/div/div/div/form/div/label'
p474
F0.021804370318348337
sS'/html/body/div/div/div/div/span/a/em'
p475
F7.643856189774724
sS'/html/body/div/div/div/div/div/div/table/tr/td/ul/li/span'
p476
F3.473931188332412
sS'/html/body/div/div/div/div/div/div/h2'
p477
F1.8365012677171209
sS'/html/body/div/div/div/div/form/div/div/label/span/a/i'
p478
F0.021804370318348337
sS'/html/body/div/div/div/div/div/ul/li/a/br'
p479
F1.8889686876112561
sS'/html/body/div/div/div/div/div/div/div/div/a/span'
p480
F0.01449956969511517
sS'/html/body/div/div/div/div/h2/a/em'
p481
F3.5563933485243853
sS'/html/body/div/div/div/div/div/ul/li/div/div/div/div'
p482
F0.02914634565951651
sS'/html/body/div/div/div/div/div/div/div/hr'
p483
F7.643856189774724
sS'/html/body/div/div/div/div/div/button/span'
p484
F0.021804370318348337
sS'/html/body/div/div/div/div/div/div/div/div/a/div/img'
p485
F2.6896598793878495
sS'/html/body/div/div/div/div/div/div/ul/li/div/div/p/em'
p486
F7.643856189774724
sS'/html/body/div/div/div/div/div/div/div/div/a/div/div/span'
p487
F2.6896598793878495
sS'/html/body/div/div/div/div/div/div/form/div/div/input'
p488
F0.02914634565951651
sS'/html/body/div/div/div/div/script'
p489
F0.00723156923107573
sS'/html/body/div/div/div/div/div/h2/a'
p490
F7.643856189774724
sS'/html/body/div/div/div/div/div/div/div/div/div/a/div/img'
p491
F5.643856189774724
sS'/html/body/div/div/div/div/div/ul'
p492
F7.643856189774724
sS'/html/body/div/div/div/div/div/div/div/div/div/div/div/div/a/span'
p493
F2.0588936890535687
sS'/html/body/div/div/div/div/div/div/div/div/div/a/sub'
p494
F7.643856189774724
sS'/html/body/div/div/div/div/div/div/div/div/div/div/p/span'
p495
F2.0588936890535687
sS'/html/body/div/div/div/div/div/div/div/h4'
p496
F3.3959286763311396
sS'/html/body/div/div/div/div/div/div/div/h3'
p497
F0.021804370318348337
sS'/html/body/div/div/div/ul/li'
p498
F6.058893689053569
sS'/html/body/div/div/div/div/div/div/form/ol/div/div/div/input'
p499
F6.643856189774725
sS'/html/body/div/div/div/div/a/div/em/span'
p500
F7.643856189774724
sS'/html/head/title/link'
p501
F6.643856189774725
sS'/html/body/div/div/div/div/div/div/form/button/span'
p502
F3.2515387669959646
sS'/html/body/script'
p503
F0.0
sS'/html/body/div/div/div/div/div/div/div/div/div/div'
p504
F1.4739311883324122
sS'/html/body/div/div/div/div/div/form/div/span/select/option'
p505
F7.643856189774724
sS'/html/body/div/div/div/div/div/div/div/style'
p506
F1.6896598793878495
sS'/html/body/div/div/div/div/div/div/div/div/div/div/div/br'
p507
F4.184424571137428
sS'/html/body/div/div/div/div/div/div/ul/ul/li/p'
p508
F6.643856189774725
sS'/html/body/div/div/div/div/div/form/div/div/div/button/em'
p509
F6.058893689053569
sS'/html/body/div/div/div/div/div/div/form/div/div/div/button/span'
p510
F0.02914634565951651
sS'/html/body/div/div/div/div/div/div/ul/br'
p511
F7.643856189774724
sS'/html/body/div/div/div/div/div/div/form/br'
p512
F6.643856189774725
sS'/html/body/div/div/div/div/div/div/div/ul/li/a/img'
p513
F7.643856189774724
sS'/html/body/div/div/div/div/div/div/div/ul/li/div/div/a'
p514
F7.643856189774724
sS'/html/body/div/div/div/div/div/div/form/ol/div/table/tbody/tr/td/input'
p515
F6.643856189774725
sS'/html/body/div/div/div/div/a/div/button'
p516
F7.643856189774724
sS'/html/body/div/div/div/div/div/div/div/p/a/em'
p517
F7.643856189774724
sS'/html/body/div/div/div/div/div/div/div/ul/li/span'
p518
F5.321928094887363
sS'/html/body/div/div/div/div/div/div/hr'
p519
F6.058893689053569
sS'/html/body/div/div/div/div/div/div/table/br'
p520
F7.643856189774724
sS'/html/body/div/div/div/div/div/div/div/div/div/div/div/div/a/span/span'
p521
F2.0588936890535687
sS'/html/body/div/div/div/h1/span'
p522
F3.184424571137428
sS'/html/body/div/div/div/div/div/div/ul/li/div/div'
p523
F4.643856189774724
sS'/html/body/div/div/div/div/div/div/div/div/div/a/div/div'
p524
F7.643856189774724
sS'/html/body/div/div/div/div/h4'
p525
F0.021804370318348337
sS'/html/body/div/div/div/div/div/div/div/a/div/div/div'
p526
F2.888968687611256
sS'/html/body/div/div/div/div/div/div/div/div/div/div/div'
p527
F3.2515387669959646
sS'/html/body/div/div/div/div/form/div/div'
p528
F0.021804370318348337
sS'/html/body/div/div/div/div/div/div/form/ol/div/div/div/ul/li/label/span/input'
p529
F6.643856189774725
sS'/html/body/div/div/div/div/div/p'
p530
F0.01449956969511517
sS'/html/body/div/div/div/div/div/div/div/p/span'
p531
F4.643856189774724
sS'/html/body/div/div/div/div/div/div/div/div/div'
p532
F1.8624964762500653
sS'/html/body/div/div/div/div/div/h3/span'
p533
F2.5994620704162714
sS'/html/body/div/div/div/div/div/div/ul/li/a/div'
p534
F7.643856189774724
sS'/html/body/div/div/div/div/div/div/h3'
p535
F5.643856189774724
sS'/html/body/div/div/div/div/div/div/div/table/thead/tr/th/span'
p536
F3.120294233717712
sS'/html/body/div/div/div/div/div/div/div/div/h3/span'
p537
F0.021804370318348337
sS'/html/body/div/div/div/div/div/div/div/a/p'
p538
F7.643856189774724
sS'/html/body/div/div/div/div/div/div/div/div/ul/li/a/img'
p539
F0.02914634565951651
sS'/html/body/div/div/div/div/div/div/div/div/div/div/div/div/div/span'
p540
F2.0291463456595165
sS'/html/body/div/div/div/div/div/div/div/div/div/meta'
p541
F3.473931188332412
sS'/html/body/div/div/div/div/a/div/div/div/img'
p542
F7.643856189774724
sS'/html/body/div/div/div/div/div/table/tr/td/a/meta'
p543
F5.058893689053569
sS'/html/body/div/div/div/script'
p544
F0.1762506396917273
sS'/html/body/div/div/div/div/div/div/div/p/a'
p545
F5.643856189774724
sS'/html/body/div/div/div/div/div/span/button'
p546
F6.058893689053569
sS'/html/body/div/div/div/div/div/div/div/a/br'
p547
F7.643856189774724
sS'/html/body/div/div/div/div/div/a/div/span'
p548
F3.473931188332412
sS'/html/body/div/div/div/div/div/div/div/div/script'
p549
F0.20091269392599628
s.