(dp0
S'/html/body/div/div/div/div/div/div/p/span'
p1
F7.643856189774724
sS'/html/body/section/script'
p2
F4.836501267717121
sS'/html/body/div/div/div/div/div/div/div/div/p'
p3
F6.058893689053569
sS'/html/body/div/div/div/div/div/dl/dt/div/br'
p4
F4.058893689053568
sS'/html/body/section/div/div/div/a'
p5
F5.058893689053569
sS'/html/body/section/section/div/div/span'
p6
F4.836501267717121
sS'/html/body/div/div/div/div/div/div/script'
p7
F0.9159357352115255
sS'/html/body/div/div/div/div/div/div/div/div/a/img'
p8
F1.5353317329965557
sS'/html/body/section/div/div/ul/li/a/div/div/span'
p9
F4.836501267717121
sS'/html/body/div/div/div/div/div/div/div/div/div/i'
p10
F6.643856189774725
sS'/html/body/section/section/div/div/div/a'
p11
F4.836501267717121
sS'/html/body/div/div/div/dl/dd/div/ul/li/a'
p12
F2.9434164716336326
sS'/html/body/section/div/div/div/dl/dd/span/a/i'
p13
F4.836501267717121
sS'/html/body/div/div/div/ul/li/div/a'
p14
F0.12029423371771174
sS'/html/body/div/div/div/div/div/dl/dt/div/p/a/img'
p15
F6.058893689053569
sS'/html/body/div/div/div'
p16
F0.066427361738976
sS'/html/body/div/div/div/div/div/dl/dt/div/div/a/s'
p17
F5.643856189774724
sS'/html/body/div/div/div/div/div/p/a'
p18
F4.836501267717121
sS'/html/body/div/div/div/div/div/span/span'
p19
F0.98564470702293
sS'/html/body/div/div/div/div/div/div/div/div/i'
p20
F6.643856189774725
sS'/html/body/div/div/div/span'
p21
F0.3959286763311393
sS'/html/body/div/div/div/div/div/p/strong/span/img'
p22
F7.643856189774724
sS'/html/body/div/div/div/ul/li/a'
p23
F0.066427361738976
sS'/html/body/section/section/div/div/strong'
p24
F4.836501267717121
sS'/html/body/div/div/div/div/div/p/strong/img'
p25
F7.643856189774724
sS'/html/body/div/div/div/dl/dd/img'
p26
F1.8889686876112561
sS'/html/body/section/div/div/div/dl/dd/span/a'
p27
F4.836501267717121
sS'/html/body/div/div/div/div/div/div/div/div/s/span'
p28
F1.5777669993169523
sS'/html/body/div/div/div/div/div/div/p'
p29
F3.6438561897747253
sS'/html/body/div/div/div/a/span'
p30
F0.6551715030025589
sS'/html/body/div/div/div/div/div/dl/dt/div/strong'
p31
F7.643856189774724
sS'/html/body/div/div/div/a/i'
p32
F2.321928094887362
sS'/html/body/section/section/article/p/a'
p33
F4.836501267717121
sS'/html/body/div/div/div/div/div/script'
p34
F5.321928094887363
sS'/html/body/div/div/div/div/div/div/div/div/s/i'
p35
F1.5777669993169523
sS'/html/body/rss/channel/image/link'
p36
F6.643856189774725
sS'/html/body/div/div/div/div/div/div/a'
p37
F0.9573556625915063
sS'/html/body/div/div/div/div/div/dl/dd/div/a/i'
p38
F1.1844245711374277
sS'/html/body/rss/channel/item/link'
p39
F6.643856189774725
sS'/html/body/div/div/div/i'
p40
F2.8365012677171206
sS'/html/body/div/div/div/div/div/div/span/div/s/span'
p41
F0.98564470702293
sS'/html/body/div/div/div/div/span/a/i'
p42
F0.98564470702293
sS'/html/body/div/div/div/div/div/div/span/div/s/i'
p43
F0.98564470702293
sS'/html/body/div/div/a/img'
p44
F0.8756718649977985
sS'/html/body/div/div/div/div/div/div/div/b'
p45
F3.9434164716336326
sS'/html/body/div/div/div/div/ul/li/h4/a'
p46
F0.98564470702293
sS'/html/body/div/div/div/div/dl/dd/a/img'
p47
F7.643856189774724
sS'/html/body/div/div/div/div/div/div/span/a/s/i'
p48
F0.98564470702293
sS'/html/body/div/div/div/div/div/dl/dd/span/a/i'
p49
F4.058893689053568
sS'/html/body/div/div/div/div/div/div/like'
p50
F0.98564470702293
sS'/html/head/meta'
p51
F0.01449956969511517
sS'/html/body/div/div/div/dl/dt/h2'
p52
F7.643856189774724
sS'/html/body/div/div/div/ul/li/div/span/a/i'
p53
F3.9434164716336326
sS'/html/body/div/div/div/div/div/dl/dd/span/span/a/i'
p54
F4.058893689053568
sS'/html/body/section/div/div/a'
p55
F4.836501267717121
sS'/html/body/section/section/article/a/img'
p56
F4.836501267717121
sS'/html/body/div'
p57
F5.321928094887363
sS'/html/body/div/div/div/div/div/dl/dt/div/div/p'
p58
F2.473931188332412
sS'/html/body/div/div/div/div/ul/li/p/a/img'
p59
F0.98564470702293
sS'/html/script'
p60
F0.12029423371771174
sS'/html/body/div/div/div/div/div/div/div/div/a'
p61
F1.5994620704162712
sS'/html/body/div/div/div/div/div/span'
p62
F0.12029423371771174
sS'/html/body/div/div/div/div/i'
p63
F1.286304185156641
sS'/html/body/div/div/div/div/div/dl/dt/div/div'
p64
F2.15200309344505
sS'/html/body/section/div/div/textarea'
p65
F4.836501267717121
sS'/html/body/div/div/div/div/div/h2'
p66
F2.0588936890535687
sS'/html/body/div/div/div/div/div/div/span/a'
p67
F5.643856189774724
sS'/html/body/div/div/ul/li/a/i'
p68
F4.836501267717121
sS'/html/body/div/div/div/div/ul/li/a/s'
p69
F4.836501267717121
sS'/html/body/div/div/div/br'
p70
F7.643856189774724
sS'/html/body/section/div/div/div/dl/dt/div/span'
p71
F4.836501267717121
sS'/html/body/div/div/div/div/div/div/a/span'
p72
F1.5994620704162712
sS'/html/body/div/div/div/div/div/dl/dd/span'
p73
F1.1844245711374277
sS'/html/body/div/div/div/div/div/dl/dt/a'
p74
F2.5563933485243857
sS'/html/body/div/div/div/div/div/div/div/span'
p75
F3.3219280948873626
sS'/html/body/rss/channel/generator'
p76
F6.643856189774725
sS'/html/body/div/div/div/div/div/dl/dd/div/span'
p77
F1.1844245711374277
sS'/html/body/div/div/div/div/ul/li/span'
p78
F0.9573556625915063
sS'/html/body/div/div/div/div/div/dl/dt/div/div/a/span'
p79
F5.643856189774724
sS'/html/body/div/div/div/div/div/dl/dt/div/p/span'
p80
F5.321928094887363
sS'/html/body/section/div/div/ul/li/a/h4'
p81
F4.836501267717121
sS'/html/body/div/div/div/a/s/span'
p82
F1.0
sS'/html/body/section/div/div/div/dl/dt/div/div/a/font'
p83
F5.058893689053569
sS'/html/body/div/div/div/div/div/dl/dd/span/span'
p84
F1.1844245711374277
sS'/html/body/div/div/input'
p85
F0.9714308478032291
sS'/html/body/div/b'
p86
F5.321928094887363
sS'/html/body/div/div/div/div/h2/span'
p87
F3.9434164716336326
sS'/html/body/rss/channel/image/url'
p88
F6.643856189774725
sS'/html/body/div/div/div/div/ul/li/div/a'
p89
F4.836501267717121
sS'/html/head/script'
p90
F0.01449956969511517
sS'/html/body/div/div/div/dl/dd/div/ul/li'
p91
F2.9434164716336326
sS'/html/body/div/div/div/dl/dd/br'
p92
F7.643856189774724
sS'/html/body/div/div/div/div/div/p/img'
p93
F5.321928094887363
sS'/html/body/div/div/div/div/div/div/div/input'
p94
F0.8756718649977985
sS'/html/body/div/div/div/div/div/dl/dt/div/p'
p95
F1.3770696490798233
sS'/html/head/link'
p96
F0.01449956969511517
sS'/html/body/div/div/div/ul/li/div/span'
p97
F3.9434164716336326
sS'/html/body/div/div/div/ul/li/div/span/span/a'
p98
F3.9434164716336326
sS'/html/body/div/div/div/div/div/div/div/img'
p99
F4.836501267717121
sS'/html/body/div/div/div/div/div/p/br'
p100
F7.643856189774724
sS'/html/body/div/div/div/div/dl/dd/span/a/i'
p101
F7.643856189774724
sS'/html/body/div/div/div/div/div/dl/dt/div/div/span/p'
p102
F6.643856189774725
sS'/html/body/div/div/div/div/div/div/a/img'
p103
F6.643856189774725
sS'/html/body/div/div/div/div/div/div/textarea'
p104
F0.9714308478032291
sS'/html/body/div/div/div/div/div/p/strong/span'
p105
F6.643856189774725
sS'/html/body/div/div/div/ul/li/div/s/s'
p106
F0.12029423371771174
sS'/html/body/div/div/div/div/div/dl/dt/div/span'
p107
F7.643856189774724
sS'/html/body/section/div/div/span'
p108
F4.836501267717121
sS'/html/body/rss/channel/image/title'
p109
F6.643856189774725
sS'/html/body/div/div/div/div/div/p/strong'
p110
F4.643856189774724
sS'/html/body/div/div/div/ul/li/a/s/s'
p111
F0.12029423371771174
sS'/html/body/div/div/div/ul/li/a/i'
p112
F0.12029423371771174
sS'/html/body/div/div/div/div/div/ul/li'
p113
F1.286304185156641
sS'/html/body/div/div/div/div/div/div/div/div/span'
p114
F1.434402824145775
sS'/html/body/div/div/div/dl/dt/span'
p115
F2.888968687611256
sS'/html/body/section/div/div/ul/li/a/div/div/i'
p116
F4.836501267717121
sS'/html/body/div/div/div/div/a/img'
p117
F1.286304185156641
sS'/html/body/div/div/div/div/p/a/img'
p118
F0.9714308478032291
sS'/html/body/div/div/div/ul/li/div/span/a/s/i'
p119
F4.184424571137428
sS'/html/body/div/div/div/ul/li/div/span/a'
p120
F3.9434164716336326
sS'/html/body/div/footer/div/div/p'
p121
F4.836501267717121
sS'/html/body/div/div/div/div/div/div/div/div/div/a'
p122
F6.643856189774725
sS'/html/body/rss/channel/image/description'
p123
F6.643856189774725
sS'/html/head/title'
p124
F0.01449956969511517
sS'/html/body/div/div/div/div/div/div/ul/li/a/img'
p125
F5.058893689053569
sS'/html/body/div/div/div/div/p/a'
p126
F6.643856189774725
sS'/html/body/div/div/div/div/div/div/div/br'
p127
F4.836501267717121
sS'/html/body/div/div/div/div/div/ul/li/div/a'
p128
F1.286304185156641
sS'/html/body/rss/channel/link'
p129
F6.643856189774725
sS'/html/body/section/div/ul/li/a/div/div'
p130
F4.836501267717121
sS'/html/body/div/div/div/div/div/dl/dt/div/a/img'
p131
F7.643856189774724
sS'/html/body/img'
p132
F0.9714308478032291
sS'/html/body/div/div/div/div/div/div/span/a/s/span'
p133
F0.98564470702293
sS'/html/body/div/div/div/div/ul/li'
p134
F4.836501267717121
sS'/html/body/div/nav/div/a'
p135
F4.836501267717121
sS'/html/body/div/div/div/div/div/dl/dt/div/div/a'
p136
F1.810966175609983
sS'/html/body/div/div/div/div/dl/dt/a'
p137
F7.643856189774724
sS'/html/body/div/div/div/div/div/div/div/div/p/a'
p138
F6.058893689053569
sS'/html/body/div/div/div/div/div/dl/dt/div/div/span'
p139
F6.643856189774725
sS'/html/body/div/div/div/div/div/div/br'
p140
F4.643856189774724
sS'/html/body/section/section/div/div/div'
p141
F4.836501267717121
sS'/html/body/div/div/div/div/div/h2/span'
p142
F1.1844245711374277
sS'/html/body/div/div/div/div/div/div/span/span'
p143
F1.9159357352115256
sS'/html/body/div/div/div/div/span/a/span'
p144
F0.98564470702293
sS'/html/body/div/div/div/div/div/p/strong/font/span'
p145
F7.643856189774724
sS'/html/body/div/div/div/div/dl/dd/a'
p146
F7.643856189774724
sS'/html/body/section/section/header/div/span/span'
p147
F4.836501267717121
sS'/html/body/div/div/div/div/div/div/ul/li/span/a'
p148
F5.058893689053569
sS'/html/body/section/div/div/div/dl/dt/div/div'
p149
F5.058893689053569
sS'/html/body/div/div/div/div/dl/dd/span/a'
p150
F7.643856189774724
sS'/html/body/div/div/div/div/div/ul/li/a'
p151
F1.1681227588083272
sS'/html/body/div/div/div/ul/li/div/span/a/s/span'
p152
F4.184424571137428
sS'/html/body/div/div/div/div/div/p/strike/span'
p153
F7.643856189774724
sS'/html/body/div/div/div/div/a/span'
p154
F2.9434164716336326
sS'/html/body/section/div/ul/li/a/div/div/div/div/i'
p155
F4.836501267717121
sS'/html/body/div/div/div/div/div/div/div/h3/span'
p156
F4.836501267717121
sS'/html/body/div/div/div/div/div/dl/dt/div/p/strong/a'
p157
F4.643856189774724
sS'/html/body/div/div/div/div/div/h3/a'
p158
F7.643856189774724
sS'/html/body/div/div/div/div/div/dl/dt/div/div/br'
p159
F6.643856189774725
sS'/html/body/div/div/div/div/div/dl/dt/div/p/a'
p160
F3.8365012677171206
sS'/html/body/div/img'
p161
F4.836501267717121
sS'/html/body/div/div/div/div/script'
p162
F3.7369655941662066
sS'/html/body/div/footer/div/div/a'
p163
F4.836501267717121
sS'/html/body/div/div/div/div/div/div/i'
p164
F2.888968687611256
sS'/html/body/div/div/div/dl/dt'
p165
F2.9434164716336326
sS'/html/body/div/div/ul/li/a'
p166
F4.836501267717121
sS'/html/body/div/div/div/div/div/p/font/span'
p167
F7.643856189774724
sS'/html/body/div/div/div/div/div'
p168
F1.6438561897747248
sS'/html/body/noscript/img'
p169
F0.98564470702293
sS'/html/body/div/footer/div/div/div/a'
p170
F4.836501267717121
sS'/html/body/div/div/i'
p171
F4.836501267717121
sS'/html/body/section/div/ul/li/a/div/div/h3'
p172
F4.836501267717121
sS'/html/body/div/div/div/div/div/dl/dd/a'
p173
F0.98564470702293
sS'/html/body/rss/channel/item/description'
p174
F6.643856189774725
sS'/html/body/div/div/div/div/dl/dt/a/br'
p175
F7.643856189774724
sS'/html/body/div/div/a'
p176
F0.02914634565951651
sS'/html/body/style'
p177
F5.321928094887363
sS'/html/body/section/section/div/div/i'
p178
F4.836501267717121
sS'/html/body/div/div/div/ul/li'
p179
F0.12029423371771174
sS'/html/body/div/div/div/dl/dd/div/span'
p180
F6.643856189774725
sS'/html/body/section/div/div/div'
p181
F4.836501267717121
sS'/html/body/div/div/div/div/div/div/a/i'
p182
F1.5994620704162712
sS'/html/body/section/div/div/div/dl/dt/div/div/a'
p183
F7.643856189774724
sS'/html/body/link'
p184
F4.836501267717121
sS'/html/body/script'
p185
F0.02914634565951651
sS'/html/body/div/div/div/div/div/div/div'
p186
F0.8756718649977985
sS'/html/body/div/div/div/div/b'
p187
F2.9434164716336326
sS'/html/body/div/div/div/div/div/h4/a'
p188
F7.643856189774724
sS'/html/body/div/div/div/div/a'
p189
F0.7983661388303495
sS'/html/body/section/section/header/div/span/i'
p190
F4.836501267717121
sS'/html/body/div/div/div/div/div/div/span'
p191
F0.9714308478032291
sS'/html/body/section/section/header/div/span'
p192
F4.836501267717121
sS'/html/body/div/div/div/div/div/dl/dd/span/a'
p193
F4.058893689053568
sS'/html/body/div/div/div/div/div/h4/i'
p194
F7.643856189774724
sS'/html/body/div/div/div/div/span/span/a'
p195
F0.98564470702293
sS'/html/body/div/div/div/div/dl/dd/span/span'
p196
F7.643856189774724
sS'/html/body/div/div/div/div/span'
p197
F2.8365012677171206
sS'/html/body/div/div/div/div/ul'
p198
F0.98564470702293
sS'/html/body/div/div/div/div/div/dl/dd/a/img'
p199
F0.98564470702293
sS'/html/body/div/div/div/div/div/div/ul/li/span/strong'
p200
F7.643856189774724
sS'/html/body/div/div/div/div/div/dl/dt/div/p/strong'
p201
F4.836501267717121
sS'/html/body/div/div/div/div/div/div/ul/br'
p202
F5.643856189774724
sS'/html/body/div/div/script'
p203
F0.98564470702293
sS'/html/body/div/div/div/div/div/dl/dt/div/ul/li/p'
p204
F7.643856189774724
sS'/html/body/div/footer/div/p'
p205
F4.836501267717121
sS'/html/body/div/div/div/div/div/div/img'
p206
F7.643856189774724
sS'/html/body/div/div/div/div/div/dl/dt/div/div/p/span'
p207
F7.643856189774724
sS'/html/body/section/section/article/p'
p208
F5.058893689053569
sS'/html/body/div/div/div/a/s/i'
p209
F1.0
sS'/html/body/div/div/div/div/div/div/span/div/a'
p210
F0.98564470702293
sS'/html/body/div/div/h2'
p211
F7.643856189774724
sS'/html/body/div/div/div/dl/dd/span/i'
p212
F2.888968687611256
sS'/html/body/div/div/div/div/div/div/p/a'
p213
F4.643856189774724
sS'/html/body/div/div/div/div/div/dl/dt/div/div/p/a/img'
p214
F7.643856189774724
sS'/html/body/div/div/div/div/div/div/s/i'
p215
F6.058893689053569
sS'/html/body/div/div/div/div/div/dl/dt/div'
p216
F1.2515387669959643
sS'/html/body/section/section/article/p/strong/a'
p217
F7.643856189774724
sS'/html/body/div/div/div/div/div/div/div/div/h4'
p218
F6.643856189774725
sS'/html/body/div/div/div/a'
p219
F1.8889686876112561
sS'/html/body/div/div/div/div/div/span/a'
p220
F6.643856189774725
sS'/html/body/div/footer/div/div/a/i'
p221
F4.836501267717121
sS'/html/body/section/div/div/div/h2'
p222
F4.836501267717121
sS'/html/body/div/div/div/div/div/div/div/div/span/a'
p223
F5.643856189774724
sS'/html/body/div/div/div/h2/span'
p224
F3.9434164716336326
sS'/html/body/div/div/label/input'
p225
F0.9714308478032291
sS'/html/body/section/div/div/div/dl/dd/span'
p226
F4.836501267717121
sS'/html/body/div/div/div/dl/dd/span'
p227
F2.888968687611256
sS'/html/body/div/div/div/div/h3/i'
p228
F7.643856189774724
sS'/html/body/section/section/div/a'
p229
F4.836501267717121
sS'/html/body/div/div/div/dl/dd/span/a'
p230
F2.888968687611256
sS'/html/body/div/div/div/h2'
p231
F3.7369655941662066
sS'/html/body/div/div/div/h1'
p232
F0.98564470702293
sS'/html/body/div/div/div/div/div/a/img'
p233
F7.643856189774724
sS'/html/body/div/div/span'
p234
F0.9714308478032291
sS'/html/body/section/section/header/h1'
p235
F4.836501267717121
sS'/html/body/section/div/div/div/dl/dd/span/a/span'
p236
F4.836501267717121
sS'/html/body/div/div/ul/li'
p237
F4.836501267717121
sS'/html/body/div/div/div/div/ul/li/a'
p238
F0.8624964762500651
sS'/html/body/div/div/ul/li/a/s'
p239
F4.836501267717121
sS'/html/body/div/div/div/div/div/div'
p240
F0.8756718649977985
sS'/html/body/rss/channel/item/title'
p241
F6.643856189774725
sS'/html/body/div/div/div/div/div/dl/dt/div/a'
p242
F6.643856189774725
sS'/html/body/div/div/div/div/div/div/span/a/p'
p243
F6.058893689053569
sS'/html/body/div/div/div/ul/li/div/a/i'
p244
F0.12029423371771174
sS'/html/body/div/div/div/div/div/div/div/a'
p245
F0.19264507794239583
sS'/html/body/div/div/div/div/dl/dt/a/p'
p246
F7.643856189774724
sS'/html/body/div/div/div/div/div/a'
p247
F4.473931188332412
sS'/html/body/section/div/ul/li/a/div/div/div/div/span'
p248
F4.836501267717121
sS'/html/body/div/div/div/div/div/div/div/a/i'
p249
F1.5994620704162712
sS'/html/body/div/div/div/div/div/p'
p250
F1.0291463456595165
sS'/html/body/rss/channel/lastbuilddate'
p251
F6.643856189774725
sS'/html/body/div/div/div/div/div/input'
p252
F0.066427361738976
sS'/html/body/div/div/div/ul/li/div/a/s/i'
p253
F3.9434164716336326
sS'/html/body/section/div/div/div/span'
p254
F7.643856189774724
sS'/html/body/div/div/div/div/div/p/a/span'
p255
F7.643856189774724
sS'/html/body/div/div/div/div/h4'
p256
F2.9434164716336326
sS'/html/body/div/div/div/div/h2'
p257
F0.7983661388303495
sS'/html/body/div/div/div/div/div/p/span/p'
p258
F7.643856189774724
sS'/html/body/div/div/div/div/div/div/div/div/a/s/i'
p259
F1.5994620704162712
sS'/html/body/rss/channel/description'
p260
F6.643856189774725
sS'/html/body/div/div/div/div/div/dl/dt/div/ul/li'
p261
F7.643856189774724
sS'/html/body/div/div/div/div/div/div/h4'
p262
F7.643856189774724
sS'/html/body/div/div/div/div/div/div/h3'
p263
F5.321928094887363
sS'/html/body/rss/channel/title'
p264
F6.643856189774725
sS'/html/body/div/div/div/dl/dd'
p265
F3.0
sS'/html/body/div/div/div/div/div/div/div/div/a/s/span'
p266
F1.5994620704162712
sS'/html/body/div/div/div/div/div/div/ul/li/a'
p267
F7.643856189774724
sS'/html/body/div/div/div/div/div/div/div/h3/div'
p268
F4.836501267717121
sS'/html/body/section/div/a'
p269
F4.836501267717121
sS'/html/body/div/div/div/div/div/p/span'
p270
F3.5563933485243853
sS'/html/body/div/div/ul/li/div/a/i'
p271
F4.836501267717121
sS'/html/body/div/div/div/ul/li/div/a/s/span'
p272
F3.9434164716336326
sS'/html/body/div/div/div/div/div/div/div/div/div/div/div/div/div/span'
p273
F6.643856189774725
sS'/html/body/div/div/div/div/div/div/div/span/a'
p274
F1.5994620704162712
sS'/html/body/div/div/div/div/div/a/i'
p275
F0.9714308478032291
sS'/html/body/div/div/div/div/div/div/div/div/br'
p276
F4.836501267717121
sS'/html/body/div/div/div/div/div/p/span/img'
p277
F6.643856189774725
sS'/html/body/div/div/div/script'
p278
F0.6665762662748081
sS'/html/head/noscript/link'
p279
F4.836501267717121
sS'/html/body/div/div/div/div/div/div/h3/a'
p280
F5.321928094887363
sS'/html/body/div/div/div/div/div/img'
p281
F1.0
sS'/html/body/div/div/div/div/div/div/h2/i'
p282
F7.643856189774724
sS'/html/body/div/div/div/ul/li/div/h4/a'
p283
F3.9434164716336326
sS'/html/body/rss/channel/item/pubdate'
p284
F6.643856189774725
sS'/html/body/section/div/div/h2'
p285
F4.836501267717121
sS'/html/body/div/div/div/div/div/div/h2/a'
p286
F7.643856189774724
sS'/html/body/div/div/div/div/ul/li/div/s/s'
p287
F4.836501267717121
sS'/html/body/div/div/div/div/div/div/p/a/img'
p288
F7.643856189774724
s.