(dp0
S'/html/body/div/div/div/div/div/div/table/tr/td/div/a/span'
p1
F4.210896782498619
sS'/html/body/div/div/div/div/form/fieldset/input'
p2
F0.11091590140185055
sS'/html/body/div/div/div/div/div/div/div/div/div/a'
p3
F1.7759597257820698
sS'/html/body/div/div/div/div/div/ul/ul/li/span'
p4
F7.158429362604482
sS'/html/body/div/div/div/div/div/div/div/div/a/img'
p5
F2.0057823525940064
sS'/html/body/div/div/div/div/div/div/div/div/div/div/span/br'
p6
F9.965784284662087
sS'/html/body/div/div/div/div/div/div/div/div/div/div/div/h3/span/div'
p7
F8.965784284662087
sS'/html/body/div/div/div/div/div/span/br'
p8
F4.717856771218502
sS'/html/body/div/div/div/div/div/div/p/br'
p9
F9.965784284662087
sS'/html/body/div/div/div/div/div/div/div/div/div/div/div/div/ul/li/a'
p10
F4.184424571137428
sS'/html/body/div/div/div/div/div/p/a'
p11
F1.8624964762500653
sS'/html/body/div/div/div/p/a'
p12
F6.265344566520995
sS'/html/body/div/div/div/div/div/p/b'
p13
F9.965784284662087
sS'/html/body/div/div/div/div/div/div/div/div/h3/div/a/img'
p14
F2.4579896444633906
sS'/html/body/div/div/div/div/div/div/div/h3/div/a/img'
p15
F5.265344566520995
sS'/html/body/div/div/div/div/div/table/thead/tr/td/a'
p16
F8.380821783940931
sS'/html/body/div/div/div/div/div/div/table/tr/td/a'
p17
F7.380821783940932
sS'/html/body/div/div/div/div/div/div/div/div/div/div/dl/dd/span/a'
p18
F7.158429362604482
sS'/html/body/header/div/div/div/div/a'
p19
F7.965784284662087
sS'/html/body/div/div/div/p/span'
p20
F8.965784284662087
sS'/html/body/rss/channel/item/link'
p21
F5.50635266602479
sS'/html/body/div/div/div/div/div/div/div/div/div/div/p/br'
p22
F4.237863830098888
sS'/html/body/div/div/div/span/a'
p23
F6.643856189774725
sS'/html/body/div/div/div/img'
p24
F9.965784284662087
sS'/html/body/div/div/div/a'
p25
F0.10624949827943413
sS'/html/body/div/div/div/div/div/div/span/input'
p26
F9.965784284662087
sS'/html/body/div/div/div/div/div/div/div/div/div/span'
p27
F1.2827897009804043
sS'/html/body/div/div/div/div/div/div/div/span/input'
p28
F2.3510744405468786
sS'/html/body/div/div/div/div/ol/li/div/div/div/p/br'
p29
F9.965784284662087
sS'/html/body/div/div/div/div/div/ul/li/a/b'
p30
F9.965784284662087
sS'/html/head/meta'
p31
F0.03504694709920065
sS'/html/body/div/div/div/div/div/div/div/div/div/p'
p32
F9.965784284662087
sS'/html/body/div/div/div/div/ul/li/div/br'
p33
F8.965784284662087
sS'/html/body/header/div/div/div/div/img'
p34
F7.965784284662087
sS'/html/body/div/div/div/div/div/div/ul/li/ul/li/a'
p35
F4.836501267717121
sS'/html/body/div/div/div/form/div/p/label'
p36
F4.680382065799838
sS'/html/body/div/div/div/div/div/div/div/div/select/option'
p37
F6.965784284662088
sS'/html/body/div/div/div/div/div/table/thead/tr/td'
p38
F7.965784284662087
sS'/html/body/div/div/div/div/div/div/div/div/div/strong'
p39
F2.3510744405468786
sS'/html/body/div/div/div/div/div/div/div/h4/span'
p40
F9.965784284662087
sS'/html/body/div/div/div/div/div/div/div/p/a/wbr'
p41
F6.50635266602479
sS'/html/body/div/div/div/div/div/ul/li/dd/a'
p42
F6.643856189774725
sS'/html/body/div/div/div/div/div/div/div/form/input'
p43
F6.965784284662088
sS'/html/body/div/div/div/div/div/div/div/div/div/span/em'
p44
F2.899695094204315
sS'/html/body/div/div/div/div/p/a'
p45
F1.680382065799839
sS'/html/body/div/div/div/div/div/div/div/ul/li/span/a'
p46
F3.5228407888133586
sS'/html/body/div/div/div/div/div/div/div/div/div/div/h3/a/img'
p47
F8.965784284662087
sS'/html/body/div/div/div/div/div/div/div/div/div/div/div/div/span'
p48
F8.965784284662087
sS'/html/body/div/div/div/div/div/div/ul/li/div/img'
p49
F9.965784284662087
sS'/html/body/div/div/div/div/ul/li/div/a'
p50
F4.795859283219775
sS'/html/head/script'
p51
F0.04245679924289486
sS'/html/body/div/div/div/form/div/a'
p52
F4.680382065799838
sS'/html/body/div/div/div/div/div/div/div/div/div/div/div/span/a'
p53
F1.971430847803229
sS'/html/body/div/div/div/div/div/ul/li/div/div/ul/li'
p54
F6.795859283219775
sS'/html/body/div/div/div/div/div/table/tbody/tr/td/a'
p55
F7.965784284662087
sS'/html/body/div/div/div/div/div/div/ul/li/div/span/a'
p56
F4.608232280044003
sS'/html/body/div/div/div/div/div/table'
p57
F8.965784284662087
sS'/html/body/div/div/div/div/div/p/br'
p58
F7.380821783940932
sS'/html/body/div/div/div/div/div/form/div/div/div'
p59
F9.965784284662087
sS'/html/body/div/div/div/form/div/input'
p60
F4.680382065799838
sS'/html/body/div/div/div/div/div/div/div/div/div/div/div/div/a'
p61
F4.878321443411748
sS'/html/body/div/div/div/div/div/div/div/div/span'
p62
F1.5063526660247897
sS'/html/body/div/div/div/div/div/button'
p63
F3.4900508536956893
sS'/html/head/style'
p64
F0.05139915250664415
sS'/html/body/div/div/div/div/div/div/div/form/div/div/input'
p65
F6.965784284662088
sS'/html/body/div/div/div/div/div/div/div/div/div/div/p/a'
p66
F8.380821783940931
sS'/html/body/div/div/div/div/div/div/ul/li/div/div/div/p'
p67
F7.380821783940932
sS'/html/body/div/div/div/div/div/div/div/div/div/span/link'
p68
F6.50635266602479
sS'/html/body/div/div/div/div/div/div/ul/li/ul/li/span'
p69
F4.878321443411748
sS'/html/body/div/div/div/div/div/div/a/div/div/p'
p70
F9.965784284662087
sS'/html/body/div/div/div/div/div/div/div/div/div/div/a'
p71
F2.145605322246899
sS'/html/body/div/div/div/div/h2/span/a'
p72
F6.265344566520995
sS'/html/body/div/div/div/div/div/div/div/div/div/div/p'
p73
F1.7612131404128835
sS'/html/body/div/div/div/div/div/ul/li/ul/li/a'
p74
F9.965784284662087
sS'/html/body/div/div/div/div/div/div/ul/li/div'
p75
F8.380821783940931
sS'/html/body/div/div/div/div/div/div/div/div/span/a'
p76
F2.11403524324603
sS'/html/body/div/div/div/div/div/div/link'
p77
F4.237863830098888
sS'/html/body/div/div/div/div/br'
p78
F2.0291463456595165
sS'/html/body/div/div/div/div/div/div/div/p/a/span'
p79
F2.899695094204315
sS'/html/body/div/div/div/div/div/table/tbody/tr/td/span'
p80
F8.965784284662087
sS'/html/body/div/div/div/div/div/ul/li/span/a'
p81
F4.237863830098888
sS'/html/body/rss/channel/copyright'
p82
F5.380821783940931
sS'/html/body/div/div/div/div/div/span/link'
p83
F4.442222328605075
sS'/html/body/div/div/div/div/div/div/p/em'
p84
F9.965784284662087
sS'/html/body/div/div/div/div/div/div/ul/li/ul/li/div/a'
p85
F9.965784284662087
sS'/html/body/div/div/div/div/div/div/div/form/div/div/button'
p86
F6.965784284662088
sS'/html/body/div/div/div/div/div/div/p/strong'
p87
F4.237863830098888
sS'/html/body/div/div/div/div/ol/li/div/div/div/div/span'
p88
F9.965784284662087
sS'/html/body/rss/channel/item/description'
p89
F5.50635266602479
sS'/html/body/div/div/div/div/div/div/div/div/dl/dd'
p90
F9.965784284662087
sS'/html/body/div/div/div/div/div/div/table/tr/td/div/a'
p91
F4.380821783940931
sS'/html/body/div/div/div/div/div/div/div/div/ul/li/a/em'
p92
F4.442222328605075
sS'/html/body/div/div/div/div/div/div/div/div/dl/dt'
p93
F5.717856771218502
sS'/html/body/div/div/div/div/div/div/table/tr/td/div/p'
p94
F9.965784284662087
sS'/html/body/div/div/div/div/div/div/div/div/p/a/wbr'
p95
F6.50635266602479
sS'/html/body/div/div/div/div/div/div/span'
p96
F2.3364276645824775
sS'/html/body/div/div/div/div/div/div/dl/dd/a'
p97
F2.3584539709124765
sS'/html/body/div/div/div/div/div/ul/li/h3/div/a/img'
p98
F7.380821783940932
sS'/html/body/div/div/div/div/form/button'
p99
F7.965784284662087
sS'/html/body/div/div/div/div/div/a/span'
p100
F4.965784284662088
sS'/html/body/div/div/div/div/div/div/table/tr/td/a/img'
p101
F4.210896782498619
sS'/html/body/div/div/div/div/div/div/dl/dd/p'
p102
F9.965784284662087
sS'/html/body/div/div/div/div/div/div/div/ul/li/a'
p103
F2.643856189774725
sS'/html/body/div/div/div/div/div/div/img'
p104
F6.158429362604484
sS'/html/body/div/div/div/div/div/div/table/tr/td/p'
p105
F4.237863830098888
sS'/html/body/div/div/div/div/div/div/h1/span'
p106
F6.50635266602479
sS'/html/body/div/div/span'
p107
F0.05139915250664415
sS'/html/body/div/div/div/div/div/div/div/div/div/h3/a/img'
p108
F4.184424571137428
sS'/html/body/div/div/div/div/div/div/div/div/div/dl/dt'
p109
F9.965784284662087
sS'/html/body/div/div/div/div/ul/li/a/img'
p110
F4.293358942690592
sS'/html/body/div/div/div/div/div/div/ul/li/ul/li/span/a'
p111
F7.380821783940932
sS'/html/body/div/div/div/div/div/div/div/div/dl/dd/ul/li'
p112
F9.965784284662087
sS'/html/body/rss/channel/item/creator'
p113
F5.50635266602479
sS'/html/body/div/div/div/div/p/label/input'
p114
F9.965784284662087
sS'/html/body/div/div/div/div/div/ul/li/div/span/div/a/img'
p115
F7.380821783940932
sS'/html/body/div/div/div/div/div/div/div/div/form/div/input'
p116
F5.158429362604483
sS'/html/body/div/div/div/div/div/div/dl/dt/a/img'
p117
F2.3584539709124765
sS'/html/body/div/div/div/div/div/p/span/a'
p118
F7.380821783940932
sS'/html/body/div/div/div/div/div/div/a/div/img'
p119
F5.643856189774724
sS'/html/body/div/div/div/div/div/h2/i'
p120
F2.286304185156641
sS'/html/body/div/div/div/div/div/div/div/p'
p121
F2.988504361162171
sS'/html/body/div/div/div/div/div/div/div/div/h4/span'
p122
F5.442222328605075
sS'/html/body/div/div/div/form/div/div/div/p/a'
p123
F8.965784284662087
sS'/html/body/div/div/div/div/div/div/div/a'
p124
F0.8008773579863991
sS'/html/body/div/div/div/div/div/div/div/div/div/div/h3/span/span'
p125
F2.3658714424749596
sS'/html/body/div/div/div/div/div/div/ul/li/div/div/span'
p126
F7.380821783940932
sS'/html/body/div/div/div/div/form/div/a'
p127
F9.965784284662087
sS'/html/body/div/div/div/div/h2/a/span'
p128
F4.965784284662088
sS'/html/body/div/div/div/div/div/div/div/div/div/div/div/div/div/ul/script'
p129
F8.965784284662087
sS'/html/body/div/div/div/div/form/fieldset/legend'
p130
F0.11091590140185055
sS'/html/body/div/div/div/div/div/div/ul/li'
p131
F1.3621579396758952
sS'/html/body/div/div/div/div/div/div/div/div/p/a'
p132
F5.380821783940931
sS'/html/body/div/div/div/div/div/div/div'
p133
F1.9378782880922025
sS'/html/body/div/div/div/div/ol/li/div/div/em'
p134
F9.965784284662087
sS'/html/body/div/div/div/div/div/ul/li/div/p'
p135
F6.643856189774725
sS'/html/body/div/div/div/div/div/div/div/div/br'
p136
F1.639354797539784
sS'/html/body/div/div/div/div'
p137
F0.40163479467635543
sS'/html/body/div/div/div/div/div/div/ul/li/h3'
p138
F4.265344566520995
sS'/html/body/div/div/div/div/form/textarea'
p139
F7.965784284662087
sS'/html/body/div/div/div/div/div/div/h3/a'
p140
F5.717856771218502
sS'/html/body/div/div/div/div/div/div/h2/i'
p141
F2.3510744405468786
sS'/html/body/rss/channel/item/pubdate'
p142
F5.50635266602479
sS'/html/body/div/div/div/div/div/div/h2/a'
p143
F5.573466861883327
sS'/html/body/div/div/div/div/div/ul/li/div'
p144
F7.380821783940932
sS'/html/body/div/div/div/div/ul/li/a/span'
p145
F9.965784284662087
sS'/html/body/div/div/div/form/div/div/input'
p146
F8.965784284662087
sS'/html/body/div/div/div/div/div/div/script'
p147
F1.7036894392919077
sS'/html/body/div/div/div/div/div/h2/span/a'
p148
F2.300448367476911
sS'/html/body/div/div/div/div/div/div/h2/span'
p149
F6.265344566520995
sS'/html/body/div/div/div/div/div/div/table/tr/td/div/div/span'
p150
F9.965784284662087
sS'/html/body/div/div/div/div/div/div/ul/li/img'
p151
F2.293358942690592
sS'/html/body/div/div/div/div/div/span/span/br'
p152
F9.965784284662087
sS'/html/body/div/div/div/div/div/div/div/div/div/a/span'
p153
F6.265344566520995
sS'/html/body/div/div/div/div/div/div/span/a'
p154
F1.026205070347394
sS'/html/body/div/div/div/div/div/div/p'
p155
F3.77595972578207
sS'/html/body/div/div/div/div/ul/li/div'
p156
F4.50635266602479
sS'/html/body/div/div/div/div/div/div/div/dl/dd/a'
p157
F6.50635266602479
sS'/html/body/div/div/div/div/div/form/div/span'
p158
F9.965784284662087
sS'/html/body/div/div/div/div/div/div/div/div/div/div/span'
p159
F2.286304185156641
sS'/html/body/header/div/span'
p160
F7.965784284662087
sS'/html/body/div/div/div/div/div/div/div/div/div/dl/dd/span/a'
p161
F9.965784284662087
sS'/html/body/div/div/div/div/div/div/a'
p162
F0.8651219456568883
sS'/html/body/div/div/div/div/div/div/ul/li/script'
p163
F2.3510744405468786
sS'/html/body/div/div/div/div/div/ul/li/div/p/a'
p164
F6.643856189774725
sS'/html/body/div/div/div/div/div/div/div/span/span/a/img'
p165
F2.3510744405468786
sS'/html/body/div/div/div/div/div/span/div/span/script'
p166
F3.4900508536956893
sS'/html/body/div/div/div/div/div/div/div/div/div/div/ul/li'
p167
F2.899695094204315
sS'/html/body/div/div/div/div/div/div/div/div/p/a/span'
p168
F5.442222328605075
sS'/html/body/div/div/div/div/div/div/ul/li/ul/li'
p169
F9.965784284662087
sS'/html/body/div/div/div/div/div/div/div/a/div/img'
p170
F9.965784284662087
sS'/html/body/div/div/div/form/div/script'
p171
F4.680382065799838
sS'/html/body/div/div/div/div/div/div/div/div/div/div/div/span/em'
p172
F2.4579896444633906
sS'/html/body/div/div/div/div/div/div/div/table/thead/tr/td'
p173
F5.643856189774724
sS'/html/body/div/div/div/div/div/div/div/span'
p174
F3.921390165303634
sS'/html/body/div/div/div/div/div/div/table/tr/td/div/span'
p175
F9.965784284662087
sS'/html/body/div/div/div/div/form/div/span'
p176
F9.965784284662087
sS'/html/body/div/span/img'
p177
F9.965784284662087
sS'/html/body/div/div/div/div/div/div/div/ul/li/h3/a'
p178
F2.910501849160897
sS'/html/body/div/div/div/div/div/h4'
p179
F6.965784284662088
sS'/html/body/div/div/div/div/div/h3'
p180
F9.965784284662087
sS'/html/body/div/div/div/div/div/h2'
p181
F1.3658714424749594
sS'/html/body/div/div/div/div/div/h1'
p182
F8.965784284662087
sS'/html/body/div/div/div/div/div/div/table/tbody/tr/td/img'
p183
F9.965784284662087
sS'/html/body/div/div/div/div/input'
p184
F7.965784284662087
sS'/html/body/div/div/div/div/div/style'
p185
F3.8365012677171206
sS'/html/body/div/div/div/h1/a'
p186
F8.965784284662087
sS'/html/body/div/div/div/ul/li/img'
p187
F5.107803289534515
sS'/html/body/div/div/div/div/form/div/div/div'
p188
F9.965784284662087
sS'/html/body/div/div/div/form/div/a/img'
p189
F4.680382065799838
sS'/html/body/div/div/div/div/p/span/a'
p190
F2.0954195650786827
sS'/html/body/div/div/div/div/div/div/div/div/span/div/a/img'
p191
F5.878321443411747
sS'/html/body/div/div/div/div/h2/span'
p192
F9.965784284662087
sS'/html/body/div/div/div/div/div/div/div/div/ul/li/a'
p193
F5.795859283219775
sS'/html/body/div/div/div/div/div/div/div/input'
p194
F5.795859283219775
sS'/html/body/div/div/div/div/div/div/span/p/span'
p195
F3.4111954329844494
sS'/html/body/div/div/div/div/div/div/div/div/div/div/dl/dt'
p196
F7.158429362604482
sS'/html/head/link'
p197
F0.0938790470029001
sS'/html/body/div/div/div/div/div/div/div/div/div/div/p/a/wbr'
p198
F5.878321443411747
sS'/html/body/div/div/div/div/div/div/div/div/div/div/div/span'
p199
F2.2378638300988882
sS'/html/body/div/div/div/div/div/p/span/span/a'
p200
F4.442222328605075
sS'/html/body/div/div/div/div/div/div/div/a/div/span'
p201
F9.965784284662087
sS'/html/body/div/div/div/div/div/div/div/div/div/span/div/a/img'
p202
F4.380821783940931
sS'/html/body/div/div/div/div/ol/li/div/div/div/a/span'
p203
F9.965784284662087
sS'/html/body/div/div/div/div/div/div/div/div/div/div/div/span/div'
p204
F8.965784284662087
sS'/html/body/div/div/div/div/div/div/ul/li/a/img'
p205
F3.878321443411748
sS'/html/body/div/div/div/div/div/div/dl/dd/img'
p206
F9.965784284662087
sS'/html/body/div/div/div/div/div/div/div/form/div/div'
p207
F6.965784284662088
sS'/html/body/img'
p208
F7.380821783940932
sS'/html/body/div/div/div/div/div/ul/li/span'
p209
F1.971430847803229
sS'/html/body/div/div/div/div/div/div/div/div/p/br'
p210
F5.158429362604483
sS'/html/body/div/div/ul/li/div/table/tbody/tr/td/a'
p211
F8.965784284662087
sS'/html/body/div/div/div/div/div/div/span/br'
p212
F2.9434164716336326
sS'/html/body/div/div/div/div/div/div/div/div/div/div/div/div/span/em'
p213
F4.184424571137428
sS'/html/body/div/div/div/div/div/div/strong'
p214
F4.680382065799838
sS'/html/body/div/div/div/div/div/span'
p215
F0.11247472925841266
sS'/html/body/div/div/div/div/ol/li/div/div/div/p/span'
p216
F9.965784284662087
sS'/html/body/div/div/div/div/div/div/span/span'
p217
F4.011587974275212
sS'/html/body/div/div/div/div/link'
p218
F3.473931188332412
sS'/html/body/div/div/h1/a'
p219
F4.442222328605075
sS'/html/body/div/div/div/div/div/div/div/div'
p220
F3.2243172982609405
sS'/html/body/div/div/div/form/div/div/div/span'
p221
F8.965784284662087
sS'/html/body/div/div/div/div/span/a'
p222
F6.50635266602479
sS'/html/body/div/div/div/div/div/div/ul/li/ul/li/a/img'
p223
F6.965784284662088
sS'/html/body/div/div/div/div/div/div/table/tbody/tr/td/div/span'
p224
F9.965784284662087
sS'/html/body/div/div/div/div/div/div/div/h3/span/a'
p225
F5.50635266602479
sS'/html/body/div/div/div/div/div/div/div/div/div/div/div/div/div/span/em'
p226
F8.965784284662087
sS'/html/body/div/div/div/div/div/ul/li/div/a'
p227
F2.300448367476911
sS'/html/body/div/div/div/div/div/p/span'
p228
F4.380821783940931
sS'/html/body/div/div/a'
p229
F0.05439229681862768
sS'/html/body/div/div/div/div/div/div/div/div/div/div/div/div'
p230
F2.816037165157405
sS'/html/body/div/div/div/div/div/div/a/em'
p231
F5.965784284662088
sS'/html/body/div/div/div/div/div/div/div/div/form/div/select/option'
p232
F5.158429362604483
sS'/html/body/div/div/p'
p233
F8.965784284662087
sS'/html/body/div/div/div/div/div/div/ul/li/ul/li/div/p/span'
p234
F9.965784284662087
sS'/html/body/div/div/div/div/div/div/div/p/a/img'
p235
F2.7563309190331373
sS'/html/body/div/div/div/div/a'
p236
F0.10469737866669322
sS'/html/body/div/div/div/div/div/ul/li/a/img'
p237
F2.0
sS'/html/body/div/div/div/div/table/tbody/tr/td/a'
p238
F9.965784284662087
sS'/html/body/div/div/div/div/div/div/table/tbody/tr/td/div/span/span'
p239
F9.965784284662087
sS'/html/body/div/div/div/div/div/span/input'
p240
F9.965784284662087
sS'/html/body/div/div/div/div/ul'
p241
F7.380821783940932
sS'/html/body/div/div/div/div/p'
p242
F0.10624949827943413
sS'/html/body/div/div/div/div/div/div/form/input'
p243
F4.265344566520995
sS'/html/body/div/div/script'
p244
F4.539519529959989
sS'/html/body/div/div/div/div/div/form/div/div/input'
p245
F9.965784284662087
sS'/html/body/div/div/div/div/div/div/ul/li/span'
p246
F1.446148031818874
sS'/html/body/div/div/div/div/div/h2/span'
p247
F9.965784284662087
sS'/html/body/div/div/div/div/div/br'
p248
F3.4422223286050744
sS'/html/body/div/div/div/div/div/div/div/div/div/div/div/h3/span/a'
p249
F8.965784284662087
sS'/html/body/div/div/div/div/div/div/p/a'
p250
F2.3584539709124765
sS'/html/body/div/div/div/div/div/div/ul/li/div/em'
p251
F4.265344566520995
sS'/html/body/div/div/div/div/div/div/div/table/tbody/tr/td/span'
p252
F6.158429362604484
sS'/html/body/div/div/div/div/div/ul/li/span/span/a'
p253
F7.380821783940932
sS'/html/body/div/div/div/div/div/ul/li/span/span'
p254
F3.680382065799839
sS'/html/body/div/div/ul/li/a/span'
p255
F8.965784284662087
sS'/html/body/div/div/div/div/form/input'
p256
F8.965784284662087
sS'/html/body/div/div/div/div/h2/span/span'
p257
F6.50635266602479
sS'/html/body/div/div/div/div/div/div/div/span/script'
p258
F3.4266254735540556
sS'/html/body/div/div/div/div/h2/a'
p259
F2.547931769776189
sS'/html/body/div/div/div/div/div/div/div/div/div/div/h3/span/input'
p260
F2.3658714424749596
sS'/html/body/div/div/div/h1'
p261
F8.965784284662087
sS'/html/body/div/div/div/div/h2/i'
p262
F5.265344566520995
sS'/html/body/rss/channel/language'
p263
F5.380821783940931
sS'/html/body/div/div/div/div/div/div'
p264
F1.5864059175908247
sS'/html/body/div/div/div/div/div/div/div/div/p/span/br'
p265
F6.795859283219775
sS'/html/body/div/div/div/div/div/div/div/div/div/div/div/ul/script'
p266
F2.4579896444633906
sS'/html/body/div/div/div/div/div/div/div/div/div/div/div/p/a/img'
p267
F9.965784284662087
sS'/html/body/div/div/span/a'
p268
F0.05139915250664415
sS'/html/body/div/script'
p269
F4.680382065799838
sS'/html/body/div/div/div/div/img'
p270
F7.643856189774724
sS'/html/body/div/div/div/div/h4'
p271
F7.965784284662087
sS'/html/body/div/div/div/div/h3'
p272
F6.50635266602479
sS'/html/body/div/div/div/div/h2'
p273
F2.7563309190331373
sS'/html/body/div/div/div/div/div/ul/ul/li/a'
p274
F4.643856189774724
sS'/html/body/div/div/div/div/ul/li/div/img'
p275
F9.965784284662087
sS'/html/body/div/div/div/div/div/div/div/p/img'
p276
F9.965784284662087
sS'/html/body/div/div/div/div/div/div/ul/li/a'
p277
F1.7710274302398394
sS'/html/body/div/div/div/form/div/label'
p278
F4.680382065799838
sS'/html/body/div/div/div/div/div/div/div/span/span'
p279
F2.3510744405468786
sS'/html/body/div/div/div/ul/li/a'
p280
F0.11091590140185055
sS'/html/body/div/div/div/div/div/a/div/img'
p281
F6.795859283219775
sS'/html/body/div/div/div/div/div/div/a/span'
p282
F2.286304185156641
sS'/html/body/div/div/div/div/div/p/span/img'
p283
F9.965784284662087
sS'/html/body/div/div/div/div/div/div/div/div/div/div/a/img'
p284
F4.442222328605075
sS'/html/body/div/div/div/div/div/div/ul/li/div/a'
p285
F4.237863830098888
sS'/html/body/div/div/div/a/img'
p286
F9.965784284662087
sS'/html/body/div/div/div/div/div/div/p/span'
p287
F3.77595972578207
sS'/html/body/div/div/div/div/div/div/div/div/div/div/h4'
p288
F4.442222328605075
sS'/html/body/div/div/div/div/div/div/div/div/form/div/div/input'
p289
F5.158429362604483
sS'/html/body/div/div/div/div/div/div/div/div/dl/dd/br'
p290
F9.965784284662087
sS'/html/body/div/div/div/div/div/div/table/tbody/tr/td/div/div/h3/a'
p291
F9.965784284662087
sS'/html/body/div/div/div/div/div/div/div/div/div/h3/div/a/img'
p292
F4.184424571137428
sS'/html/body/div/div/div/div/div/div/div/div/ul/li/ul/li/a/img'
p293
F9.965784284662087
sS'/html/body/div/div/div/div/div/div/div/ul'
p294
F8.380821783940931
sS'/html/body/div/div/div/div/div/div/div/div/span/a/b'
p295
F9.965784284662087
sS'/html/body/div/div/div/div/div/div/table/tbody/tr/td/div/div/h2/a'
p296
F9.965784284662087
sS'/html/body/div/div/div/div/button'
p297
F3.4900508536956893
sS'/html/body/header/div'
p298
F8.380821783940931
sS'/html/body/div/div/div/div/div/div/div/script'
p299
F2.899695094204315
sS'/html/body/div/div/div/div/div/div/ul/li/p/a'
p300
F5.965784284662088
sS'/html/body/div/div/div/div/div/div/div/div/div/div/img'
p301
F5.265344566520995
sS'/html/body/div/div/div/div/div/div/div/div/h2'
p302
F9.965784284662087
sS'/html/body/div/div/div/div/div/div/div/h3/a/img'
p303
F5.265344566520995
sS'/html/body/div/div/div/form/div/div/div/p/label'
p304
F8.965784284662087
sS'/html/body/div/div/div/div/div/div/div/div/div/div/div/h3/span/input'
p305
F8.965784284662087
sS'/html/body/header/div/div/span'
p306
F7.965784284662087
sS'/html/body/div/div/div/div/div/div/div/div/img'
p307
F9.965784284662087
sS'/html/body/div/div/div/div/div/strong'
p308
F3.4900508536956893
sS'/html/body/div/div/div/div/div/div/dl/dt'
p309
F9.965784284662087
sS'/html/body/div/div/div/div/div/div/div/div/div/div/span/a'
p310
F2.582079992188035
sS'/html/body/div/div/div/div/ul/li/div/a/img'
p311
F4.573466861883327
sS'/html/body/div/div/div/div/div/div/div/div/a'
p312
F1.7759597257820698
sS'/html/body/div/div/div/div/div/p/em'
p313
F9.965784284662087
sS'/html/body/div/div/div/div/div/div/div/div/div/a/img'
p314
F6.965784284662088
sS'/html/body/div/div/div/div/div/div/div/div/div/div/span/script'
p315
F2.899695094204315
sS'/html/body/div/div/div/div/div/div/div/h3/a'
p316
F5.265344566520995
sS'/html/body/div/div/div/div/div/ul/li/div/a/img'
p317
F6.643856189774725
sS'/html/body/div/div/div/div/div/div/ul/div'
p318
F5.210896782498619
sS'/html/body/div/div/h1/span'
p319
F1.272297327162762
sS'/html/body/div/div/div/div/div/div/div/div/form/textarea'
p320
F5.158429362604483
sS'/html/body/rss/channel/item/encoded/br'
p321
F5.50635266602479
sS'/html/body/div/div/div/div/div/div/div/div/span/script'
p322
F3.5734668618833267
sS'/html/body/div/div/div/div/div/span/span'
p323
F3.5563933485243853
sS'/html/body/div/div/div/div/div/div/div/table/tbody/tr/td/a'
p324
F5.643856189774724
sS'/html/body/div/img'
p325
F9.965784284662087
sS'/html/body/div/div/div/div/div/div/div/div/dl/dt/a/img'
p326
F9.965784284662087
sS'/html/body/div/div/div/div/div/table/tr/td/a'
p327
F8.965784284662087
sS'/html/body/div/div/div/div/ul/li/br'
p328
F8.965784284662087
sS'/html/body/div/div/div/div/p/span'
p329
F8.380821783940931
sS'/html/body/div/div/div/div/div/div/div/div/span/span/a'
p330
F2.3510744405468786
sS'/html/body/div/div/div/div/div/div/div/img'
p331
F9.965784284662087
sS'/html/body/div/div/div/div/div/ul/li/a/div/img'
p332
F7.380821783940932
sS'/html/body/div/div/div/div/div/ul/li'
p333
F1.2898272517203382
sS'/html/body/div/div/div/div/div/div/div/div/div/div/span/em'
p334
F5.265344566520995
sS'/html/body/div/div/div/div/div/div/div/div/ul/li/a/strong'
p335
F4.442222328605075
sS'/html/body/div/div/div/div/div/div/div/div/div/br'
p336
F2.977099597889921
sS'/html/body/div/div/div/div/div/div/div/div/div/address/a'
p337
F9.965784284662087
sS'/html/body/div/div/div/div/form/div/div/span'
p338
F9.965784284662087
sS'/html/body/div/div/div/div/div/div/ul/li/div/div'
p339
F4.442222328605075
sS'/html/body/div/div/div/form/input'
p340
F4.680382065799838
sS'/html/body/div/div/div/div/div/div/h2/span/a'
p341
F1.7908586021614084
sS'/html/body/div/div/div/ul/li/div/table/tr/td/a'
p342
F0.11403524324602948
sS'/html/body/div/div/div/div/form/fieldset/label'
p343
F0.11091590140185055
sS'/html/body/div/div/div/div/div/div/ul/li/a/span'
p344
F5.965784284662088
sS'/html/body/div/div/div/div/div/h2/img'
p345
F9.965784284662087
sS'/html/body/div/div/div/form/div/p/a'
p346
F4.608232280044003
sS'/html/body/div/div/div/div/div/div/div/div/span/span'
p347
F2.3510744405468786
sS'/html/body/div/div/div/div/div/div/div/div/div/div/div/ul/li'
p348
F7.380821783940932
sS'/html/body/div/div/div/div/div/div/div/div/p/span'
p349
F4.643856189774724
sS'/html/body/div/div/div/div/div/div/span/script'
p350
F2.272297327162762
sS'/html/body/div/div/div/div/div/div/label/input'
p351
F5.573466861883327
sS'/html/body/div/div/div/div/a/img'
p352
F0.26881675842780006
sS'/html/body/div/div/div/div/div/div/table/tr/td'
p353
F7.380821783940932
sS'/html/body/div/div/div/div/div/form/div/div'
p354
F9.965784284662087
sS'/html/body/div/div/div/div/div/ul/li/dt'
p355
F6.643856189774725
sS'/html/body/div/div/div/div/div/div/table/tr/th'
p356
F9.965784284662087
sS'/html/body/div/div/div/div/div/div/div/ul/li/span'
p357
F2.1844245711374275
sS'/html/body/div/div/div/div/style'
p358
F0.2670796178917426
sS'/html/body/div/div/div/div/div/div/a/div/b'
p359
F9.965784284662087
sS'/html/body/div/div/div/div/div/ul/li/div/div'
p360
F2.77595972578207
sS'/html/body/div/div/div/div/div/ul/li/p'
p361
F3.4900508536956893
sS'/html/body/div/div/ul/li/a'
p362
F4.608232280044003
sS'/html/body/div/div/div/div/div/ul/li/ul/li/a/img'
p363
F9.965784284662087
sS'/html/body/div/div/div/div/div/div/div/div/div/div/div/div/div/a'
p364
F8.965784284662087
sS'/html/body/div/div/div/div/div/div/style'
p365
F7.380821783940932
sS'/html/body/div/div/div/div/div/ul/li/a'
p366
F1.0
sS'/html/body/div/div/div/div/div/div/div/div/div/div/div/form/input'
p367
F7.380821783940932
sS'/html/body/div/div/div/div/div'
p368
F0.5043048373759312
sS'/html/body/div/div/div/div/div/div/ul/li/span/div'
p369
F9.965784284662087
sS'/html/body/div/div/div/div/div/div/div/div/div/span/a'
p370
F2.6082322800440036
sS'/html/body/div/div/div/div/div/div/div/div/dl/dd/a'
p371
F9.965784284662087
sS'/html/body/div/div/div/div/ol/li/div/div/div/span'
p372
F9.965784284662087
sS'/html/body/div/div/div/div/div/div/br'
p373
F3.6082322800440036
sS'/html/body/div/div/div/div/div/div/table/tr/td/span'
p374
F9.965784284662087
sS'/html/body/div/div/div/div/div/form/div/div/span'
p375
F9.965784284662087
sS'/html/body/div/div/div/div/div/div/div/div/p/span/a'
p376
F5.878321443411747
sS'/html/body/div/div/div/div/div/div/ul/li/ul/li/h2/b'
p377
F9.965784284662087
sS'/html/body/div/div/div/div/div/div/div/div/div/div/span/div'
p378
F4.184424571137428
sS'/html/body/div/div/div/div/div/div/ul/li/ul/li/h2/a'
p379
F9.965784284662087
sS'/html/body/div/div/div/div/div/div/ul/li/p/span'
p380
F5.965784284662088
sS'/html/body/div/div/div/div/div/p/strong'
p381
F9.965784284662087
sS'/html/body/div/div/div/div/div/div/input'
p382
F9.965784284662087
sS'/html/body/div/div/div/div/div/div/div/div/div/div/div/span/form/input'
p383
F3.265344566520995
sS'/html/body/div/div/div/div/div/div/div/table/tbody/tr/td'
p384
F5.643856189774724
sS'/html/body/div/div/div/div/div/div/div/div/div/div/span/div/a/img'
p385
F7.643856189774724
sS'/html/body/div/div/div/div/div/ul/li/h3/a'
p386
F3.3959286763311396
sS'/html/body/div/div/div/div/div/div/div/a/img'
p387
F1.7759597257820698
sS'/html/body/div/div/div/div/div/span/a'
p388
F2.373327247394007
sS'/html/body/rss/channel/link'
p389
F5.380821783940931
sS'/html/body/div/div/div/div/div/div/div/div/div/span/form/input'
p390
F4.473931188332412
sS'/html/body/div/div/div/div/div/a/img'
p391
F4.473931188332412
sS'/html/body/div/div/div/div/div/div/div/div/div/h4/a'
p392
F9.965784284662087
sS'/html/body/rss/channel/item/title'
p393
F5.50635266602479
sS'/html/body/div/div/div/div/div/div/ul/li/span/a'
p394
F2.3510744405468786
sS'/html/body/div/div/div/div/div/div/span/link'
p395
F5.717856771218502
sS'/html/body/div/div/div/div/div/span/span/a'
p396
F3.473931188332412
sS'/html/body/div/div/div/div/div/input'
p397
F9.965784284662087
sS'/html/body/div/div/div/div/div/div/div/div/div/div/div/h3/span/span'
p398
F8.965784284662087
sS'/html/body/rss/channel/item/encoded/a'
p399
F5.50635266602479
sS'/html/body/div/div/div/div/div/div/div/div/form/input'
p400
F5.158429362604483
sS'/html/body/div/div/div/div/div/div/span/span/a'
p401
F4.237863830098888
sS'/html/body/div/div/div/div/div/img'
p402
F7.643856189774724
sS'/html/body/div/div/div/div/div/div/div/div/div/div/div/div/div/div/span/a'
p403
F8.965784284662087
sS'/html/body/rss/channel/title'
p404
F5.380821783940931
sS'/html/body/div/div/div/div/div/span/script'
p405
F3.4900508536956893
sS'/html/body/div/div/div/div/div/div/div/div/ul/li/ul/li/a'
p406
F9.965784284662087
sS'/html/body/div/div/div/div/div/div/table/tr/td/p/span'
p407
F4.351074440546879
sS'/html/body/div/div/div/div/div/span/div/span/a'
p408
F3.4900508536956893
sS'/html/body/div/div/h1'
p409
F1.0350469470992008
sS'/html/body/header/div/img'
p410
F9.965784284662087
sS'/html/body/div/div/div/div/div/div/div/div/div/div/div/a'
p411
F1.780908941753803
sS'/html/body/div/div/div/div/div/div/table/tbody/tr/td/div/div'
p412
F9.965784284662087
sS'/html/body/div/div/div/div/div/div/div/div/div/div/div/p'
p413
F8.965784284662087
sS'/html/body/div/div/div/div/div/div/div/div/div/img'
p414
F9.965784284662087
sS'/html/body/div/div/div/div/div/div/div/div/p'
p415
F4.411195432984449
sS'/html/body/div/div/div/div/div/ul/li/a/span'
p416
F2.6711635357704604
sS'/html/body/header/div/a/img'
p417
F7.965784284662087
sS'/html/body/div/div/div/div/div/div/div/div/div/span/div'
p418
F2.4579896444633906
sS'/html/body/div/div/div/div/div/table/tbody/tr/td'
p419
F7.965784284662087
sS'/html/body/div/div/div'
p420
F0.15040098884854838
sS'/html/body/div/div/div/span'
p421
F6.643856189774725
sS'/html/body/div/div/div/div/div/div/div/div/h2/span/a'
p422
F9.965784284662087
sS'/html/body/header/div/a'
p423
F7.965784284662087
sS'/html/body/div/div/div/div/div/script'
p424
F1.8365012677171209
sS'/html/body/div/div/div/div/a/h2'
p425
F9.965784284662087
sS'/html/body/div/div/div/div/h1/img'
p426
F7.965784284662087
sS'/html/body/div/div/div/div/div/ul/li/div/a/span'
p427
F7.380821783940932
sS'/html/body/div/div/div/div/div/div/div/div/dl/dd/span/a'
p428
F5.795859283219775
sS'/html/body/div/div/a/img'
p429
F8.380821783940931
sS'/html/body/div/div/div/div/div/div/div/div/input'
p430
F7.158429362604482
sS'/html/body/div/div/div/div/div/div/div/div/h3/a'
p431
F2.41119543298445
sS'/html/body/div/div/div/div/div/ul/li/div/span/div'
p432
F7.380821783940932
sS'/html/body/div/div/div/div/ol/li/div/div/a/img'
p433
F9.965784284662087
sS'/html/body/div/div/div/div/div/div/ul/li/div/div/div/a/h3'
p434
F7.380821783940932
sS'/html/body/div'
p435
F7.380821783940932
sS'/html/body/div/div/div/div/div/div/div/div/div/div/h3/div/a/img'
p436
F8.965784284662087
sS'/html/body/div/div/div/div/div/div/div/div/div/div/div/div/div/span/a'
p437
F4.184424571137428
sS'/html/body/rss/channel/pubdate'
p438
F5.380821783940931
sS'/html/body/div/div/div/form/div/p/input'
p439
F4.680382065799838
sS'/html/body/div/div/div/div/div/div/div/div/div/div/p/a/img'
p440
F4.380821783940931
sS'/html/body/div/div/div/div/div/div/div/dl/dt'
p441
F6.50635266602479
sS'/html/body/div/div/div/div/div/div/div/div/div/h3/a'
p442
F4.184424571137428
sS'/html/body/div/div/div/div/div/div/table/tbody/tr/td/div/div/div'
p443
F9.965784284662087
sS'/html/body/div/div/div/div/div/div/div/h2/span/a'
p444
F3.4900508536956893
sS'/html/body/div/div/div/form/div/img'
p445
F4.680382065799838
sS'/html/body/div/div/div/div/div/div/div/div/h3/a/img'
p446
F2.4579896444633906
sS'/html/body/div/div/div/div/div/div/div/div/dl/dd/span'
p447
F8.965784284662087
sS'/html/body/div/div/div/div/p/br'
p448
F2.0954195650786827
sS'/html/body/div/div/div/div/div/div/div/div/div/div/ul/li/a'
p449
F5.265344566520995
sS'/html/body/div/div/div/div/div/div/a/div/span'
p450
F5.717856771218502
sS'/html/body/div/div/div/div/ul/li/span'
p451
F4.293358942690592
sS'/html/body/div/div/div/div/div/div/div/br'
p452
F8.380821783940931
sS'/html/body/div/div/div/div/div/div/span/p/a'
p453
F3.4111954329844494
sS'/html/body/div/div/div/div/div/div/ul'
p454
F4.608232280044003
sS'/html/body/div/div/div/ul/li/a/span'
p455
F0.11403524324602948
sS'/html/body/div/div/div/div/div/ul/li/div/div/span'
p456
F2.5994620704162714
sS'/html/body/div/div/div/div/div/div/div/div/span/form/input'
p457
F4.011587974275212
sS'/html/body/div/div/div/div/div/div/a/img'
p458
F1.9827907099677768
sS'/html/body/div/div/div/div/form'
p459
F9.965784284662087
sS'/html/body/div/div/div/div/div/div/div/div/ul/li/ul/li/span'
p460
F9.965784284662087
sS'/html/body/div/div/div/div/form/div/div/input'
p461
F9.965784284662087
sS'/html/body/div/div/div/div/h1'
p462
F3.4900508536956893
sS'/html/body/div/div/div/div/form/fieldset/div/input'
p463
F0.11091590140185055
sS'/html/body/div/div/div/div/div/div/div/div/div/div/div/div/div/ul/li/a'
p464
F8.965784284662087
sS'/html/body/div/div/div/div/div/div/ul/li/div/a/img'
p465
F4.107803289534515
sS'/html/body/div/div/div/div/ul/li/p'
p466
F8.965784284662087
sS'/html/body/div/div/div/div/div/div/span/span/br'
p467
F5.717856771218502
sS'/html/head/title'
p468
F0.03504694709920065
sS'/html/body/div/div/div/div/div/div/div/span/link'
p469
F5.878321443411747
sS'/html/body/div/div/div/div/div/div/div/h3/span/input'
p470
F5.50635266602479
sS'/html/body/div/div/div/div/div/div/h4'
p471
F8.380821783940931
sS'/html/body/div/div/div/div/div/div/div/div/div/div/h3/span/a'
p472
F2.3658714424749596
sS'/html/body/div/div/div/div/ul/li'
p473
F4.643856189774724
sS'/html/body/div/div/div/div/div/div/p/span/a'
p474
F5.717856771218502
sS'/html/body/div/div/div/div/div/div/div/h3/span/span'
p475
F5.50635266602479
sS'/html/body/div/div/div/div/div/div/div/div/div/div/ul/script'
p476
F5.265344566520995
sS'/html/body/div/div/div/div/div/div/div/span/a'
p477
F2.6711635357704604
sS'/html/body/div/div/div/div/div/div/div/form/div/div/label/input'
p478
F6.965784284662088
sS'/html/body/rss/channel/description'
p479
F5.380821783940931
sS'/html/body/div/div/div/div/div/div/div/div/a/span'
p480
F5.643856189774724
sS'/html/body/div/div/div/div/div/div/div/form/div/input'
p481
F6.965784284662088
sS'/html/body/div/div/div/div/div/ul/li/div/div/a'
p482
F6.795859283219775
sS'/html/body/div/div/div/div/div/h1/a'
p483
F8.380821783940931
sS'/html/body/div/div/div/div/div/div/div/div/div/div/div/form/span/input'
p484
F7.380821783940932
sS'/html/body/div/div/div/div/div/h3/b'
p485
F9.965784284662087
sS'/html/body/div/div/div/div/div/h3/a'
p486
F9.965784284662087
sS'/html/body/div/div/div/div/script'
p487
F1.29689930039584
sS'/html/body/div/div/div/div/div/h2/a'
p488
F8.380821783940931
sS'/html/body/div/div/div/div/div/div/div/form/div/p/strong'
p489
F6.965784284662088
sS'/html/body/div/div/div/div/div/ul'
p490
F5.878321443411747
sS'/html/body/div/div/div/div/div/div/div/div/div/div/div/div/span/a'
p491
F2.380821783940931
sS'/html/body/div/div/div/div/div/div/div/div/div/div/div/a/span'
p492
F2.083141235300246
sS'/html/body/div/div/div/div/div/div/div/div/h4/a'
p493
F5.380821783940931
sS'/html/body/div/div/div/div/div/div/div/h3'
p494
F5.878321443411747
sS'/html/body/div/div/div/div/div/div/div/h2'
p495
F2.795859283219775
sS'/html/body/link'
p496
F0.15682010974282581
sS'/html/body/script'
p497
F0.04097178105630611
sS'/html/body/div/div/div/div/div/div/div/style'
p498
F9.965784284662087
sS'/html/body/div/div/div/div/div/div/div/div/ul/li/a/img'
p499
F4.442222328605075
sS'/html/body/div/div/img'
p500
F4.539519529959989
sS'/html/body/div/div/div/div/div/div/ul/li/a/strong/em'
p501
F5.965784284662088
sS'/html/body/div/div/div/div/div/div/div/div/span/div'
p502
F5.265344566520995
sS'/html/body/rss/channel/item/guid'
p503
F5.50635266602479
sS'/html/body/div/div/div/div/div/div/div/ul/li/a/img'
p504
F3.5734668618833267
sS'/html/body/div/div/div/div/div/div/div/p/br'
p505
F5.717856771218502
sS'/html/body/div/div/div/div/div/div/div/div/div/div/div/ul/li/a'
p506
F2.3364276645824775
sS'/html/body/header/div/div/div/div/script'
p507
F7.965784284662087
sS'/html/body/div/div/div/div/div/ul/li/div/span'
p508
F6.795859283219775
sS'/html/body/div/div/div/div/div/div/ul/li/ul/li/h2/span'
p509
F9.965784284662087
sS'/html/body/div/div/div/div/div/div/div/div/div/div/h3/a'
p510
F8.965784284662087
sS'/html/body/div/div/div/div/div/div/a/div'
p511
F9.965784284662087
sS'/html/body/div/div/div/div/div/div/div/div/ul/li/ul/li'
p512
F9.965784284662087
sS'/html/body/div/div/div/div/div/p/em/span'
p513
F9.965784284662087
sS'/html/body/div/div/div/div/div/h3/img'
p514
F8.380821783940931
sS'/html/body/div/div/div/div/div/div/div/div/div/div/div'
p515
F1.7514651638613215
sS'/html/body/div/div/div/form/div/div/div/p/span/img'
p516
F8.965784284662087
sS'/html/body/div/div/div/div/form/div/div'
p517
F9.965784284662087
sS'/html/body/div/div/div/div/div/p'
p518
F3.3364276645824775
sS'/html/body/div/div/div/div/div/div/div/p/span'
p519
F2.899695094204315
sS'/html/body/div/div/div/div/div/div/div/div/div'
p520
F1.300448367476911
sS'/html/body/div/div/div/div/div/div/h5'
p521
F7.965784284662087
sS'/html/body/div/div/div/div/div/a'
p522
F0.11403524324602948
sS'/html/body/div/div/div/div/div/div/h3'
p523
F8.380821783940931
sS'/html/body/div/div/div/div/div/div/h2'
p524
F3.3510744405468786
sS'/html/body/div/div/div/div/div/div/h1'
p525
F9.965784284662087
sS'/html/body/div/div/div/div/div/i'
p526
F8.965784284662087
sS'/html/body/div/div/div/div/ul/li/a'
p527
F4.210896782498619
sS'/html/body/div/div/div/div/div/div/div/div/div/div'
p528
F1.652901329377732
sS'/html/body/div/div/div/form/div/div/div/a'
p529
F8.965784284662087
sS'/html/body/div/div/div/script'
p530
F6.50635266602479
sS'/html/body/div/div/div/form/div/div/div/p/input'
p531
F8.965784284662087
sS'/html/body/div/div/div/div/div/div/div/p/a'
p532
F3.5228407888133586
sS'/html/body/div/div/div/div/form/a'
p533
F7.965784284662087
sS'/html/body/div/div/div/div/div/a/div/span'
p534
F6.795859283219775
sS'/html/body/div/div/div/div/div/h1/span'
p535
F9.965784284662087
sS'/html/body/div/div/div/div/div/div/div/div/div/div/div/div/ul/script'
p536
F4.184424571137428
sS'/html/body/div/div/div/div/div/div/div/div/script'
p537
F4.442222328605075
s.