(dp0
S'/html/body/div/div/div/p/a'
p1
F2.473931188332412
sS'/html/body/div/nav/div/ul/li/div/div/ul/li/a'
p2
F0.0892673380970873
sS'/html/body/div/div/div/div/ul/li/a/span'
p3
F2.473931188332412
sS'/html/body/div/div/div/form/div/div/input'
p4
F2.9434164716336326
sS'/html/body/div/div/ul/li/div/h3/a'
p5
F2.1844245711374275
sS'/html/body/div/div/div/div/div/div/div/div/a/img'
p6
F6.643856189774725
sS'/html/body/div/header/div/div/a/svg/circle'
p7
F0.0892673380970873
sS'/html/body/div/footer/div/ul/li/a'
p8
F0.0892673380970873
sS'/html/body/div/div/div/div/table/tbody/tr/td/h4/a'
p9
F4.643856189774724
sS'/html/body/div/div/div'
p10
F1.217591435072627
sS'/html/body/div/div/div/div/table/tbody/tr/td/p/a'
p11
F2.395928676331139
sS'/html/body/div/header/div/a/svg/g/g/path'
p12
F0.0892673380970873
sS'/html/body/div/div/div/span'
p13
F2.473931188332412
sS'/html/body/div/div/ul/li/div/p/a'
p14
F2.1844245711374275
sS'/html/body/div/div/div/div/ul/li'
p15
F2.2515387669959646
sS'/html/body/div/div/div/div/div/div/table/thead/tr/th'
p16
F2.2515387669959646
sS'/html/body/div/div/ul/li/div/div/br'
p17
F6.643856189774725
sS'/html/body/div/nav/div/a'
p18
F0.0892673380970873
sS'/html/body/div/div/div/div/div/h2/span/a'
p19
F2.2515387669959646
sS'/html/body/div/div/div/div/form/p/input'
p20
F6.643856189774725
sS'/html/body/div/div/div/div/div/div/a'
p21
F1.2515387669959643
sS'/html/body/div/div/div/div/span'
p22
F4.643856189774724
sS'/html/body/rss/channel/item/link'
p23
F4.058893689053568
sS'/html/body/div/div/div/div/form/div/p/label'
p24
F3.184424571137428
sS'/html/body/div/div/div/div/table/tbody/tr/td/div'
p25
F2.395928676331139
sS'/html/body/div/form/input'
p26
F0.3040061868900999
sS'/html/body/div/div'
p27
F0.3040061868900999
sS'/html/body/div/div/ul/li/div/p/span/span'
p28
F2.1844245711374275
sS'/html/body/div/div/div/a'
p29
F1.3959286763311394
sS'/html/body/div/div/div/div/form/div/p/input'
p30
F3.184424571137428
sS'/html/body/div/div/div/p'
p31
F4.321928094887363
sS'/html/body/div/div/div/div/div/table/tbody/tr/th'
p32
F2.2515387669959646
sS'/html/body/div/div/div/div/select/optgroup/option'
p33
F4.643856189774724
sS'/html/head/meta'
p34
F0.0892673380970873
sS'/html/body/div/div/div/div/table/tbody/tr/td/h2/a'
p35
F2.395928676331139
sS'/html/body/div'
p36
F0.3040061868900999
sS'/html/body/div/div/ul/li/div/img'
p37
F6.643856189774725
sS'/html/body/div/div/ul/li/div'
p38
F6.643856189774725
sS'/html/body/div/div/ul/li/div/div/blockquote/h4'
p39
F4.643856189774724
sS'/html/body/div/div/div/div/div/div/table/tbody/tr/td'
p40
F2.2515387669959646
sS'/html/body/div/div/div/div/div/h2'
p41
F1.3219280948873624
sS'/html/body/div/header/div/div/input'
p42
F0.0892673380970873
sS'/html/body/div/div/ul/li/div/div/pre/strong/em/span'
p43
F6.643856189774725
sS'/html/body/div/div/div/div/p/br'
p44
F5.058893689053569
sS'/html/body/div/div/div/h1/a'
p45
F2.643856189774725
sS'/html/body/div/div/div/div/div/table/thead/tr/th'
p46
F6.643856189774725
sS'/html/body/div/div/div/form/div/div/button'
p47
F2.9434164716336326
sS'/html/body/div/div/div/div/p/a'
p48
F6.643856189774725
sS'/html/body/div/div/div/div/table/tbody/tr/td/br'
p49
F4.643856189774724
sS'/html/body/div/div/ul/li/div/p'
p50
F2.1844245711374275
sS'/html/body/div/div/h1'
p51
F2.9434164716336326
sS'/html/body/div/div/ul/li/div/p/span/a'
p52
F2.1844245711374275
sS'/html/body/div/div/ul/li/div/div/p/em/strong'
p53
F6.643856189774725
sS'/html/body/div/a'
p54
F2.2515387669959646
sS'/html/head/script'
p55
F0.0892673380970873
sS'/html/body/div/div/div/div/form/div/div/p/label'
p56
F3.184424571137428
sS'/html/body/div/div/div/form/div/br'
p57
F2.9434164716336326
sS'/html/body/div/div/div/div/p'
p58
F1.3219280948873624
sS'/html/body/div/div/div/div/div/table/tbody/tr/td/a'
p59
F2.2515387669959646
sS'/html/head/link'
p60
F0.0892673380970873
sS'/html/body/div/footer/div/div'
p61
F0.0892673380970873
sS'/html/body/div/noscript/img'
p62
F2.9434164716336326
sS'/html/body/div/div/div/form/div/input'
p63
F2.9434164716336326
sS'/html/body/noscript/a/img'
p64
F0.3040061868900999
sS'/html/body/div/div/ul/li/div/div/p/img'
p65
F6.643856189774725
sS'/html/body/div/div/div/div/table/tbody/tr/td/p/b/a/img'
p66
F5.058893689053569
sS'/html/body/div/div/div/div/form/div/div/label'
p67
F3.184424571137428
sS'/html/body/div/div/div/div/form/div/div/input'
p68
F3.184424571137428
sS'/html/body/div/div/div/div/a/img'
p69
F6.643856189774725
sS'/html/body/div/footer/div/ul/li/span'
p70
F0.0892673380970873
sS'/html/body/div/div/div/form/input'
p71
F2.9434164716336326
sS'/html/body/div/div/div/div/form/div/h4'
p72
F3.184424571137428
sS'/html/head/title'
p73
F0.0892673380970873
sS'/html/body/rss/channel/link'
p74
F4.058893689053568
sS'/html/body/div/div/div/div/form/div/input'
p75
F3.184424571137428
sS'/html/body/div/div/div/div/ul/li/a'
p76
F1.3959286763311394
sS'/html/body/noscript/img'
p77
F0.3040061868900999
sS'/html/body/div/footer/div/ul/li/h2/a/svg/path'
p78
F0.0892673380970873
sS'/html/body/div/div/div/div/div/div/h2'
p79
F1.8889686876112561
sS'/html/body/div/div/div/div/div/table/tbody/tr/td'
p80
F2.1844245711374275
sS'/html/body/div/div/div/div/form/h2/a'
p81
F3.184424571137428
sS'/html/body/div/div/ul/li/div/div/ol/li'
p82
F5.643856189774724
sS'/html/body/div/div/ul/li/div/div/pre/strong'
p83
F6.643856189774725
sS'/html/body/div/div/ul/li/div/div/blockquote/p/i'
p84
F6.643856189774725
sS'/html/body/div/div/div/div/form/h3/a'
p85
F3.184424571137428
sS'/html/body/div/div/ul/li/div/a/img'
p86
F2.1844245711374275
sS'/html/body/div/div/ul/li/div/div/blockquote/p'
p87
F6.643856189774725
sS'/html/body/div/div/ul/li/div/a'
p88
F2.1844245711374275
sS'/html/body/div/div/h1/a'
p89
F2.473931188332412
sS'/html/body/div/div/ul/li/div/div/pre/br'
p90
F6.643856189774725
sS'/html/body/div/div/div/div/br'
p91
F6.643856189774725
sS'/html/body/div/div/ul/li/div/div/ul/li'
p92
F5.643856189774724
sS'/html/body/div/div/div/div/table/tbody'
p93
F5.643856189774724
sS'/html/body/div/div/ul/li/div/div/pre/em/span/strong'
p94
F6.643856189774725
sS'/html/body/div/div/div/div/select/option'
p95
F4.643856189774724
sS'/html/body/div/div/ul/li/div/div/pre/span/em/strong'
p96
F6.643856189774725
sS'/html/body/div/div/div/div/div/div/a/span'
p97
F2.2515387669959646
sS'/html/body/div/div/div/form/div/label'
p98
F2.9434164716336326
sS'/html/body/div/div/ul/li/div/br'
p99
F3.0588936890535687
sS'/html/body/div/div/div/div/div/ul/li/a'
p100
F1.3959286763311394
sS'/html/body/div/header/div/a'
p101
F0.0892673380970873
sS'/html/body/div/div/div/div/div/div/h4'
p102
F2.395928676331139
sS'/html/body/div/header/div/a/svg/g/g/defs/rect'
p103
F0.0892673380970873
sS'/html/body/rss/channel/item/description'
p104
F4.058893689053568
sS'/html/body/div/div/h1/span'
p105
F6.643856189774725
sS'/html/body/div/div/a'
p106
F0.0892673380970873
sS'/html/body/div/nav/div/ul/li/div/div/h2'
p107
F0.0892673380970873
sS'/html/body/div/div/div/ul/li'
p108
F2.395928676331139
sS'/html/body/div/div/div/div/table/tbody/tr/td'
p109
F2.321928094887362
sS'/html/body/script'
p110
F0.3040061868900999
sS'/html/body/div/div/ul/li/div/div/p/strong'
p111
F4.643856189774724
sS'/html/body/div/div/ul/li/div/h3'
p112
F2.1844245711374275
sS'/html/body/div/div/ul/li/div/div/p'
p113
F2.1844245711374275
sS'/html/body/div/div/div/div/a'
p114
F4.643856189774724
sS'/html/body/div/div/div/div/div/div/span'
p115
F2.2515387669959646
sS'/html/body/div/div/div/div/table/tbody/tr/td/a'
p116
F4.321928094887363
sS'/html/body/div/header/div/div/div/a'
p117
F0.0892673380970873
sS'/html/body/div/div/div/div/div'
p118
F1.3584539709124765
sS'/html/body/rss/channel/id'
p119
F4.058893689053568
sS'/html/body/div/div/div/div/table/tbody/tr/td/p/span'
p120
F5.058893689053569
sS'/html/body/div/div/ul/li/div/div/blockquote/span/em/strong'
p121
F6.643856189774725
sS'/html/body/div/div/ul/li/div/div'
p122
F2.1844245711374275
sS'/html/body/div/div/div/form/h2'
p123
F2.9434164716336326
sS'/html/body/rss/channel/item/guid'
p124
F4.058893689053568
sS'/html/body/div/footer/div/ul/li/h2'
p125
F0.0892673380970873
sS'/html/body/div/div/div/div/div/div/ul/li/span'
p126
F2.395928676331139
sS'/html/body/div/div/ul/li/div/div/pre/span'
p127
F5.643856189774724
sS'/html/body/div/div/div/div/div/h2/span'
p128
F2.5563933485243857
sS'/html/body/div/div/div/div/div/div/div/div/p/strong'
p129
F6.643856189774725
sS'/html/body/div/div/div/div/form/div/div/h4'
p130
F3.184424571137428
sS'/html/body/div/header/div/a/svg/path'
p131
F0.0892673380970873
sS'/html/body/div/div/div/div/form/h3/span'
p132
F3.184424571137428
sS'/html/body/rss/channel/item/updated'
p133
F4.058893689053568
sS'/html/body/div/div/div/div/div/div/p/strong'
p134
F2.2515387669959646
sS'/html/body/div/div/ul/li/div/p/span'
p135
F5.643856189774724
sS'/html/body/div/div/div/div/div/div/h3/span'
p136
F2.395928676331139
sS'/html/body/div/div/ul/li/div/div/blockquote/pre'
p137
F6.643856189774725
sS'/html/body/div/div/div/h2/span'
p138
F6.643856189774725
sS'/html/body/div/div/ul/li/div/div/p/span/span'
p139
F6.643856189774725
sS'/html/body/div/div/div/form/p/input'
p140
F2.395928676331139
sS'/html/body/div/div/div/h1/span'
p141
F2.1202942337177118
sS'/html/body/div/div/div/h2'
p142
F0.9434164716336326
sS'/html/body/div/div/div/h1'
p143
F1.4739311883324122
sS'/html/body/div/div/span'
p144
F0.3040061868900999
sS'/html/body/div/header/div/div/a/svg/path'
p145
F0.0892673380970873
sS'/html/body/div/nav/div/ul/li/a'
p146
F0.0892673380970873
sS'/html/body/div/div/div/div/form/div/div/p/input'
p147
F3.184424571137428
sS'/html/body/div/div/div/div/div/div'
p148
F6.643856189774725
sS'/html/body/rss/channel/item/title'
p149
F4.058893689053568
sS'/html/body/div/div/div/div/div/div/div/div/h4/a'
p150
F6.643856189774725
sS'/html/body/div/div/div/div/form/div/div'
p151
F3.184424571137428
sS'/html/body/div/div/ul/li/div/div/p/i'
p152
F6.643856189774725
sS'/html/body/rss/channel/lastbuilddate'
p153
F4.058893689053568
sS'/html/body/div/script'
p154
F2.9434164716336326
sS'/html/body/div/div/ul/li/div/div/p/a'
p155
F3.473931188332412
sS'/html/body/div/div/ul/li/div/div/blockquote/span'
p156
F4.643856189774724
sS'/html/body/div/div/div/div/h2'
p157
F0.8624964762500651
sS'/html/body/rss/channel/description'
p158
F4.058893689053568
sS'/html/body/div/div/div/div/div/img'
p159
F2.2515387669959646
sS'/html/body/div/div/ul/li/ul/li/a'
p160
F2.1844245711374275
sS'/html/body/div/div/div/div/div/div/h3'
p161
F2.2515387669959646
sS'/html/body/rss/channel/title'
p162
F4.058893689053568
sS'/html/body/div/div/ul/li/div/div/pre'
p163
F3.8365012677171206
sS'/html/body/div/div/div/div/div/div/h3/span/a'
p164
F2.395928676331139
sS'/html/body/div/div/ul/li/div/div/p/br'
p165
F4.643856189774724
sS'/html/body/div/div/div/div/div/div/ul/li/a'
p166
F1.8889686876112561
sS'/html/body/div/div/div/div/table/thead/tr/th'
p167
F3.3219280948873626
sS'/html/body/div/div/ul/li/div/div/h3/a'
p168
F6.643856189774725
sS'/html/body/div/div/h2'
p169
F2.2515387669959646
sS'/html/head/style'
p170
F0.0892673380970873
sS'/html/body/div/div/div/div/div/div/div'
p171
F2.2515387669959646
sS'/html/body/div/div/div/div/form/div/select/option'
p172
F3.184424571137428
sS'/html/body/div/div/div/form/div/a'
p173
F2.9434164716336326
sS'/html/body/div/div/div/form/div/div/label'
p174
F2.9434164716336326
sS'/html/body/div/div/div/div/table/tbody/tr/td/p/br'
p175
F5.058893689053569
sS'/html/body/div/div/div/div'
p176
F1.3959286763311394
sS'/html/body/div/div/ul/li/div/div/p/em'
p177
F6.643856189774725
sS'/html/body/div/div/ul/li/div/div/ul/li/em'
p178
F5.643856189774724
sS'/html/body/div/div/ul/li/div/div/p/span'
p179
F5.643856189774724
sS'/html/body/rss/channel/item/pubdate'
p180
F5.643856189774724
sS'/html/body/div/header/div/a/svg/g/g/clippath/use'
p181
F0.0892673380970873
sS'/html/body/div/div/div/div/table/thead/tr/th/a'
p182
F2.1202942337177118
s.