(dp0
S'/html/body/div/div/div/div/div/div/table/tr/td/div/a/span'
p1
F4.314696525656287
sS'/html/body/div/div/div/div/form/fieldset/input'
p2
F0.16901907046065134
sS'/html/body/div/div/div/div/div/div/div/div/div/a'
p3
F1.5281001637654799
sS'/html/body/div/div/div/div/div/ul/ul/li/span'
p4
F7.636624620543649
sS'/html/body/div/div/div/div/div/div/div/div/a/img'
p5
F1.9641992785721532
sS'/html/body/div/div/div/div/div/span/br'
p6
F4.636624620543649
sS'/html/body/div/div/div/div/div/div/p/br'
p7
F7.636624620543649
sS'/html/body/div/div/div/div/div/div/div/div/div/div/div/div/ul/li/a'
p8
F5.314696525656286
sS'/html/body/div/div/div/div/div/p/a'
p9
F1.936184902402557
sS'/html/body/div/div/div/div/div/div/div/div/h3/div/a/img'
p10
F2.3512224016814005
sS'/html/body/div/div/div/div/div/div/div/h3/div/a/img'
p11
F4.829269698486045
sS'/html/body/div/div/div/div/div/table/thead/tr/td/a'
p12
F5.051662119822493
sS'/html/body/div/div/div/div/div/div/div/div/div/div/div/div/span/a'
p13
F2.3512224016814005
sS'/html/body/div/div/div/div/div/div/table/tr/td/a'
p14
F5.63662462054365
sS'/html/body/div/div/div/div/div/div/div/div/div/div/dl/dd/span/a'
p15
F5.63662462054365
sS'/html/body/header/div/div/div/div/a'
p16
F5.63662462054365
sS'/html/body/rss/channel/item/link'
p17
F4.829269698486045
sS'/html/body/div/div/div/div/div/div/div/div/div/div/p/br'
p18
F3.2443071977648885
sS'/html/body/div/div/div/span/a'
p19
F5.63662462054365
sS'/html/body/div/div/div/img'
p20
F7.636624620543649
sS'/html/body/div/div/div/a'
p21
F0.16089118957725104
sS'/html/body/div/div/div/div/div/div/div/div/div/span'
p22
F1.1936811246949208
sS'/html/body/div/div/div/div/div/div/div/span/input'
p23
F2.3512224016814005
sS'/html/body/div/div/div/div/ol/li/div/div/div/p/br'
p24
F7.636624620543649
sS'/html/head/meta'
p25
F0.051662119822492546
sS'/html/body/div/div/div/div/ul/li/div/br'
p26
F7.636624620543649
sS'/html/body/header/div/div/div/div/img'
p27
F5.63662462054365
sS'/html/body/div/div/div/div/div/div/ul/li/ul/li/a'
p28
F4.829269698486045
sS'/html/body/div/div/div/form/div/p/label'
p29
F4.636624620543649
sS'/html/body/div/div/div/div/div/table/thead/tr/td'
p30
F4.1771930019063515
sS'/html/body/div/div/div/div/div/div/div/div/div/strong'
p31
F2.3512224016814005
sS'/html/body/div/div/div/div/div/div/div/p/a/wbr'
p32
F5.63662462054365
sS'/html/body/div/div/div/div/div/div/div/form/input'
p33
F5.051662119822493
sS'/html/body/div/div/div/div/div/div/div/div/div/span/em'
p34
F2.7297340249351305
sS'/html/body/div/div/div/div/p/a'
p35
F1.8037346063789073
sS'/html/body/div/div/div/div/div/div/div/ul/li/span/a'
p36
F6.051662119822492
sS'/html/body/div/div/div/div/div/div/ul/li/div/img'
p37
F7.636624620543649
sS'/html/body/div/div/div/div/ul/li/div/a'
p38
F4.051662119822493
sS'/html/head/script'
p39
F0.07438219632257634
sS'/html/body/div/div/div/div/div/div/div/div/div/div/div/span/a'
p40
F1.5281001637654799
sS'/html/body/div/div/div/div/div/table/tbody/tr/td/a'
p41
F4.1771930019063515
sS'/html/body/div/div/div/div/div/div/ul/li/div/span/a'
p42
F5.314696525656286
sS'/html/body/div/div/div/div/div/form/div/div/div'
p43
F7.636624620543649
sS'/html/body/div/div/div/form/div/input'
p44
F4.636624620543649
sS'/html/body/div/div/div/div/div/div/div/div/div/div/div/div/a'
p45
F6.051662119822492
sS'/html/body/div/div/div/div/div/div/div/div/span'
p46
F1.4666996191013366
sS'/html/body/div/div/div/div/div/div/div/form/div/div/input'
p47
F5.051662119822493
sS'/html/body/div/div/div/div/div/div/div/div/div/div/p/a'
p48
F7.636624620543649
sS'/html/body/div/div/div/div/div/div/ul/li/div/div/div/p'
p49
F5.63662462054365
sS'/html/body/div/div/div/div/div/div/div/div/div/span/link'
p50
F4.1771930019063515
sS'/html/body/div/div/div/div/div/div/ul/li/ul/li/span'
p51
F4.829269698486045
sS'/html/body/div/div/div/div/div/div/a/div/div/p'
p52
F7.636624620543649
sS'/html/body/div/div/div/div/div/div/div/div/div/div/a'
p53
F2.113062664486636
sS'/html/body/div/div/div/div/div/div/div/div/div/div/p'
p54
F1.5281001637654799
sS'/html/body/div/div/div/div/div/span/div/span/a'
p55
F5.63662462054365
sS'/html/body/div/div/div/div/div/div/ul/li/div'
p56
F6.636624620543649
sS'/html/body/div/div/div/div/div/div/div/div/span/a'
p57
F2.3146965256562866
sS'/html/body/div/div/div/div/div/div/link'
p58
F4.466699619101337
sS'/html/body/div/div/div/div/br'
p59
F1.7539815711818076
sS'/html/body/div/div/div/div/div/div/div/p/a/span'
p60
F2.7297340249351305
sS'/html/body/div/div/div/div/div/table/tbody/tr/td/span'
p61
F5.314696525656286
sS'/html/body/div/div/div/div/div/ul/li/span/a'
p62
F4.829269698486045
sS'/html/body/rss/channel/copyright'
p63
F4.829269698486045
sS'/html/body/div/div/div/div/div/span/link'
p64
F3.72973402493513
sS'/html/body/div/div/div/div/div/div/ul/li/ul/li/div/a'
p65
F7.636624620543649
sS'/html/body/div/div/div/div/div/div/div/form/div/div/button'
p66
F5.051662119822493
sS'/html/body/div/div/div/div/div/div/p/strong'
p67
F4.466699619101337
sS'/html/body/div/div/div/div/ol/li/div/div/div/div/span'
p68
F7.636624620543649
sS'/html/body/rss/channel/item/description'
p69
F4.829269698486045
sS'/html/body/div/div/div/div/div/div/table/tr/td/div/a'
p70
F4.314696525656287
sS'/html/body/div/div/div/div/div/div/div/div/ul/li/a/em'
p71
F5.314696525656286
sS'/html/body/div/div/div/div/div/div/div/div/dl/dt'
p72
F5.051662119822493
sS'/html/body/div/div/div/div/div/div/table/tr/td/div/p'
p73
F7.636624620543649
sS'/html/body/div/div/div/div/div/div/div/div/p/a/wbr'
p74
F6.636624620543649
sS'/html/body/div/div/div/div/div/div/span'
p75
F2.427171254914699
sS'/html/body/div/div/div/div/div/div/dl/dd/a'
p76
F2.3886971071000636
sS'/html/body/div/div/div/div/div/ul/li/h3/div/a/img'
p77
F7.636624620543649
sS'/html/body/div/div/div/div/div/a/span'
p78
F3.72973402493513
sS'/html/body/div/div/div/div/div/div/table/tr/td/a/img'
p79
F4.314696525656287
sS'/html/body/div/div/div/div/div/div/div/ul/li/a'
p80
F2.6824283101567734
sS'/html/body/div/div/div/div/div/div/img'
p81
F7.636624620543649
sS'/html/body/div/div/div/div/div/div/table/tr/td/p'
p82
F4.466699619101337
sS'/html/body/div/div/span'
p83
F0.10524316002733655
sS'/html/body/div/div/div/div/div/div/div/div/div/h3/a/img'
p84
F5.314696525656286
sS'/html/body/div/div/div/div/div/ul/li/a/img'
p85
F2.113062664486636
sS'/html/body/div/div/div/div/ul/li/a/img'
p86
F3.9361849024025566
sS'/html/body/div/div/div/div/div/div/ul/li/ul/li/span/a'
p87
F5.63662462054365
sS'/html/body/rss/channel/item/creator'
p88
F4.829269698486045
sS'/html/body/div/div/div/div/div/ul/li/div/span/div/a/img'
p89
F7.636624620543649
sS'/html/body/div/div/div/div/div/div/div/div/form/div/input'
p90
F4.1771930019063515
sS'/html/body/div/div/div/div/div/div/dl/dt/a/img'
p91
F2.3886971071000636
sS'/html/body/div/div/div/div/div/p/span/a'
p92
F5.63662462054365
sS'/html/body/div/div/div/div/div/div/a/div/img'
p93
F4.636624620543649
sS'/html/body/div/div/div/div/div/div/div/p'
p94
F3.0516621198224922
sS'/html/body/div/div/div/div/div/div/div/div/h4/span'
p95
F4.1771930019063515
sS'/html/body/div/div/div/div/div/span/div/span/script'
p96
F5.63662462054365
sS'/html/body/div/div/div/div/div/div/div/a'
p97
F0.8037346063789074
sS'/html/body/div/div/div/div/div/div/div/div/div/div/h3/span/span'
p98
F2.3512224016814005
sS'/html/body/div/div/div/div/div/div/ul/li/div/div/span'
p99
F5.63662462054365
sS'/html/body/div/div/div/div/div/div/div/div/div/div/br'
p100
F7.636624620543649
sS'/html/body/div/div/div/div/div/div/div/div/div/div/div/div/span/em'
p101
F5.314696525656286
sS'/html/body/div/div/div/div/form/fieldset/legend'
p102
F0.16901907046065134
sS'/html/body/div/div/div/div/div/div/ul/li'
p103
F1.066769012212701
sS'/html/body/div/div/div/div/form/div/div/span'
p104
F7.636624620543649
sS'/html/body/div/div/div/div/div/div/div/div/p/a'
p105
F4.1771930019063515
sS'/html/body/div/div/div/div/div/div/div'
p106
F2.3146965256562866
sS'/html/body/div/div/div/div/ol/li/div/div/em'
p107
F7.636624620543649
sS'/html/body/div/div/div/div/div/div/div/div/br'
p108
F1.7539815711818076
sS'/html/body/div/div/div/div'
p109
F0.27030240629783303
sS'/html/body/div/div/div/div/div/div/ul/li/h3'
p110
F5.051662119822493
sS'/html/body/div/div/div/div/form/textarea'
p111
F5.63662462054365
sS'/html/body/div/div/div/div/div/div/h3/a'
p112
F5.63662462054365
sS'/html/body/div/div/div/div/div/div/h2/i'
p113
F2.3512224016814005
sS'/html/body/rss/channel/item/pubdate'
p114
F4.829269698486045
sS'/html/body/div/div/div/div/div/div/h2/a'
p115
F4.636624620543649
sS'/html/body/div/div/div/div/div/ul/li/div'
p116
F7.636624620543649
sS'/html/body/div/div/div/div/ul/li/a/span'
p117
F7.636624620543649
sS'/html/body/div/div/div/div/div/div/script'
p118
F1.7297340249351305
sS'/html/body/div/div/div/div/div/h2/span/a'
p119
F2.144771524213974
sS'/html/body/div/div/div/div/div/div/h2/span'
p120
F7.636624620543649
sS'/html/body/div/div/div/div/div/div/table/tr/td/div/div/span'
p121
F7.636624620543649
sS'/html/body/div/div/div/div/div/div/ul/li/img'
p122
F2.1771930019063515
sS'/html/body/div/div/div/div/div/div/div/div/dl/dt/a/img'
p123
F7.636624620543649
sS'/html/body/div/div/div/div/div/div/span/a'
p124
F1.2272336844059473
sS'/html/body/div/div/div/div/div/div/p'
p125
F3.829269698486045
sS'/html/body/div/div/div/div/ul/li/div'
p126
F4.051662119822493
sS'/html/body/div/div/div/div/div/form/div/span'
p127
F7.636624620543649
sS'/html/body/div/div/div/div/div/div/div/div/div/div/span'
p128
F2.2103598658415513
sS'/html/body/header/div/span'
p129
F5.63662462054365
sS'/html/body/div/div/div/div/div/div/div/div/div/dl/dd/span/a'
p130
F7.636624620543649
sS'/html/body/div/div/div/div/div/div/a'
p131
F0.8037346063789074
sS'/html/body/div/div/div/div/div/div/ul/li/script'
p132
F2.3512224016814005
sS'/html/body/div/div/div/div/div/div/div/span/span/a/img'
p133
F2.3512224016814005
sS'/html/body/div/div/div/div/div/div/div/div/div/div/ul/li'
p134
F2.7297340249351305
sS'/html/body/div/div/div/div/div/div/div/div/p/a/span'
p135
F4.1771930019063515
sS'/html/body/div/div/div/div/div/div/ul/li/ul/li'
p136
F7.636624620543649
sS'/html/body/div/div/div/form/div/script'
p137
F4.636624620543649
sS'/html/body/div/div/div/div/div/div/div/div/div/div/div/span/em'
p138
F2.3512224016814005
sS'/html/body/div/div/div/div/div/div/div/table/thead/tr/td'
p139
F4.466699619101337
sS'/html/body/div/div/div/div/div/div/div/span'
p140
F3.0516621198224922
sS'/html/body/div/div/div/div/div/div/table/tr/td/div/span'
p141
F7.636624620543649
sS'/html/body/div/div/div/div/form/div/span'
p142
F7.636624620543649
sS'/html/body/div/span/img'
p143
F7.636624620543649
sS'/html/body/div/div/div/div/div/div/div/ul/li/h3/a'
p144
F2.778643625416077
sS'/html/body/div/div/div/div/div/h2'
p145
F1.636624620543649
sS'/html/body/div/div/div/div/div/h1'
p146
F7.636624620543649
sS'/html/body/div/div/div/div/div/div/table/tbody/tr/td/img'
p147
F7.636624620543649
sS'/html/body/div/div/div/div/input'
p148
F5.63662462054365
sS'/html/body/div/div/div/div/div/style'
p149
F3.72973402493513
sS'/html/body/div/div/div/ul/li/img'
p150
F6.051662119822492
sS'/html/body/div/div/div/div/form/div/div/div'
p151
F7.636624620543649
sS'/html/body/div/div/div/form/div/a/img'
p152
F4.636624620543649
sS'/html/body/div/div/div/div/p/span/a'
p153
F2.0820357688660116
sS'/html/body/div/div/div/div/div/div/div/div/span/div/a/img'
p154
F5.314696525656286
sS'/html/body/div/div/div/div/h2/span'
p155
F7.636624620543649
sS'/html/body/div/div/div/div/div/div/div/div/ul/li/a'
p156
F5.051662119822493
sS'/html/body/div/div/div/div/div/div/div/input'
p157
F5.051662119822493
sS'/html/body/div/div/div/div/div/div/span/p/span'
p158
F3.6366246205436488
sS'/html/body/div/div/div/div/div/div/div/div/div/div/dl/dt'
p159
F5.63662462054365
sS'/html/head/link'
p160
F0.113062664486636
sS'/html/body/div/div/div/div/div/div/div/div/div/div/p/a/wbr'
p161
F5.314696525656286
sS'/html/body/div/div/div/div/div/div/div/div/div/div/div/span'
p162
F2.3146965256562866
sS'/html/body/div/div/div/div/div/p/span/span/a'
p163
F5.314696525656286
sS'/html/body/div/div/div/div/div/div/div/div/div/span/div/a/img'
p164
F3.72973402493513
sS'/html/body/div/div/div/div/ol/li/div/div/div/a/span'
p165
F7.636624620543649
sS'/html/body/div/div/div/div/div/div/div/div/span/div'
p166
F4.829269698486045
sS'/html/body/div/div/div/div/div/div/ul/li/a/img'
p167
F4.466699619101337
sS'/html/body/div/div/div/div/div/div/div/form/div/div'
p168
F5.051662119822493
sS'/html/body/img'
p169
F6.636624620543649
sS'/html/body/div/div/div/div/div/div/div/div/p/br'
p170
F6.051662119822492
sS'/html/body/div/div/ul/li/div/table/tbody/tr/td/a'
p171
F7.636624620543649
sS'/html/body/div/div/div/div/div/div/span/br'
p172
F3.1130626644866357
sS'/html/body/div/div/div/a/img'
p173
F7.636624620543649
sS'/html/body/div/div/div/div/div/div/strong'
p174
F4.314696525656287
sS'/html/body/div/div/div/div/div/span'
p175
F0.16901907046065134
sS'/html/body/div/div/div/div/ol/li/div/div/div/p/span'
p176
F7.636624620543649
sS'/html/body/div/div/div/div/div/div/span/span'
p177
F4.314696525656287
sS'/html/body/div/div/div/div/link'
p178
F3.72973402493513
sS'/html/body/div/div/h1/a'
p179
F5.314696525656286
sS'/html/body/div/div/div/div/div/div/div/div'
p180
F2.7297340249351305
sS'/html/body/div/div/div/div/div/div/ul/li/ul/li/a/img'
p181
F5.314696525656286
sS'/html/body/div/div/div/div/div/div/table/tbody/tr/td/div/span'
p182
F7.636624620543649
sS'/html/body/div/div/div/div/div/div/div/h3/span/a'
p183
F7.636624620543649
sS'/html/body/div/div/div/div/div/div/table/tr/td/p/span'
p184
F4.636624620543649
sS'/html/body/div/div/div/div/div/ul/li/div/a'
p185
F2.1771930019063515
sS'/html/body/div/div/div/div/div/p/span'
p186
F5.314696525656286
sS'/html/body/div/div/a'
p187
F0.113062664486636
sS'/html/body/div/div/div/div/div/div/div/div/div/div/div/div'
p188
F2.7297340249351305
sS'/html/body/div/div/div/div/div/div/a/em'
p189
F6.051662119822492
sS'/html/body/div/div/div/div/div/div/div/div/form/div/select/option'
p190
F4.1771930019063515
sS'/html/body/div/div/div/div/div/div/ul/li/ul/li/div/p/span'
p191
F7.636624620543649
sS'/html/body/div/div/div/div/div/div/div/p/a/img'
p192
F2.6824283101567734
sS'/html/body/div/div/div/div/a'
p193
F0.13677873346044345
sS'/html/body/div/div/div/div/table/tbody/tr/td/a'
p194
F7.636624620543649
sS'/html/body/div/div/div/div/div/div/table/tbody/tr/td/div/span/span'
p195
F7.636624620543649
sS'/html/body/div/div/div/div/div/span/input'
p196
F7.636624620543649
sS'/html/body/div/div/div/div/ul'
p197
F5.63662462054365
sS'/html/body/div/div/div/div/p'
p198
F0.13677873346044345
sS'/html/body/div/div/div/div/div/div/form/input'
p199
F5.051662119822493
sS'/html/body/div/div/script'
p200
F4.051662119822493
sS'/html/body/div/div/div/div/div/form/div/div/input'
p201
F7.636624620543649
sS'/html/body/div/div/div/div/div/div/ul/li/span'
p202
F1.210359865841551
sS'/html/body/div/div/div/div/div/br'
p203
F3.6366246205436488
sS'/html/body/div/div/div/div/div/button'
p204
F5.63662462054365
sS'/html/body/div/div/div/div/div/div/p/a'
p205
F2.5073416035986824
sS'/html/body/div/div/div/div/div/div/style'
p206
F5.63662462054365
sS'/html/body/div/div/div/div/div/div/div/table/tbody/tr/td/span'
p207
F4.636624620543649
sS'/html/body/div/div/div/div/div/ul/li/span/span/a'
p208
F7.636624620543649
sS'/html/body/div/div/div/div/div/ul/li/span/span'
p209
F5.051662119822493
sS'/html/body/div/div/ul/li/a/span'
p210
F7.636624620543649
sS'/html/body/div/div/div/div/form/input'
p211
F7.636624620543649
sS'/html/body/div/div/div/div/div/div/div/span/script'
p212
F4.1771930019063515
sS'/html/body/div/div/div/div/h2/a'
p213
F2.7297340249351305
sS'/html/body/div/div/div/div/div/div/div/div/div/div/h3/span/input'
p214
F2.3512224016814005
sS'/html/body/div/div/div/h1'
p215
F7.636624620543649
sS'/html/body/div/div/div/div/h2/i'
p216
F4.466699619101337
sS'/html/body/rss/channel/language'
p217
F4.829269698486045
sS'/html/body/div/div/div/div/div/div'
p218
F2.0820357688660116
sS'/html/body/div/div/div/div/div/div/div/div/p/span/br'
p219
F5.051662119822493
sS'/html/body/div/div/div/div/div/div/div/div/div/div/div/ul/script'
p220
F2.3512224016814005
sS'/html/body/div/div/span/a'
p221
F0.10524316002733655
sS'/html/body/div/script'
p222
F4.636624620543649
sS'/html/body/div/div/div/div/img'
p223
F6.051662119822492
sS'/html/body/div/div/div/div/h4'
p224
F5.63662462054365
sS'/html/body/div/div/div/div/h3'
p225
F7.636624620543649
sS'/html/body/div/div/div/div/h2'
p226
F2.4666996191013366
sS'/html/body/div/div/div/div/div/ul/ul/li/a'
p227
F4.314696525656287
sS'/html/body/div/div/div/div/div/div/ul/li/a'
p228
F1.5922305011851954
sS'/html/body/div/div/div/form/div/label'
p229
F4.636624620543649
sS'/html/body/div/div/div/div/div/div/div/span/span'
p230
F2.3146965256562866
sS'/html/body/div/div/div/ul/li/a'
p231
F0.16901907046065134
sS'/html/body/div/div/div/div/div/a/div/img'
p232
F6.051662119822492
sS'/html/body/div/div/div/form/div/a'
p233
F4.636624620543649
sS'/html/body/div/div/div/div/div/div/div/div/div/div/a/img'
p234
F5.314696525656286
sS'/html/body/div/div/div/div/div/div/ul/li/div/a'
p235
F4.829269698486045
sS'/html/body/div/div/div/div/div/div/p/span'
p236
F3.829269698486045
sS'/html/body/div/div/div/div/div/div/div/div/div/div/h4'
p237
F5.314696525656286
sS'/html/body/div/div/div/div/div/div/div/div/form/div/div/input'
p238
F4.1771930019063515
sS'/html/body/div/div/div/div/div/div/div/div/dl/dd/br'
p239
F7.636624620543649
sS'/html/body/div/div/div/div/div/div/table/tbody/tr/td/div/div/h3/a'
p240
F7.636624620543649
sS'/html/body/div/div/div/div/div/div/div/div/div/h3/div/a/img'
p241
F5.314696525656286
sS'/html/body/div/div/div/div/div/div/div/ul'
p242
F6.636624620543649
sS'/html/body/div/div/div/div/div/div/table/tbody/tr/td/div/div/h2/a'
p243
F7.636624620543649
sS'/html/body/div/div/div/div/button'
p244
F5.63662462054365
sS'/html/body/header/div'
p245
F6.051662119822492
sS'/html/body/div/div/div/div/div/div/div/script'
p246
F2.7297340249351305
sS'/html/body/div/div/div/div/div/div/ul/li/p/a'
p247
F6.636624620543649
sS'/html/body/div/div/div/div/div/div/div/div/div/div/img'
p248
F3.9361849024025566
sS'/html/body/div/div/div/div/form/button'
p249
F5.63662462054365
sS'/html/body/div/div/div/div/div/div/div/h3/a/img'
p250
F4.829269698486045
sS'/html/body/div/div/div/div/div/div/div/div/div/dl/dt'
p251
F7.636624620543649
sS'/html/body/header/div/div/span'
p252
F5.63662462054365
sS'/html/body/div/div/div/div/div/strong'
p253
F5.63662462054365
sS'/html/body/div/div/div/div/div/div/div/div/div/div/span/a'
p254
F2.279072615925565
sS'/html/body/div/div/div/div/ul/li/div/a/img'
p255
F4.1771930019063515
sS'/html/body/div/div/div/div/div/div/div/div/a'
p256
F1.5922305011851954
sS'/html/body/div/div/div/div/div/div/div/div/div/div/span/script'
p257
F2.7297340249351305
sS'/html/body/div/div/div/div/div/div/div/h3/a'
p258
F4.829269698486045
sS'/html/body/div/div/div/div/div/div/ul/div'
p259
F6.636624620543649
sS'/html/body/div/div/h1/span'
p260
F1.3146965256562864
sS'/html/body/rss/channel/item/encoded/br'
p261
F4.829269698486045
sS'/html/body/div/div/div/div/div/div/div/div/span/script'
p262
F4.1771930019063515
sS'/html/body/div/div/div/div/div/span/span'
p263
F4.1771930019063515
sS'/html/body/div/div/div/div/div/div/div/table/tbody/tr/td/a'
p264
F4.466699619101337
sS'/html/body/div/img'
p265
F7.636624620543649
sS'/html/body/div/div/div/div/div/table/tr/td/a'
p266
F7.636624620543649
sS'/html/body/div/div/div/div/ul/li/br'
p267
F7.636624620543649
sS'/html/body/div/div/div/div/p/span'
p268
F7.636624620543649
sS'/html/body/div/div/div/div/div/div/div/div/span/span/a'
p269
F2.3512224016814005
sS'/html/body/div/div/div/div/div/div/div/img'
p270
F7.636624620543649
sS'/html/body/div/div/div/div/div/ul/li/a/div/img'
p271
F5.63662462054365
sS'/html/body/div/div/div/div/div/ul/li'
p272
F1.636624620543649
sS'/html/body/div/div/div/div/div/div/div/div/div/div/span/em'
p273
F4.829269698486045
sS'/html/body/div/div/div/div/div/div/div/div/ul/li/a/strong'
p274
F5.314696525656286
sS'/html/body/div/div/div/div/div/div/div/div/div/br'
p275
F2.6824283101567734
sS'/html/body/div/div/div/div/a/img'
p276
F0.5491617792933094
sS'/html/body/div/div/div/form/input'
p277
F4.636624620543649
sS'/html/body/div/div/div/div/div/div/h2/span/a'
p278
F1.8817371183801803
sS'/html/body/div/div/div/ul/li/div/table/tr/td/a'
p279
F0.1771930019063515
sS'/html/body/div/div/div/div/form/fieldset/label'
p280
F0.16901907046065134
sS'/html/body/div/div/div/div/div/div/ul/li/a/span'
p281
F6.636624620543649
sS'/html/body/div/div/div/div/div/h2/img'
p282
F7.636624620543649
sS'/html/body/rss/channel/link'
p283
F4.829269698486045
sS'/html/body/div/div/div/div/div/div/div/div/span/span'
p284
F2.3512224016814005
sS'/html/body/div/div/div/div/div/div/div/div/div/div/div/ul/li'
p285
F6.636624620543649
sS'/html/body/div/div/div/div/div/div/div/div/p/span'
p286
F3.6366246205436488
sS'/html/body/header/div/a'
p287
F5.63662462054365
sS'/html/body/div/div/div/div/div/div/label/input'
p288
F5.63662462054365
sS'/html/body/div/div/div/div/div/ul/li/div/a/span'
p289
F7.636624620543649
sS'/html/body/div/div/div/div/div/div/table/tr/td'
p290
F5.63662462054365
sS'/html/body/div/div/div/div/div/form/div/div'
p291
F7.636624620543649
sS'/html/body/div/div/div/div/div/div/div/ul/li/span'
p292
F2.636624620543649
sS'/html/body/div/div/div/div/style'
p293
F0.4567155305287144
sS'/html/body/div/div/div/div/div/div/a/div/b'
p294
F7.636624620543649
sS'/html/body/div/div/div/div/div/ul/li/div/div'
p295
F2.4666996191013366
sS'/html/body/div/div/div/div/div/ul/li/p'
p296
F5.63662462054365
sS'/html/body/div/div/ul/li/a'
p297
F4.466699619101337
sS'/html/body/div/div/div/div/div/div/a/span'
p298
F2.2103598658415513
sS'/html/body/div/div/div/div/div/div/ul/li/div/em'
p299
F5.051662119822493
sS'/html/body/div/div/div/div/div/ul/li/a'
p300
F1.2272336844059473
sS'/html/body/div/div/div/div/div'
p301
F0.559809023492818
sS'/html/body/div/div/div/div/div/div/ul/li/span/div'
p302
F7.636624620543649
sS'/html/body/div/div/div/div/div/div/div/div/div/span/a'
p303
F2.5073416035986824
sS'/html/body/div/div/div/div/div/div/div/div/dl/dd/a'
p304
F7.636624620543649
sS'/html/body/div/div/div/div/ol/li/div/div/div/span'
p305
F7.636624620543649
sS'/html/body/div/div/div/div/div/div/br'
p306
F4.051662119822493
sS'/html/body/div/div/div/div/div/form/div/div/span'
p307
F7.636624620543649
sS'/html/body/div/div/div/div/div/div/div/div/p/span/a'
p308
F5.314696525656286
sS'/html/body/div/div/div/div/div/div/ul/li/ul/li/h2/b'
p309
F7.636624620543649
sS'/html/body/div/div/div/div/div/div/div/div/div/div/span/div'
p310
F5.314696525656286
sS'/html/body/div/div/div/div/div/div/ul/li/ul/li/h2/a'
p311
F7.636624620543649
sS'/html/body/div/div/div/div/div/div/ul/li/p/span'
p312
F6.636624620543649
sS'/html/body/div/div/div/div/h2/a/span'
p313
F4.829269698486045
sS'/html/body/div/div/div/div/div/div/div/div/div/div/div/span/form/input'
p314
F2.7297340249351305
sS'/html/body/div/div/div/div/div/div/div/table/tbody/tr/td'
p315
F4.466699619101337
sS'/html/body/div/div/div/div/div/div/div/div/div/div/span/div/a/img'
p316
F6.051662119822492
sS'/html/body/div/div/div/div/div/ul/li/h3/a'
p317
F5.314696525656286
sS'/html/body/div/div/div/div/div/div/div/a/img'
p318
F1.4078059300477679
sS'/html/body/div/div/div/div/div/span/a'
p319
F2.279072615925565
sS'/html/body/div/div/div/form/div/p/a'
p320
F4.636624620543649
sS'/html/body/div/div/div/div/div/div/div/div/div/span/form/input'
p321
F5.314696525656286
sS'/html/body/div/div/div/div/div/a/img'
p322
F3.829269698486045
sS'/html/body/rss/channel/item/title'
p323
F4.829269698486045
sS'/html/body/div/div/div/div/div/div/span/link'
p324
F6.051662119822492
sS'/html/body/div/div/div/div/div/span/span/a'
p325
F5.63662462054365
sS'/html/body/rss/channel/item/encoded/a'
p326
F4.829269698486045
sS'/html/body/div/div/div/div/div/div/div/div/form/input'
p327
F4.1771930019063515
sS'/html/body/div/div/div/div/div/div/span/span/a'
p328
F4.466699619101337
sS'/html/body/div/div/div/div/div/img'
p329
F5.63662462054365
sS'/html/body/rss/channel/title'
p330
F4.829269698486045
sS'/html/body/div/div/div/div/div/span/script'
p331
F5.63662462054365
sS'/html/body/div/div/div/div/div/ul/li/span'
p332
F1.5491617792933092
sS'/html/head/style'
p333
F0.10524316002733655
sS'/html/body/div/div/h1'
p334
F1.066769012212701
sS'/html/body/header/div/img'
p335
F7.636624620543649
sS'/html/body/div/div/div/div/div/div/div/div/div/div/div/a'
p336
F1.5705354300858765
sS'/html/body/div/div/div/div/div/div/table/tbody/tr/td/div/div'
p337
F7.636624620543649
sS'/html/body/div/div/div/div/div/div/div/div/p'
p338
F4.636624620543649
sS'/html/body/div/div/div/div/div/ul/li/a/span'
p339
F2.778643625416077
sS'/html/body/header/div/a/img'
p340
F5.63662462054365
sS'/html/body/div/div/div/div/div/div/div/div/div/span/div'
p341
F2.3512224016814005
sS'/html/body/div/div/div/div/div/table/tbody/tr/td'
p342
F4.1771930019063515
sS'/html/body/div/div/div'
p343
F0.1936811246949207
sS'/html/body/div/div/div/span'
p344
F5.63662462054365
sS'/html/body/div/div/div/div/div/div/div/div/h2/span/a'
p345
F7.636624620543649
sS'/html/body/div/div/div/div/div/div/span/script'
p346
F2.3512224016814005
sS'/html/body/div/div/div/div/div/script'
p347
F1.8292696984860446
sS'/html/body/div/div/div/div/a/h2'
p348
F7.636624620543649
sS'/html/body/div/div/div/div/h1/img'
p349
F5.63662462054365
sS'/html/body/div/div/div/div/div/div/div/div/dl/dd/span/a'
p350
F5.051662119822493
sS'/html/body/div/div/a/img'
p351
F6.051662119822492
sS'/html/body/div/div/div/div/div/div/div/div/input'
p352
F5.314696525656286
sS'/html/body/div/div/div/div/div/div/div/div/h3/a'
p353
F2.2103598658415513
sS'/html/body/div/div/div/div/div/ul/li/div/span/div'
p354
F7.636624620543649
sS'/html/body/div/div/div/div/ol/li/div/div/a/img'
p355
F7.636624620543649
sS'/html/body/div/div/div/div/div/div/ul/li/div/div/div/a/h3'
p356
F5.63662462054365
sS'/html/body/div'
p357
F5.051662119822493
sS'/html/body/div/div/div/div/div/div/div/div/div/div/div/div/div/span/a'
p358
F5.314696525656286
sS'/html/body/rss/channel/pubdate'
p359
F4.829269698486045
sS'/html/body/div/div/div/form/div/p/input'
p360
F4.636624620543649
sS'/html/body/div/div/div/div/div/div/div/div/div/div/p/a/img'
p361
F3.9361849024025566
sS'/html/body/div/div/div/div/div/div/div/div/div/h3/a'
p362
F5.314696525656286
sS'/html/body/div/div/div/div/div/div/table/tbody/tr/td/div/div/div'
p363
F7.636624620543649
sS'/html/body/div/div/div/div/div/div/div/h2/span/a'
p364
F5.63662462054365
sS'/html/body/div/div/div/form/div/img'
p365
F4.636624620543649
sS'/html/body/div/div/div/div/div/div/div/div/h3/a/img'
p366
F2.3512224016814005
sS'/html/body/div/div/div/div/div/div/div/div/dl/dd/span'
p367
F7.636624620543649
sS'/html/body/div/div/div/div/p/br'
p368
F2.0820357688660116
sS'/html/body/div/div/div/div/div/div/div/div/div/div/ul/li/a'
p369
F4.829269698486045
sS'/html/body/div/div/div/div/div/div/a/div/span'
p370
F4.829269698486045
sS'/html/body/div/div/div/div/ul/li/span'
p371
F3.9361849024025566
sS'/html/body/div/div/div/div/div/div/span/p/a'
p372
F3.6366246205436488
sS'/html/body/div/div/div/div/div/div/ul'
p373
F4.829269698486045
sS'/html/body/div/div/div/ul/li/a/span'
p374
F0.1771930019063515
sS'/html/body/div/div/div/div/div/ul/li/div/div/span'
p375
F2.636624620543649
sS'/html/body/div/div/div/div/div/div/div/div/span/form/input'
p376
F3.829269698486045
sS'/html/body/div/div/div/div/div/div/a/img'
p377
F2.636624620543649
sS'/html/body/div/div/div/div/div/div/div/div/form/textarea'
p378
F4.1771930019063515
sS'/html/body/div/div/div/div/form/div/div/input'
p379
F7.636624620543649
sS'/html/body/div/div/div/div/h1'
p380
F5.63662462054365
sS'/html/body/div/div/div/div/form/fieldset/div/input'
p381
F0.16901907046065134
sS'/html/body/div/div/div/div/div/div/ul/li/div/a/img'
p382
F4.314696525656287
sS'/html/body/div/div/div/div/ul/li/p'
p383
F7.636624620543649
sS'/html/body/div/div/div/div/div/div/span/span/br'
p384
F6.051662119822492
sS'/html/head/title'
p385
F0.051662119822492546
sS'/html/body/div/div/div/div/div/div/div/span/link'
p386
F6.636624620543649
sS'/html/body/div/div/div/div/div/div/div/h3/span/input'
p387
F7.636624620543649
sS'/html/body/div/div/div/div/ul/li/a'
p388
F3.829269698486045
sS'/html/body/div/div/div/div/div/div/div/div/div/div/h3/span/a'
p389
F2.3512224016814005
sS'/html/body/div/div/div/div/ul/li'
p390
F3.9361849024025566
sS'/html/body/div/div/div/div/div/div/p/span/a'
p391
F5.63662462054365
sS'/html/body/div/div/div/div/div/div/div/h3/span/span'
p392
F7.636624620543649
sS'/html/body/div/div/div/div/div/div/div/div/div/div/ul/script'
p393
F4.829269698486045
sS'/html/body/div/div/div/div/div/div/div/span/a'
p394
F2.7297340249351305
sS'/html/body/div/div/div/div/div/div/div/form/div/div/label/input'
p395
F5.051662119822493
sS'/html/body/rss/channel/description'
p396
F4.829269698486045
sS'/html/body/div/div/div/div/div/div/div/div/a/span'
p397
F5.63662462054365
sS'/html/body/div/div/div/div/div/div/div/form/div/input'
p398
F5.051662119822493
sS'/html/body/div/div/div/div/div/div/ul/li/span/a'
p399
F2.3512224016814005
sS'/html/body/div/div/div/div/div/h1/a'
p400
F6.051662119822492
sS'/html/body/div/div/div/div/script'
p401
F1.4078059300477679
sS'/html/body/div/div/div/div/div/h2/a'
p402
F6.051662119822492
sS'/html/body/div/div/div/div/div/div/div/form/div/p/strong'
p403
F5.051662119822493
sS'/html/body/div/div/div/div/div/ul'
p404
F6.636624620543649
sS'/html/body/div/div/div/div/div/h2/i'
p405
F2.0820357688660116
sS'/html/body/div/div/div/div/div/div/div/div/div/div/div/a/span'
p406
F1.7786436254160767
sS'/html/body/div/div/div/div/div/div/div/div/h4/a'
p407
F4.1771930019063515
sS'/html/body/div/div/div/div/div/div/div/h3'
p408
F5.314696525656286
sS'/html/body/div/div/div/div/div/div/div/h2'
p409
F2.778643625416077
sS'/html/body/link'
p410
F0.1936811246949207
sS'/html/body/script'
p411
F0.08203576886601155
sS'/html/body/div/div/img'
p412
F4.051662119822493
sS'/html/body/div/div/div/div/div/div/ul/li/a/strong/em'
p413
F6.636624620543649
sS'/html/body/rss/channel/item/guid'
p414
F4.829269698486045
sS'/html/body/div/div/div/div/div/div/div/ul/li/a/img'
p415
F4.1771930019063515
sS'/html/body/div/div/div/div/div/div/div/p/br'
p416
F4.829269698486045
sS'/html/body/div/div/div/div/div/div/div/div/div/div/div/ul/li/a'
p417
F2.1771930019063515
sS'/html/body/header/div/div/div/div/script'
p418
F5.63662462054365
sS'/html/body/div/div/div/div/div/div/ul/li/ul/li/h2/span'
p419
F7.636624620543649
sS'/html/body/div/div/div/div/div/div/a/div'
p420
F7.636624620543649
sS'/html/body/div/div/div/div/div/div/ul/li/div/div'
p421
F5.051662119822493
sS'/html/body/div/div/div/div/div/h3/img'
p422
F6.051662119822492
sS'/html/body/div/div/div/div/div/div/div/div/div/div/div'
p423
F1.5705354300858765
sS'/html/body/div/div/div/div/form/div/div'
p424
F7.636624620543649
sS'/html/body/div/div/div/div/div/p'
p425
F4.636624620543649
sS'/html/body/div/div/div/div/div/div/div/p/span'
p426
F2.7297340249351305
sS'/html/body/div/div/div/div/div/div/div/div/div'
p427
F1.2443071977648885
sS'/html/body/div/div/div/div/div/div/h5'
p428
F6.051662119822492
sS'/html/body/div/div/div/div/div/a'
p429
F0.1771930019063515
sS'/html/body/div/div/div/div/div/div/h3'
p430
F6.051662119822492
sS'/html/body/div/div/div/div/div/div/h2'
p431
F3.4666996191013366
sS'/html/body/div/div/div/div/div/div/div/div/ul/li/a/img'
p432
F5.314696525656286
sS'/html/body/div/div/div/div/div/div/div/div/div/div'
p433
F1.5073416035986824
sS'/html/body/div/div/div/div/div/div/div/p/a'
p434
F6.051662119822492
sS'/html/body/div/div/div/div/form/a'
p435
F5.63662462054365
sS'/html/body/div/div/div/div/div/a/div/span'
p436
F6.051662119822492
sS'/html/body/div/div/div/div/div/h1/span'
p437
F7.636624620543649
sS'/html/body/div/div/div/div/div/div/div/div/div/div/div/div/ul/script'
p438
F5.314696525656286
sS'/html/body/div/div/div/div/div/div/div/div/script'
p439
F5.314696525656286
s.