(dp0
S'/html/body/div/div/div/div/div/table/tr/td/div/table/tr/td/div/div/div/span'
p1
F1.961683068448898
sS'/html/body/div/div/div/div/div/div/div/div/div/a'
p2
F0.532175086361721
sS'/html/body/div/div/div/form/div/div/div/p/br'
p3
F7.915879378835774
sS'/html/body/div/div/div/noscript/div/img'
p4
F1.961683068448898
sS'/html/body/div/div/div/div/ul/li/ul/li/a'
p5
F6.593951283948411
sS'/html/body/div/div/div/div/div/p/i'
p6
F4.523561956057013
sS'/html/body/div/div/div/div/ul/li/ul/li/a/strong'
p7
F6.915879378835774
sS'/html/body/div/div/div/div/div/div/p/br'
p8
F5.4564477601984755
sS'/html/body/div/div/div/div/div/div/table/tr/td/table/tr/td/div/br'
p9
F8.915879378835772
sS'/html/body/div/div/div/div/div/p/a'
p10
F4.057898383708201
sS'/html/body/div/div/div/div/div/p/b'
p11
F4.160991876672305
sS'/html/body/div/div/div/div/div/div/table/tr/td/div/h1'
p12
F8.915879378835772
sS'/html/body/div/div/div/div/div/div/table/tr/td/div/h2'
p13
F8.915879378835772
sS'/html/body/iframe'
p14
F8.915879378835772
sS'/html/body/div/div/div/div/form/div/div/noscript/p/a'
p15
F3.961683068448898
sS'/html/body/div/div/div/div/div/div/table/tr/td/div/p/a'
p16
F3.961683068448898
sS'/html/body/div/div/div/div/table/tr/td/div/div/span'
p17
F6.593951283948411
sS'/html/body/div/div/div/div/div/div/div/div/div/div/ul/li/span'
p18
F2.6870606883398924
sS'/html/body/div/div/div/form/div/div/div/blockquote/p'
p19
F8.915879378835772
sS'/html/body/div/div/div/div/div/form/input'
p20
F2.2720231890610485
sS'/html/body/div/div/div/div/div/div/div/div/div/div/div/div/span/span'
p21
F8.915879378835772
sS'/html/body/div/div/div/div/div/table/tr/td/div/div/p/strong'
p22
F4.745954377393462
sS'/html/body/div/div/div/a'
p23
F0.03629612922298996
sS'/html/body/div/div/div/div/div/div/table/tbody/tr/td/a'
p24
F5.915879378835774
sS'/html/body/div/div/div/div/div/table/tr/td/div/div/p/img'
p25
F5.915879378835774
sS'/html/body/div/div/div/div/div/div/div/div/div/span'
p26
F0.8073549220576041
sS'/html/body/div/div/div/div/div/div/div/div/h2/span/a/b'
p27
F7.330916878114618
sS'/html/body/div/div/div/div/div/div/table/tr/td/div/blockquote/ul/li'
p28
F8.915879378835772
sS'/html/body/div/div/div/div/div/table/tr/td/span'
p29
F5.745954377393461
sS'/html/body/div/div/div/div/form/div/div/div/div/a'
p30
F4.745954377393462
sS'/html/body/div/div/div/div/form/div/div/div/div/div/input'
p31
F4.745954377393462
sS'/html/body/div/div/div/div/div/table/tr/td/div/div'
p32
F5.745954377393461
sS'/html/body/div/div/div/div/div/div/table/tr/td/div/hr'
p33
F8.915879378835772
sS'/html/head/meta'
p34
F0.03629612922298996
sS'/html/body/div/div/div/div/div/div/table/tr/td/div/ol/li'
p35
F7.915879378835774
sS'/html/body/div/div/div/div/form/p/span'
p36
F8.915879378835772
sS'/html/body/div/div/div/div/p/em'
p37
F8.915879378835772
sS'/html/body/div/div/div/div/div/div/div/div/div/p'
p38
F2.786596361890807
sS'/html/body/div/div/div/div/table/tr/td/h1'
p39
F5.745954377393461
sS'/html/body/div/div/div/div/ul/li/p/em'
p40
F8.915879378835772
sS'/html/body/div/div/div/form/table/tr/td/input'
p41
F5.4564477601984755
sS'/html/body/div/div/div/div/div/div/div/ul/li/a/span'
p42
F2.6679518653921876
sS'/html/body/div/div/div/div/div/div/div/form/input'
p43
F7.915879378835774
sS'/html/body/div/div/div/div/p/a'
p44
F4.2720231890610485
sS'/html/body/div/div/div/div/p/b'
p45
F8.915879378835772
sS'/html/body/div/div/div/div/h1/span'
p46
F8.915879378835772
sS'/html/body/div/div/div/div/div/table/tr/td/div/div/ul/li/ul/li'
p47
F8.915879378835772
sS'/html/body/div/div/div/div/p/i'
p48
F8.915879378835772
sS'/html/body/div/div/div/div/form/label'
p49
F5.215439660694681
sS'/html/body/div/div/div/div/div/div/div/div/div/div/div/div/span'
p50
F2.766132259331091
sS'/html/head/script'
p51
F0.03629612922298996
sS'/html/body/div/div/div/div/div/form/div/input'
p52
F2.2865227587561634
sS'/html/body/div/div/div/div/div/div/table/tr/td/div/ul/li/a'
p53
F7.330916878114618
sS'/html/body/div/div/div/div/b/a'
p54
F0.03629612922298996
sS'/html/body/div/div/div/div/div/div/ol/li'
p55
F1.9500950941736863
sS'/html/body/div/div/div/div/div/table/tbody/tr/td/a'
p56
F8.915879378835772
sS'/html/body/div/div/br'
p57
F0.03629612922298996
sS'/html/body/feed/subtitle'
p58
F5.330916878114617
sS'/html/body/div/div/div/div/div/table'
p59
F6.330916878114618
sS'/html/body/div/div/div/div/div/p/br'
p60
F4.593951283948411
sS'/html/body/div/div/div/div/div/table/tbody/tr/td/span/span'
p61
F8.915879378835772
sS'/html/body/div/div/div/div/div/table/tr/td/div/table/tbody/tr/td/div/span/code'
p62
F4.915879378835774
sS'/html/body/div/div/div/form/div/input'
p63
F4.745954377393462
sS'/html/body/div/div/div/div/div/table/tr/td/div/table/tbody/tr/td/div/a/span'
p64
F5.4564477601984755
sS'/html/body/div/div/div/form/div/div/div/div/div'
p65
F8.915879378835772
sS'/html/body/div/div/div/div/div/div/div/div/span'
p66
F4.2720231890610485
sS'/html/body/div/div/div/table/tr/td/a'
p67
F7.915879378835774
sS'/html/body/div/div/div/div/div/div/div/p/em/a'
p68
F7.915879378835774
sS'/html/body/div/div/div/div/div/table/tr/td/div/div/p/em'
p69
F4.593951283948411
sS'/html/body/div/div/div/div/div/table/tr/td/div/div/ul/li/p/code'
p70
F8.915879378835772
sS'/html/body/div/div/div/div/div/div/div/div/div/div/i'
p71
F5.593951283948411
sS'/html/body/div/div/div/div/div/div/div/div/div/div/a'
p72
F2.807354922057604
sS'/html/body/div/div/div/div/div/div/h3/span'
p73
F5.745954377393461
sS'/html/body/div/div/div/div/div/table/tr/td/div/div/ul/li/p/a'
p74
F8.915879378835772
sS'/html/body/div/div/div/div/table/tr/td/span'
p75
F8.915879378835772
sS'/html/body/div/div/div/div/div/div/div/div/div/div/p'
p76
F8.915879378835772
sS'/html/body/div/div/div/div/div/table/tr/td/div/div/p/br'
p77
F5.4564477601984755
sS'/html/body/div/div/div/div/div/div/div/div/div/h1'
p78
F7.915879378835774
sS'/html/body/div/div/div/div/div/div/table/tr/td/div/table/tbody/tr/td/div/span'
p79
F3.8284165375854338
sS'/html/body/div/div/div/div/div/table/tr/td/div/div/ul/li/ul/li/strong'
p80
F8.915879378835772
sS'/html/body/div/div/div/div/form/p/select/option'
p81
F8.915879378835772
sS'/html/body/div/div/div/form/div/div/div/div/div/script'
p82
F8.915879378835772
sS'/html/body/div/div/div/div/table/tr/td/select/option'
p83
F6.330916878114618
sS'/html/body/feed/entry/link'
p84
F5.330916878114617
sS'/html/body/div/div/div/div/a/div/div/i'
p85
F8.915879378835772
sS'/html/body/div/div/div/div/div/div/div/div/div/span/strong'
p86
F1.7064260132068234
sS'/html/body/div/div/div/div/div/div/div/div/a/div'
p87
F3.630477159973525
sS'/html/body/div/div/div/div/div/div/div/a/span'
p88
F5.108524456778169
sS'/html/body/div/div/div/div/div/div/div/h3/span'
p89
F2.6870606883398924
sS'/html/body/div/div/div/div/div/form/div/div/div/div/h3/a'
p90
F2.2865227587561634
sS'/html/body/div/div/div/div/div/ul/li/span/a'
p91
F8.915879378835772
sS'/html/body/div/div/div/div/table/tr/td/span/span'
p92
F7.330916878114618
sS'/html/body/div/div/div/div/table/tr/td/div/div/a/div/img'
p93
F6.593951283948411
sS'/html/body/feed/entry/updated'
p94
F5.330916878114617
sS'/html/body/div/div/div/div/div/p/a/img'
p95
F8.915879378835772
sS'/html/body/div/div/div/table/tr/td/hr'
p96
F8.915879378835772
sS'/html/body/div/div/div/div/div/form/div/a'
p97
F2.2865227587561634
sS'/html/body/div/div/div/div/div/form/div/div/div/div/div/table/tr/td/div/input'
p98
F2.2865227587561634
sS'/html/body/div/div/div/div/div/div/table/tr/td/div/a'
p99
F2.5760293759511486
sS'/html/body/div/div/div/div/p/code'
p100
F8.915879378835772
sS'/html/body/div/div/div/div/div/table/tr/td/div/div/div/ul/li/a'
p101
F6.10852445677817
sS'/html/body/div/div/div/div/div/div/div/div/div/div/span/span'
p102
F1.796938306112266
sS'/html/body/div/div/div/div/div/div/table/tr/td/div/p'
p103
F2.6870606883398924
sS'/html/body/div/div/div/div/div/table/tr/td/div/div/div/ul/li/span'
p104
F6.10852445677817
sS'/html/body/div/div/div/div/div/div/span'
p105
F4.330916878114617
sS'/html/body/div/div/div/div/span'
p106
F1.7865963618908067
sS'/html/body/div/div/div/div/table/tr/td/label'
p107
F6.330916878114618
sS'/html/body/div/div/div/div/div/a/span'
p108
F0.882456377298323
sS'/html/body/div/div/div/div/form/div/div/div/div/p'
p109
F5.215439660694681
sS'/html/body/div/div/div/div/div/div/img'
p110
F7.915879378835774
sS'/html/body/div/div/div/div/form/p/br'
p111
F8.915879378835772
sS'/html/body/div/div/div/div/table/tr/td/ol/li/a'
p112
F0.03629612922298996
sS'/html/body/div/div/div/div/div/div/table/tbody/tr/td/span'
p113
F5.915879378835774
sS'/html/body/div/div/div/div/div/div/div/a/div/svg'
p114
F5.745954377393461
sS'/html/body/div/div/div/div/form/div/div/div/a'
p115
F5.215439660694681
sS'/html/body/div/div/div/div/div/div/div/table/tbody/tr/td/a/span'
p116
F8.915879378835772
sS'/html/body/div/div/div/div/div/table/tr/td/div/table/tr/td/div/div/a'
p117
F1.961683068448898
sS'/html/body/div/div/div/div/div/div/table/tr/td/div/table/tbody/tr/td/div/a'
p118
F3.593951283948411
sS'/html/body/div/div/div/div/div/div/a/div/img'
p119
F4.6679518653921885
sS'/html/body/div/div/div/div/div/div/div/p'
p120
F3.630477159973525
sS'/html/body/div/div/div/form/div/div/noscript/h3'
p121
F8.915879378835772
sS'/html/body/div/div/div/div/div/div/table/tr/td/div/h1/a'
p122
F8.915879378835772
sS'/html/body/div/div/div/table/thead/tr/th'
p123
F8.915879378835772
sS'/html/body/div/div/div/form/div/div/div/p/a'
p124
F6.915879378835774
sS'/html/body/div/div/div/div/div/div/div/div/div/div/div/div/br'
p125
F8.915879378835772
sS'/html/body/div/div/div/form/div/div'
p126
F4.745954377393462
sS'/html/body/div/div/div/div/div/table/tr/td/div/table/tbody/tr/td/div/span/span'
p127
F2.4896146241336754
sS'/html/body/div/div/div/div/div/div/table/tbody/tr/td/span/span'
p128
F6.10852445677817
sS'/html/body/div/div/div/div/div/div/div/h3/span/span/i'
p129
F5.745954377393461
sS'/html/body/div/div/div/div/div/div/div/div/div/span/span'
p130
F2.540839947488849
sS'/html/body/div/div/div/form/div/div/div/div/label'
p131
F8.915879378835772
sS'/html/body/div/div/div/div/form/div/a'
p132
F4.745954377393462
sS'/html/body/div/div/div/div/div/table/tr/td/div/div/p/sup'
p133
F8.915879378835772
sS'/html/body/div/div/div/div/table/tr/td/div'
p134
F5.330916878114617
sS'/html/body/div/div/div/link'
p135
F1.961683068448898
sS'/html/body/div/div/div/div/div/p/span'
p136
F4.6679518653921885
sS'/html/body/div/div/div/div/div/div/table/tr/td/div/ul/li/p/code'
p137
F8.915879378835772
sS'/html/body/div/div/div/div/div/div/div'
p138
F1.2938275593793969
sS'/html/body/div/div/div/div/div/div/div/div/br'
p139
F7.330916878114618
sS'/html/body/div/div/div/div'
p140
F1.4729358829870447
sS'/html/body/div/div/div/div/form/div/br'
p141
F4.745954377393462
sS'/html/body/div/div/div/div/div/div/h3/a'
p142
F1.796938306112266
sS'/html/body/div/div/div/div/div/div/h2/b'
p143
F5.4564477601984755
sS'/html/body/div/div/style'
p144
F8.915879378835772
sS'/html/body/div/div/div/div/div/ul/li/div/a'
p145
F0.03629612922298996
sS'/html/body/div/div/div/div/div/ul/li/div'
p146
F1.961683068448898
sS'/html/body/div/div/div/form/div/div/script'
p147
F8.915879378835772
sS'/html/body/div/div/div/form/div/div/input'
p148
F4.745954377393462
sS'/html/body/div/div/div/form/div/div/div/table/tr/td/label'
p149
F5.4564477601984755
sS'/html/body/div/div/div/div/div/div/h2/span/span'
p150
F5.4564477601984755
sS'/html/body/div/div/div/div/form/div/div/div/div/label'
p151
F5.215439660694681
sS'/html/body/div/div/div/div/div/table/tr/td/div/p/span/a'
p152
F7.915879378835774
sS'/html/body/div/div/div/div/div/div/table/tr/td/div/p/em'
p153
F6.330916878114618
sS'/html/body/div/div/div/div/div/span/span'
p154
F1.8935115658073187
sS'/html/body/div/div/div/p'
p155
F7.915879378835774
sS'/html/body/div/div/div/div/div/div/div/div/div/a/span'
p156
F5.108524456778169
sS'/html/body/div/div/div/div/div/div/p'
p157
F1.9733648734965332
sS'/html/body/div/div/div/div/ul/li/div'
p158
F1.7359702888208388
sS'/html/body/div/div/div/form/div/div/div/p/strong'
p159
F8.915879378835772
sS'/html/body/div/div/div/div/div/div/div/div/div/div/span'
p160
F1.7763280264369798
sS'/html/body/div/div/div/div/div/div/span/span'
p161
F5.4564477601984755
sS'/html/body/div/div/div/div/div/div/b'
p162
F1.9500950941736863
sS'/html/body/div/div/div/div/div/div/a'
p163
F0.03629612922298996
sS'/html/body/div/div/div/div/div/hr'
p164
F3.1609918766723046
sS'/html/body/div/div/div/a/span'
p165
F0.03629612922298996
sS'/html/body/div/div/div/div/div/form/div/noscript/div/table/tr/td/div/label'
p166
F2.2865227587561634
sS'/html/body/div/div/div/div/div/form/div/script'
p167
F2.2865227587561634
sS'/html/body/div/div/div/div/table/tr/td/div/div/div/span'
p168
F6.593951283948411
sS'/html/body/div/div/div/div/div/table/tr/td/div/div/p/a/img'
p169
F6.915879378835774
sS'/html/body/div/div/div/div/table/tr/td/p/b/a'
p170
F6.593951283948411
sS'/html/body/div/div/div/div/div/div/div/a'
p171
F0.7459543773934607
sS'/html/body/div/div/div/form/div/script'
p172
F5.4564477601984755
sS'/html/body/div/div/div/div/div/div/div/table/thead/tr/th'
p173
F8.915879378835772
sS'/html/body/div/div/div/div/div/form/div/noscript/div/table/tr/td/div/input'
p174
F2.2865227587561634
sS'/html/body/div/div/div/form/div/div/div/div/input'
p175
F8.915879378835772
sS'/html/body/div/div/div/div/div/div/div/span'
p176
F2.87148525947732
sS'/html/body/div/div/div/div/div/div/table/tr/td/div/span'
p177
F2.5760293759511486
sS'/html/body/div/div/div/div/table/tr/td/div/div'
p178
F6.915879378835774
sS'/html/body/div/div/div/div/div/div/div/div/h2/span'
p179
F4.915879378835774
sS'/html/body/div/div/div/div/div/div/table/tr/td/div/table/tbody/tr/td/table/tbody/tr/td/span'
p180
F5.330916878114617
sS'/html/body/div/div/div/div/div/div/div/table/tr/td/div/span'
p181
F3.0829893646710316
sS'/html/body/div/div/div/div/div/h4'
p182
F1.7560080420573836
sS'/html/body/div/div/div/div/div/h3'
p183
F0.03629612922298996
sS'/html/body/div/div/div/div/div/h2'
p184
F5.108524456778169
sS'/html/body/div/div/div/div/div/form/div/div/div/div/script'
p185
F2.2865227587561634
sS'/html/body/div/div/div/form/div/div/div/label'
p186
F5.593951283948411
sS'/html/body/div/div/div/div/form/div/div/div/div/noscript/p'
p187
F5.215439660694681
sS'/html/body/div/div/div/div/div/table/tr/td/div/div/blockquote/p'
p188
F6.10852445677817
sS'/html/body/div/div/div/div/table/tr/td/a/span'
p189
F7.330916878114618
sS'/html/body/div/div/div/div/div/div/div/div/div/div/div/div/div/div/img'
p190
F8.915879378835772
sS'/html/body/div/div/div/div/p/span/a'
p191
F6.593951283948411
sS'/html/body/div/div/div/div/h2/span'
p192
F5.593951283948411
sS'/html/body/div/div/div/div/form/div/div/div/input'
p193
F5.215439660694681
sS'/html/body/div/div/div/div/div/table/tr/td/div/table/tbody/tr/td/table/tbody/tr/td/span'
p194
F3.630477159973525
sS'/html/body/div/div/div/div/div/form/h2'
p195
F2.2865227587561634
sS'/html/body/div/div/div/table/tr/td'
p196
F7.915879378835774
sS'/html/head/link'
p197
F0.03629612922298996
sS'/html/body/div/div/div/form/div/style'
p198
F5.915879378835774
sS'/html/body/div/div/div/table/tr/th'
p199
F8.915879378835772
sS'/html/body/div/div/div/div/div/div/div/div/div/div/div/span'
p200
F7.915879378835774
sS'/html/body/div/div/div/div/div/div/div/div/div/a/br'
p201
F7.915879378835774
sS'/html/body/div/div/div/div/div/div/div/table/tr/td/a/span'
p202
F8.915879378835772
sS'/html/body/div/div/div/div/div/table/tr/td/div/table/tr/td/div/div/a/span'
p203
F3.1345196653111134
sS'/html/body/div/div/div/div/div/div/div/div/div/p/a'
p204
F6.593951283948411
sS'/html/body/div/div/div/div/div/div/div/div/div/div/a/div/img'
p205
F8.915879378835772
sS'/html/body/div/div/div/div/div/table/tr/td/div/div/b'
p206
F1.961683068448898
sS'/html/body/div/div/div/div/div/table/tr/td/div/div/a'
p207
F1.8605969433345837
sS'/html/body/div/div/div/div/div/table/tr/td/div/table/tr/td/div/div'
p208
F5.108524456778169
sS'/html/body/div/div/div/div/div/ul/li/code'
p209
F7.915879378835774
sS'/html/body/div/div/div/div/div/div/div/div/span/a/span'
p210
F7.915879378835774
sS'/html/body/div/div/div/div/div/form/div/noscript/h3'
p211
F2.2865227587561634
sS'/html/body/div/div/div/div/div/table/tr/td/div/div/p'
p212
F1.985142041272887
sS'/html/body/div/div/div/div/div/form/div/div/div/input'
p213
F2.2865227587561634
sS'/html/body/div/div/div/div/a/div/div'
p214
F8.915879378835772
sS'/html/body/div/div/div/div/div/div/table/tr/td/div/ul/li/ul/li/p/a'
p215
F8.915879378835772
sS'/html/body/div/div/div/div/div/div/div/div/div/p/strong/em'
p216
F8.915879378835772
sS'/html/body/div/div/div/div/div/div/div/table/tr/td/div/h4'
p217
F3.0829893646710316
sS'/html/body/feed/entry/author/name'
p218
F5.330916878114617
sS'/html/body/div/div/div/div/div/div/table/tr/td/table/tr/td/div/div/a/div/img'
p219
F2.5939512839484107
sS'/html/body/div/div/div/div/div/div/table/tr/td/div/div/span'
p220
F8.915879378835772
sS'/html/body/div/div/div/div/div/span'
p221
F4.160991876672305
sS'/html/body/div/div/div/div/div/p/b/a'
p222
F7.915879378835774
sS'/html/body/div/div/div/div/form/br'
p223
F3.9158793788357733
sS'/html/body/div/div/div/div/div/table/tr/td/div/div/div/p'
p224
F6.10852445677817
sS'/html/body/div/div/div/div/div/div/div/div'
p225
F4.057898383708201
sS'/html/body/div/div/div/div/div/div/table/tr/td/div/table/tbody/tr/td/div/a/span'
p226
F6.915879378835774
sS'/html/body/div/div/div/div/span/a'
p227
F0.03629612922298996
sS'/html/body/div/div/div/div/div/table/tr/td/div/div/ul/li/a'
p228
F8.915879378835772
sS'/html/body/div/div/div/div/div/div/p/a/img'
p229
F8.915879378835772
sS'/html/body/div/div/div/div/div/div/div/div/h2/script'
p230
F5.745954377393461
sS'/html/body/div/div/div/div/div/div/table/tr/td/table/tr/td/div/span'
p231
F2.5760293759511486
sS'/html/body/div/div/div/div/div/table/tr/td/div/div/ul/li/p'
p232
F8.915879378835772
sS'/html/body/div/div/div/div/div/div/table/tr/td/table/tr/td/div/div/a/span'
p233
F4.215439660694681
sS'/html/body/div/div/div/div/form/div/div/div/div/div/p'
p234
F4.745954377393462
sS'/html/head/style'
p235
F4.6679518653921885
sS'/html/body/div/div/div/div/div/table/tr/td/div/ul/li/b'
p236
F6.915879378835774
sS'/html/body/div/div/div/div/div/table/tr/td/div/ul/li/a'
p237
F6.593951283948411
sS'/html/body/div/div/div/div/div/table/tr/td/div/div/ul/li/p/em'
p238
F8.915879378835772
sS'/html/body/div/div/div/div/div/div/div/div/div/div/a/span'
p239
F6.593951283948411
sS'/html/body/div/div/div/div/div/div/div/div/div/hr'
p240
F8.915879378835772
sS'/html/body/div/div/div/table/tr/td/span'
p241
F8.915879378835772
sS'/html/body/div/div/div/div/div/table/tbody/tr/td/div'
p242
F8.915879378835772
sS'/html/body/div/div/script'
p243
F1.8935115658073187
sS'/html/body/div/div/div/div/div/div/table/tbody/tr/td/div'
p244
F5.915879378835774
sS'/html/body/div/div/div/form/div/div/div/p/img'
p245
F8.915879378835772
sS'/html/body/div/div/div/form/div/div/noscript/div/table/tr/td/div/input'
p246
F8.915879378835772
sS'/html/body/div/div/div/div/div/br'
p247
F7.330916878114618
sS'/html/body/div/div/div/table/thead/tr/th/span'
p248
F8.915879378835772
sS'/html/body/div/div/div/div/div/div/p/a'
p249
F1.8605969433345837
sS'/html/body/div/div/div/div/div/div/p/b'
p250
F7.915879378835774
sS'/html/body/div/div/div/div/hr'
p251
F8.915879378835772
sS'/html/body/div/div/div/div/div/ol/li'
p252
F7.330916878114618
sS'/html/body/div/div/div/div/div/div/table/tr/td/table/tr/td/div/div/div/span/span'
p253
F2.649092838140872
sS'/html/body/div/div/div/div/form/input'
p254
F0.03629612922298996
sS'/html/body/div/div/div/div/div/table/tr/td/div/div/h1'
p255
F8.915879378835772
sS'/html/body/div/div/div/div/div/table/tr/td/div/div/h2'
p256
F8.915879378835772
sS'/html/body/div/div/div/div/div/table/tr/td/div/div/h3'
p257
F6.593951283948411
sS'/html/body/div/div/div/div/h2/a'
p258
F4.392317422778761
sS'/html/body/div/div/div/h2'
p259
F8.915879378835772
sS'/html/body/div/div/div/h1'
p260
F7.915879378835774
sS'/html/body/div/div/div/div/div/div'
p261
F0.03629612922298996
sS'/html/body/div/div/div/div/div/div/table/tr/td/div/pre/code'
p262
F5.915879378835774
sS'/html/body/div/div/div/div/h1/a'
p263
F1.7162070339994089
sS'/html/body/div/div/div/div/div/table/tr/td/div/p'
p264
F5.008988783227255
sS'/html/body/div/div/div/form/div/div/div/div/div/h3/a'
p265
F8.915879378835772
sS'/html/body/div/div/div/div/h4'
p266
F1.6679518653921879
sS'/html/body/div/div/div/div/h3'
p267
F8.915879378835772
sS'/html/body/div/div/div/div/div/form/div/div/div/textarea'
p268
F2.2865227587561634
sS'/html/body/div/div/div/div/h1'
p269
F1.3923174227787602
sS'/html/body/div/div/div/div/div/div/table/tr/td/div/p/code'
p270
F5.330916878114617
sS'/html/body/div/div/div/div/div/table/tr/td/div/a'
p271
F1.961683068448898
sS'/html/body/div/div/div/div/div/p/code'
p272
F7.915879378835774
sS'/html/body/div/div/div/div/div/div/table/tr/td/table/tr/td/div/div/a/br'
p273
F8.915879378835772
sS'/html/body/div/div/div/div/div/div/ul/li/a'
p274
F8.915879378835772
sS'/html/body/feed/title'
p275
F5.330916878114617
sS'/html/body/div/div/div/div/div/table/tr/td/div/div/hr'
p276
F7.330916878114618
sS'/html/body/div/div/div/div/div/div/div/span/span'
p277
F5.915879378835774
sS'/html/body/div/div/div/div/div/div/h2/a'
p278
F5.4564477601984755
sS'/html/body/div/div/div/hr'
p279
F8.915879378835772
sS'/html/body/div/div/div/form/div/a'
p280
F4.745954377393462
sS'/html/body/div/div/div/div/p/strong'
p281
F8.915879378835772
sS'/html/body/div/div/div/div/div/form/script'
p282
F2.2865227587561634
sS'/html/body/div/div/div/div/ul/li/em'
p283
F8.915879378835772
sS'/html/body/div/div/div/div/div/div/table/tr/td/div/table/tbody/tr/td/div/span/code'
p284
F6.330916878114618
sS'/html/body/div/div/div/div/div/table/tr/td/p/b'
p285
F1.961683068448898
sS'/html/body/feed/license'
p286
F5.330916878114617
sS'/html/body/div/div/div/div/div/div/div/div/strong'
p287
F1.7064260132068234
sS'/html/body/div/div/div/div/form/p/input'
p288
F8.915879378835772
sS'/html/body/div/div/div/div/div/ul/li/strong'
p289
F7.915879378835774
sS'/html/body/div/div/div/div/div/table/tr/td/div/table/tbody/tr/td/div/span/b'
p290
F5.915879378835774
sS'/html/body/div/div/div/p/a'
p291
F5.915879378835774
sS'/html/body/div/div/div/form/div/div/div/table/tr/td/input'
p292
F5.4564477601984755
sS'/html/body/div/div/div/div/div/table/tr/td/div/a/b'
p293
F4.593951283948411
sS'/html/body/div/div/div/div/div/div/table/tr/td/div/input'
p294
F2.5760293759511486
sS'/html/body/div/div/div/div/div/div/div/script'
p295
F2.786596361890807
sS'/html/body/feed/entry/rank'
p296
F5.330916878114617
sS'/html/body/div/div/div/div/div/div/div/div/div/p/em'
p297
F7.330916878114618
sS'/html/body/div/div/div/div/span/div/div/ul/li/a/span'
p298
F0.03629612922298996
sS'/html/body/div/div/div/div/div/table/tr/td/div/h2/a'
p299
F4.330916878114617
sS'/html/body/div/div/div/div/div/div/div/table/tr/td/div/ul/li/span'
p300
F3.0829893646710316
sS'/html/body/div/div/div/div/div/table/tr/td/div/h2/b'
p301
F4.330916878114617
sS'/html/body/div/div/div/div/div/div/table/tr/td/table/tr/td/div/div/div'
p302
F4.6679518653921885
sS'/html/body/div/div/div/div/div/div/h2/span'
p303
F5.593951283948411
sS'/html/body/div/div/div/div/div/table/tr/td/div/h2/span/span'
p304
F4.330916878114617
sS'/html/body/div/div/div/div/div/div/div/div/h3'
p305
F8.915879378835772
sS'/html/body/div/div/div/div/div/div/div/div/h2'
p306
F3.108524456778169
sS'/html/body/div/div/div/div/div/div/div/div/h1'
p307
F8.915879378835772
sS'/html/body/div/div/div/div/a'
p308
F0.03629612922298996
sS'/html/body/div/div/div/div/div/div/table/tr/td/div/table/tbody/tr/td/table/tbody/tr/td'
p309
F3.523561956057013
sS'/html/body/div/div/div/form/div/div/div/p/code'
p310
F8.915879378835772
sS'/html/body/div/div/div/div/div/div/table/tr/td/div/ul/li/p'
p311
F7.915879378835774
sS'/html/body/div/div/div/div/div/table/tr/td/div/div/div/span'
p312
F5.745954377393461
sS'/html/body/div/div/div/div/div/table/tr/td/div/div/p/strong/em'
p313
F8.915879378835772
sS'/html/body/div/div/div/div/div/p/em'
p314
F7.915879378835774
sS'/html/body/div/div/div/div/form/div/div/div/div'
p315
F3.961683068448898
sS'/html/body/div/div/div/div/p/img'
p316
F8.915879378835772
sS'/html/body/div/div/div/div/div/div/table/tbody/tr/td'
p317
F7.330916878114618
sS'/html/body/div/div/div/div/div/div/div/h3/a'
p318
F7.330916878114618
sS'/html/body/div/div/div/div/div/table/tr/td/div/table/tr/td/div/div/span'
p319
F1.961683068448898
sS'/html/body/div/div/div/div/div/div/div/a/div'
p320
F1.8284165375854335
sS'/html/body/div/div/div/div/div/div/table/tr/td/div/ul/li/strong'
p321
F8.915879378835772
sS'/html/body/div/div/div/form/script'
p322
F4.745954377393462
sS'/html/body/div/div/div/div/div/div/table/tr/td/div/table/tbody/tr/td/div/span/span'
p323
F3.523561956057013
sS'/html/body/feed/entry/summary'
p324
F5.330916878114617
sS'/html/body/div/div/div/div/div/div/div/a/div/ul/li'
p325
F5.4564477601984755
sS'/html/body/div/div/div/div/div/ul/li/span/span'
p326
F5.4564477601984755
sS'/html/body/div/div/div/div/div/div/div/table/tbody/tr/td/b'
p327
F8.915879378835772
sS'/html/body/div/div/div/br'
p328
F1.6120986306586702
sS'/html/body/div/div/div/div/div/div/div/table/tr/td/a'
p329
F8.915879378835772
sS'/html/body/div/div/div/div/div/table/tr/td/div/div/ul/li'
p330
F5.4564477601984755
sS'/html/body/div/div/div/div/img'
p331
F3.961683068448898
sS'/html/body/div/div/div/div/div/a/div'
p332
F2.4896146241336754
sS'/html/body/div/div/div/div/p/span'
p333
F4.828416537585434
sS'/html/body/div/div/div/div/div/div/div/div/div/p/strong/a'
p334
F8.915879378835772
sS'/html/body/div/div/div/div/div/table/tr/td/div/div/a/div/img'
p335
F5.745954377393461
sS'/html/body/div/div/div/div/p'
p336
F1.3384505508000244
sS'/html/body/div/div/div/div/h4/i'
p337
F8.915879378835772
sS'/html/body/div/div/div/div/div/table/tr/td/p'
p338
F1.961683068448898
sS'/html/body/div/div/div/div/h4/a'
p339
F1.7359702888208388
sS'/html/body/div/div/div/div/div/p/strong/code'
p340
F8.915879378835772
sS'/html/body/div/div/div/div/table/tr/td/p'
p341
F5.915879378835774
sS'/html/body/div/div/div/div/div/div/table/tr/td/div/p/br'
p342
F8.915879378835772
sS'/html/body/div/div/div/div/div/ul/li'
p343
F7.330916878114618
sS'/html/body/div/div/div/div/p/a/strong'
p344
F8.915879378835772
sS'/html/body/div/div/div/div/div/div/div/div/div/br'
p345
F8.915879378835772
sS'/html/body/div/div/div/div/div/table/tr/td/div/div/p/code'
p346
F4.6679518653921885
sS'/html/body/div/div/div/div/table/tr/td/a'
p347
F6.330916878114618
sS'/html/body/div/div/div/div/p/a/img'
p348
F8.915879378835772
sS'/html/body/div/div/div/form/input'
p349
F4.593951283948411
sS'/html/body/div/div/div/div/div/table/tr/td/div/div/p/a'
p350
F4.160991876672305
sS'/html/body/div/div/div/div/div/table/tr/td/p/b/a'
p351
F2.5760293759511486
sS'/html/body/div/div/div/div/div/div/div/table/tbody/tr/th'
p352
F8.915879378835772
sS'/html/body/div/div/div/div/div/form/div/div/input'
p353
F2.2865227587561634
sS'/html/body/div/div/div/div/div/div/div/table/tbody/tr/td'
p354
F8.915879378835772
sS'/html/body/div/div/div/div/div/div/div/div/span/span'
p355
F7.915879378835774
sS'/html/body/div/div/div/div/div/div/table/tr/td/div/p/sup/strong'
p356
F8.915879378835772
sS'/html/body/div/div/div/div/div/table/tr/td/div/table/tbody/tr/td/table/tbody/tr/td'
p357
F2.4896146241336754
sS'/html/body/div/div/div/div/div/div/br'
p358
F1.4482738287527757
sS'/html/body/div/div/div/div/div/div/div/div/a/span'
p359
F7.330916878114618
sS'/html/body/div/div/div/div/div/div/table/tbody/tr/td/a/span'
p360
F6.330916878114618
sS'/html/body/div/div/div/div/form/div/div/div/div/input'
p361
F3.961683068448898
sS'/html/body/div/div/div/div/div/div/table/tr/td'
p362
F2.3460237705048255
sS'/html/body/feed/entry/published'
p363
F5.330916878114617
sS'/html/body/div/div/div/div/div/div/div/a/div/svg/g/polyline'
p364
F7.915879378835774
sS'/html/body/div/div/div/div/div/form/div/div'
p365
F2.2865227587561634
sS'/html/body/div/div/div/div/style'
p366
F5.915879378835774
sS'/html/body/div/div/div/div/div/table/tr/td/div/div/ol/li'
p367
F7.915879378835774
sS'/html/body/div/div/div/div/div/div/table/tr/td/table/tr/td/div/a'
p368
F2.5760293759511486
sS'/html/body/div/div/div/div/div/div/div/ul/li'
p369
F8.915879378835772
sS'/html/body/div/div/div/div/div/blockquote/p/a'
p370
F8.915879378835772
sS'/html/body/div/div/div/form/div/h2/a'
p371
F5.915879378835774
sS'/html/body/div/div/div/div/div/div/a/span'
p372
F8.915879378835772
sS'/html/body/noscript/div/img'
p373
F0.03629612922298996
sS'/html/body/div/div/div/div/div/ul/li/a'
p374
F1.9158793788357733
sS'/html/body/div/div/div/div/div'
p375
F0.7260548199557559
sS'/html/body/div/div/div/form/div/div/div/p'
p376
F5.915879378835774
sS'/html/body/div/div/div/div/div/div/table/tr/td/div/table/tbody/tr/td/div/span/i'
p377
F6.593951283948411
sS'/html/body/feed/updated'
p378
F5.330916878114617
sS'/html/body/div/div/div/form/div/div/div/p/em'
p379
F7.915879378835774
sS'/html/body/div/div/div/div/div/div/table/tr/td/div/table/tbody/tr/td/div/span/b'
p380
F8.915879378835772
sS'/html/body/div/div/div/div/div/div/table/tr/td/div/table/tbody/tr/td/div/span/a'
p381
F5.745954377393461
sS'/html/body/div/div/div/form/div/div/div/a'
p382
F8.915879378835772
sS'/html/body/div/div/div/div/div/div/div/div/div/ul/li/strong/a'
p383
F8.915879378835772
sS'/html/body/div/div/noscript/div/img'
p384
F2.4896146241336754
sS'/html/body/div/div/div/div/div/p/strong'
p385
F7.330916878114618
sS'/html/body/div/div/div/div/div/table/tr/td/div/div/ul/li/em'
p386
F8.915879378835772
sS'/html/body/div/div/div/div/div/table/tr/td/div/span/a'
p387
F6.593951283948411
sS'/html/body/div/div/div/div/div/div/div/table/tr/td/div/ul/li/a/span'
p388
F3.0829893646710316
sS'/html/body/div/div/div/div/div/form/br'
p389
F8.915879378835772
sS'/html/body/div/div/div/form/div/div/div/ul/li'
p390
F8.915879378835772
sS'/html/body/div/div/div/div/div/div/div/br'
p391
F3.593951283948411
sS'/html/body/div/div/div/div/div/div/table/tr/td/div/ul/li/ul/li/a'
p392
F8.915879378835772
sS'/html/body/div/div/div/form/div/h2'
p393
F5.915879378835774
sS'/html/body/div/div/div/div/div/table/tr/td/div/span'
p394
F1.961683068448898
sS'/html/body/div/div/div/div/form/span'
p395
F8.915879378835772
sS'/html/body/div/div/div/form/div/div/div/div/div/h3'
p396
F8.915879378835772
sS'/html/body/div/div/div/div/div/table/tr/td/div/div/div/span/span'
p397
F5.745954377393461
sS'/html/body/div/div/div/script'
p398
F0.7162070339994088
sS'/html/body/div/div/div/form/div/div/div/div/div/div/table/tr/td/div/input'
p399
F8.915879378835772
sS'/html/body/div/div/div/div/table/tr/th'
p400
F0.03629612922298996
sS'/html/body/div/div/div/div/table/tr/td'
p401
F5.330916878114617
sS'/html/body/div/div/div/div/div/p/sup/a'
p402
F8.915879378835772
sS'/html/body/div/div/div/div/div/div/div/ul/li/div'
p403
F2.6870606883398924
sS'/html/body/div/div/div/div/noscript/div/img'
p404
F5.915879378835774
sS'/html/body/div/div/div/div/div/div/table/tr/td/div/blockquote/p'
p405
F7.330916878114618
sS'/html/body/div/div/div/div/div/div/div/div/div/div/div/span/span'
p406
F8.915879378835772
sS'/html/body/div/div/div/div/div/form/div/div/div/div/h3'
p407
F2.2865227587561634
sS'/html/body/div/div/div/div/div/div/div/div/div/p/sup'
p408
F8.915879378835772
sS'/html/body/div/div/div/form/div/div/div/textarea'
p409
F4.745954377393462
sS'/html/body/div/div/div/div/form/div/div/div/div/div/label'
p410
F4.745954377393462
sS'/html/body/div/div/div/div/div/div/div/div/div/div/div/b'
p411
F8.915879378835772
sS'/html/body/div/div/div/div/div/div/div/h2/span'
p412
F2.5760293759511486
sS'/html/body/div/div/div/form/div/div/label'
p413
F4.745954377393462
sS'/html/body/div/div/div/div/form/p/label'
p414
F8.915879378835772
sS'/html/body/div/div/div/div/div/table/tr/td/div/p/a'
p415
F5.745954377393461
sS'/html/body/div/div/div/div/div/div/table/tr/td/div/p/a/img'
p416
F6.10852445677817
sS'/html/body/div/div/div/div/div/table/tr/td/div/div/ol/li/p'
p417
F6.915879378835774
sS'/html/body/div/div/div/div/div/div/div/div/p'
p418
F8.915879378835772
sS'/html/body/div/div/div/div/div/ul/li/a/span'
p419
F8.915879378835772
sS'/html/body/div/div/div/div/div/div/div/ul/li/a/span/span'
p420
F2.726054819955756
sS'/html/body/div/div/div/div/div/table/tr/td/div/table/tbody/tr/td'
p421
F3.667951865392188
sS'/html/body/div/div/div/div/div/div/div/div/b'
p422
F7.330916878114618
sS'/html/body/div/div/div/form/label'
p423
F8.915879378835772
sS'/html/body/div/div/div/div/div/div/div/div/a'
p424
F2.6679518653921876
sS'/html/body/div/div/div'
p425
F0.03629612922298996
sS'/html/body/div/div/div/form/div/div/div/input'
p426
F5.4564477601984755
sS'/html/body/div/div/div/div/div/div/div/div/i'
p427
F8.915879378835772
sS'/html/body/feed/id'
p428
F5.330916878114617
sS'/html/body/div/div/div/div/div/div/table/thead/tr/th'
p429
F6.915879378835774
sS'/html/body/div/div/div/form/div/div/div/pre/code'
p430
F8.915879378835772
sS'/html/body/div/div/div/div/form/div/div/div/hr'
p431
F3.961683068448898
sS'/html/body/div/div/div/div/table/tr/td/p/b'
p432
F5.915879378835774
sS'/html/body/noscript/div'
p433
F0.03629612922298996
sS'/html/body/div/div/div/div/div/script'
p434
F1.961683068448898
sS'/html/body/div/div/div/div/div/table/tr/td/span/a'
p435
F5.745954377393461
sS'/html/body/div/div/div/div/div/div/table/tr/td/div/p/sub'
p436
F6.593951283948411
sS'/html/body/div/div/div/div/div/table/tr/td/div/table/tr/td/div/div/div/span/span'
p437
F2.1345196653111134
sS'/html/body/div/div/div/div/div/div/table/tr/td/div/p/sup'
p438
F7.915879378835774
sS'/html/body/div/div/div/div/div/div/div/div/h3/a'
p439
F7.915879378835774
sS'/html/body/div/div/div/form/div/div/noscript/div/table/tr/td/div/label'
p440
F8.915879378835772
sS'/html/body/div/div/div/div/div/div/table/tr/td/table/tr/td/div/div'
p441
F4.6679518653921885
sS'/html/body/div/div/div/div/div/div/div/div/div/p/a/img'
p442
F8.915879378835772
sS'/html/body/div/div/div/div/div/div/div/div/div/ul/li/a'
p443
F6.915879378835774
sS'/html/body/div'
p444
F0.03629612922298996
sS'/html/body/div/div/div/div/div/table/tr/td/div/div/ul/li/code'
p445
F8.915879378835772
sS'/html/body/div/div/div/div/div/table/tr/td/div/div/pre/code'
p446
F5.008988783227255
sS'/html/body/div/div/div/form/div/div/div/h3'
p447
F8.915879378835772
sS'/html/body/div/div/div/div/div/div/div/div/div/div/ul/li/a'
p448
F5.215439660694681
sS'/html/body/div/div/div/div/div/table/tr/td'
p449
F1.961683068448898
sS'/html/body/div/div/div/div/div/div/table/tr/td/div/ul/li/p/a'
p450
F8.915879378835772
sS'/html/body/div/div/div/div/div/div/table/tr/td/table/tr/td/div/div/div/span'
p451
F2.5939512839484107
sS'/html/body/div/div/div/div/div/table/tr/td/div/table/tbody/tr/td/div/span'
p452
F2.540839947488849
sS'/html/body/div/div/div/div/div/div/div/div/div/div'
p453
F1.6029964235514178
sS'/html/body/div/div/div/div/div/form/div/div/div/div/div/p/span'
p454
F2.2865227587561634
sS'/html/body/div/div/div/div/br'
p455
F4.330916878114617
sS'/html/body/div/div/div/form/div/div/div/div/textarea'
p456
F8.915879378835772
sS'/html/body/div/div/div/table/tr/td/br'
p457
F7.915879378835774
sS'/html/body/div/div/div/div/div/blockquote/p'
p458
F8.915879378835772
sS'/html/body/div/div/div/div/div/table/tr/td/div/div/span'
p459
F5.745954377393461
sS'/html/body/div/div/div/div/form/p/label/span'
p460
F8.915879378835772
sS'/html/body/div/div/div/div/div/p/a/em'
p461
F8.915879378835772
sS'/html/body/div/div/div/div/div/form/div/p/a'
p462
F2.2865227587561634
sS'/html/body/div/div/div/div/h2'
p463
F6.330916878114618
sS'/html/body/div/div/div/div/div/div/div/ul/li/a/span/span/span'
p464
F2.8935115658073185
sS'/html/body/div/div/div/div/div/div/table/tr/td/div/p/strong'
p465
F5.215439660694681
sS'/html/body/div/div/div/div/a/span'
p466
F1.7560080420573836
sS'/html/body/feed/entry/category'
p467
F5.330916878114617
sS'/html/body/feed/link'
p468
F5.330916878114617
sS'/html/body/div/div/div/div/ul/li/p'
p469
F8.915879378835772
sS'/html/head/title'
p470
F0.03629612922298996
sS'/html/body/div/div/div/div/div/div/table/tr/td/div/a/b'
p471
F7.915879378835774
sS'/html/body/div/div/div/table/tr/td/span/span/span'
p472
F8.915879378835772
sS'/html/body/div/div/div/div/form/div/input'
p473
F3.961683068448898
sS'/html/body/div/div/div/div/ul/li/a'
p474
F0.03629612922298996
sS'/html/body/div/div/div/div/ul/li'
p475
F8.915879378835772
sS'/html/body/div/div/div/div/form/div/label'
p476
F4.745954377393462
sS'/html/body/div/div/div/div/div/div/div/a/div/svg/g/line'
p477
F7.915879378835774
sS'/html/body/div/div/div/div/div/div/div/span/a'
p478
F5.745954377393461
sS'/html/body/div/div/div/div/div/div/div/h3/span/span/a'
p479
F2.786596361890807
sS'/html/body/div/div/div/div/ul/li/a/strong'
p480
F4.4564477601984755
sS'/html/body/div/div/div/div/div/table/tr/td/div/table/tbody/tr/td/div/span/i'
p481
F4.330916878114617
sS'/html/body/div/div/div/div/span/a/span'
p482
F0.03629612922298996
sS'/html/body/div/div/div/div/table/tr/td/div/div/a'
p483
F5.915879378835774
sS'/html/body/div/div/div/div/div/div/div/ul/li/a'
p484
F3.4896146241336754
sS'/html/body/div/div/div/div/div/div/table/tr/td/div/ul/li/code'
p485
F7.915879378835774
sS'/html/body/div/div/div/div/table/tr/td/div/a'
p486
F6.593951283948411
sS'/html/body/div/div/div/div/div/div/div/div/a/div/img'
p487
F5.4564477601984755
sS'/html/body/div/div/div/div/div/div/div/span/span/a/span'
p488
F5.915879378835774
sS'/html/body/div/div/div/div/div/table/tr/td/div/table/tbody/tr/td/div/a'
p489
F2.5064884426980716
sS'/html/body/div/div/div/div/div/table/tr/td/div/table/tr/td/div/div/div'
p490
F5.008988783227255
sS'/html/body/div/div/div/div/div/h3/a'
p491
F0.03629612922298996
sS'/html/body/div/div/div/div/script'
p492
F0.8337303374819016
sS'/html/body/div/div/div/div/div/h2/a'
p493
F1.9733648734965332
sS'/html/body/div/div/div/div/div/div/table/tr/td/table/tr/td/div/div/span'
p494
F2.5760293759511486
sS'/html/body/div/div/div/div/div/div/div/div/div/a/div/img'
p495
F1.1744123924346264
sS'/html/body/div/div/div/div/div/div/table/tr/td/table/tr/td/div/div/a'
p496
F2.5760293759511486
sS'/html/body/div/div/div/div/p/br'
p497
F7.330916878114618
sS'/html/body/div/div/div/div/div/form/div/div/div/div'
p498
F2.2865227587561634
sS'/html/body/div/div/div/div/ul/li/p/a'
p499
F8.915879378835772
sS'/html/body/div/div/div/form/div/div/div'
p500
F8.915879378835772
sS'/html/body/div/div/div/div/div/div/div/h3'
p501
F2.6870606883398924
sS'/html/body/div/div/div/div/div/div/div/h2'
p502
F3.424026282506099
sS'/html/body/div/div/div/div/div/table/tr/td/div/table/tbody/tr/td/div/span/a'
p503
F3.786596361890807
sS'/html/body/div/div/div/div/div/ul/li/div/span'
p504
F0.03629612922298996
sS'/html/body/script'
p505
F0.03629612922298996
sS'/html/body/div/div/div/div/div/table/tr/td/div/input'
p506
F1.961683068448898
sS'/html/body/div/div/div/div/div/h4/a'
p507
F1.961683068448898
sS'/html/body/div/div/div/form/div/div/div/div/div/div/table/tr/td/div/label'
p508
F8.915879378835772
sS'/html/body/div/div/div/div/div/table/tr/td/div/table/tr/td/div/div/a/div/img'
p509
F1.961683068448898
sS'/html/body/div/div/div/div/form/div/div/div/div/div/noscript/p'
p510
F4.745954377393462
sS'/html/body/div/div/div/div/div/div/table/tr/td/div/table/tbody/tr/td'
p511
F3.330916878114617
sS'/html/body/div/div/div/div/table/tr/td/input'
p512
F5.915879378835774
sS'/html/body/div/div/div/div/div/div/hr'
p513
F3.630477159973525
sS'/html/body/div/div/div/div/div/div/h3/a/span'
p514
F5.745954377393461
sS'/html/body/div/div/div/div/div/div/div/div/div/ul/li'
p515
F6.915879378835774
sS'/html/body/div/div/div/div/div/table/tr/td/div/h2/span'
p516
F5.330916878114617
sS'/html/body/div/div/div/div/div/div/a/div'
p517
F7.330916878114618
sS'/html/body/div/div/div/div/form/p/textarea'
p518
F8.915879378835772
sS'/html/body/div/div/div/div/div/div/p/span'
p519
F1.9970161415611787
sS'/html/body/div/div/div/div/div/table/tr/td/div/table/tr/td/div/span'
p520
F1.961683068448898
sS'/html/body/div/div/div/form/div/div/div/div'
p521
F4.6679518653921885
sS'/html/body/feed/entry/title'
p522
F5.330916878114617
sS'/html/body/div/div/div/div/div/ul/li/a/div'
p523
F0.03629612922298996
sS'/html/body/div/div/div/div/div/div/table/tr/td/span'
p524
F5.593951283948411
sS'/html/body/div/div/div/div/div/ul/li/em'
p525
F8.915879378835772
sS'/html/body/div/div/div/div/div/p'
p526
F3.593951283948411
sS'/html/body/div/div/div/div/div/div/div/div/div/p/strong'
p527
F6.915879378835774
sS'/html/body/div/div/div/div/span/span'
p528
F5.008988783227255
sS'/html/body/div/div/div/div/div/p/a/span'
p529
F8.915879378835772
sS'/html/body/div/div/div/div/div/div/div/div/div'
p530
F4.2720231890610485
sS'/html/body/div/div/div/div/div/b'
p531
F7.330916878114618
sS'/html/body/feed/entry/id'
p532
F5.330916878114617
sS'/html/body/div/div/div/div/div/a'
p533
F0.03629612922298996
sS'/html/body/div/div/div/div/div/div/h3'
p534
F8.915879378835772
sS'/html/body/div/div/div/div/div/div/h2'
p535
F8.915879378835772
sS'/html/body/div/div/div/div/div/div/table/tr/td/div/ul/li'
p536
F5.593951283948411
sS'/html/body/div/div/div/div/div/div/div/div/div/div/div/div/div/span'
p537
F2.849790188378001
sS'/html/body/div/div/div/table/tr/td/a/img'
p538
F8.915879378835772
sS'/html/body/div/div/div/div/div/table/tr/td/div/table/tr/td/div/a'
p539
F1.961683068448898
sS'/html/body/feed/entry/author/uri'
p540
F5.330916878114617
sS'/html/body/div/div/div/form/div/div/div/div/div/div/p/span'
p541
F8.915879378835772
sS'/html/body/div/div/div/div/div/div/div/p/a'
p542
F7.330916878114618
sS'/html/body/div/div/div/div/div/img'
p543
F8.915879378835772
sS'/html/body/div/div/div/div/div/div/div/p/b'
p544
F8.915879378835772
sS'/html/body/div/div/div/div/form/a'
p545
F5.215439660694681
sS'/html/body/div/div/div/div/div/form/div/div/div/div/div/table/tr/td/div/label'
p546
F2.2865227587561634
sS'/html/body/div/div/div/div/div/h1/span'
p547
F7.915879378835774
s.