(lp0
I72961
aI76076
aI74182
aI66520
aI75962
aI62349
aI65533
aI70528
aI68351
aI91652
aI70053
aI67563
aI44767
aI27604
aI3662
aI2902
aI7444
aI2599
aI2331
aI4000
aI5243
aI4480
aI3257
aI52154
aI52528
aI54014
aI35957
aI103370
aI51350
aI37397
aI28594
aI28524
aI118938
aI28469
aI28370
aI28445
aI97793
aI88980
aI28283
aI28433
aI89323
aI28355
aI31448
aI42088
aI33446
aI28953
aI30215
aI30156
aI35459
aI33721
aI33318
aI38129
aI33908
aI35352
aI34145
aI33753
aI33618
aI34366
aI34519
aI35212
aI37254
aI36388
aI34504
aI35526
aI34696
aI33539
aI69775
aI68098
aI72233
aI75848
aI66074
aI70929
aI59248
aI71120
aI62534
aI62153
aI65681
aI68363
aI70551
aI63295
aI72749
aI66702
aI66717
aI71818
aI68832
aI76313
aI66684
aI86982
aI70578
aI73274
aI85314
aI84898
aI85016
aI78888
aI78975
aI84536
aI77552
aI85259
aI85488
aI78201
aI119314
aI115412
aI163637
aI165098
aI87978
aI49690
aI85474
aI78011
aI84055
aI67340
aI70375
aI68615
aI65174
aI72212
aI62495
aI75389
aI75588
aI75741
aI66095
aI66415
aI66268
aI65314
aI66313
aI78000
aI72330
aI76016
aI62524
aI69231
aI63096
aI71895
aI70661
aI70791
aI63422
aI68190
aI70031
aI72191
aI69894
aI68114
aI65384
aI62961
aI61192
aI62074
aI65872
aI77697
aI72383
aI59248
aI67847
aI64796
aI68660
aI69760
aI71120
aI72791
aI72458
aI59392
aI67437
aI64904
aI71125
aI64407
aI56919
aI62602
aI62700
aI62535
aI62659
aI61540
aI62485
aI62262
aI63823
aI63756
aI65603
aI65663
aI65841
aI71394
aI68169
aI68209
aI68320
aI68522
aI73879
aI63295
aI74503
aI80991
aI74094
aI70573
aI68033
aI71039
aI80246
aI73513
aI65541
aI59720
aI66515
aI68307
aI69720
aI69342
aI94590
aI66684
aI67320
aI67634
aI71066
aI69909
aI82382
aI69922
aI38299
aI30087
aI89656
aI88611
aI88834
aI90809
aI88959
aI172281
aI88592
aI84857
aI89319
aI88019
aI91884
aI87712
aI59210
aI88172
aI125354
aI87888
aI122734
aI170510
aI88659
aI86418
aI86851
aI88098
aI87292
aI87527
aI88469
aI89181
aI88461
aI124714
aI88839
aI89057
aI87667
aI87828
aI88019
aI124215
aI92149
aI88170
aI89124
aI88851
aI88357
aI124370
aI90136
aI88869
aI87850
aI90390
aI88791
aI172377
aI61426
aI88693
aI88706
aI90420
aI88932
aI87732
aI90397
aI171904
aI89056
aI88647
aI89985
aI125777
aI88870
aI88797
aI90526
aI89977
aI175702
aI87795
aI89309
aI89012
aI45359
aI89413
aI125228
aI88155
aI87864
aI89534
aI92471
aI92637
aI91705
aI90463
aI178874
aI87306
aI90012
aI88250
aI90289
aI88082
aI89644
aI86530
aI86627
aI89795
aI171856
aI86760
aI90524
aI176947
aI87698
aI122206
aI167275
aI91323
aI87632
aI86636
aI88603
aI89410
aI88553
aI123901
aI87402
aI89895
aI87825
aI123354
aI89191
aI87732
aI89377
aI87588
aI90031
aI88135
aI89753
aI86805
aI88494
aI48596
aI50947
aI48211
aI49433
aI49583
aI51319
aI46592
aI49077
aI50590
aI50837
aI65518
aI62173
aI65594
aI105061
aI62101
aI45964
aI40199
aI126668
aI98602
aI44751
aI95787
aI39441
aI39189
aI45244
aI91367
aI47645
aI104981
aI95961
aI47454
aI91320
aI44988
aI39009
aI99413
aI45263
aI39668
aI44300
aI127556
aI53241
aI65168
aI65158
aI64657
aI65918
aI65375
aI101908
aI65295
aI77255
aI70426
aI77431
aI77200
aI77346
aI31595
aI31644
aI40820
aI50749
aI55300
aI40186
aI49387
aI48191
aI45251
aI53808
aI58161
aI45555
aI45617
aI52204
aI47765
aI45076
aI46167
aI40230
aI52176
aI38758
aI52199
aI37839
aI39172
aI34019
aI42319
aI49033
aI43941
aI58738
aI43727
aI41649
aI43198
aI40090
aI36264
aI36128
aI34069
aI41603
aI37515
aI36996
aI37209
aI44281
aI33972
aI41717
aI36181
aI33865
aI35485
aI41958
aI40939
aI42022
aI47812
aI36292
aI40053
aI31639
aI42579
aI40377
aI30217
aI34555
aI30281
aI41426
aI43305
aI39708
aI36647
aI35061
aI36711
aI44124
aI37686
aI35278
aI37750
aI49669
aI60446
aI44998
aI37031
aI47465
aI57772
aI43621
aI51276
aI35836
aI43171
aI43593
aI50206
aI50294
aI37574
aI46327
aI54223
aI53412
aI59650
aI41263
aI26107
aI33008
aI33074
aI33369
aI33379
aI33404
aI33606
aI33771
aI33519
aI33491
aI33406
aI33304
aI33334
aI32743
aI33868
aI34145
aI33817
aI34620
aI34132
aI34202
aI34324
aI34489
aI34272
aI34342
aI34337
aI34233
aI34318
aI34148
aI34529
aI34057
aI34087
aI34356
a.