(dp0
S'/html/body/div/div/div/div/div/div/div/div/a/img'
p1
F9.965784284662087
sS'/html/body/div/footer/div/ul/li/a'
p2
F0.04692104738749238
sS'/html/body/div/div/div/div/table/tbody/tr/td/p/a'
p3
F3.2515387669959646
sS'/html/body/div/div/ul/li/div/div/p/strong/span/span/span'
p4
F9.965784284662087
sS'/html/body/div/div/ul/li/div/div/p/strong/img'
p5
F9.965784284662087
sS'/html/body/div/div/ul/li/div/p/a'
p6
F1.1297339296040172
sS'/html/body/div/div/ul/li/div/div/p/a/strong/span/span'
p7
F9.965784284662087
sS'/html/body/div/div/ul/li/div/div/p/font/table/tbody/tr/td/code'
p8
F9.965784284662087
sS'/html/body/div/div/ul/li/div/div/p/a/br'
p9
F8.965784284662087
sS'/html/body/div/div/ul/li/div/div/ol/li/p/span/span/strong'
p10
F9.965784284662087
sS'/html/body/rss/channel/item/link'
p11
F4.965784284662088
sS'/html/body/div/div/ul/li/div/div/p/span/span/span/span/span/br'
p12
F8.965784284662087
sS'/html/body/div/div/div/div/form/div/p/label'
p13
F4.573466861883327
sS'/html/body/div/header/div/div/a/svg/circle'
p14
F0.04692104738749238
sS'/html/body/div/div/div/a'
p15
F0.8313579644411611
sS'/html/body/div/div/ul/li/div/div/p/strong/span'
p16
F7.965784284662087
sS'/html/body/div/div/ul/li/div/div/blockquote/pre/span'
p17
F9.965784284662087
sS'/html/body/div/div/ul/li/div/div/p/b/br'
p18
F9.965784284662087
sS'/html/body/div/div/div/p'
p19
F7.643856189774724
sS'/html/body/div/div/ul/li/div/div/ol/li/p/strong'
p20
F9.965784284662087
sS'/html/head/meta'
p21
F0.04692104738749238
sS'/html/body/div/div/ul/li/div/div/blockquote/p/span/span'
p22
F8.380821783940931
sS'/html/body/div/div/ul/li/div/div/h3/span/span/span/span/a'
p23
F9.965784284662087
sS'/html/body/div/div/ul/li/div/div/p/span/a/span/span/ins'
p24
F9.965784284662087
sS'/html/body/div/div/ul/li/div/div/span/font/p/font'
p25
F9.965784284662087
sS'/html/body/div/div/ul/li/div/div/p/span/blockquote/pre'
p26
F9.965784284662087
sS'/html/body/div/header/div/div/input'
p27
F0.04692104738749238
sS'/html/body/div/div/ul/li/div/div/p/span/a/span'
p28
F7.965784284662087
sS'/html/body/div/div/div/div/div/table/thead/tr/th'
p29
F9.965784284662087
sS'/html/body/div/div/div/div/p/a'
p30
F9.965784284662087
sS'/html/body/div/div/ul/li/div/div/blockquote/p/img'
p31
F9.965784284662087
sS'/html/body/div/div/ul/li/div/p/span/a'
p32
F1.1297339296040172
sS'/html/body/div/div/ul/li/div/div/h3/span/span/span/strong/span/span/span'
p33
F9.965784284662087
sS'/html/body/div/div/ul/li/div/div/h1'
p34
F7.965784284662087
sS'/html/body/div/div/ul/li/div/div/p/span/p/blockquote/pre/span'
p35
F9.965784284662087
sS'/html/body/div/div/ul/li/div/div/pre/pre/span'
p36
F8.965784284662087
sS'/html/body/div/div/ul/li/div/div/h3/span/span/span/span/span/span'
p37
F9.965784284662087
sS'/html/body/div/div/ul/li/div/div/blockquote/p/span/span/span'
p38
F9.965784284662087
sS'/html/body/div/div/ul/li/div/div/pre/code/span'
p39
F8.965784284662087
sS'/html/body/div/div/div/div/div/table/tbody/tr/td/a'
p40
F2.41119543298445
sS'/html/body/div/div/ul/li/div/div/p/a/em/strong'
p41
F6.965784284662088
sS'/html/body/div/footer/div/div'
p42
F0.04692104738749238
sS'/html/body/div/div/ul/li/div/div/ul/li/span/a/br'
p43
F9.965784284662087
sS'/html/body/div/div/div/form/div/input'
p44
F2.539519529959989
sS'/html/body/div/div/ul/li/div/div/p/img'
p45
F4.573466861883327
sS'/html/body/div/div/div/div/table/tbody/tr/td/p/b/a/img'
p46
F8.965784284662087
sS'/html/body/div/div/ul/li/div/div/font/hr'
p47
F9.965784284662087
sS'/html/body/div/div/ul/li/div/div/ol/li/p/a/span/span'
p48
F9.965784284662087
sS'/html/body/div/div/ul/li/div/i/br'
p49
F8.965784284662087
sS'/html/body/div/div/ul/li/div/div/p/span/strong/span/span/span'
p50
F9.965784284662087
sS'/html/body/div/div/div/div/div/div/h3/span'
p51
F3.8365012677171206
sS'/html/body/div/div/ul/li/div/div/ul/li/span/span/a'
p52
F8.965784284662087
sS'/html/body/div/div/ul/li/div/div/p/font/table/tbody/tr/td/pre/pre'
p53
F9.965784284662087
sS'/html/body/div/div/ul/li/div/div/blockquote/a'
p54
F8.380821783940931
sS'/html/body/div/div/ul/li/div/div/blockquote/b'
p55
F9.965784284662087
sS'/html/body/div/div/div/div/form/h2/a'
p56
F4.573466861883327
sS'/html/body/div/div/div/div/form/h3/a'
p57
F4.573466861883327
sS'/html/body/div/div/ul/li/div/div/blockquote/blockquote/h4'
p58
F9.965784284662087
sS'/html/body/div/div/ul/li/div/div/blockquote/p'
p59
F4.795859283219775
sS'/html/body/div/div/ul/li/div/div/font/b'
p60
F9.965784284662087
sS'/html/body/div/div/ul/li/div/div/h3/span/span/span/a'
p61
F9.965784284662087
sS'/html/body/div/div/ul/li/div/div/p/em/em/strong'
p62
F9.965784284662087
sS'/html/body/div/div/ul/li/div/div/p/strong/span/span/a'
p63
F9.965784284662087
sS'/html/body/div/div/ul/li/div/div/p/span/p/p'
p64
F9.965784284662087
sS'/html/body/div/div/ul/li/div/div/ol/li/span/span/a'
p65
F9.965784284662087
sS'/html/body/div/div/ul/li/div/div/h3/span/strong/span'
p66
F9.965784284662087
sS'/html/body/div/div/ul/li/div/div/ul'
p67
F9.965784284662087
sS'/html/body/div/div/ul/li/div/div/p/strong/span/span/a/span'
p68
F9.965784284662087
sS'/html/body/div/div/div/div/div/div/p/strong'
p69
F2.41119543298445
sS'/html/body/div/div/ul/li/div/div/h3/span'
p70
F9.965784284662087
sS'/html/body/rss/channel/item/description'
p71
F4.965784284662088
sS'/html/body/div/div/ul/li/div/div/p/span/span/ins'
p72
F9.965784284662087
sS'/html/body/div/div/div/div/div/div/span'
p73
F2.41119543298445
sS'/html/body/div/div/ul/li/div'
p74
F3.7178567712185013
sS'/html/body/div/div/div/div/table/tbody/tr/td/p/span'
p75
F8.965784284662087
sS'/html/body/div/div/ul/li/div/div/p/a/em/strong/span'
p76
F9.965784284662087
sS'/html/body/div/div/div/form/h2'
p77
F2.539519529959989
sS'/html/body/div/footer/div/ul/li/h2'
p78
F0.04692104738749238
sS'/html/body/div/div/ul/li/div/div/ul/li/strong/a'
p79
F7.158429362604482
sS'/html/body/div/div/ul/li/div/div/font/table/tbody/tr/td/pre/pre'
p80
F9.965784284662087
sS'/html/body/div/div/ul/li/div/div/p/span/b'
p81
F8.965784284662087
sS'/html/body/div/div/ul/li/div/div/p/span/a'
p82
F6.265344566520995
sS'/html/body/div/div/ul/li/div/div/ul/li/a/span'
p83
F9.965784284662087
sS'/html/body/div/header/div/a/svg/path'
p84
F0.04692104738749238
sS'/html/body/rss/channel/item/updated'
p85
F4.965784284662088
sS'/html/body/div/div/ul/li/div/div/p/strong/font/br'
p86
F9.965784284662087
sS'/html/body/div/div/ul/li/div/p/span'
p87
F5.50635266602479
sS'/html/body/div/div/div/h2/span'
p88
F7.643856189774724
sS'/html/body/div/div/ul/li/div/div/p/span/p'
p89
F9.965784284662087
sS'/html/body/div/div/ul/li/div/div/h3/span/span/span'
p90
F9.965784284662087
sS'/html/body/div/div/ul/li/div/div/p/span/span/a'
p91
F6.795859283219775
sS'/html/body/div/div/ul/li/div/div/p/span/span/blockquote/pre/span'
p92
F9.965784284662087
sS'/html/body/div/div/ul/li/div/div/p/span/span/b'
p93
F7.643856189774724
sS'/html/body/div/header/div/div/a/svg/path'
p94
F0.04692104738749238
sS'/html/body/div/div/ul/li/div/div/p/span/b/span'
p95
F9.965784284662087
sS'/html/body/div/div/ul/li/div/div/p/span/ins/a'
p96
F9.965784284662087
sS'/html/body/div/div/ul/li/div/div/font/br'
p97
F8.965784284662087
sS'/html/body/div/div/ul/li/div/div/p/strong/span/span/span/span'
p98
F8.965784284662087
sS'/html/body/div/div/ul/li/div/p/span/span'
p99
F1.1297339296040172
sS'/html/body/noscript/img'
p100
F0.32915966411843833
sS'/html/body/div/div/ul/li/div/div/p/span/strong/span/span/span/span'
p101
F9.965784284662087
sS'/html/body/div/div/ul/li/div/div/ol/li/p/span'
p102
F9.965784284662087
sS'/html/body/div/div/ul/li/div/div/font/p/font/br'
p103
F9.965784284662087
sS'/html/body/div/div/ul/li/div/div/p/strong/br'
p104
F7.965784284662087
sS'/html/body/div/div/ul/li/div/div/pre'
p105
F2.1648843847417822
sS'/html/body/div/div/ul/li/div/div/p/span/p/span'
p106
F9.965784284662087
sS'/html/body/div/div/ul/li/div/b/a'
p107
F8.965784284662087
sS'/html/body/div/div/div/div/div/div/div'
p108
F2.41119543298445
sS'/html/body/div/div/div/div/form/div/select/option'
p109
F4.573466861883327
sS'/html/body/div/div/ul/li/div/a/b'
p110
F9.965784284662087
sS'/html/body/div/div/div/div'
p111
F1.8996950942043145
sS'/html/body/div/div/ul/li/div/div/ol/li/p/a'
p112
F9.965784284662087
sS'/html/body/div/div/ul/li/div/div/ul/li/span/a/span/span'
p113
F9.965784284662087
sS'/html/body/div/div/ul/li/div/div/p/span'
p114
F3.7563309190331378
sS'/html/body/rss/channel/item/pubdate'
p115
F7.965784284662087
sS'/html/body/div/div/div/div/form/h3/span'
p116
F4.573466861883327
sS'/html/body/div/div/ul/li/div/div/pre/em/strong/span'
p117
F9.965784284662087
sS'/html/body/div/div/ul/li/div/div/ol/li/p'
p118
F9.965784284662087
sS'/html/body/div/div/ul/li/div/div/ol/li/span/span/span'
p119
F9.965784284662087
sS'/html/body/div/div/ul/li/div/div/font/b/font'
p120
F9.965784284662087
sS'/html/body/div/div/div/form/div/div/input'
p121
F2.539519529959989
sS'/html/body/div/div/ul/li/div/h3/a'
p122
F1.1297339296040172
sS'/html/body/div/div/div/div/div/h2/span/a'
p123
F2.41119543298445
sS'/html/body/rss/channel/description'
p124
F4.965784284662088
sS'/html/body/div/div/ul/li/div/div/p/strong/pre'
p125
F8.965784284662087
sS'/html/body/div/noscript/img'
p126
F2.539519529959989
sS'/html/body/div/div/ul/li/div/div/blockquote/p/span'
p127
F7.643856189774724
sS'/html/body/div/div/div/div/div/div/a'
p128
F1.7710274302398394
sS'/html/body/div/div/ul/li/div/i/b/a'
p129
F8.965784284662087
sS'/html/body/div/div/ul/li/div/div/p/span/strong'
p130
F6.795859283219775
sS'/html/body/div/div/ul/li/div/div/h3/span/span/span/span/span/a/span'
p131
F9.965784284662087
sS'/html/body/div/div/ul/li/div/div/p/a/wbr/wbr/wbr'
p132
F9.965784284662087
sS'/html/body/div/div/div/div/form/div/p/input'
p133
F4.573466861883327
sS'/html/body/div/div/ul/li/div/a/img'
p134
F1.1297339296040172
sS'/html/body/div/div/ul/li/div/div/h2/font/font/p/font'
p135
F9.965784284662087
sS'/html/body/div/div/ul/li/div/div/pre/strong/br'
p136
F9.965784284662087
sS'/html/body/div/div/ul/li/div/p/b/i'
p137
F9.965784284662087
sS'/html/body/div/div/div/div/div/h2'
p138
F1.9545570292388328
sS'/html/body/div/div/ul/li/div/b'
p139
F6.965784284662088
sS'/html/body/div/div/ul/li/div/div/p/span/a/span/span'
p140
F9.965784284662087
sS'/html/body/div/div/ul/li/div/a'
p141
F1.1297339296040172
sS'/html/body/div/div/ul/li/div/div/p/strong/em'
p142
F9.965784284662087
sS'/html/body/div/div/ul/li/div/i'
p143
F8.965784284662087
sS'/html/body/div/div/div/h1/a'
p144
F3.2515387669959646
sS'/html/body/div/div/div/div/table/tbody/tr/td/br'
p145
F8.965784284662087
sS'/html/body/div/div/ul/li/div/p'
p146
F1.1297339296040172
sS'/html/body/div/div/ul/li/div/div/ul/li/span/br'
p147
F9.965784284662087
sS'/html/body/div/div/ul/li/div/div/p/span/ins'
p148
F9.965784284662087
sS'/html/body/div/div/ul/li/div/div/p/span/span'
p149
F5.442222328605075
sS'/html/body/div/div/ul/li/div/div/p/em/strong'
p150
F7.158429362604482
sS'/html/body/div/a'
p151
F2.41119543298445
sS'/html/body/div/div/div/form/div/br'
p152
F2.539519529959989
sS'/html/body/div/div/ul/li/div/div/ul/li/span/a'
p153
F8.380821783940931
sS'/html/head/link'
p154
F0.04692104738749238
sS'/html/body/div/div/ul/li/div/div/font/strong/span'
p155
F9.965784284662087
sS'/html/body/div/div/ul/li/div/div/h3/span/strong/span/a'
p156
F9.965784284662087
sS'/html/body/div/div/ul/li/div/div/h3/strong/span/span'
p157
F9.965784284662087
sS'/html/body/div/footer/div/ul/li/span'
p158
F0.04692104738749238
sS'/html/body/div/div/ul/li/div/div/ol/li/blockquote/pre/span'
p159
F9.965784284662087
sS'/html/body/div/div/div/div/table/tbody'
p160
F9.965784284662087
sS'/html/body/div/div/ul/li/div/div/h3/span/span/span/span/span/a'
p161
F9.965784284662087
sS'/html/body/div/div/ul/li/div/div/p/a/img'
p162
F8.965784284662087
sS'/html/body/div/div/ul/li/div/div/p/i/span'
p163
F9.965784284662087
sS'/html/body/div/div/ul/li/div/i/b/br'
p164
F8.965784284662087
sS'/html/body/div/div/ul/li/div/div/p/span/strong/span'
p165
F9.965784284662087
sS'/html/body/div/div/ul/li/div/div/p/b/span'
p166
F9.965784284662087
sS'/html/body/div/div/ul/li/div/div/p/span/span/span'
p167
F6.965784284662088
sS'/html/body/div/div/ul/li/div/div/p/span/a/ins'
p168
F9.965784284662087
sS'/html/body/div/div/h1/a'
p169
F1.5649048483799028
sS'/html/body/div/div/ul/li/div/div/pre/br'
p170
F5.795859283219775
sS'/html/body/div/div/ul/li/div/div/blockquote/p/br'
p171
F7.965784284662087
sS'/html/body/div/div/div/div/select/option'
p172
F8.965784284662087
sS'/html/body/div/div/ul/li/div/div/pre/strong'
p173
F5.643856189774724
sS'/html/body/div/div/ul/li/div/br'
p174
F2.4579896444633906
sS'/html/body/div/div/ul/li/div/div/p/font'
p175
F8.380821783940931
sS'/html/body/div/div/ul/li/div/div/p/span/span/strong'
p176
F9.965784284662087
sS'/html/body/div/div/ul/li/div/div/ul/li/strong'
p177
F9.965784284662087
sS'/html/body/div/div/ul/li/div/div/span/strong/font'
p178
F9.965784284662087
sS'/html/body/div/div/ul/li/div/div/p/span/blockquote/pre/span'
p179
F9.965784284662087
sS'/html/head/style'
p180
F0.04692104738749238
sS'/html/body/div/div/ul/li/div/div/blockquote/br'
p181
F7.643856189774724
sS'/html/body/div/div/ul/li/div/div/ul/li/a/b'
p182
F9.965784284662087
sS'/html/body/div/div/ul/li/div/div/h3/span/span/span/span'
p183
F9.965784284662087
sS'/html/body/div/div/div/div/a'
p184
F8.965784284662087
sS'/html/body/div/div/ul/li/div/div/p/span/span/a/span/span/ins'
p185
F9.965784284662087
sS'/html/body/div/div/ul/li/div/div/ul/li/b/a'
p186
F9.965784284662087
sS'/html/body/div/div/div/div/table/tbody/tr/td/a'
p187
F7.965784284662087
sS'/html/body/div/div/div/form/div/div/button'
p188
F2.539519529959989
sS'/html/body/div/div/div/div/p'
p189
F1.7710274302398394
sS'/html/body/div/div/ul/li/div/div/ol/li/span/span/b/i'
p190
F9.965784284662087
sS'/html/body/div/div/ul/li/div/div'
p191
F1.1297339296040172
sS'/html/body/div/div/ul/li/div/div/ul/li/span/span/a/span'
p192
F9.965784284662087
sS'/html/body/div/div/ul/li/div/div/blockquote/pre/span/span'
p193
F9.965784284662087
sS'/html/body/div/div/div/div/div/div/ul/li/span'
p194
F4.107803289534515
sS'/html/body/div/div/ul/li/div/div/h2/font/font/p/font/font/font'
p195
F9.965784284662087
sS'/html/body/div/div/ul/li/div/div/p/strong/strong'
p196
F9.965784284662087
sS'/html/body/div/div/ul/li/div/div/blockquote/p/em'
p197
F9.965784284662087
sS'/html/body/div/div/div/div/table/tbody/tr/td'
p198
F3.2243172982609405
sS'/html/body/div/div/div/div/form/div/div/h4'
p199
F4.573466861883327
sS'/html/body/div/div/ul/li/div/div/h1/span/span/span/span/span'
p200
F9.965784284662087
sS'/html/body/div/div/ul/li/div/div/p/strong/strong/strong'
p201
F9.965784284662087
sS'/html/body/div/div/ul/li/div/div/span/font/p/font/span/strong'
p202
F9.965784284662087
sS'/html/body/div/div/ul/li/div/div/p/em/span'
p203
F9.965784284662087
sS'/html/body/div/div/ul/li/div/div/p/a/span/strong'
p204
F9.965784284662087
sS'/html/body/div/div/ul/li/div/div/ul/li/span'
p205
F8.965784284662087
sS'/html/body/div/div/div/h2'
p206
F0.5187010584524349
sS'/html/body/div/div/h1'
p207
F2.539519529959989
sS'/html/body/div/div/ul/li/div/div/p/strong/span/span'
p208
F8.965784284662087
sS'/html/body/div/div/ul/li/div/div/table/tbody/tr/td/pre'
p209
F8.965784284662087
sS'/html/body/div/div/ul/li/div/div/h3/strong/span/span/span'
p210
F9.965784284662087
sS'/html/body/div/div/div/div/form/div/div/p/input'
p211
F4.573466861883327
sS'/html/body/div/div/div/div/div/div'
p212
F9.965784284662087
sS'/html/body/div/div/ul/li/div/div/span/font/p/font/strong/br'
p213
F9.965784284662087
sS'/html/body/div/div/ul/li/div/div/p/span/em/strong'
p214
F9.965784284662087
sS'/html/body/div/div/ul/li/div/div/p/i'
p215
F7.965784284662087
sS'/html/body/div/div/ul/li/div/div/pre/pre'
p216
F6.965784284662088
sS'/html/body/div/div/a'
p217
F0.04692104738749238
sS'/html/body/div/div/ul/li/div/div/h2/span'
p218
F9.965784284662087
sS'/html/body/div/script'
p219
F2.539519529959989
sS'/html/body/div/div/ul/li/div/div/p/a'
p220
F2.2042330522176075
sS'/html/body/div/div/ul/li/div/div/span/span'
p221
F9.965784284662087
sS'/html/body/div/div/ul/li/div/div/p/b'
p222
F6.50635266602479
sS'/html/body/div/div/ul/li/div/div/pre/font/br'
p223
F9.965784284662087
sS'/html/body/div/div/div/div/h2'
p224
F0.5395195299599891
sS'/html/body/div/div/ul/li/div/div/blockquote/blockquote/span'
p225
F9.965784284662087
sS'/html/head/script'
p226
F0.04692104738749238
sS'/html/body/div/div/div/div/div/div/ul/li/a'
p227
F3.197599959885161
sS'/html/body/div/div/div/div/table/thead/tr/th'
p228
F6.380821783940931
sS'/html/body/div/div/ul/li/div/div/p/strong/strong/strong/strong'
p229
F9.965784284662087
sS'/html/body/div/div/ul/li/div/div/pre/a'
p230
F9.965784284662087
sS'/html/body/div/div/ul/li/div/div/h3/span/strong/span/span/span'
p231
F9.965784284662087
sS'/html/body/div/div/div/form/div/a'
p232
F2.539519529959989
sS'/html/body/div/div/ul/li/div/div/h2/font/font/p/font/font'
p233
F9.965784284662087
sS'/html/body/div/div/div/div/table/tbody/tr/td/p/br'
p234
F8.965784284662087
sS'/html/body/div/div/ul/li/div/div/pre/p'
p235
F9.965784284662087
sS'/html/body/div/div/ul/li/div/div/ol/li/span/a'
p236
F9.965784284662087
sS'/html/body/div/div/div/div/form/p/input'
p237
F9.965784284662087
sS'/html/body/div/div/div/p/a'
p238
F1.5649048483799028
sS'/html/body/div/nav/div/ul/li/div/div/ul/li/a'
p239
F0.04692104738749238
sS'/html/body/div/div/div/div/ul/li/a/span'
p240
F1.5649048483799028
sS'/html/body/div/div/div/div/table/tbody/tr/td/div'
p241
F3.2515387669959646
sS'/html/body/div/div/ul/li/div/div/span'
p242
F7.158429362604482
sS'/html/body/div/div/ul/li/div/div/h3'
p243
F8.965784284662087
sS'/html/body/div/div/ul/li/div/div/h2'
p244
F9.965784284662087
sS'/html/body/div/div/ul/li/div/div/p/span/span/span/span/br'
p245
F9.965784284662087
sS'/html/body/div/header/div/a/svg/g/g/path'
p246
F0.04692104738749238
sS'/html/body/div/nav/div/a'
p247
F0.04692104738749238
sS'/html/body/div/div/ul/li/div/div/font'
p248
F8.380821783940931
sS'/html/body/rss/channel/id'
p249
F4.965784284662088
sS'/html/body/div/div/ul/li/div/div/p/font/pre'
p250
F9.965784284662087
sS'/html/body/div/div/div/div/span'
p251
F8.965784284662087
sS'/html/body/div/div/ul/li/div/div/p/span/span/span/strong'
p252
F9.965784284662087
sS'/html/body/div/form/input'
p253
F0.32915966411843833
sS'/html/body/div/div/ul/li/div/div/p/span/img'
p254
F7.965784284662087
sS'/html/body/div/div/ul/li/div/div/span/font/br'
p255
F9.965784284662087
sS'/html/body/rss/channel/lastbuilddate'
p256
F4.965784284662088
sS'/html/body/div/div/ul/li/div/div/blockquote/p/strong/span'
p257
F9.965784284662087
sS'/html/body/div/div/ul/li/div/div/a/u/font'
p258
F9.965784284662087
sS'/html/body/div/div/ul/li/div/div/h3/strong/span/a'
p259
F9.965784284662087
sS'/html/body/div/div/ul/li/div/div/ol/li/p/span/strong'
p260
F9.965784284662087
sS'/html/body/div/div/ul/li/div/div/h2/font/font/font/font/p/font/font'
p261
F9.965784284662087
sS'/html/body/div/div/ul/li/div/div/hr'
p262
F6.965784284662088
sS'/html/body/div/div/ul/li/div/div/ol/li/p/strong/span/span/a/span'
p263
F9.965784284662087
sS'/html/body/div/div/ul/li/div/div/p/a/font'
p264
F9.965784284662087
sS'/html/body/div/div/ul/li/div/img'
p265
F7.158429362604482
sS'/html/body/div/div/ul/li/div/div/p/span/span/ins/a/span'
p266
F9.965784284662087
sS'/html/body/div/div/ul/li/div/div/blockquote/h4'
p267
F3.0232697793228476
sS'/html/body/div/div/ul/li/div/div/p/span/blockquote/pre/br'
p268
F9.965784284662087
sS'/html/body/div/div/div/div/div/div/table/tbody/tr/td'
p269
F2.41119543298445
sS'/html/body/div/div/ul/li/div/div/h3/strong/span'
p270
F9.965784284662087
sS'/html/body/div/div/ul/li/div/div/ul/li/a'
p271
F7.643856189774724
sS'/html/body/div/div/h1/span'
p272
F2.5228407888133586
sS'/html/body/div/div/ul/li/div/h3'
p273
F1.1297339296040172
sS'/html/body/div/header/div/div/div/a'
p274
F0.04692104738749238
sS'/html/body/div/div/ul/li/div/div/ul/li/p'
p275
F9.965784284662087
sS'/html/body/div/div/ul/li/div/div/p/span/span/ins/a'
p276
F9.965784284662087
sS'/html/body/div/div/ul/li/div/div/ol/li/p/span/span/span'
p277
F9.965784284662087
sS'/html/body/div/div/ul/li/div/div/span/font/p/br'
p278
F9.965784284662087
sS'/html/body/div/div/ul/li/div/div/p/strong/span/a'
p279
F9.965784284662087
sS'/html/body/div/div/ul/li/div/div/p/span/br'
p280
F6.158429362604484
sS'/html/body/div/div/ul/li/div/div/h3/span/span/span/span/span'
p281
F9.965784284662087
sS'/html/body/noscript/a/img'
p282
F0.32915966411843833
sS'/html/body/div/div/ul/li/div/div/p/span/span/a/span/strong'
p283
F9.965784284662087
sS'/html/body/div/div/ul/li/div/div/blockquote/p/i'
p284
F8.965784284662087
sS'/html/body/div/div/div/form/input'
p285
F2.539519529959989
sS'/html/body/div/div/ul/li/div/div/p/font/br'
p286
F8.380821783940931
sS'/html/body/div/div/ul/li/div/div/blockquote/p/a'
p287
F8.380821783940931
sS'/html/body/div/div/ul/li/div/div/p/span/span/span/ins/a/span'
p288
F9.965784284662087
sS'/html/body/div/div/ul/li/div/div/p/span/strong/span/a/span'
p289
F9.965784284662087
sS'/html/body/div/div/ul/li/div/div/p/strong/a'
p290
F6.795859283219775
sS'/html/body/rss/channel/link'
p291
F4.965784284662088
sS'/html/body/div/div/ul/li/div/div/p/span/em'
p292
F9.965784284662087
sS'/html/body/div/div/ul/li/div/div/ul/li'
p293
F6.380821783940931
sS'/html/body/div/div/ul/li/div/div/pre/em/strong'
p294
F8.965784284662087
sS'/html/body/div/div/div/div/div/table/tbody/tr/td'
p295
F2.4035418604410146
sS'/html/body/div/div/ul/li/div/div/blockquote/p/strong'
p296
F7.965784284662087
sS'/html/body/div/div/div/div/div/h2/span'
p297
F3.899695094204315
sS'/html/body/div/div/div/div/a/img'
p298
F8.380821783940931
sS'/html/body/div/div/div/div/div/table/tbody/tr/th'
p299
F2.41119543298445
sS'/html/body/div/div/ul/li/div/strong'
p300
F7.965784284662087
sS'/html/body/div/div/ul/li/div/div/span/font/p/font/br'
p301
F9.965784284662087
sS'/html/body/div/div/ul/li/div/div/font/strong/br'
p302
F9.965784284662087
sS'/html/body/div/div/ul/li/div/div/table/tbody/tr/td/p/span'
p303
F9.965784284662087
sS'/html/body/div/div/div/div/div/div/a/span'
p304
F3.2515387669959646
sS'/html/body/div/div/ul/li/div/div/p/a/strong/span'
p305
F9.965784284662087
sS'/html/body/div/div/ul/li/div/div/p/span/span/span/span/span/a'
p306
F9.965784284662087
sS'/html/body/div/div/ul/li/div/div/span/font/p/font/strong/span'
p307
F9.965784284662087
sS'/html/body/div/div/div/div/div'
p308
F2.680382065799839
sS'/html/body/div/div/ul/li/div/div/p/a/span'
p309
F7.965784284662087
sS'/html/body/div/header/div/a/svg/g/g/defs/rect'
p310
F0.04692104738749238
sS'/html/body/div/div/ul/li/div/div/p/font/table/tbody/tr/td/code/pre'
p311
F9.965784284662087
sS'/html/body/div/div/ul/li/div/div/ol/li/span/span/span/span/span/a'
p312
F9.965784284662087
sS'/html/body/div/div/ul/li/div/div/pre/span/span'
p313
F8.380821783940931
sS'/html/body/div/div/ul/li/div/div/ol/li/p/strong/span/span/span/span/span'
p314
F9.965784284662087
sS'/html/body/div/div/ul/li/div/div/h2/font/font/p'
p315
F9.965784284662087
sS'/html/body/div/div/ul/li/div/div/ul/li/a/span/span'
p316
F8.965784284662087
sS'/html/body/div/div/ul/li/div/div/p/span/span/span/span/span/span'
p317
F8.965784284662087
sS'/html/body/div/div/ul/li/div/div/p/span/span/ins/span'
p318
F9.965784284662087
sS'/html/body/div/div/ul/li/div/div/font/p'
p319
F8.965784284662087
sS'/html/body/div/div/span'
p320
F0.32915966411843833
sS'/html/body/div/div/ul/li/div/div/blockquote/pre'
p321
F6.380821783940931
sS'/html/body/div/div/ul/li/div/div/ol/li/p/b/span/span'
p322
F9.965784284662087
sS'/html/body/div/div/ul/li/div/div/p/strong/span/span/span/span/span'
p323
F9.965784284662087
sS'/html/body/div/div/ul/li/div/div/ul/li/span/a/span'
p324
F8.965784284662087
sS'/html/body/div/div/ul/li/div/div/b/span'
p325
F9.965784284662087
sS'/html/body/div/div/ul/li/div/div/p/strong/span/a/span'
p326
F9.965784284662087
sS'/html/body/rss/channel/item/title'
p327
F4.965784284662088
sS'/html/body/div/div/ul/li/div/div/p/font/b'
p328
F8.965784284662087
sS'/html/body/div/div/ul/li/div/div/p/span/ins/span'
p329
F9.965784284662087
sS'/html/body/div/div/ul/li/div/div/blockquote/span'
p330
F3.0588936890535687
sS'/html/body/div/div/div/div/div/img'
p331
F2.41119543298445
sS'/html/body/rss/channel/title'
p332
F4.965784284662088
sS'/html/body/div/div/ul/li/div/div/p/br'
p333
F2.582079992188035
sS'/html/body/div/div/div/form/p/input'
p334
F3.2515387669959646
sS'/html/body/div/div/h2'
p335
F2.41119543298445
sS'/html/body/div/div/ul/li/div/div/h2/font/font/font/font/p/font/font/font'
p336
F9.965784284662087
sS'/html/body/div/div/ul/li/div/div/h1/span/span/span/span'
p337
F9.965784284662087
sS'/html/body/div/div/ul/li/div/div/ul/li/pre'
p338
F9.965784284662087
sS'/html/body/div/div/div/h1'
p339
F2.107803289534515
sS'/html/body/div/div/ul/li/div/div/font/p/font'
p340
F9.965784284662087
sS'/html/body/div/div/div/form/div/div/label'
p341
F2.539519529959989
sS'/html/body/div/div/ul/li/div/div/p/a/span/span'
p342
F9.965784284662087
sS'/html/body/div/div/ul/li/div/div/p/em'
p343
F6.265344566520995
sS'/html/body/div/div/ul/li/div/div/ul/li/em'
p344
F9.965784284662087
sS'/html/body/div/div/ul/li/div/div/p/span/span/span/a'
p345
F8.965784284662087
sS'/html/body/div/div/div/div/table/thead/tr/th/a'
p346
F3.2243172982609405
sS'/html/body/div/div/div/div/div/div/h3/span/a'
p347
F3.8365012677171206
sS'/html/body/div/div/ul/li/div/div/ul/li/a/br'
p348
F9.965784284662087
sS'/html/body/div/div/div/div/table/tbody/tr/td/h4/a'
p349
F8.965784284662087
sS'/html/body/div/div/ul/li/div/div/ul/li/span/span'
p350
F9.965784284662087
sS'/html/body/div/div/ul/li/div/div/blockquote'
p351
F9.965784284662087
sS'/html/body/div/div/div'
p352
F0.6326289343514707
sS'/html/body/div/div/div/span'
p353
F1.5649048483799028
sS'/html/body/div/div/ul/li/div/div/table/tbody/tr/td'
p354
F8.965784284662087
sS'/html/body/div/div/ul/li/div/div/h1/span/span/span'
p355
F9.965784284662087
sS'/html/body/div/div/ul/li/div/div/strong/font/font'
p356
F9.965784284662087
sS'/html/body/div/div/div/div/div/div/table/thead/tr/th'
p357
F2.41119543298445
sS'/html/body/div/div/ul/li/div/div/br'
p358
F6.058893689053569
sS'/html/body/div/nav/div/ul/li/div/div/h2'
p359
F0.04692104738749238
sS'/html/body/div/div/ul/li/div/div/u/font/p'
p360
F9.965784284662087
sS'/html/body/div/div/ul/li/div/div/h1/hr'
p361
F9.965784284662087
sS'/html/body/div/div/div/div/div/div/div/div/p/strong'
p362
F9.965784284662087
sS'/html/body/div/div'
p363
F0.32915966411843833
sS'/html/body/div/div/div/div/select/optgroup/option'
p364
F8.965784284662087
sS'/html/body/div/div/div/div/table/tbody/tr/td/h2/a'
p365
F3.2515387669959646
sS'/html/body/div'
p366
F0.32915966411843833
sS'/html/body/div/div/ul/li/div/div/p/strong/font/span'
p367
F9.965784284662087
sS'/html/body/div/div/ul/li/div/div/h3/span/strong/a'
p368
F9.965784284662087
sS'/html/body/div/div/ul/li/div/div/p/span/strong/font'
p369
F9.965784284662087
sS'/html/body/div/div/ul/li/div/div/h3/span/span/span/strong/span/a'
p370
F9.965784284662087
sS'/html/body/div/div/div/div/p/br'
p371
F7.643856189774724
sS'/html/body/div/div/ul/li/div/div/p/span/span/span/br'
p372
F8.965784284662087
sS'/html/body/div/div/ul/li/ul/li/a'
p373
F1.1297339296040172
sS'/html/body/div/div/ul/li/div/div/h3/span/a'
p374
F9.965784284662087
sS'/html/body/div/div/div/div/form/div/div/p/label'
p375
F4.573466861883327
sS'/html/body/div/div/ul/li/div/div/h3/span/strong/span/span'
p376
F9.965784284662087
sS'/html/body/div/div/ul/li/div/div/blockquote/p/em/strong'
p377
F9.965784284662087
sS'/html/body/div/div/ul/li/div/div/h3/strong/span/span/span/span'
p378
F9.965784284662087
sS'/html/body/div/div/ul/li/div/div/font/p/b/font'
p379
F9.965784284662087
sS'/html/body/div/div/div/div/form/div/div/label'
p380
F4.573466861883327
sS'/html/body/div/div/div/div/form/div/div/input'
p381
F4.573466861883327
sS'/html/body/div/div/ul/li/div/div/ol/li/p/strong/span/span/span'
p382
F9.965784284662087
sS'/html/body/div/div/ul/li/div/div/ul/li/a/strong'
p383
F9.965784284662087
sS'/html/body/div/div/ul/li/div/div/p/strong/strong/strong/strong/strong/strong/strong/strong'
p384
F9.965784284662087
sS'/html/body/div/div/ul/li/div/div/ol/li/a/span/span'
p385
F9.965784284662087
sS'/html/body/div/div/ul/li/div/div/blockquote/strong'
p386
F7.158429362604482
sS'/html/head/title'
p387
F0.04692104738749238
sS'/html/body/div/div/div/div/form/div/input'
p388
F4.573466861883327
sS'/html/body/div/div/ul/li/div/div/blockquote/a/strong'
p389
F9.965784284662087
sS'/html/body/div/div/div/div/ul/li/a'
p390
F0.9186603725480613
sS'/html/body/div/div/div/div/ul/li'
p391
F2.41119543298445
sS'/html/body/div/div/ul/li/div/div/h1/span'
p392
F9.965784284662087
sS'/html/body/div/footer/div/ul/li/h2/a/svg/path'
p393
F0.04692104738749238
sS'/html/body/div/div/ul/li/div/div/ol/li'
p394
F6.965784284662088
sS'/html/body/div/div/ul/li/div/div/h1/a'
p395
F9.965784284662087
sS'/html/body/div/div/ul/li/div/div/h2/i'
p396
F7.380821783940932
sS'/html/body/div/div/div/div/div/ul/li/a'
p397
F1.971430847803229
sS'/html/body/div/div/ul/li/div/div/p/strong/font'
p398
F9.965784284662087
sS'/html/body/div/div/div/div/form/div/h4'
p399
F4.573466861883327
sS'/html/body/div/div/ul/li/div/div/pre/span/em/strong'
p400
F8.965784284662087
sS'/html/body/div/div/div/form/div/label'
p401
F2.539519529959989
sS'/html/body/div/header/div/a'
p402
F0.04692104738749238
sS'/html/body/div/div/div/div/div/div/div/div/h4/a'
p403
F9.965784284662087
sS'/html/body/div/div/ul/li/div/div/p/span/blockquote/pre/span/span'
p404
F9.965784284662087
sS'/html/body/div/div/ul/li/div/div/h2/font/font/font/font/font'
p405
F9.965784284662087
sS'/html/body/div/div/ul/li/div/div/font/font/p'
p406
F8.965784284662087
sS'/html/body/div/div/div/ul/li'
p407
F3.2515387669959646
sS'/html/body/div/div/ul/li/div/div/table/tbody/tr/td/p'
p408
F8.965784284662087
sS'/html/body/script'
p409
F0.32915966411843833
sS'/html/body/div/div/ul/li/div/div/p/strong'
p410
F3.899695094204315
sS'/html/body/div/div/ul/li/div/div/p/font/strong'
p411
F9.965784284662087
sS'/html/body/div/div/ul/li/div/div/p'
p412
F1.1909972250609138
sS'/html/body/div/div/ul/li/div/div/blockquote/p/span/br'
p413
F9.965784284662087
sS'/html/body/div/div/ul/li/div/div/h1/span/span'
p414
F9.965784284662087
sS'/html/body/div/div/ul/li/div/div/a'
p415
F8.380821783940931
sS'/html/body/rss/channel/item/guid'
p416
F4.965784284662088
sS'/html/body/div/div/ul/li/div/div/pre/span'
p417
F5.965784284662088
sS'/html/body/div/div/ul/li/div/div/p/span/span/span/strong/span'
p418
F9.965784284662087
sS'/html/body/div/div/ul/li/div/div/h3/span/span/a'
p419
F9.965784284662087
sS'/html/body/div/div/ul/li/div/div/p/a/strong'
p420
F7.643856189774724
sS'/html/body/div/div/ul/li/div/div/p/font/b/font'
p421
F8.965784284662087
sS'/html/body/div/div/ul/li/div/div/p/span/span/br'
p422
F6.643856189774725
sS'/html/body/div/div/ul/li/div/div/ul/li/span/span/br'
p423
F9.965784284662087
sS'/html/body/div/div/ul/li/div/div/font/font'
p424
F9.965784284662087
sS'/html/body/div/nav/div/ul/li/a'
p425
F0.04692104738749238
sS'/html/body/div/div/div/h1/span'
p426
F3.2243172982609405
sS'/html/body/div/div/ul/li/div/div/ol/li/span/span/a/span/span'
p427
F9.965784284662087
sS'/html/body/div/div/ul/li/div/div/p/b/font'
p428
F9.965784284662087
sS'/html/body/div/div/div/div/form/div/div'
p429
F4.573466861883327
sS'/html/body/div/header/div/a/svg/g/g/clippath/use'
p430
F0.04692104738749238
sS'/html/body/div/div/ul/li/div/div/p/a/span/span/strong'
p431
F9.965784284662087
sS'/html/body/div/div/ul/li/div/div/ol/li/p/span/span'
p432
F9.965784284662087
sS'/html/body/div/div/div/div/div/div/h4'
p433
F3.8365012677171206
sS'/html/body/div/div/div/div/div/div/h3'
p434
F2.41119543298445
sS'/html/body/div/div/div/div/div/div/h2'
p435
F3.197599959885161
sS'/html/body/div/div/ul/li/div/div/h3/span/span'
p436
F9.965784284662087
sS'/html/body/div/div/ul/li/div/div/h3/a'
p437
F8.965784284662087
sS'/html/body/div/div/ul/li/div/div/ol/li/span/span'
p438
F9.965784284662087
sS'/html/body/div/div/ul/li/div/div/p/span/span/span/span'
p439
F7.965784284662087
sS'/html/body/div/div/ul/li/div/div/span/a/font'
p440
F9.965784284662087
sS'/html/body/div/div/ul/li/div/div/ol/li/span/span/span/span'
p441
F9.965784284662087
sS'/html/body/div/div/ul/li/div/div/ul/li/p/span/a/span'
p442
F9.965784284662087
sS'/html/body/div/div/ul/li/div/div/pre/span/br'
p443
F7.643856189774724
sS'/html/body/div/div/ul/li/div/div/table/tbody/tr/td/pre/span'
p444
F8.380821783940931
sS'/html/body/div/div/ul/li/div/div/blockquote/em'
p445
F9.965784284662087
s.