(dp0
S'/html/body/div/div/div/p/a'
p1
F1.9942176474059938
sS'/html/body/div/nav/div/ul/li/div/div/ul/li/a'
p2
F0.11922400847302655
sS'/html/body/div/div/div/div/ul/li/a/span'
p3
F1.9942176474059938
sS'/html/body/div/div/div/form/div/div/input'
p4
F2.665381183176454
sS'/html/body/div/div/ul/li/div/h3/a'
p5
F1.6201519291834563
sS'/html/body/div/div/div/div/div/div/div/div/a/img'
p6
F9.960001932068081
sS'/html/body/div/div/ul/li/div/div/h2/em'
p7
F8.960001932068081
sS'/html/body/div/div/div/div/div/div/h4'
p8
F2.5762976395940287
sS'/html/body/div/header/div/div/a/svg/circle'
p9
F0.11922400847302655
sS'/html/body/div/footer/div/ul/li/a'
p10
F0.11922400847302655
sS'/html/body/div/div/ul/li/div/div/p/i/b'
p11
F9.960001932068081
sS'/html/body/div/div/div/div/table/tbody/tr/td/h4/a'
p12
F7.960001932068081
sS'/html/body/div/div/ul/li/div/div/p/span'
p13
F4.259562213926989
sS'/html/body/div/div/div/div/div/table/tbody/tr/td'
p14
F2.810254812563399
sS'/html/body/div/div/div'
p15
F1.0989150260726872
sS'/html/body/div/div/div/div/table/tbody/tr/td/p/a'
p16
F2.508790820235752
sS'/html/body/div/div/div/h1'
p17
F2.07735888270624
sS'/html/body/div/div/ul/li/div/div/h3'
p18
F7.638073837180719
sS'/html/body/div/div/ul/li/div/div/h2'
p19
F7.960001932068081
sS'/html/body/div/div/ul/li/div/div/h1'
p20
F7.152647010010477
sS'/html/body/div/header/div/a/svg/g/g/path'
p21
F0.11922400847302655
sS'/html/body/div/div/div/span'
p22
F1.9942176474059938
sS'/html/body/div/div/ul/li/div/div/em/font'
p23
F9.960001932068081
sS'/html/body/div/div/ul/li/div/div/p/strong/img'
p24
F7.375039431346925
sS'/html/body/div/div/ul/li/div/p/a'
p25
F1.6201519291834563
sS'/html/body/div/div/div/form/div/div/label'
p26
F2.665381183176454
sS'/html/body/div/div/div/div/ul/li'
p27
F2.8204505796692874
sS'/html/body/div/div/div/div/div/div/table/thead/tr/th'
p28
F2.8204505796692874
sS'/html/body/div/div/ul/li/div/div/br'
p29
F5.960001932068081
sS'/html/body/div/nav/div/a'
p30
F0.11922400847302655
sS'/html/body/div/div/ul/li/div/div/font'
p31
F9.960001932068081
sS'/html/body/noscript/a/img'
p32
F0.39014632373713315
sS'/html/body/div/div/div/form/div/a'
p33
F2.665381183176454
sS'/html/body/div/div/ul/li/div/div/font/font/font/font'
p34
F8.960001932068081
sS'/html/body/div/div/ul/li/div/div/blockquote/p/span'
p35
F9.960001932068081
sS'/html/body/div/div/ul/li/div/div/font/font/font/font/p/br'
p36
F8.960001932068081
sS'/html/body/div/div/ul/li/div/div/font/font/font/font/strong/font'
p37
F8.960001932068081
sS'/html/body/rss/channel/item/pubdate'
p38
F6.500570313430783
sS'/html/body/div/div/div/div/div/div/a'
p39
F1.5762976395940287
sS'/html/body/div/div/ul/li/div/div/p/a/br'
p40
F7.152647010010477
sS'/html/body/div/div/div/div/span'
p41
F5.316145742293356
sS'/html/body/rss/channel/item/link'
p42
F3.656221183890978
sS'/html/body/div/div/ul/li/div/div/ul/li/strong/a'
p43
F7.960001932068081
sS'/html/body/div/div/ul/li/div/div/p/a/span/em/strong'
p44
F9.960001932068081
sS'/html/body/p/style'
p45
F9.960001932068081
sS'/html/body/div/div/div/div/table/tbody/tr/td/div'
p46
F2.508790820235752
sS'/html/body/div/form/input'
p47
F0.39014632373713315
sS'/html/body/div/div'
p48
F0.39014632373713315
sS'/html/body/div/div/ul/li/div/div/blockquote/p/i/b'
p49
F9.960001932068081
sS'/html/body/div/div/ul/li/div/i/b/a'
p50
F9.960001932068081
sS'/html/body/div/div/ul/li/div/div/center/p/i'
p51
F7.375039431346925
sS'/html/body/div/div/ul/li/div/p/span/span'
p52
F1.6201519291834563
sS'/html/body/div/div/div/a'
p53
F1.0682182288497708
sS'/html/body/div/div/ul/li/div/div/p'
p54
F1.6979070866979016
sS'/html/body/div/div/ul/li/div/div/p/span/span/b'
p55
F8.375039431346924
sS'/html/body/div/div/ul/li/div/div/p/strong/span'
p56
F9.960001932068081
sS'/html/body/div/div/ul/li/div/div/ol/li/span/span/strong'
p57
F7.638073837180719
sS'/html/body/div/div/ul/li/div/div/span/span'
p58
F9.960001932068081
sS'/html/body/div/div/div/div/form/div/p/input'
p59
F3.452207291869385
sS'/html/body/div/div/ul/li/div/div/hr'
p60
F6.500570313430783
sS'/html/body/div/div/div/p'
p61
F5.960001932068081
sS'/html/body/div/div/ul/li/div/div/h2/i'
p62
F7.960001932068081
sS'/html/body/div/div/div/div/select/optgroup/option'
p63
F5.316145742293356
sS'/html/body/div/div/div/div/div/div/span'
p64
F2.8204505796692874
sS'/html/body/div/div/ul/li/div/div/p/span/b'
p65
F7.638073837180719
sS'/html/head/meta'
p66
F0.11922400847302655
sS'/html/body/div/div/div/div/table/tbody/tr/td/h2/a'
p67
F2.508790820235752
sS'/html/body/div/div/ul/li/div/div/blockquote/blockquote/span/span'
p68
F9.960001932068081
sS'/html/body/div'
p69
F0.39014632373713315
sS'/html/body/div/div/div/form/div/br'
p70
F2.665381183176454
sS'/html/body/div/header/div/a/svg/g/g/clippath/use'
p71
F0.11922400847302655
sS'/html/body/div/div/ul/li/div/div/blockquote/h1'
p72
F9.960001932068081
sS'/html/body/div/div/ul/li/div/div/h1/br'
p73
F9.960001932068081
sS'/html/body/div/noscript/img'
p74
F2.665381183176454
sS'/html/body/div/div/ul/li/div/div/blockquote/h4'
p75
F3.405413080390444
sS'/html/body/div/div/ul/li/div/div/pre/strong/br'
p76
F7.638073837180719
sS'/html/body/div/div/ul/li/div/p/b/i'
p77
F7.638073837180719
sS'/html/body/div/div/div/div/div/div/table/tbody/tr/td'
p78
F2.8204505796692874
sS'/html/body/div/div/div/div/div/h2'
p79
F1.6932153913731796
sS'/html/body/div/div/ul/li/div/div/p/span/a'
p80
F6.500570313430783
sS'/html/body/div/div/ul/li/div/div/span'
p81
F9.960001932068081
sS'/html/body/div/div/ul/li/div/b'
p82
F5.316145742293356
sS'/html/body/div/div/ul/li/div/div/p/span/span/span/span/em'
p83
F9.960001932068081
sS'/html/body/div/div/ul/li/div/div/p/span/a/span/span'
p84
F9.960001932068081
sS'/html/body/div/header/div/div/input'
p85
F0.11922400847302655
sS'/html/body/div/div/div/div/form/div/select/option'
p86
F3.452207291869385
sS'/html/body/div/div/ul/li/div/div/p/span/span/span/span/a/span'
p87
F9.960001932068081
sS'/html/body/div/div/ul/li/div/div/p/strong/em'
p88
F7.638073837180719
sS'/html/body/div/div/ul/li/div/div/p/span/a/span'
p89
F8.960001932068081
sS'/html/body/div/div/ul/li/div/div/ol/li/br'
p90
F7.375039431346925
sS'/html/body/div/div/div/div/p/br'
p91
F6.375039431346925
sS'/html/body/div/div/ul/li/div/i'
p92
F5.8725390908177415
sS'/html/body/div/div/div/h1/a'
p93
F2.721597192743002
sS'/html/body/div/div/div/div/div/table/thead/tr/th'
p94
F9.960001932068081
sS'/html/body/div/div/ul/li/div/h3'
p95
F1.6201519291834563
sS'/html/body/div/div/div/div/table/tbody/tr/td/br'
p96
F7.960001932068081
sS'/html/body/div/header/div/div/div/a'
p97
F0.11922400847302655
sS'/html/body/div/div/div/div/p/b'
p98
F9.960001932068081
sS'/html/body/div/div/ul/li/div/div/p/span/span/a'
p99
F7.152647010010477
sS'/html/body/div/div/ul/li/div/p/span/a'
p100
F1.6201519291834563
sS'/html/body/div/div/ul/li/div/div/p/a/em/strong/span'
p101
F9.960001932068081
sS'/html/body/div/div/div/div/form/p/input'
p102
F9.960001932068081
sS'/html/body/div/div/ul/li/div/div/pre/span/strong'
p103
F7.638073837180719
sS'/html/body/div/div/ul/li/div/div/p/em/strong'
p104
F7.960001932068081
sS'/html/body/div/div/ul/li/div/div/p/span/span/a/span'
p105
F9.960001932068081
sS'/html/body/div/div/ul/li/ul/li/a'
p106
F1.6201519291834563
sS'/html/head/script'
p107
F0.12079814397113699
sS'/html/body/div/div/div/div/form/div/div/p/label'
p108
F3.452207291869385
sS'/html/body/div/div/ul/li/div/img'
p109
F6.500570313430783
sS'/html/body/div/div/div/div/div/h2/span/a'
p110
F2.8204505796692874
sS'/html/body/div/div/ul/li/div/div/font/font/em'
p111
F9.960001932068081
sS'/html/body/div/div/ul/li/div/div/blockquote/span/span'
p112
F9.960001932068081
sS'/html/body/div/div/div/div/div/table/tbody/tr/td/a'
p113
F2.8204505796692874
sS'/html/head/link'
p114
F0.11922400847302655
sS'/html/body/div/div/ul/li/div/div/font/p/em'
p115
F9.960001932068081
sS'/html/body/div/div/ul/li/div/div/p/a/em/strong'
p116
F7.152647010010477
sS'/html/body/div/div/ul/li/div/div/p/span/br'
p117
F6.638073837180718
sS'/html/body/div/div/ul/li/div/div/font/font/font/font/p/font/br'
p118
F8.960001932068081
sS'/html/body/div/footer/div/div'
p119
F0.11922400847302655
sS'/html/body/div/div/ul/li/div/div/font/span/span'
p120
F9.960001932068081
sS'/html/body/div/div/ul/li/div'
p121
F4.436439976011068
sS'/html/body/div/div/div/form/div/input'
p122
F2.665381183176454
sS'/html/body/div/nav/div/ul/li/div/div/h2'
p123
F0.11922400847302655
sS'/html/body/div/div/ul/li/div/div/p/img'
p124
F4.533737177365983
sS'/html/body/div/div/ul/li/div/div/table/tbody/tr/td/pre/br'
p125
F9.960001932068081
sS'/html/body/div/div/ul/li/div/div/ol/li/p/font/font'
p126
F9.960001932068081
sS'/html/body/div/div/div/div/p/strong'
p127
F9.960001932068081
sS'/html/body/div/div/div/form/h2'
p128
F2.665381183176454
sS'/html/body/div/div/ul/li/div/div/font/p/em/strong'
p129
F9.960001932068081
sS'/html/body/div/div/div/div/table/tbody/tr/td/p/b/a/img'
p130
F5.3750394313469245
sS'/html/body/div/div/ul/li/div/div/p/span/span/span/a/span'
p131
F9.960001932068081
sS'/html/body/div/div/div/div/form/div/div/label'
p132
F3.452207291869385
sS'/html/body/div/div/div/div/form/div/div/input'
p133
F3.452207291869385
sS'/html/body/div/div/div/div/a/img'
p134
F6.500570313430783
sS'/html/body/div/footer/div/ul/li/span'
p135
F0.11922400847302655
sS'/html/body/div/div/ul/li/div/div/blockquote/blockquote/span/a'
p136
F9.960001932068081
sS'/html/body/div/div/div/form/input'
p137
F2.665381183176454
sS'/html/body/div/div/ul/li/div/div/p/font/br'
p138
F9.960001932068081
sS'/html/body/div/div/ul/li/div/div/ol/li'
p139
F7.960001932068081
sS'/html/body/div/div/div/div/form/div/h4'
p140
F3.452207291869385
sS'/html/body/div/div/ul/li/div/div/font/font/br'
p141
F8.960001932068081
sS'/html/body/div/div/ul/li/div/div/center/p/span/em'
p142
F7.375039431346925
sS'/html/body/div/div/ul/li/div/i/br'
p143
F9.960001932068081
sS'/html/head/title'
p144
F0.11922400847302655
sS'/html/body/div/div/div/div/div/img'
p145
F2.8204505796692874
sS'/html/body/p/meta'
p146
F9.960001932068081
sS'/html/body/div/div/ul/li/div/div/p/strong/a'
p147
F9.960001932068081
sS'/html/body/rss/channel/link'
p148
F3.656221183890978
sS'/html/body/div/div/div/div/form/div/input'
p149
F3.452207291869385
sS'/html/body/div/div/ul/li/div/div/p/span/em'
p150
F6.790076930625769
sS'/html/body/div/div/ul/li/div/div/blockquote/blockquote/span/em'
p151
F9.960001932068081
sS'/html/body/noscript/img'
p152
F0.39014632373713315
sS'/html/body/div/div/div/div/div/div/h3'
p153
F2.8204505796692874
sS'/html/body/div/div/ul/li/div/div/p/em/em'
p154
F9.960001932068081
sS'/html/body/div/footer/div/ul/li/h2/a/svg/path'
p155
F0.11922400847302655
sS'/html/body/div/div/div/div/select/option'
p156
F5.316145742293356
sS'/html/body/div/div/div/div/div/div/h2'
p157
F2.2875765900965854
sS'/html/body/div/div/ul/li/div/div/blockquote/a'
p158
F9.960001932068081
sS'/html/body/div/div/ul/li/div/div/blockquote/span/a'
p159
F9.960001932068081
sS'/html/body/div/div/ul/li/div/div/font/font/font/font/br'
p160
F8.960001932068081
sS'/html/body/div/div/div/div/form/h2/a'
p161
F3.452207291869385
sS'/html/body/div/div/ul/li/div/div/blockquote/p/strong'
p162
F9.960001932068081
sS'/html/body/div/div/ul/li/div/div/h2/a'
p163
F9.960001932068081
sS'/html/body/div/div/ul/li/div/div/p/br'
p164
F3.452207291869385
sS'/html/body/div/div/ul/li/div/div/pre'
p165
F3.452207291869385
sS'/html/body/div/div/ul/li/div/div/blockquote/p/i'
p166
F5.638073837180719
sS'/html/body/div/div/div/div/form/h3/a'
p167
F3.452207291869385
sS'/html/body/div/div/ul/li/div/div/blockquote/blockquote/h4'
p168
F8.960001932068081
sS'/html/body/div/div/div/div/div/table/tbody/tr/th'
p169
F2.8204505796692874
sS'/html/body/div/div/ul/li/div/div/p/span/span/span'
p170
F7.152647010010477
sS'/html/body/div/div/ul/li/div/div/blockquote/p'
p171
F4.567684509289321
sS'/html/body/div/div/ul/li/div/a'
p172
F1.6201519291834563
sS'/html/body/div/div/ul/li/div/div/p/i/br'
p173
F9.960001932068081
sS'/html/body/div/div/ul/li/div/div/pre/br'
p174
F6.638073837180718
sS'/html/body/div/div/ul/li/div/div/ul/li/a/strong'
p175
F7.960001932068081
sS'/html/body/p/link'
p176
F9.960001932068081
sS'/html/body/div/div/div/div/br'
p177
F9.960001932068081
sS'/html/body/div/div/ul/li/div/div/font/font/p/strong'
p178
F9.960001932068081
sS'/html/body/div/div/ul/li/div/div/h2/strong/span'
p179
F9.960001932068081
sS'/html/body/div/div/ul/li/div/div/p/b/a'
p180
F7.960001932068081
sS'/html/body/div/div/ul/li/div/strong'
p181
F6.638073837180718
sS'/html/body/div/div/ul/li/div/div/ul/li'
p182
F7.375039431346925
sS'/html/body/div/div/div/div/table/tbody'
p183
F8.960001932068081
sS'/html/body/div/div/h1'
p184
F2.665381183176454
sS'/html/body/div/div/div/div/p'
p185
F1.656221183890978
sS'/html/body/div/div/ul/li/div/div/p/b/i'
p186
F9.960001932068081
sS'/html/body/div/div/ul/li/div/i/b/br'
p187
F9.960001932068081
sS'/html/body/div/div/ul/li/div/div/pre/strong'
p188
F6.790076930625769
sS'/html/body/div/div/ul/li/div/div/p/b'
p189
F7.152647010010477
sS'/html/body/div/div/ul/li/div/div/table/tbody/tr/td/p/span'
p190
F7.375039431346925
sS'/html/body/div/div/div/div/div/div/a/span'
p191
F2.3675448948000004
sS'/html/body/div/div/ul/li/div/b/a'
p192
F6.152647010010477
sS'/html/body/div/div/ul/li/div/br'
p193
F2.7408334116059194
sS'/html/body/div/div/div/div/div/ul/li/a'
p194
F1.825575611847155
sS'/html/body/div/header/div/a'
p195
F0.11922400847302655
sS'/html/body/div/div/ul/li/div/div/p/a/span'
p196
F6.960001932068081
sS'/html/body/div/div/ul/li/div/div/p/font'
p197
F9.960001932068081
sS'/html/body/div/div/ul/li/div/div/p/span/span/strong'
p198
F7.375039431346925
sS'/html/body/div/div/ul/li/div/div/p/span/span/em'
p199
F9.960001932068081
sS'/html/body/div/div/ul/li/div/div/font/font/font/font/font'
p200
F8.960001932068081
sS'/html/body/div/div/ul/li/div/div/font/em/font'
p201
F9.960001932068081
sS'/html/body/rss/channel/item/description'
p202
F3.656221183890978
sS'/html/body/div/div/h1/span'
p203
F3.0896372124846767
sS'/html/body/div/div/div/div/div/h2/span'
p204
F2.8307189151231147
sS'/html/body/div/div/a'
p205
F0.1934730234692163
sS'/html/body/div/div/div/div/table/tbody/tr/td/p/br'
p206
F5.3750394313469245
sS'/html/body/div/div/ul/li/div/div/p/b/span'
p207
F7.960001932068081
sS'/html/body/div/div/ul/li/div/div/font/p/strong/em'
p208
F9.960001932068081
sS'/html/body/div/div/div/ul/li'
p209
F2.508790820235752
sS'/html/body/div/div/ul/li/div/div/blockquote/br'
p210
F7.152647010010477
sS'/html/body/div/div/ul/li/div/div/p/font/span'
p211
F9.960001932068081
sS'/html/body/div/div/ul/li/div/div/font/font/font'
p212
F8.960001932068081
sS'/html/body/div/div/ul/li/div/div/font/font/font/font/p/a/font'
p213
F8.960001932068081
sS'/html/body/div/div/ul/li/div/div/table/tbody/tr/td/pre/pre'
p214
F9.960001932068081
sS'/html/body/div/div/div/div/table/tbody/tr/td'
p215
F2.4761861548038246
sS'/html/body/script'
p216
F0.39014632373713315
sS'/html/body/div/div/ul/li/div/div/p/strong'
p217
F3.915607812709627
sS'/html/body/div/div/ul/li/div/div/ol/li/font'
p218
F9.960001932068081
sS'/html/body/div/div/div/div/p/a'
p219
F8.960001932068081
sS'/html/body/div/div/ul/li/div/div/pre/strong/span'
p220
F7.638073837180719
sS'/html/body/div/div/div/div/a'
p221
F5.316145742293356
sS'/html/body/div/div/ul/li/div/div/blockquote/h4/a'
p222
F9.960001932068081
sS'/html/body/div/div/ul/li/div/div/h3/strong'
p223
F7.960001932068081
sS'/html/body/div/div/div/div/div/div/h3/span/a'
p224
F2.5762976395940287
sS'/html/body/div/div/div/div/table/tbody/tr/td/a'
p225
F6.960001932068081
sS'/html/body/div/div/div/form/div/div/button'
p226
F2.665381183176454
sS'/html/body/div/div/div/div/div'
p227
F1.7026140893754294
sS'/html/body/div/div/ul/li/div/div/center/p'
p228
F7.375039431346925
sS'/html/body/div/div/div/div/table/tbody/tr/td/p/span'
p229
F6.25956221392699
sS'/html/body/div/div/ul/li/div/div/a'
p230
F8.960001932068081
sS'/html/body/div/div/ul/li/div/div'
p231
F1.6201519291834563
sS'/html/body/div/div/h1/a'
p232
F1.9942176474059938
sS'/html/body/div/div/ul/li/div/div/ol/li/font/p'
p233
F9.960001932068081
sS'/html/body/div/div/ul/li/div/div/ol/li/span/strong'
p234
F7.638073837180719
sS'/html/body/div/div/ul/li/div/div/blockquote/span/em'
p235
F9.960001932068081
sS'/html/body/rss/channel/id'
p236
F3.656221183890978
sS'/html/body/div/div/ul/li/div/div/blockquote/em'
p237
F8.960001932068081
sS'/html/body/div/footer/div/ul/li/h2'
p238
F0.11922400847302655
sS'/html/body/div/div/div/div/div/div/ul/li/span'
p239
F2.893912741610308
sS'/html/body/div/div/ul/li/div/div/ul/li/em'
p240
F8.375039431346924
sS'/html/body/div/div/ul/li/div/div/pre/span'
p241
F6.638073837180718
sS'/html/body/div/div/ul/li/div/div/blockquote/p/em'
p242
F8.960001932068081
sS'/html/body/div/div/div/div/div/div/div/div/p/strong'
p243
F9.960001932068081
sS'/html/body/div/div/ul/li/div/div/p/span/span/span/strong'
p244
F7.375039431346925
sS'/html/body/div/div/ul/li/div/div/p/a/strong'
p245
F7.638073837180719
sS'/html/body/div/div/ul/li/div/div/p/span/span/span/span/span/span'
p246
F9.960001932068081
sS'/html/body/div/header/div/a/svg/path'
p247
F0.11922400847302655
sS'/html/body/div/div/div/div/div/div'
p248
F9.960001932068081
sS'/html/body/div/div/div/div/form/h3/span'
p249
F3.452207291869385
sS'/html/body/rss/channel/item/updated'
p250
F3.656221183890978
sS'/html/body/div/div/ul/li/div/div/font/p'
p251
F9.960001932068081
sS'/html/body/div/div/ul/li/div/div/p/span/span/br'
p252
F6.375039431346925
sS'/html/body/div/header/div/a/svg/g/g/defs/rect'
p253
F0.11922400847302655
sS'/html/body/div/div/ul/li/div/p/span'
p254
F6.152647010010477
sS'/html/body/div/div/div/div/div/div/h3/span'
p255
F2.5762976395940287
sS'/html/body/div/div/ul/li/div/div/blockquote/pre'
p256
F9.960001932068081
sS'/html/body/div/div/div/h2/span'
p257
F6.500570313430783
sS'/html/body/div/div/ul/li/div/div/p/em/span'
p258
F9.960001932068081
sS'/html/body/div/div/ul/li/div/div/p/a/span/strong'
p259
F9.960001932068081
sS'/html/body/div/div/ul/li/div/div/pre/a'
p260
F9.960001932068081
sS'/html/body/div/div/ul/li/div/div/p/span/span'
p261
F5.567684509289321
sS'/html/body/div/div/div/form/p/input'
p262
F2.508790820235752
sS'/html/body/div/div/ul/li/div/div/blockquote/span/strong'
p263
F9.960001932068081
sS'/html/body/div/div/div/div'
p264
F1.4482492783007015
sS'/html/head/style'
p265
F0.12079814397113699
sS'/html/body/div/div/div/h1/span'
p266
F2.3161457422933562
sS'/html/body/div/div/div/h2'
p267
F0.8619698491075541
sS'/html/body/div/div/ul/li/div/div/blockquote/blockquote/p/i'
p268
F9.960001932068081
sS'/html/body/div/div/div/form/div/label'
p269
F2.665381183176454
sS'/html/body/div/div/span'
p270
F0.39014632373713315
sS'/html/body/div/div/div/div/div/div/p/strong'
p271
F2.8204505796692874
sS'/html/body/div/div/ul/li/div/div/strong'
p272
F9.960001932068081
sS'/html/body/div/div/ul/li/div/div/p/em/br'
p273
F7.960001932068081
sS'/html/body/div/div/ul/li/div/div/table/tbody/tr/td/pre'
p274
F8.375039431346924
sS'/html/body/div/nav/div/ul/li/a'
p275
F0.11922400847302655
sS'/html/body/div/div/div/div/form/div/div/h4'
p276
F3.452207291869385
sS'/html/body/div/div/ul/li/div/div/p/em/i/br'
p277
F8.375039431346924
sS'/html/body/div/div/div/div/form/div/div/p/input'
p278
F3.452207291869385
sS'/html/body/div/div/ul/li/div/div/font/font/font/br'
p279
F8.960001932068081
sS'/html/body/div/a'
p280
F2.8204505796692874
sS'/html/body/div/div/ul/li/div/div/font/br'
p281
F8.960001932068081
sS'/html/body/div/div/div/div/div/div/div/div/h4/a'
p282
F9.960001932068081
sS'/html/body/div/div/ul/li/div/div/p/em/strong/em'
p283
F9.960001932068081
sS'/html/body/div/header/div/div/a/svg/path'
p284
F0.11922400847302655
sS'/html/body/div/div/ul/li/div/div/blockquote/p/br'
p285
F7.638073837180719
sS'/html/body/div/div/div/div/form/div/div'
p286
F3.452207291869385
sS'/html/body/div/div/ul/li/div/div/font/span'
p287
F9.960001932068081
sS'/html/body/div/div/ul/li/div/div/pre/pre'
p288
F9.960001932068081
sS'/html/body/rss/channel/lastbuilddate'
p289
F3.656221183890978
sS'/html/body/div/script'
p290
F2.665381183176454
sS'/html/body/rss/channel/item/title'
p291
F3.656221183890978
sS'/html/body/div/div/ul/li/div/div/p/a'
p292
F2.4522072918693847
sS'/html/body/div/div/ul/li/div/div/center/h1/em'
p293
F7.375039431346925
sS'/html/body/div/div/ul/li/div/div/h2/br'
p294
F9.960001932068081
sS'/html/body/div/div/ul/li/div/div/blockquote/span'
p295
F3.405413080390444
sS'/html/body/div/div/div/div/h2'
p296
F0.8384684147280492
sS'/html/body/div/div/ul/li/div/div/blockquote/p/a'
p297
F7.152647010010477
sS'/html/body/rss/channel/description'
p298
F3.656221183890978
sS'/html/body/div/div/ul/li/div/div/p/strong/br'
p299
F5.790076930625769
sS'/html/body/div/div/ul/li/div/div/blockquote/blockquote/span'
p300
F8.960001932068081
sS'/html/body/div/div/ul/li/div/div/h1/span'
p301
F9.960001932068081
sS'/html/body/rss/channel/title'
p302
F3.656221183890978
sS'/html/body/div/div/ul/li/div/div/blockquote/strong'
p303
F6.960001932068081
sS'/html/body/div/div/ul/li/div/p'
p304
F1.6201519291834563
sS'/html/body/div/div/ul/li/div/div/p/span/span/span/em'
p305
F9.960001932068081
sS'/html/body/div/div/div/div/div/div/ul/li/a'
p306
F2.2875765900965854
sS'/html/body/div/div/div/div/table/thead/tr/th'
p307
F4.602449927449997
sS'/html/body/div/div/ul/li/div/div/h3/a'
p308
F6.960001932068081
sS'/html/body/div/div/h2'
p309
F2.8204505796692874
sS'/html/body/div/div/ul/li/div/div/ol/li/p/font/font/font'
p310
F9.960001932068081
sS'/html/body/div/div/ul/li/div/div/p/span/span/span/span'
p311
F8.375039431346924
sS'/html/body/div/div/div/div/table/thead/tr/th/a'
p312
F2.4761861548038246
sS'/html/body/div/div/ul/li/div/div/p/i'
p313
F7.638073837180719
sS'/html/body/div/div/div/div/div/div/div'
p314
F2.8204505796692874
sS'/html/body/div/div/div/div/form/div/p/label'
p315
F3.452207291869385
sS'/html/body/div/div/ul/li/div/a/img'
p316
F1.6201519291834563
sS'/html/body/div/div/ul/li/div/div/blockquote/blockquote/span/span/a'
p317
F9.960001932068081
sS'/html/body/div/div/ul/li/div/a/b'
p318
F5.8725390908177415
sS'/html/body/rss/channel/item/guid'
p319
F3.656221183890978
sS'/html/body/div/div/ul/li/div/div/font/em'
p320
F9.960001932068081
sS'/html/body/div/div/ul/li/div/div/ol/li/a'
p321
F7.375039431346925
sS'/html/body/div/div/ul/li/div/div/p/em'
p322
F5.3750394313469245
sS'/html/body/p/script'
p323
F9.960001932068081
sS'/html/body/div/div/ul/li/div/div/ul/li/a'
p324
F6.960001932068081
sS'/html/body/div/div/ul/li/div/div/p/span/strong'
p325
F6.790076930625769
sS'/html/body/div/div/ul/li/div/div/font/font/p/em'
p326
F9.960001932068081
sS'/html/body/div/div/div/div/ul/li/a'
p327
F1.1398229696528934
sS'/html/body/div/div/ul/li/div/div/blockquote/span/span/a'
p328
F9.960001932068081
sS'/html/body/div/div/ul/li/div/div/font/font/p'
p329
F9.960001932068081
sS'/html/body/div/div/ul/li/div/div/center/p/span'
p330
F7.375039431346925
sS'/html/body/div/div/ul/li/div/div/table/tbody/tr/td/p'
p331
F7.375039431346925
sS'/html/body/div/div/ul/li/div/div/p/span/span/em/strong'
p332
F9.960001932068081
sS'/html/body/div/div/ul/li/div/div/ol/li/span'
p333
F9.960001932068081
s.