(dp0
S'/html/body/div/div/div/div/div/table/tr/td/div/table/tr/td/div/div/div/span'
p1
F2.444784842672896
sS'/html/body/div/div/div/div/div/div/div/div/div/a'
p2
F0.42488528523519103
sS'/html/body/div/div/div/noscript/div/img'
p3
F2.444784842672896
sS'/html/body/div/div/div/div/div/p/i'
p4
F5.614709844115208
sS'/html/body/div/div/div/div/div/div/p/br'
p5
F5.614709844115208
sS'/html/body/div/div/div/div/div/p/a'
p6
F5.614709844115208
sS'/html/body/div/div/div/div/div/p/b'
p7
F5.029747343394052
sS'/html/body/div/div/div/div/form/div/div/noscript/p/a'
p8
F4.614709844115208
sS'/html/body/div/div/div/div/form/p/label/span'
p9
F6.614709844115209
sS'/html/body/div/div/div/div/table/tr/td/div/div/span'
p10
F6.614709844115209
sS'/html/body/div/div/div/div/div/div/div/div/div/div/ul/li/span'
p11
F3.1552782254779106
sS'/html/body/div/div/div/div/div/form/input'
p12
F2.7078192485066896
sS'/html/body/div/div/div/div/div/div/div/div/div/div/div/div/span/span'
p13
F6.614709844115209
sS'/html/body/div/div/div/div/div/table/tr/td/div/div/p/strong'
p14
F5.614709844115208
sS'/html/body/div/div/div/a'
p15
F0.014797001928080483
sS'/html/body/div/div/div/div/div/div/table/tbody/tr/td/a'
p16
F6.614709844115209
sS'/html/body/div/div/div/div/div/table/tr/td/div/div/p/img'
p17
F5.614709844115208
sS'/html/body/div/div/div/div/div/div/div/div/div/span'
p18
F0.660513533728333
sS'/html/body/div/div/div/div/div/table/tr/td/span'
p19
F6.614709844115209
sS'/html/body/div/div/div/div/div/div/span'
p20
F5.029747343394052
sS'/html/body/div/div/div/div/form/div/div/div/div/div/input'
p21
F5.029747343394052
sS'/html/body/div/div/div/div/div/table/tr/td/div/div'
p22
F6.614709844115209
sS'/html/head/meta'
p23
F0.014797001928080483
sS'/html/body/div/div/div/div/form/p/span'
p24
F6.614709844115209
sS'/html/body/div/div/div/div/div/div/div/div/div/p'
p25
F3.1552782254779106
sS'/html/body/div/div/div/div/table/tr/td/h1'
p26
F6.614709844115209
sS'/html/body/div/div/div/form/table/tr/td/input'
p27
F5.614709844115208
sS'/html/body/div/div/div/div/div/div/div/ul/li/a/span'
p28
F3.029747343394052
sS'/html/body/div/div/div/div/p/a'
p29
F5.029747343394052
sS'/html/body/div/div/div/div/p/b'
p30
F6.614709844115209
sS'/html/body/div/div/div/div/form/label'
p31
F6.614709844115209
sS'/html/body/div/div/div/div/div/div/div/div/div/div/div/div/span'
p32
F3.1552782254779106
sS'/html/head/script'
p33
F0.014797001928080483
sS'/html/body/div/div/div/div/div/form/div/input'
p34
F2.7078192485066896
sS'/html/body/div/div/div/div/b/a'
p35
F0.014797001928080483
sS'/html/body/div/div/div/div/div/div/ol/li'
p36
F2.3667823306716227
sS'/html/body/div/div/div/form/div/div/div/div/div/div/p/span'
p37
F6.614709844115209
sS'/html/body/div/div/div/div/div/div/div/ul/li/a/span/span'
p38
F3.292781749227846
sS'/html/body/feed/subtitle'
p39
F6.614709844115209
sS'/html/body/div/div/div/div/div/table'
p40
F6.614709844115209
sS'/html/body/div/div/div/div/div/p/br'
p41
F5.614709844115208
sS'/html/body/div/div/div/div/div/table/tr/td/div/table/tbody/tr/td/div/span/code'
p42
F5.614709844115208
sS'/html/body/div/div/div/form/div/input'
p43
F6.614709844115209
sS'/html/body/div/div/div/div/div/table/tr/td/div/table/tbody/tr/td/div/a/span'
p44
F6.614709844115209
sS'/html/body/div/div/div/form/div/div/div/div/div'
p45
F6.614709844115209
sS'/html/body/div/div/div/div/div/div/div/div/span'
p46
F4.614709844115208
sS'/html/body/div/div/div/div/div/div/div/p/em/a'
p47
F6.614709844115209
sS'/html/body/div/div/div/div/div/table/tr/td/div/div/p/em'
p48
F5.029747343394052
sS'/html/body/div/div/div/div/div/div/div/div/div/div/i'
p49
F6.614709844115209
sS'/html/body/div/div/div/div/div/div/div/br'
p50
F6.614709844115209
sS'/html/body/div/div/div/div/div/div/h3/span'
p51
F6.614709844115209
sS'/html/body/div/div/div/div/table/tr/td/span'
p52
F6.614709844115209
sS'/html/body/div/div/div/div/div/div/div/div/div/div/p'
p53
F6.614709844115209
sS'/html/body/div/div/div/div/div/table/tr/td/div/div/p/br'
p54
F5.614709844115208
sS'/html/body/div/div/div/div/div/div/table/tr/td/div/table/tbody/tr/td/div/span'
p55
F5.029747343394052
sS'/html/body/div/div/div/div/form/p/select/option'
p56
F6.614709844115209
sS'/html/body/div/div/div/form/div/div/div/div/div/script'
p57
F6.614709844115209
sS'/html/body/feed/entry/link'
p58
F6.614709844115209
sS'/html/body/div/div/div/div/a/div/div/i'
p59
F6.614709844115209
sS'/html/body/div/div/div/div/div/div/div/div/div/span/strong'
p60
F1.1228567477855336
sS'/html/body/div/div/div/div/div/div/div/div/a/div'
p61
F6.614709844115209
sS'/html/body/div/div/div/div/div/div/div/a/span'
p62
F4.614709844115208
sS'/html/body/div/div/div/div/div/div/div/h3/span'
p63
F3.1552782254779106
sS'/html/body/feed/entry/category'
p64
F6.614709844115209
sS'/html/body/div/div/div/div/table/tr/td/span/span'
p65
F5.029747343394052
sS'/html/body/div/div/div/div/table/tr/td/div/div/a/div/img'
p66
F6.614709844115209
sS'/html/body/feed/entry/updated'
p67
F6.614709844115209
sS'/html/body/div/div/div/div/div/form/div/a'
p68
F2.7078192485066896
sS'/html/body/div/div/div/form/div/div/div/div'
p69
F5.614709844115208
sS'/html/body/div/div/div/div/div/div/table/tr/td/div/a'
p70
F3.1552782254779106
sS'/html/body/div/div/div/div/div/div/div/div/div/div/span/span'
p71
F1.1228567477855336
sS'/html/body/div/div/div/div/div/div/table/tr/td/div/p'
p72
F3.292781749227846
sS'/html/body/div/div/div/div/div/table/tr/td/div/div/div/ul/li/span'
p73
F6.614709844115209
sS'/html/body/div/div/div/div/form/div/div/div/div/a'
p74
F5.029747343394052
sS'/html/body/div/div/div/div/div/table/tr/td/div/div/ol/li/p'
p75
F6.614709844115209
sS'/html/body/div/div/div/div/span'
p76
F1.0911478880581955
sS'/html/body/div/div/br'
p77
F0.014797001928080483
sS'/html/body/div/div/div/div/form/div/div/div/div/p'
p78
F6.614709844115209
sS'/html/body/div/div/div/div/table/tr/td/ol/li/a'
p79
F0.014797001928080483
sS'/html/body/div/div/div/div/div/div/table/tbody/tr/td/span'
p80
F6.614709844115209
sS'/html/body/div/div/div/div/div/div/div/a/div/svg'
p81
F6.614709844115209
sS'/html/body/div/div/div/div/form/div/div/div/a'
p82
F6.614709844115209
sS'/html/body/div/div/div/div/div/div/div/table/tbody/tr/td/a/span'
p83
F6.614709844115209
sS'/html/body/div/div/div/div/div/table/tr/td/div/table/tr/td/div/div/a'
p84
F2.444784842672896
sS'/html/body/div/div/div/div/div/div/table/tr/td/div/table/tbody/tr/td/div/a'
p85
F4.614709844115208
sS'/html/body/div/div/div/div/div/div/a/div/img'
p86
F6.614709844115209
sS'/html/body/div/div/div/div/div/div/div/p'
p87
F3.6147098441152083
sS'/html/body/div/div/div/form/div/div/noscript/h3'
p88
F6.614709844115209
sS'/html/body/div/div/div/form/div/div/div/p/a'
p89
F6.614709844115209
sS'/html/body/div/div/div/div/div/div/div/div/div/div/div/div/br'
p90
F6.614709844115209
sS'/html/body/div/div/div/form/div/div'
p91
F6.614709844115209
sS'/html/body/div/div/div/div/div/table/tr/td/div/table/tbody/tr/td/div/span/span'
p92
F3.292781749227846
sS'/html/body/div/div/div/div/div/div/table/tbody/tr/td/span/span'
p93
F6.614709844115209
sS'/html/body/div/div/div/div/div/div/div/h3/span/span/i'
p94
F6.614709844115209
sS'/html/body/div/div/div/div/div/div/div/div/div/span/span'
p95
F2.914270125974116
sS'/html/body/div/div/div/form/div/div/div/div/label'
p96
F6.614709844115209
sS'/html/body/div/div/div/div/form/div/a'
p97
F5.029747343394052
sS'/html/body/feed/entry/author/name'
p98
F6.614709844115209
sS'/html/body/div/div/div/div/table/tr/td/div'
p99
F4.614709844115208
sS'/html/body/div/div/div/link'
p100
F2.444784842672896
sS'/html/body/div/div/div/div/div/p/span'
p101
F5.614709844115208
sS'/html/body/div/div/div/div/div/div/div'
p102
F1.0
sS'/html/body/div/div/div/div/div/div/div/div/br'
p103
F5.614709844115208
sS'/html/body/div/div/div/div'
p104
F1.1228567477855336
sS'/html/body/div/div/div/div/form/div/br'
p105
F5.029747343394052
sS'/html/body/div/div/div/div/div/div/h3/a'
p106
F1.1552782254779108
sS'/html/body/div/div/div/div/div/div/h2/b'
p107
F5.614709844115208
sS'/html/body/div/div/div/div/div/ul/li/div/a'
p108
F0.014797001928080483
sS'/html/body/div/div/div/div/div/ul/li/div'
p109
F2.444784842672896
sS'/html/body/div/div/div/form/div/div/script'
p110
F6.614709844115209
sS'/html/body/div/div/div/form/div/div/input'
p111
F6.614709844115209
sS'/html/body/div/div/div/form/div/div/div/table/tr/td/label'
p112
F5.614709844115208
sS'/html/body/div/div/div/div/div/div/h2/span/span'
p113
F5.614709844115208
sS'/html/body/div/div/div/div/form/div/div/div/div/label'
p114
F6.614709844115209
sS'/html/body/div/div/div/div/div/span/span'
p115
F1.5272470028648688
sS'/html/body/div/div/div/div/div/div/div/div/div/a/span'
p116
F3.8073549220576037
sS'/html/body/div/div/div/div/div/div/p'
p117
F1.85982234195174
sS'/html/body/div/div/div/div/ul/li/div'
p118
F1.2571578394971243
sS'/html/body/div/div/div/div/div/div/div/div/div/div/span'
p119
F1.0911478880581955
sS'/html/body/div/div/div/div/div/div/span/span'
p120
F6.614709844115209
sS'/html/body/div/div/div/div/div/div/b'
p121
F2.3667823306716227
sS'/html/body/div/div/div/div/div/div/a'
p122
F0.014797001928080483
sS'/html/body/div/div/div/div/div/hr'
p123
F4.292781749227847
sS'/html/body/div/div/div/a/span'
p124
F0.014797001928080483
sS'/html/body/div/div/div/div/span/a/span'
p125
F0.014797001928080483
sS'/html/body/div/div/div/div/div/form/div/script'
p126
F2.7078192485066896
sS'/html/body/div/div/div/div/table/tr/td/div/div/div/span'
p127
F6.614709844115209
sS'/html/body/div/div/div/div/div/div/div/a'
p128
F0.5703157247567547
sS'/html/body/div/div/div/form/div/script'
p129
F5.614709844115208
sS'/html/body/div/div/div/div/div/div/div/table/thead/tr/th'
p130
F6.614709844115209
sS'/html/body/div/div/div/div/div/form/div/noscript/div/table/tr/td/div/input'
p131
F2.7078192485066896
sS'/html/body/div/div/div/form/div/div/div/div/input'
p132
F6.614709844115209
sS'/html/body/div/div/div/div/div/div/div/span'
p133
F3.6147098441152083
sS'/html/body/div/div/div/div/div/div/table/tr/td/div/span'
p134
F3.1552782254779106
sS'/html/body/div/div/div/div/table/tr/td/div/div'
p135
F5.029747343394052
sS'/html/body/div/div/div/div/div/div/div/div/h2/span'
p136
F5.614709844115208
sS'/html/body/div/div/div/div/div/div/div/table/tr/td/div/span'
p137
F3.8073549220576037
sS'/html/body/div/div/div/div/div/h4'
p138
F2.292781749227846
sS'/html/body/div/div/div/div/div/h3'
p139
F0.014797001928080483
sS'/html/body/div/div/div/div/div/h2'
p140
F5.029747343394052
sS'/html/body/div/div/div/div/ul/li/a/strong'
p141
F4.292781749227847
sS'/html/body/div/div/div/form/div/div/div/label'
p142
F6.614709844115209
sS'/html/body/div/div/div/div/form/div/div/div/div/noscript/p'
p143
F6.614709844115209
sS'/html/body/div/div/div/div/div/table/tr/td/div/div/blockquote/p'
p144
F6.614709844115209
sS'/html/body/div/div/div/div/table/tr/td/a/span'
p145
F6.614709844115209
sS'/html/body/div/div/div/div/div/div/div/div/div/div/div/div/div/div/img'
p146
F6.614709844115209
sS'/html/body/div/div/div/div/p/span/a'
p147
F6.614709844115209
sS'/html/body/div/div/div/div/span/span'
p148
F5.614709844115208
sS'/html/body/div/div/div/div/form/div/div/div/input'
p149
F6.614709844115209
sS'/html/body/div/div/div/div/div/table/tr/td/div/table/tbody/tr/td/table/tbody/tr/td/span'
p150
F4.292781749227847
sS'/html/body/div/div/div/div/div/form/h2'
p151
F2.7078192485066896
sS'/html/head/link'
p152
F0.014797001928080483
sS'/html/body/div/div/div/div/div/div/div/div/div/div/div/span'
p153
F6.614709844115209
sS'/html/body/div/div/div/div/div/div/div/div/div/a/br'
p154
F5.614709844115208
sS'/html/body/div/div/div/div/div/div/div/table/tr/td/a/span'
p155
F6.614709844115209
sS'/html/body/div/div/div/div/div/table/tr/td/div/table/tr/td/div/div/a/span'
p156
F3.6147098441152083
sS'/html/body/div/div/div/div/div/div/div/div/div/p/a'
p157
F6.614709844115209
sS'/html/body/div/div/div/div/div/table/tr/td/div/div/b'
p158
F2.444784842672896
sS'/html/body/div/div/div/div/div/table/tr/td/div/div/a'
p159
F2.3667823306716227
sS'/html/body/div/div/div/div/div/table/tr/td/div/table/tr/td/div/div'
p160
F5.614709844115208
sS'/html/body/div/div/div/div/div/div/div/div/span/a/span'
p161
F6.614709844115209
sS'/html/body/div/div/div/div/div/table/tr/td/div/div/p'
p162
F2.527247002864869
sS'/html/body/div/div/div/div/div/form/div/div/div/input'
p163
F2.7078192485066896
sS'/html/body/div/div/div/div/div/div/div/table/tr/td/div/h4'
p164
F3.8073549220576037
sS'/html/body/feed/link'
p165
F6.614709844115209
sS'/html/body/div/div/div/div/div/div/table/tr/td/table/tr/td/div/div/a/div/img'
p166
F3.1552782254779106
sS'/html/body/div/div/div/div/div/span'
p167
F4.292781749227847
sS'/html/body/div/div/div/div/div/p/b/a'
p168
F6.614709844115209
sS'/html/body/div/div/div/div/form/br'
p169
F4.292781749227847
sS'/html/body/div/div/div/div/div/table/tr/td/div/div/div/p'
p170
F6.614709844115209
sS'/html/body/div/div/div/div/div/div/div/div'
p171
F4.029747343394052
sS'/html/body/div/div/div/div/span/a'
p172
F0.014797001928080483
sS'/html/body/div/div/div/div/div/div/p/a/img'
p173
F6.614709844115209
sS'/html/body/div/div/div/div/div/div/table/tr/td/table/tr/td/div/span'
p174
F3.1552782254779106
sS'/html/body/div/div/div/div/div/div/table/tr/td/table/tr/td/div/div/a/span'
p175
F5.614709844115208
sS'/html/body/div/div/div/div/form/p/br'
p176
F6.614709844115209
sS'/html/body/div/div/div/div/a'
p177
F0.014797001928080483
sS'/html/body/div/div/div/div/table/tr/td/div/a'
p178
F6.614709844115209
sS'/html/body/div/div/script'
p179
F2.3667823306716227
sS'/html/body/div/div/div/div/div/form/div/div/input'
p180
F2.7078192485066896
sS'/html/body/div/div/div/form/div/div/noscript/div/table/tr/td/div/input'
p181
F6.614709844115209
sS'/html/body/div/div/div/div/div/br'
p182
F5.614709844115208
sS'/html/body/div/div/div/div/div/div/p/a'
p183
F1.7567288489876363
sS'/html/body/div/div/div/div/div/div/p/b'
p184
F6.614709844115209
sS'/html/body/div/div/div/div/hr'
p185
F6.614709844115209
sS'/html/body/div/div/div/div/div/ol/li'
p186
F5.614709844115208
sS'/html/body/div/div/div/div/div/div/table/tr/td/table/tr/td/div/div/div/span/span'
p187
F3.292781749227846
sS'/html/body/div/div/div/div/form/input'
p188
F0.014797001928080483
sS'/html/body/div/div/div/form/div/div/div/div/div/div/table/tr/td/div/input'
p189
F6.614709844115209
sS'/html/body/div/div/div/div/div/table/tr/td/div/div/h3'
p190
F6.614709844115209
sS'/html/body/div/div/div/div/h2/a'
p191
F5.614709844115208
sS'/html/body/div/div/div/h2'
p192
F6.614709844115209
sS'/html/body/div/div/div/div/div/div'
p193
F0.014797001928080483
sS'/html/body/div/div/div/div/h1/a'
p194
F2.0297473433940523
sS'/html/body/div/div/div/div/div/table/tr/td/div/p'
p195
F5.614709844115208
sS'/html/body/div/div/div/form/div/div/div/div/div/h3/a'
p196
F6.614709844115209
sS'/html/body/div/div/div/div/h4'
p197
F1.366782330671623
sS'/html/body/div/div/div/div/div/form/div/div/div/textarea'
p198
F2.7078192485066896
sS'/html/body/div/div/div/div/h1'
p199
F0.8598223419517398
sS'/html/body/div/div/div/div/div/div/table/tr/td/div/p/code'
p200
F5.614709844115208
sS'/html/body/div/div/div/div/div/table/tr/td/div/a'
p201
F2.444784842672896
sS'/html/body/div/div/div/div/div/div/ul/li/a'
p202
F6.614709844115209
sS'/html/body/feed/title'
p203
F6.614709844115209
sS'/html/body/div/div/div/div/form/div/div/div/div/div/p'
p204
F5.029747343394052
sS'/html/body/div/div/div/div/div/div/h2/a'
p205
F5.614709844115208
sS'/html/body/div/div/div/hr'
p206
F6.614709844115209
sS'/html/body/div/div/div/form/div/a'
p207
F6.614709844115209
sS'/html/body/div/div/div/div/div/table/tr/td/div/table/tr/td/div/div/a/div/img'
p208
F2.444784842672896
sS'/html/body/div/div/div/div/div/form/script'
p209
F2.7078192485066896
sS'/html/body/div/div/div/div/div/table/tr/td/p/b'
p210
F2.444784842672896
sS'/html/body/div/div/div/div/div/div/div/div/strong'
p211
F1.1228567477855336
sS'/html/body/div/div/div/div/form/p/input'
p212
F6.614709844115209
sS'/html/body/div/div/div/div/div/div/div/h2'
p213
F3.8073549220576037
sS'/html/body/div/div/div/p/a'
p214
F6.614709844115209
sS'/html/body/div/div/div/form/div/div/div/table/tr/td/input'
p215
F5.614709844115208
sS'/html/body/div/div/div/div/div/table/tr/td/div/a/b'
p216
F5.614709844115208
sS'/html/body/div/div/div/div/div/div/table/tr/td/div/input'
p217
F3.1552782254779106
sS'/html/body/div/div/div/div/div/div/div/script'
p218
F3.292781749227846
sS'/html/body/feed/entry/rank'
p219
F6.614709844115209
sS'/html/body/div/div/div/div/span/div/div/ul/li/a/span'
p220
F0.014797001928080483
sS'/html/body/div/div/div/div/div/table/tr/td/div/h2/a'
p221
F5.029747343394052
sS'/html/body/div/div/div/div/div/div/div/table/tr/td/div/ul/li/span'
p222
F3.8073549220576037
sS'/html/body/div/div/div/div/div/table/tr/td/div/h2/b'
p223
F5.029747343394052
sS'/html/body/div/div/div/div/div/div/table/tr/td/table/tr/td/div/div/div'
p224
F5.614709844115208
sS'/html/body/div/div/div/div/div/div/h2/span'
p225
F5.614709844115208
sS'/html/body/div/div/div/div/div/table/tr/td/div/h2/span/span'
p226
F5.029747343394052
sS'/html/body/div/div/div/div/div/div/div/div/h3'
p227
F6.614709844115209
sS'/html/body/div/div/div/div/div/div/div/div/h2'
p228
F3.444784842672896
sS'/html/body/div/div/div/div/div/div/div/div/h1'
p229
F6.614709844115209
sS'/html/body/div/div/div/div/div/div/table/tbody/tr/td/div'
p230
F6.614709844115209
sS'/html/body/div/div/div/div/div/div/table/tr/td/div/table/tbody/tr/td/table/tbody/tr/td'
p231
F4.614709844115208
sS'/html/body/div/div/div/div/div/table/tr/td/div/div/div/span'
p232
F6.614709844115209
sS'/html/body/div/div/div/div/form/div/div/div/div'
p233
F4.614709844115208
sS'/html/body/div/div/div/div/div/form/div/noscript/h3'
p234
F2.7078192485066896
sS'/html/body/div/div/div/div/a/div/div'
p235
F6.614709844115209
sS'/html/body/div/div/div/div/div/div/div/h3/a'
p236
F5.614709844115208
sS'/html/body/div/div/div/div/div/table/tr/td/div/table/tr/td/div/div/span'
p237
F2.444784842672896
sS'/html/body/div/div/div/div/div/div/div/a/div'
p238
F2.444784842672896
sS'/html/body/div/div/div/form/div/div/div/input'
p239
F5.614709844115208
sS'/html/body/div/div/div/div/div/div/table/tr/td/div/table/tbody/tr/td/div/span/span'
p240
F4.614709844115208
sS'/html/body/feed/entry/summary'
p241
F6.614709844115209
sS'/html/body/div/div/div/div/div/div/div/a/div/ul/li'
p242
F6.614709844115209
sS'/html/body/div/div/div/div/div/ul/li/span/span'
p243
F6.614709844115209
sS'/html/body/div/div/div/div/div/div/div/table/tbody/tr/td/b'
p244
F6.614709844115209
sS'/html/body/div/div/div/br'
p245
F1.1228567477855336
sS'/html/body/div/div/div/div/div/div/div/table/tr/td/a'
p246
F6.614709844115209
sS'/html/body/div/div/div/div/div/table/tr/td/div/div/ul/li'
p247
F6.614709844115209
sS'/html/body/div/div/div/div/img'
p248
F4.614709844115208
sS'/html/body/div/div/div/div/div/a/div'
p249
F3.029747343394052
sS'/html/body/div/div/div/div/p/span'
p250
F3.8073549220576037
sS'/html/body/feed/license'
p251
F6.614709844115209
sS'/html/body/div/div/div/div/div/table/tr/td/div/div/a/div/img'
p252
F6.614709844115209
sS'/html/body/div/div/div/div/p'
p253
F1.060120992437571
sS'/html/body/div/div/div/div/h4/i'
p254
F6.614709844115209
sS'/html/body/div/div/div/div/div/table/tr/td/p'
p255
F2.444784842672896
sS'/html/body/div/div/div/div/h4/a'
p256
F1.2571578394971243
sS'/html/body/div/div/div/div/div/a/span'
p257
F0.660513533728333
sS'/html/body/div/div/div/div/div/div/div/div/div/br'
p258
F6.614709844115209
sS'/html/body/div/div/div/div/div/table/tr/td/div/div/p/code'
p259
F4.292781749227847
sS'/html/body/div/div/div/div/table/tr/td/a'
p260
F4.614709844115208
sS'/html/body/div/div/div/div/p/a/img'
p261
F6.614709844115209
sS'/html/body/div/div/div/form/input'
p262
F5.614709844115208
sS'/html/body/div/div/div/div/div/table/tr/td/div/div/p/a'
p263
F4.614709844115208
sS'/html/body/div/div/div/div/div/table/tr/td/p/b/a'
p264
F3.1552782254779106
sS'/html/body/div/div/div/div/div/div/div/table/tbody/tr/th'
p265
F6.614709844115209
sS'/html/body/div/div/div/div/div/div/div/table/tbody/tr/td'
p266
F6.614709844115209
sS'/html/body/div/div/div/div/div/div/div/div/span/span'
p267
F6.614709844115209
sS'/html/body/div/div/div/div/div/table/tr/td/div/table/tbody/tr/td/table/tbody/tr/td'
p268
F3.292781749227846
sS'/html/body/div/div/div/div/div/div/br'
p269
F2.0297473433940523
sS'/html/body/div/div/div/div/div/div/div/div/a/span'
p270
F5.614709844115208
sS'/html/body/div/div/div/div/div/div/table/tbody/tr/td/a/span'
p271
F6.614709844115209
sS'/html/body/div/div/div/div/form/div/div/div/div/input'
p272
F4.614709844115208
sS'/html/body/div/div/div/div/div/div/table/tr/td'
p273
F2.914270125974116
sS'/html/body/feed/entry/published'
p274
F6.614709844115209
sS'/html/body/div/div/div/div/div/form/div/div'
p275
F2.7078192485066896
sS'/html/body/div/div/div/div/div/div/table/tr/td/table/tr/td/div/a'
p276
F3.1552782254779106
sS'/html/body/div/div/div/div/div/div/div/ul/li'
p277
F6.614709844115209
sS'/html/body/noscript/div/img'
p278
F0.014797001928080483
sS'/html/body/div/div/div/div/div/ul/li/a'
p279
F2.3667823306716227
sS'/html/body/div/div/div/div/div'
p280
F0.5061853873370392
sS'/html/body/feed/updated'
p281
F6.614709844115209
sS'/html/body/div/div/div/div/div/div/table/tr/td/span'
p282
F6.614709844115209
sS'/html/body/div/div/div/div/div/div/table/tr/td/div/table/tbody/tr/td/div/span/a'
p283
F6.614709844115209
sS'/html/body/div/div/div/form/div/div/div/a'
p284
F6.614709844115209
sS'/html/body/div/div/noscript/div/img'
p285
F3.029747343394052
sS'/html/body/div/div/div/div/div/div/div/table/tr/td/div/ul/li/a/span'
p286
F3.8073549220576037
sS'/html/body/div/div/div/div/div/div/div/div/div/div/a'
p287
F3.444784842672896
sS'/html/body/div/div/div/div/div/table/tr/td/div/span'
p288
F2.444784842672896
sS'/html/body/div/div/div/div/form/span'
p289
F6.614709844115209
sS'/html/body/div/div/div/form/div/div/div/div/div/h3'
p290
F6.614709844115209
sS'/html/body/div/div/div/div/div/table/tr/td/div/div/div/span/span'
p291
F6.614709844115209
sS'/html/body/div/div/div/div/div/div/div/div/div/ul/li'
p292
F5.614709844115208
sS'/html/body/div/div/div/div/table/tr/th'
p293
F0.014797001928080483
sS'/html/body/div/div/div/div/table/tr/td'
p294
F4.614709844115208
sS'/html/body/div/div/div/div/div/div/div/ul/li/div'
p295
F3.1552782254779106
sS'/html/body/div/div/div/div/div/img'
p296
F6.614709844115209
sS'/html/body/div/div/div/div/div/form/div/div/div/div/h3'
p297
F2.7078192485066896
sS'/html/head/style'
p298
F4.292781749227847
sS'/html/body/div/div/div/form/div/div/div/textarea'
p299
F6.614709844115209
sS'/html/body/div/div/div/div/form/div/div/div/div/div/label'
p300
F5.029747343394052
sS'/html/body/div/div/div/div/div/div/div/div/div/div/div/b'
p301
F6.614709844115209
sS'/html/body/div/div/div/div/div/div/div/h2/span'
p302
F3.1552782254779106
sS'/html/body/div/div/div/form/div/div/label'
p303
F6.614709844115209
sS'/html/body/div/div/div/div/form/p/label'
p304
F6.614709844115209
sS'/html/body/div/div/div/div/div/table/tr/td/div/p/a'
p305
F6.614709844115209
sS'/html/body/div/div/div/div/div/div/table/tr/td/div/p/a/img'
p306
F6.614709844115209
sS'/html/body/feed/entry/id'
p307
F6.614709844115209
sS'/html/body/div/div/div/div/div/div/div/div/p'
p308
F6.614709844115209
sS'/html/body/div/div/div/div/div/ul/li/a/span'
p309
F6.614709844115209
sS'/html/body/div/div/div/div/div/table/tr/td/div/table/tbody/tr/td'
p310
F3.6147098441152083
sS'/html/body/div/div/div/div/div/div/div/div/b'
p311
F6.614709844115209
sS'/html/body/div/div/div/div/div/div/div/div/a'
p312
F3.444784842672896
sS'/html/body/div/div/div'
p313
F0.014797001928080483
sS'/html/body/div/div/div/form/script'
p314
F6.614709844115209
sS'/html/body/div/div/div/div/div/div/div/div/i'
p315
F6.614709844115209
sS'/html/body/feed/id'
p316
F6.614709844115209
sS'/html/body/div/div/div/div/div/div/table/thead/tr/th'
p317
F6.614709844115209
sS'/html/body/div/div/div/div/form/div/div/div/hr'
p318
F4.614709844115208
sS'/html/body/noscript/div'
p319
F0.014797001928080483
sS'/html/body/div/div/div/div/div/script'
p320
F2.444784842672896
sS'/html/body/div/div/div/div/div/table/tr/td/span/a'
p321
F6.614709844115209
sS'/html/body/div/div/div/div/div/div/table/tr/td/div/p/sub'
p322
F6.614709844115209
sS'/html/body/div/div/div/div/div/table/tr/td/div/table/tr/td/div/div/div/span/span'
p323
F2.6147098441152083
sS'/html/body/div/div/div/form/div/div/noscript/div/table/tr/td/div/label'
p324
F6.614709844115209
sS'/html/body/div/div/div/div/div/div/table/tr/td/table/tr/td/div/div'
p325
F5.614709844115208
sS'/html/body/div/div/div/div/div/div/div/div/div/ul/li/a'
p326
F6.614709844115209
sS'/html/body/div'
p327
F0.014797001928080483
sS'/html/body/div/div/div/div/div/table/tr/td/div/div/pre/code'
p328
F5.614709844115208
sS'/html/body/div/div/div/div/p/br'
p329
F6.614709844115209
sS'/html/body/div/div/div/div/div/div/div/div/div/div/ul/li/a'
p330
F5.029747343394052
sS'/html/body/div/div/div/div/div/table/tr/td'
p331
F2.444784842672896
sS'/html/body/div/div/div/div/div/div/table/tr/td/table/tr/td/div/div/div/span'
p332
F3.1552782254779106
sS'/html/body/div/div/div/div/div/table/tr/td/div/table/tbody/tr/td/div/span'
p333
F3.292781749227846
sS'/html/body/div/div/div/div/div/div/div/div/div/div'
p334
F1.0911478880581955
sS'/html/body/div/div/div/div/div/form/div/div/div/div/div/p/span'
p335
F2.7078192485066896
sS'/html/body/div/div/div/div/br'
p336
F5.029747343394052
sS'/html/body/div/div/div/form/div/div/div/div/textarea'
p337
F6.614709844115209
sS'/html/body/div/div/div/div/div/div/table/tr/td/div/p/a'
p338
F4.614709844115208
sS'/html/body/div/div/div/div/div/table/tr/td/div/div/span'
p339
F6.614709844115209
sS'/html/body/div/div/div/div/div/form/div/p/a'
p340
F2.7078192485066896
sS'/html/body/div/div/div/div/h2'
p341
F6.614709844115209
sS'/html/body/div/div/div/div/div/div/div/ul/li/a/span/span/span'
p342
F3.444784842672896
sS'/html/body/div/div/div/div/div/div/table/tr/td/div/p/strong'
p343
F6.614709844115209
sS'/html/body/div/div/div/div/a/span'
p344
F1.029747343394052
sS'/html/body/div/div/div/div/div/form/div/div/div/div/h3/a'
p345
F2.7078192485066896
sS'/html/body/div/div/div/div/div/form/div/div/div/div/div/table/tr/td/div/input'
p346
F2.7078192485066896
sS'/html/body/div/div/div/div/div/table/tr/td/div/div/div/ul/li/a'
p347
F6.614709844115209
sS'/html/head/title'
p348
F0.014797001928080483
sS'/html/body/div/div/div/div/form/div/input'
p349
F4.614709844115208
sS'/html/body/div/div/div/div/ul/li/a'
p350
F0.014797001928080483
sS'/html/body/div/div/div/div/form/div/label'
p351
F5.029747343394052
sS'/html/body/div/div/div/div/div/div/div/span/a'
p352
F6.614709844115209
sS'/html/body/div/div/div/div/div/div/div/h3/span/span/a'
p353
F3.292781749227846
sS'/html/body/div/div/div/div/div/form/div/div/div/div/script'
p354
F2.7078192485066896
sS'/html/body/div/div/div/div/div/form/div/noscript/div/table/tr/td/div/label'
p355
F2.7078192485066896
sS'/html/body/div/div/div/div/table/tr/td/div/div/a'
p356
F4.614709844115208
sS'/html/body/div/div/div/div/div/div/div/ul/li/a'
p357
F4.614709844115208
sS'/html/body/div/div/div/div/div/div/div/div/a/div/img'
p358
F5.614709844115208
sS'/html/body/div/div/div/div/div/div/div/span/span/a/span'
p359
F6.614709844115209
sS'/html/body/div/div/div/div/div/table/tr/td/div/table/tbody/tr/td/div/a'
p360
F3.292781749227846
sS'/html/body/div/div/div/div/div/table/tr/td/div/table/tr/td/div/div/div'
p361
F5.614709844115208
sS'/html/body/div/div/div/div/div/h3/a'
p362
F0.014797001928080483
sS'/html/body/div/div/div/div/script'
p363
F0.8333501305905485
sS'/html/body/div/div/div/div/div/h2/a'
p364
F2.444784842672896
sS'/html/body/div/div/div/div/div/div/table/tr/td/table/tr/td/div/div/span'
p365
F3.1552782254779106
sS'/html/body/div/div/div/div/div/div/div/div/div/a/div/img'
p366
F0.8073549220576041
sS'/html/body/div/div/div/div/div/div/table/tr/td/table/tr/td/div/div/a'
p367
F3.1552782254779106
sS'/html/body/div/div/div/div/div/form/div/div/div/div'
p368
F2.7078192485066896
sS'/html/body/div/div/div/form/div/div/div'
p369
F6.614709844115209
sS'/html/body/div/div/div/div/div/div/div/h3'
p370
F3.1552782254779106
sS'/html/body/div/div/div/div/div/table/tr/td/div/table/tbody/tr/td/div/span/b'
p371
F6.614709844115209
sS'/html/body/div/div/div/div/div/table/tr/td/div/table/tbody/tr/td/div/span/a'
p372
F5.029747343394052
sS'/html/body/div/div/div/div/div/table/tr/td/div/table/tbody/tr/td/div/span/i'
p373
F5.029747343394052
sS'/html/body/div/div/div/div/div/table/tr/td/div/input'
p374
F2.444784842672896
sS'/html/body/div/div/div/div/div/h4/a'
p375
F2.444784842672896
sS'/html/body/div/div/div/form/div/div/div/div/div/div/table/tr/td/div/label'
p376
F6.614709844115209
sS'/html/body/div/div/div/div/form/div/div/div/div/div/noscript/p'
p377
F5.029747343394052
sS'/html/body/div/div/div/div/div/div/table/tr/td/div/table/tbody/tr/td'
p378
F3.8073549220576037
sS'/html/body/div/div/div/div/table/tr/td/input'
p379
F4.614709844115208
sS'/html/body/div/div/div/div/div/div/hr'
p380
F6.614709844115209
sS'/html/body/div/div/div/div/div/div/h3/a/span'
p381
F6.614709844115209
sS'/html/body/div/div/div/div/div/ul/li/div/span'
p382
F0.014797001928080483
sS'/html/body/div/div/div/div/div/table/tr/td/div/h2/span'
p383
F6.614709844115209
sS'/html/body/div/div/div/div/div/div/a/div'
p384
F6.614709844115209
sS'/html/body/div/div/div/div/form/p/textarea'
p385
F6.614709844115209
sS'/html/body/div/div/div/div/div/div/p/span'
p386
F1.9142701259741162
sS'/html/body/div/div/div/div/div/table/tr/td/div/table/tr/td/div/span'
p387
F2.444784842672896
sS'/html/body/div/div/div/div/div/div/div/p/b'
p388
F6.614709844115209
sS'/html/body/div/div/div/div/div/ul/li/a/div'
p389
F0.014797001928080483
sS'/html/body/script'
p390
F0.014797001928080483
sS'/html/body/div/div/div/div/div/p'
p391
F5.029747343394052
sS'/html/body/div/div/div/div/h2/span'
p392
F6.614709844115209
sS'/html/body/div/div/div/div/div/div/div/div/div'
p393
F3.6147098441152083
sS'/html/body/div/div/div/div/div/b'
p394
F5.614709844115208
sS'/html/body/div/div/div/div/div/a'
p395
F0.014797001928080483
sS'/html/body/div/div/div/div/div/div/h3'
p396
F6.614709844115209
sS'/html/body/div/div/div/div/div/div/h2'
p397
F6.614709844115209
sS'/html/body/div/div/div/div/div/div/table/tr/td/div/ul/li'
p398
F6.614709844115209
sS'/html/body/div/div/div/div/div/div/div/div/div/div/div/div/div/span'
p399
F3.6147098441152083
sS'/html/body/div/div/div/div/div/table/tr/td/div/table/tr/td/div/a'
p400
F2.444784842672896
sS'/html/body/div/div/div/script'
p401
F0.5703157247567547
sS'/html/body/div/div/div/div/div/div/div/p/a'
p402
F6.614709844115209
sS'/html/body/feed/entry/title'
p403
F6.614709844115209
sS'/html/body/div/div/div/div/form/a'
p404
F6.614709844115209
sS'/html/body/div/div/div/div/div/form/div/div/div/div/div/table/tr/td/div/label'
p405
F2.7078192485066896
sS'/html/body/feed/entry/author/uri'
p406
F6.614709844115209
s.