(dp0
S'/html/body/div/div/ul/li/form/div/div/label/div'
p1
F9.94251450533924
sS'/html/body/div/div/div/div/div/div/div/ul/li/div/li/ul/li/div/div/div/div/b'
p2
F9.94251450533924
sS'/html/body/div/div/div/div/div/form/div/div/label/img'
p3
F9.94251450533924
sS'/html/body/div/div/div/div/div/div/div/div/a/div/div/div/ul/li/div/div/a'
p4
F9.94251450533924
sS'/html/body/div/div/div/div/div/div/div/li'
p5
F9.94251450533924
sS'/html/body/div/div/div/div/div/div/div/div/a/div/div/div/ul/li/div/div/p'
p6
F9.94251450533924
sS'/html/body/li/ul/li/ul'
p7
F9.94251450533924
sS'/html/body/div/dl/dd/ul/li/div/a'
p8
F8.94251450533924
sS'/html/body/div/div/div/li/ul/li/img'
p9
F8.94251450533924
sS'/html/body/div/div/div/div/form/div/div/label/input'
p10
F9.94251450533924
sS'/html/body/div/div/div/div/div/div/dl/dd/a/i'
p11
F7.135159583281635
sS'/html/body/p/script'
p12
F6.772589503896928
sS'/html/body/div/div/div/div/div/div/ul/div/div/div/div/div/div/div/ul/li/div/div/a'
p13
F6.772589503896928
sS'/html/body/div/div/li/div/li/div/div/p/img'
p14
F9.94251450533924
sS'/html/body/div/div/div/div/form/div/div/label/img'
p15
F9.94251450533924
sS'/html/body/div/div/div/div/div/div/div/ul/li/div/li/ul/li/ul'
p16
F6.357552004618085
sS'/html/body/div/div/div/div/div/div/div/p/span/img'
p17
F4.8981203859807865
sS'/html/body/div/dl/dd/ul/li/span'
p18
F8.94251450533924
sS'/html/body/div/div/ul/li/div/a/li/div/p'
p19
F9.94251450533924
sS'/html/body/div/div/div/div/div/div/div/p/span/p/span/span'
p20
F9.94251450533924
sS'/html/body/div/div/div/div/div/ul/li/a/b'
p21
F9.94251450533924
sS'/html/body/div/div/ul/li/div/div/script'
p22
F9.94251450533924
sS'/html/body/div/div/div/div/div/div/p/font'
p23
F9.94251450533924
sS'/html/body/div/div/div/div/div/div/p/br'
p24
F6.4830828867019425
sS'/html/body/div/div/div/div/div/div/div/div/a/div/div/div/ul/li/div/div/div/span'
p25
F9.94251450533924
sS'/html/body/div/div/div/div/div/div/div/ul/li/a/span'
p26
F8.94251450533924
sS'/html/body/div/div/div/div/div/table/tr/td/div/div/div/table/tr/td/font/font/ignore_js_op/div/div/p/a'
p27
F9.94251450533924
sS'/html/body/div/div/div/div/div/table/tr/td/div/div/div/div/ignore_js_op/dl/dd/img'
p28
F9.94251450533924
sS'/html/body/div/div/div/div/div/div/div/form/input'
p29
F6.357552004618085
sS'/html/body/div/div/div/div/p/a'
p30
F5.620586410451877
sS'/html/body/div/div/div/p/strong/a'
p31
F1.948161068480382
sS'/html/body/div/div/div/div/div/div/div/div/div/dl/dd/a'
p32
F7.94251450533924
sS'/html/body/div/div/div/div/div/li/ul/li/div/div/div/span'
p33
F6.135159583281637
sS'/html/body/div/div/div/div/div/div/div/div/div/follow-button'
p34
F1.3688673178459179
sS'/html/head/script'
p35
F0.19768066783969432
sS'/html/body/div/div/div/li/ul/li/div/div/div/span'
p36
F8.94251450533924
sS'/html/body/div/div/div/div/ul/li/div/div/p/br'
p37
F9.94251450533924
sS'/html/body/div/div/div/div/div/div/dl/dd/div/div/ul/li/a/img'
p38
F9.94251450533924
sS'/html/body/div/div/div/div/div/div/div/p/span/span/span/span/span/span/span/span'
p39
F9.94251450533924
sS'/html/body/div/footer/div/div/div/a/i'
p40
F9.94251450533924
sS'/html/body/header/div/div/a/i'
p41
F9.94251450533924
sS'/html/body/div/div/div/div/div/div/ul/li/div/div/div/b'
p42
F7.94251450533924
sS'/html/body/div/div/div/div/div/div/ul/li/a/div/div/div/ul/li/ul/li/div/div/div/span'
p43
F9.94251450533924
sS'/html/body/div/div/div/li/div/div/div/a/div'
p44
F8.94251450533924
sS'/html/body/div/div/div/ul/div/li/div/img'
p45
F0.8004074480366898
sS'/html/body/div/div/dl/dd/ul/li/a/b'
p46
F8.94251450533924
sS'/html/body/div/footer/div/div/div/div/p/a'
p47
F9.94251450533924
sS'/html/body/div/div/div/div/div/div/div/div/div/div/ul/div'
p48
F9.94251450533924
sS'/html/body/div/div/div/div/div/div/ul/li/div/div/div/p'
p49
F9.94251450533924
sS'/html/body/div/footer/div/div/div/a'
p50
F9.94251450533924
sS'/html/body/div/div/table/tbody/tr/td/div/div/span'
p51
F9.94251450533924
sS'/html/body/div/div/div/div/div/div/div/div/div/div/b'
p52
F8.357552004618084
sS'/html/body/div/div/div/div/div/div/div/div/div/div/a'
p53
F1.2878784768112725
sS'/html/body/div/footer/div/div/div/p'
p54
F9.94251450533924
sS'/html/body/div/div/div/div/div/div/div/p/strong/span/span/br'
p55
F9.94251450533924
sS'/html/body/div/div/div/div/table/tr/td/div/a/img'
p56
F2.277178588154064
sS'/html/body/div/div/div/div/div/div/div/li/div/div/div/span'
p57
F9.94251450533924
sS'/html/body/div/div/div/div/dl/dt/a'
p58
F1.6898490728889914
sS'/html/body/div/div/div/table/tbody/tr/td/a/strong'
p59
F9.94251450533924
sS'/html/body/div/div/div/div/ul/li/div/li/a/img'
p60
F9.94251450533924
sS'/html/body/div/div/div/div/div/dl/dt/p/span'
p61
F8.357552004618084
sS'/html/body/div/div/div/div/div/li/div/li/ul/li/div/div/div/span'
p62
F9.94251450533924
sS'/html/body/p/vl'
p63
F9.94251450533924
sS'/html/body/div/div/div/div/div/div/div/p/span/span/span/span/span/span'
p64
F9.94251450533924
sS'/html/body/div/div/div/div/div/div/div/ul/li/div/div/li/ul/li/div/div/div/b'
p65
F9.94251450533924
sS'/html/body/div/div/div/div/comments'
p66
F9.94251450533924
sS'/html/body/div/div/div/div/div/table/tr/td/div/div/div'
p67
F6.772589503896928
sS'/html/body/div/div/div/div/div/dl/dt/div'
p68
F8.94251450533924
sS'/html/body/div/div/div/div/dl/dd/ul/li'
p69
F7.94251450533924
sS'/html/body/div/footer/div/div/header/h4'
p70
F9.94251450533924
sS'/html/body/div/div/div/div/div/div/div/table/tbody/tr/td/p/strong/span'
p71
F9.94251450533924
sS'/html/body/div/div/div/div/div/li/ul/li/div/div/div/b'
p72
F6.135159583281637
sS'/html/body/div/div/div/div/form/div/div/label/div'
p73
F9.94251450533924
sS'/html/body/div/div/div/dl/dd/div/ul/li/a/span'
p74
F6.357552004618085
sS'/html/body/div/div/div/div/div/ul/li/ul/li/div/div/div/span'
p75
F9.94251450533924
sS'/html/body/div/div/div/div/div/dl/dd/div/div/div/a/img'
p76
F2.3351841915896294
sS'/html/body/div/div/div/div/dl/dd/ul/li/a/strong'
p77
F8.357552004618084
sS'/html/body/div/div/div/div/div/div/div/dl/dt/strong'
p78
F9.94251450533924
sS'/html/body/div/div/div/div/div/div/img'
p79
F5.694586991895655
sS'/html/body/div/div/div/li/ul/li/div/div/p'
p80
F8.94251450533924
sS'/html/body/div/div/div/div/div/div/dl/dd/ul/li/p'
p81
F7.135159583281635
sS'/html/body/div/div/div/div/form/div/div/div/p'
p82
F9.94251450533924
sS'/html/body/div/div/div/div/div/div/div/div/table/tbody/tr/td/p/img'
p83
F9.94251450533924
sS'/html/body/div/div/dl/dd/ul/li/a/span'
p84
F8.94251450533924
sS'/html/body/div/div/div/div/form/div/div/div/a'
p85
F9.94251450533924
sS'/html/body/div/div/div/div/div/ul/div/div/div/div/div/script'
p86
F6.772589503896928
sS'/html/body/div/div/ul/li/div/div/div/div/p/a'
p87
F9.94251450533924
sS'/html/body/div/footer/div/div/div/div/a'
p88
F9.94251450533924
sS'/html/body/div/dl/dd/div/div/div/span'
p89
F8.94251450533924
sS'/html/body/div/div/div/div/div/table/tr/td/div/a/i/img'
p90
F7.135159583281635
sS'/html/body/div/div/div/div/div/ul/div/div/div/div/div/div/li/a/span'
p91
F6.772589503896928
sS'/html/body/div/div/div/div/form/div/div/div/div/div'
p92
F9.94251450533924
sS'/html/body/div/div/div/div/div/dl/dt/div/a/li/a'
p93
F9.94251450533924
sS'/html/body/div/div/dl/dd/ul/li'
p94
F8.357552004618084
sS'/html/body/div/div/div/div/div/div/div/p/strong/br'
p95
F4.94251450533924
sS'/html/body/div/div/div/div/div/div/ul/li'
p96
F1.2843030225874452
sS'/html/body/div/div/div/div/div/table/tr/td/div/div/div/div/div/div/a'
p97
F8.94251450533924
sS'/html/body/div/div/div/div/div/a/b'
p98
F5.694586991895655
sS'/html/body/div/div/div/div/div/div/div'
p99
F1.06599755877424
sS'/html/body/div/div/div/div/div/a/i'
p100
F9.94251450533924
sS'/html/body/div/div/div/div/div/div/div/div/br'
p101
F9.94251450533924
sS'/html/body/div/div/div/div/div/a/p'
p102
F7.620586410451877
sS'/html/body/p/xmpmeta/rdf/description/tonecurvegreen/seq/li'
p103
F7.620586410451877
sS'/html/body/div/div/div/div/div/div/div/ul/li/em'
p104
F8.94251450533924
sS'/html/body/div/div/style'
p105
F4.8981203859807865
sS'/html/body/div/div/div/div/div/div/h2/a'
p106
F8.94251450533924
sS'/html/body/div/div/div/div/div/div/div/ul/li/div/div/li/ul/li/div/div/div/a/div'
p107
F9.94251450533924
sS'/html/body/div/div/div/div/ul/li/div/div/strong'
p108
F9.94251450533924
sS'/html/body/div/div/dl/dd/div/div/ul/li/div/p'
p109
F9.94251450533924
sS'/html/body/div/div/div/dl/dt/a'
p110
F5.8550516640889
sS'/html/body/div/footer/div/h4'
p111
F9.94251450533924
sS'/html/body/div/div/dl/dd/div/div/ul/li/div/a'
p112
F9.94251450533924
sS'/html/body/div/div/div/div/div/div/ul/li/img'
p113
F7.620586410451877
sS'/html/body/div/div/div/div/div/div/div/div/dl/dt/a'
p114
F9.94251450533924
sS'/html/body/div/div/div/div/div/div/form/div/div/label/input'
p115
F9.94251450533924
sS'/html/body/div/main/section/div/p'
p116
F9.94251450533924
sS'/html/body/div/div/div/div/div/div/li/ul/li/div/div/p/img'
p117
F8.94251450533924
sS'/html/body/div/div/div/ul/li/h3/a'
p118
F9.94251450533924
sS'/html/body/div/div/div/div/div/div/div/div/div/div/div/dl/dt'
p119
F9.94251450533924
sS'/html/body/div/span/script'
p120
F1.9538298185670742
sS'/html/body/div/li/div/div/div/span'
p121
F9.94251450533924
sS'/html/body/div/div/div/div/div/label'
p122
F5.357552004618084
sS'/html/html/p'
p123
F6.620586410451877
sS'/html/body/div/div/div/div/div/div/div/ul/li/div/li/ul/li/div/div/div/p'
p124
F9.94251450533924
sS'/html/body/div/div/div/div/div/div/div/ul/li/div/li/ul/li/div/div/div/b'
p125
F6.357552004618085
sS'/html/body/div/div/div/div/div/div/div/ul/li/div/ul/li/div/div/div/span'
p126
F8.357552004618084
sS'/html/body/div/main/section/div/img'
p127
F9.94251450533924
sS'/html/body/div/div/dl/dd/p/span'
p128
F8.357552004618084
sS'/html/body/div/div/div/div/form/table/tr/td/div/img'
p129
F6.772589503896928
sS'/html/body/div/div/div/div/input'
p130
F8.357552004618084
sS'/html/body/div/div/div/div/div/div/div/ul/li/div/div/li/div/div/div/b'
p131
F8.94251450533924
sS'/html/body/div/div/div/div/div/style'
p132
F1.3204626858828636
sS'/html/body/div/div/div/div/div/ul/li/br'
p133
F8.94251450533924
sS'/html/body/div/div/div/div/form/div/div/div'
p134
F9.94251450533924
sS'/html/body/div/div/div/li/img'
p135
F8.357552004618084
sS'/html/body/div/div/div/dl/dd/ul/li/a/b'
p136
F6.4830828867019425
sS'/html/body/div/div/div/div/form/div/div/div/input'
p137
F9.94251450533924
sS'/html/body/div/form/div/div/input'
p138
F7.620586410451877
sS'/html/body/div/div/div/div/div/div/div/ul/li/div/ul'
p139
F5.418952549282227
sS'/html/body/div/div/ul/li/form/div/div/a'
p140
F9.94251450533924
sS'/html/body/div/div/div/div/lbs-map'
p141
F8.357552004618084
sS'/html/body/div/div/div/div/div/ul/li/div/p/strong'
p142
F9.94251450533924
sS'/html/body/p/a'
p143
F9.94251450533924
sS'/html/body/div/div/div/div/ul/li/div/li/img'
p144
F9.94251450533924
sS'/html/body/li/div/div/div/b'
p145
F8.94251450533924
sS'/html/body/div/div/ul/li/ul'
p146
F9.94251450533924
sS'/html/body/div/div/div/div/div/dl/dt/p/a'
p147
F8.357552004618084
sS'/html/body/div/div/li/div/li/div/div/div/b'
p148
F8.94251450533924
sS'/html/body/img'
p149
F0.7978562625073575
sS'/html/body/div/div/div/div/div/dl/dt/div/dl/dd/div/div/ul/li'
p150
F7.620586410451877
sS'/html/body/div/div/div/div/div/table/tr/td/div/div/div/table/tr/td/div'
p151
F9.94251450533924
sS'/html/body/div/div/div/div/div/div/div/label/span'
p152
F5.942514505339241
sS'/html/body/div/div/div/a/img'
p153
F1.9425145053392399
sS'/html/body/div/div/div/div/li/ul'
p154
F8.94251450533924
sS'/html/body/div/div/div/div/div/p/span/select/option'
p155
F9.94251450533924
sS'/html/body/div/div/div/div/div/div/div/p/a/strong/span'
p156
F5.4830828867019425
sS'/html/body/div/div/div/p/script'
p157
F1.948161068480382
sS'/html/body/div/div/h1/i'
p158
F9.94251450533924
sS'/html/body/div/div/div/div/ul/div'
p159
F9.94251450533924
sS'/html/body/div/div/div/div/div/li/div/div/div/b'
p160
F4.94251450533924
sS'/html/body/div/main/div/div/ul/li/a'
p161
F9.94251450533924
sS'/html/body/div/div/div/div/div/div/div/div/a/div/div/div/a'
p162
F8.94251450533924
sS'/html/body/div/div/div/div/div/div/div/div/dl/dd/div/div/dd/a/i'
p163
F9.94251450533924
sS'/html/body/div/main/div/div/ul/li/i'
p164
F9.94251450533924
sS'/html/body/div/footer/div/div/div/div/form/div/input'
p165
F9.94251450533924
sS'/html/body/div/div/div/div/div/li/div/div/div/p'
p166
F9.94251450533924
sS'/html/body/div/div/ul/li/form/div/div/label/img'
p167
F9.94251450533924
sS'/html/body/div/div/ul/li/form/div/div/label/input'
p168
F9.94251450533924
sS'/html/body/div/div/div/div/div/div/ul/div/li/a'
p169
F9.94251450533924
sS'/html/body/div/div/div/div/div/div/ul/li/a/h3'
p170
F9.94251450533924
sS'/html/body/div/form/div/div/span/small'
p171
F7.620586410451877
sS'/html/body/div/div/div/div/div/ul/li/ul/li'
p172
F9.94251450533924
sS'/html/body/div/div/div/div/li/div/li/div/div'
p173
F9.94251450533924
sS'/html/body/div/div/div/div/div/div/div/ul/li/div/div/div/a/p'
p174
F9.94251450533924
sS'/html/body/div/div/div/div/div/div/ul/li/em'
p175
F6.4830828867019425
sS'/html/body/div/div/div/div/header/h2'
p176
F9.94251450533924
sS'/html/html/p/yr2'
p177
F9.94251450533924
sS'/html/body/div/div/div/div/ul/li/ul/li/div/div/div/a/div'
p178
F8.94251450533924
sS'/html/body/div/div/div/div/div/dl/dt'
p179
F1.6710514774348653
sS'/html/body/div/div/div/h2/a'
p180
F6.772589503896928
sS'/html/body/div/div/div/div/table/tr/td/ul/li'
p181
F2.277178588154064
sS'/html/body/div/div/div/div/div/div/div/ul/li/div/li/div/div/div/b'
p182
F5.550197082560479
sS'/html/body/div/div/li/div/li/ul/li/div/div/div/span'
p183
F9.94251450533924
sS'/html/body/div/div/div/div/div/div/ul/li/span'
p184
F6.242074787198148
sS'/html/body/div/div/div/div/div/div/div/p/strong/em'
p185
F7.94251450533924
sS'/html/body/div/dl/dd/div/div/div/ul/li/i'
p186
F8.94251450533924
sS'/html/body/div/div/div/div/div/div/p/a'
p187
F5.242074787198148
sS'/html/body/div/div/div/div/div/div/div/ul/li/ul/li/div/div/a/div/span'
p188
F9.94251450533924
sS'/html/body/div/div/div/div/table/tbody/tr/th'
p189
F9.94251450533924
sS'/html/body/div/div/div/div/div/div/ul/li/a/div/div/div/a'
p190
F9.94251450533924
sS'/html/body/h1'
p191
F9.94251450533924
sS'/html/body/div/footer/div/div/div/div'
p192
F9.94251450533924
sS'/html/body/div/div/h2'
p193
F5.035623909730721
sS'/html/body/div/div/h1'
p194
F7.135159583281635
sS'/html/body/div/div/div/div/div/div/div/li/a'
p195
F8.357552004618084
sS'/html/body/div/div/div/div/div/div/div/label/input'
p196
F5.942514505339241
sS'/html/body/div/div/div/div/div/div/div/ul/li/div/div/a/p'
p197
F8.94251450533924
sS'/html/body/div/script'
p198
F0.21629634600704134
sS'/html/body/div/div/div/div/div/div/div/ul/li/div/a/div'
p199
F8.94251450533924
sS'/html/body/div/div/div/div/div/div/div/ul/li/div/div/a/div/b'
p200
F9.94251450533924
sS'/html/body/div/div/div/div/div/div/div/p/img'
p201
F1.3500574680711594
sS'/html/body/div/div/div/div/div/a/div/div/a/img'
p202
F9.94251450533924
sS'/html/body/div/div/div/div/div/table/tr/td/div/div/div/dl/dt'
p203
F7.135159583281635
sS'/html/body/div/div/li/div/div/p/img'
p204
F8.357552004618084
sS'/html/body/div/div/div/div/div/div/ul/li/div/p'
p205
F8.94251450533924
sS'/html/body/div/div/div/div/form/table/tr/td/div/div/div/div/div/a'
p206
F6.772589503896928
sS'/html/body/div/div/div/div/div/div/div/ul/li/ul/li/div/li/ul/li/div/div/p/img'
p207
F9.94251450533924
sS'/html/body/div/div/div/div/div/div/ul/li/a/div/div/div/ul/li/ul'
p208
F9.94251450533924
sS'/html/body/div/div/div/div/div/div/div/div/div/div/a/img'
p209
F6.94251450533924
sS'/html/body/div/div/div/div/div/div/dl/dd/div/div/p/span'
p210
F6.94251450533924
sS'/html/body/div/div/div/div/div/div/ul/li/div/a'
p211
F9.94251450533924
sS'/html/body/div/div/div/div/dl/dd/ul/li/a/span'
p212
F9.94251450533924
sS'/html/body/div/div/div/p/a'
p213
F1.9368899561453619
sS'/html/body/div/div/div/li/div/ul/li/div/div/div/span'
p214
F9.94251450533924
sS'/html/body/div/div/div/div/div/div/ul/li/a/div/div/div/textarea'
p215
F9.94251450533924
sS'/html/body/div/div/div/div/div/div/li/ul/li/div/div/a'
p216
F8.357552004618084
sS'/html/body/div/div/div/div/div/div/ul/p'
p217
F6.357552004618085
sS'/html/body/div/div/div/div/div/div/div/ul/li/div/li/ul/li/div/div/div/div/span'
p218
F9.94251450533924
sS'/html/body/div/div/div/div/div/form/div/div/label/input'
p219
F9.94251450533924
sS'/html/body/div/div/div/div/div/div/div/div/a/div/div/div/div/label'
p220
F9.94251450533924
sS'/html/body/div/div/div/div/div/div/div/ul/li/div/li/ul/li/div/div/p/img'
p221
F7.357552004618085
sS'/html/body/div/div/div/div/a/div/div/p/span'
p222
F9.94251450533924
sS'/html/body/div/div/div/div/div/div/li/ul/li/div/div/p'
p223
F8.94251450533924
sS'/html/body/div/div/div/div/div/table/tr/td/div/div/div/table/tr/td/font/font/ignore_js_op/div/div/p'
p224
F9.94251450533924
sS'/html/body/div/div/div/div/div/div/div/ul/li/div/ul/li/div/div/div/b'
p225
F8.357552004618084
sS'/html/body/table/tbody/tr/td/div/span/strong/a'
p226
F7.620586410451877
sS'/html/body/div/div/div/div/div/div/form/table'
p227
F9.94251450533924
sS'/html/body/div/div/div/div/div/div/div/ul/li/div/li/ul/li/div/li/ul/li/div/span'
p228
F9.94251450533924
sS'/html/body/div/div/div/div/div/div/div/ul/li/div/ul/li/img'
p229
F8.357552004618084
sS'/html/body/div/div/div/div/span'
p230
F5.694586991895655
sS'/html/body/div/div/div/div/div/div/div/div/div/dl/dt'
p231
F7.94251450533924
sS'/html/body/div/div/div/div/div/table/tr/td/div/div/div/table/tr/td/div/blockquote/font/a/font'
p232
F7.94251450533924
sS'/html/body/div/div/div/div/div/li/div/li/ul/li/ul'
p233
F9.94251450533924
sS'/html/body/div/main/div/div/ul/li/strong'
p234
F9.94251450533924
sS'/html/body/div/div/div/div/div/div/div/p/span/span'
p235
F4.772589503896928
sS'/html/body/div/div/div/div/div/div/ul/li/div/h3/a'
p236
F9.94251450533924
sS'/html/body/div/div/div/div/form/div/div/div/div/div/div/div/input'
p237
F9.94251450533924
sS'/html/body/div/div/div/div/div/li/div/div'
p238
F8.357552004618084
sS'/html/body/div/div/div/li/ul/li/div/div/div/a/div'
p239
F8.94251450533924
sS'/html/body/div/div/div/div/div/div/div/div/div/script'
p240
F6.357552004618085
sS'/html/body/div/div/div/div/div/div/li/ul/li/div/div/div/span'
p241
F8.357552004618084
sS'/html/body/div/div/div/div/div/table/tr/td/div/ul/li/span'
p242
F9.94251450533924
sS'/html/body/div/main/section/div/div/div/div/h1/br'
p243
F9.94251450533924
sS'/html/body/div/div/div/div/div/div/div/li/img'
p244
F9.94251450533924
sS'/html/body/div/br'
p245
F6.94251450533924
sS'/html/body/div/div/div/ul/li/div/p/br'
p246
F8.357552004618084
sS'/html/body/div/div/div/div/div/div/div/ul/li/div/div/li/ul/li/div/div/a'
p247
F9.94251450533924
sS'/html/body/div/div/div/dl/dd/ul/li/a/img'
p248
F6.357552004618085
sS'/html/body/div/div/div/div/div/div/div/ul/li/div/di'
p249
F9.94251450533924
sS'/html/body/div/div/div/div/div/div/div/table/tbody/tr/td/p'
p250
F7.94251450533924
sS'/html/body/div/div/div/div/div/div/ul/li/a/div/div/div/ul/li/div/div/div/a/div'
p251
F9.94251450533924
sS'/html/body/div/div/div/div/div/div/div/ul/li/div/div/li/ul/li/div/div/p'
p252
F9.94251450533924
sS'/html/body/div/div/div/dl/dt/form/input'
p253
F8.94251450533924
sS'/html/body/div/div/div/div/li/img'
p254
F8.94251450533924
sS'/html/body/div/main/section/div/div/div/div/button/img'
p255
F9.94251450533924
sS'/html/body/div/div/div/div/div/div/div/ul/li/div/ul/li/div/div/p/img'
p256
F8.94251450533924
sS'/html/body/div/div/div/div/div/div/div/p/span/br'
p257
F4.516249750637142
sS'/html/body/div/div/div/div/div/dl/dd/div/div/ul/li/a'
p258
F6.4830828867019425
sS'/html/head/base'
p259
F1.9425145053392399
sS'/html/body/div/div/div/div/div/li/div/li/div/div/a'
p260
F9.94251450533924
sS'/html/body/div/div/div/div/div/div/div/img'
p261
F1.3426016631521123
sS'/html/body/div/div/div/div/div/div/ul/li/a/div/div/div/div'
p262
F9.94251450533924
sS'/html/body/div/div/div/div/ul/li/a/div/img'
p263
F9.94251450533924
sS'/html/body/div/div/div/div/div/a/div/div/span'
p264
F6.620586410451877
sS'/html/body/div/div/div/div/ul/li/div/div/p'
p265
F5.694586991895655
sS'/html/body/div/div/div/div/ul/li/div/div/a'
p266
F5.8550516640889
sS'/html/body/div/div/div/form/input'
p267
F6.772589503896928
sS'/html/body/div/div/div/div/div/div/div/ul/li/ul/li/div/div/p'
p268
F3.284303022587445
sS'/html/body/div/div/div/p/br'
p269
F8.94251450533924
sS'/html/body/div/div/div/div/div/div/div/ul/li/div/li/ul/li/div/li/img'
p270
F9.94251450533924
sS'/html/body/div/div/div/div/ul/li/div/div/div/b'
p271
F5.8550516640889
sS'/html/body/div/div/div/p/span/script'
p272
F1.9425145053392399
sS'/html/body/div/div/div/div/div/div/li/div/div/span'
p273
F9.94251450533924
sS'/html/body/div/div/dl/dt'
p274
F7.94251450533924
sS'/html/body/div/div/div/div/div/li/div/li/div/div/div/span'
p275
F9.94251450533924
sS'/html/body/div/main/section/div/h1/br'
p276
F9.94251450533924
sS'/html/body/div/div/div/div/style'
p277
F8.94251450533924
sS'/html/body/div/div/ul/li/b'
p278
F7.135159583281635
sS'/html/body/div/div/div/div/div/div/div/p/span/strong'
p279
F7.357552004618085
sS'/html/body/div/div/ul/li/a'
p280
F0.7281953845384741
sS'/html/body/div/div/div/div/div/dl/dd/li/a/span'
p281
F8.94251450533924
sS'/html/body/div/div/div/div/div/div/span/a'
p282
F5.418952549282227
sS'/html/body/div/div/li/ul/li/ul'
p283
F7.94251450533924
sS'/html/body/div/div/ul/li/p'
p284
F8.357552004618084
sS'/html/body/div/div/div/div/div/div/span/i'
p285
F9.94251450533924
sS'/html/body/div/div/div/li/div/li/div/div/div/span'
p286
F9.94251450533924
sS'/html/body/div/div/div/div/div/div/div/ul/li/ul/li/div/li/div/div/div/span'
p287
F9.94251450533924
sS'/html/body/div/div/div/div/div/div/div/table/tbody/tr/td/span'
p288
F9.94251450533924
sS'/html/body/div/div/div/div/div/table/tr/td/div/div/div/table/tr/td/font/a'
p289
F8.357552004618084
sS'/html/body/div/div/div/div/div/div/div/a/i/img'
p290
F9.94251450533924
sS'/html/body/div/footer/div/div/div/form/button'
p291
F9.94251450533924
sS'/html/body/li/ul/li/div/div/p'
p292
F9.94251450533924
sS'/html/body/div/header/div/nav/button/i'
p293
F9.94251450533924
sS'/html/body/div/div/div/div/div/li/div/div/div/span'
p294
F4.94251450533924
sS'/html/body/div/div/div/div/div/table/tr/td/div/a/img'
p295
F6.772589503896928
sS'/html/body/p/xmpmeta/rdf/description/rights/alt/li'
p296
F5.084533510211668
sS'/html/body/div/div/div/div/div/div/div/div/a/div/div/div/button'
p297
F9.94251450533924
sS'/html/body/div/div/div/div/div/ul/p/br'
p298
F9.94251450533924
sS'/html/body/table/tbody/tr/td/table/tbody/tr/td/div/strong/a/img'
p299
F9.94251450533924
sS'/html/body/div/header/div/nav/div/ul/li/a/span'
p300
F9.94251450533924
sS'/html/body/div/div/div/div/div/table/tr/td/div/div/div/div/div/div/strong/a'
p301
F6.772589503896928
sS'/html/body/div/div/div/div/div/div/div/br'
p302
F8.357552004618084
sS'/html/body/div/div/div/div/div/div/div/div/dl/dd/a/img'
p303
F9.94251450533924
sS'/html/body/div/div/div/div/div/ul/li/h3/a'
p304
F8.357552004618084
sS'/html/body/div/div/div/div/div/div/div/dl/dd/ul/li'
p305
F8.94251450533924
sS'/html/body/div/div/div/div/div/span/a'
p306
F9.94251450533924
sS'/html/body/div/div/span'
p307
F7.357552004618085
sS'/html/body/div/div/div/li/div/div/div/span'
p308
F8.357552004618084
sS'/html/body/table/tbody/tr/td/div/a'
p309
F7.620586410451877
sS'/html/body/div/div/div/div/div/div/div/div/a/font'
p310
F8.94251450533924
sS'/html/body/div/div/div/div/div/dl/dt/div/dl/dd/ul/li'
p311
F7.135159583281635
sS'/html/body/div/div/div/dl/dd/span'
p312
F8.94251450533924
sS'/html/body/div/main/section/div/div/div/div/h1'
p313
F9.94251450533924
sS'/html/body/div/div/li/div/li/div/div/p'
p314
F8.94251450533924
sS'/html/body/div/div/div/div/div/ul/li/div/br'
p315
F9.94251450533924
sS'/html/body/div/div/div/div/table/tr/td'
p316
F2.2078048851134016
sS'/html/body/div/div/li/div/li/div/div/a'
p317
F8.94251450533924
sS'/html/body/div/div/li/div/li/div/div/b'
p318
F9.94251450533924
sS'/html/body/div/div/div/div/div/div/div/ul/li/ul/li/div/p/img'
p319
F9.94251450533924
sS'/html/body/div/form/div/div/div'
p320
F1.6663901000650023
sS'/html/body/div/div/div/div/h2/a'
p321
F6.620586410451877
sS'/html/body/div/div/div/div/dl/dd/div/div/a/strong'
p322
F8.357552004618084
sS'/html/body/div/div/div/div/div/div/div/div/div/div/p'
p323
F7.94251450533924
sS'/html/body/div/div/div/dl/dt/div/a'
p324
F9.94251450533924
sS'/html/head/style'
p325
F1.075235765629578
sS'/html/body/div/form/div/div/div/p'
p326
F1.6898490728889914
sS'/html/body/div/div/div/div/div/div/div/div/div/div/div/a'
p327
F9.94251450533924
sS'/html/body/div/div/div/div/div/table/tr/td/div/div/style'
p328
F8.357552004618084
sS'/html/body/div/div/li/div/div/div/div/span'
p329
F8.94251450533924
sS'/html/body/div/div/div/div/ul/li/div/p/br'
p330
F6.620586410451877
sS'/html/body/div/div/div/div/a/div/div/span'
p331
F6.620586410451877
sS'/html/body/div/form/div/div/div/a'
p332
F1.6898490728889914
sS'/html/body/div/div/div/ul/li/div/div/p'
p333
F8.94251450533924
sS'/html/body/div/div/div/div/div/div/div/ul/li/ul/li/div/li/div/div/div/b'
p334
F9.94251450533924
sS'/html/body/div/dl/dd/div/div/div/div'
p335
F8.94251450533924
sS'/html/body/div/div/div/div/div/div/div/p/span/div'
p336
F8.357552004618084
sS'/html/body/div/div/div/div/div/div/div/p/span/p/span/img'
p337
F9.94251450533924
sS'/html/body/div/div/div/div/div/div/form/table/tbody/tr/th/div/div/em/a'
p338
F7.135159583281635
sS'/html/body/div/div/div/div/div/dl/dd/div/div/ul/li'
p339
F4.73306113971029
sS'/html/body/div/div/div/div/div/form/div/div/div/a'
p340
F9.94251450533924
sS'/html/body/div/div/div/a/span'
p341
F9.94251450533924
sS'/html/body/div/div/div/div/table/tr/td/p/a'
p342
F2.277178588154064
sS'/html/body/div/div/div/div/div/li/p'
p343
F9.94251450533924
sS'/html/body/div/div/div/div/div/li/div/li/div/div/div/a/div'
p344
F9.94251450533924
sS'/html/body/div/div/div/div/div/script'
p345
F1.06599755877424
sS'/html/body/div/div/div/div/div/form/div/div/div/p'
p346
F9.94251450533924
sS'/html/body/div/div/div/div/form/div/div/a'
p347
F9.94251450533924
sS'/html/body/div/div/div/div/div/div/p/img'
p348
F8.94251450533924
sS'/html/body/div/div/div/div/div/div/div/div/h2/a'
p349
F6.242074787198148
sS'/html/body/div/div/div/div/div/div/ul/div/div/div/div/div/script'
p350
F6.772589503896928
sS'/html/body/div/div/div/dl/dt/div/dl/dd/div/div/ul/li/a/img'
p351
F9.94251450533924
sS'/html/body/div/div/div/div/ul/li/div/li/div/p/br'
p352
F9.94251450533924
sS'/html/body/div/div/div/div/div/table/tr/td/div/div/div/script'
p353
F8.94251450533924
sS'/html/body/div/div/form/div/div/div'
p354
F6.135159583281637
sS'/html/body/div/div/div/div/div/div/div/dl/dd'
p355
F1.3131578852596304
sS'/html/body/div'
p356
F1.8392266969272177
sS'/html/body/div/li/img'
p357
F9.94251450533924
sS'/html/body/div/div/div/div/div/div/div/dl/dt'
p358
F1.1644373758038817
sS'/html/body/div/div/div/div/div/object/embed'
p359
F7.357552004618085
sS'/html/body/div/div/div/div/ul/li/div/li/ul/li/div/div/p'
p360
F9.94251450533924
sS'/html/body/div/div/div/div/div/div/dl/dd/div/div/p/a'
p361
F6.94251450533924
sS'/html/body/div/div/li/div/li/ul/li/ul'
p362
F9.94251450533924
sS'/html/body/div/div/div/div/div/button'
p363
F6.772589503896928
sS'/html/body/div/div/div/div/div/div/dl/dd/div/div/p/i'
p364
F9.94251450533924
sS'/html/body/div/div/li/img'
p365
F7.620586410451877
sS'/html/body/p/link'
p366
F6.772589503896928
sS'/html/body/div/div/div/div/div/div/div/ul/li/div/li/ul/li/div/li/ul/li/div/a/div'
p367
F9.94251450533924
sS'/html/body/div/div/div/div/ul/li/a/b'
p368
F0.8004074480366898
sS'/html/body/div/div/div/div/div/div/form/table/tbody/tr/th/div/div'
p369
F7.135159583281635
sS'/html/body/div/div/li/ul'
p370
F8.357552004618084
sS'/html/body/div/div/div/div/div/div/ul/li/div/div/div/p/strong'
p371
F9.94251450533924
sS'/html/body/div/div/div/div/div/div/div/div/ul/li/em'
p372
F8.357552004618084
sS'/html/body/div/div/div/div/div/div/dl/dt/div/a/b'
p373
F3.694586991895654
sS'/html/body/div/div/div/div/div/table/tr/td/div/div/div/ul'
p374
F8.357552004618084
sS'/html/body/div/div/div/div/div/dl/dd/ul/li'
p375
F1.9146085087693554
sS'/html/body/div/div/div/div/div/div/ul/li/div/div/a/div'
p376
F9.94251450533924
sS'/html/body/div/div/div/div/dl/dd/ul/li/a'
p377
F7.620586410451877
sS'/html/body/div/div/div/div/div/dl/dt/h2'
p378
F8.357552004618084
sS'/html/body/div/div/div/div/dl/dd/ul/li/p'
p379
F8.357552004618084
sS'/html/body/div/div/div/li/div/div/div/b'
p380
F8.357552004618084
sS'/html/body/div/div/div/div/div/dl/dt/div/div'
p381
F8.94251450533924
sS'/html/body/div/div/div/div/div/div/div/a/span'
p382
F9.94251450533924
sS'/html/body/table/tbody/tr/td/table/tbody/tr/td/strong'
p383
F9.94251450533924
sS'/html/body/div/div/div/div/div/div/ul/li/a/div/div/div/div/label'
p384
F9.94251450533924
sS'/html/body/div/div/div/div/div/li/div/div/p/br'
p385
F7.94251450533924
sS'/html/body/header/div/div/a'
p386
F9.94251450533924
sS'/html/body/div/div/div/div/div/small/a'
p387
F8.94251450533924
sS'/html/body/div/div/div/div/dl/dd/div/div/ul/li/div/a'
p388
F9.94251450533924
sS'/html/body/div/div/div/div/div/div/div/ul/li/ul/li/div/div/p/br'
p389
F5.694586991895655
sS'/html/body/div/div/div/div/dl/dd/div/div/ul/li/div/p'
p390
F9.94251450533924
sS'/html/body/div/div/div/div/div/div/div/ul/li/div/a/img'
p391
F7.94251450533924
sS'/html/body/div/div/div/div/ul/div/li/div/img'
p392
F9.94251450533924
sS'/html/body/div/div/div/div/div/div/div/ul/li/p'
p393
F4.059871455977399
sS'/html/body/div/div/div/div/div/div/div/ul/a'
p394
F9.94251450533924
sS'/html/body/div/div/div/div/div/div/form/ul/li/div/cite/em'
p395
F9.94251450533924
sS'/html/body/div/div/div/div/div/div/ul/li/div/div/p/br'
p396
F9.94251450533924
sS'/html/body/div/div/div/div/div/a/ul/li/a/b'
p397
F9.94251450533924
sS'/html/body/div/div/div/div/div/div/div/table/tr/td/dl/dd/em'
p398
F9.94251450533924
sS'/html/body/div/div/div/div/div/div/div/ul/li/a'
p399
F5.694586991895655
sS'/html/body/div/div/div/dl/dd/div/div/a/strong'
p400
F6.357552004618085
sS'/html/body/div/div/div/div/div/div/div/ul/p'
p401
F8.357552004618084
sS'/html/body/div/div/div/div/div/h3/i'
p402
F9.94251450533924
sS'/html/body/div/div/div/div/script'
p403
F1.1644373758038817
sS'/html/body/div/div/div/div/div/div/div/ul/li/div/div/div/div/a/div'
p404
F5.694586991895655
sS'/html/body/div/div/div/div/div/div/div/div/a/div/div/ul/li'
p405
F9.94251450533924
sS'/html/body/div/div/div/div/div/ul'
p406
F4.387925653661602
sS'/html/body/div/div/div/dl/dd/ul/li/a/span'
p407
F7.357552004618085
sS'/html/body/div/div/div/div/div/form/fieldset/input'
p408
F9.94251450533924
sS'/html/body/div/div/div/li/div/div/p/img'
p409
F8.94251450533924
sS'/html/body/div/div/div/div/div/div/dl/dd/div/div/div/p/a'
p410
F7.135159583281635
sS'/html/body/div/div/div/div/table/caption'
p411
F9.94251450533924
sS'/html/body/div/div/ul/li/div/div/div/dl/dt/a'
p412
F9.94251450533924
sS'/html/body/div/div/div/div/div/dl/dd/ul/li/a/img'
p413
F2.3351841915896294
sS'/html/body/link'
p414
F5.694586991895655
sS'/html/body/div/div/div/div/div/div/div/textarea'
p415
F1.3204626858828636
sS'/html/body/div/div/div/div/ul/li/div/li/ul/li/div/div/a'
p416
F9.94251450533924
sS'/html/body/div/div/ul/li/div/div/p'
p417
F9.94251450533924
sS'/html/body/div/div/div/div/div/div/div/ul/li/div/span'
p418
F8.94251450533924
sS'/html/body/header/div/div/p/em'
p419
F9.94251450533924
sS'/html/body/div/div/div/div/div/div/div/div/dl/dd/div/div/p/a'
p420
F9.94251450533924
sS'/html/body/div/div/div/div/div/li/div/h4'
p421
F9.94251450533924
sS'/html/body/div/div/div/div/div/ul/li/ul/li/div/div/div/b'
p422
F9.94251450533924
sS'/html/body/div/div/ul/li/div/div/a'
p423
F9.94251450533924
sS'/html/body/div/div/div/div/div/div/div/div/div/a/strong/span/script'
p424
F1.3168056622747748
sS'/html/body/footer/div/div/a'
p425
F9.94251450533924
sS'/html/body/div/div/div/div/div/div/div/ul/li/a/img'
p426
F4.109624491174499
sS'/html/body/div/div/div/li/div/p'
p427
F9.94251450533924
sS'/html/body/div/div/div/div/div/div/object/embed'
p428
F9.94251450533924
sS'/html/body/div/div/div/div/div/div/div/div/p/a/img'
p429
F6.357552004618085
sS'/html/body/div/div/div/div/ul/li/embed'
p430
F9.94251450533924
sS'/html/body/div/div/ul/li/span'
p431
F9.94251450533924
sS'/html/body/div/div/div/div/div/div/div/p/br'
p432
F1.4871872850346792
sS'/html/body/div/div/div/div/div/div/form/table/tbody/tr/th/div/a/img'
p433
F7.135159583281635
sS'/html/body/div/div/dl/dd/ul/li/div/p/a'
p434
F8.94251450533924
sS'/html/body/div/div/div/div/div/div/div/div/table/tbody/tr/td/p/strong'
p435
F9.94251450533924
sS'/html/body/div/div/div/div/div/div/form/table/tbody/tr/th/div/div/a'
p436
F7.135159583281635
sS'/html/body/div/div/div/div/div/table/tr/td/div/div/div/table/tr/td/ignore_js_op/div/div'
p437
F7.620586410451877
sS'/html/body/div/div/div/div/ul/li/div/div/div/div/a/div'
p438
F8.94251450533924
sS'/html/body/div/div/div/div/ul/li/div/li/div/div/p'
p439
F9.94251450533924
sS'/html/body/div/div/div/div/div/div/div/ul/li/ul/li/div/li/ul'
p440
F9.94251450533924
sS'/html/body/div/div/div/div/div/div/div/ul/li/ul/li/div/a'
p441
F9.94251450533924
sS'/html/body/div/div/div/div/ul/li/div/li/div/div/a'
p442
F9.94251450533924
sS'/html/body/div/div/div/div/ul/li/ul'
p443
F5.8550516640889
sS'/html/body/div/div/div/div/div/div/div/p/iframe'
p444
F4.73306113971029
sS'/html/body/div/div/div/p/a/span'
p445
F9.94251450533924
sS'/html/body/div/div/div/div/div/ul/div/div/div/div/div/div/div/ul/li/div/div/a'
p446
F6.772589503896928
sS'/html/body/div/div/div/div/div/div/div/div/ul/li/a/img'
p447
F6.035623909730722
sS'/html/body/div/div/div/div/div/div/div/div/div/div'
p448
F1.2878784768112725
sS'/html/body/div/div/div/div/ul/div/li/a/i'
p449
F9.94251450533924
sS'/html/body/div/div/li/div/li/div/div/div/span'
p450
F8.94251450533924
sS'/html/body/div/div/div/div/div/div/div/table/tr/td/dl/dd/a'
p451
F9.94251450533924
sS'/html/body/div/div/div/div/form/a'
p452
F9.94251450533924
sS'/html/body/div/div/div/div/ul/li/div/div/object/param'
p453
F9.94251450533924
sS'/html/body/p/xmpmeta/rdf/description/tonecurve/seq/li'
p454
F7.620586410451877
sS'/html/body/div/div/div/div/div/dl/dd/ul/l/li/a'
p455
F9.94251450533924
sS'/html/body/div/div/div/div/div/div/div/div/div/dl/dd/a/img'
p456
F9.94251450533924
sS'/html/body/div/div/div/div/div/div/div/div/a/img'
p457
F2.1677274457380666
sS'/html/body/div/main/section/div/div/div/p'
p458
F9.94251450533924
sS'/html/body/div/div/div/div/div/div/div/p/span/a'
p459
F6.4830828867019425
sS'/html/body/div/div/div/div/div/div/div/table/tbody/tr/td/p/br'
p460
F9.94251450533924
sS'/html/body/div/div/div/div/div/p/a'
p461
F1.6433064869519611
sS'/html/body/div/div/div/div/div/div/div/p/span/p'
p462
F8.94251450533924
sS'/html/body/div/div/div/div/form/div/div/ul/li/a'
p463
F9.94251450533924
sS'/html/body/div/div/div/div/div/table/tr/td/div/div/div/table/tr/td/div/strong/br'
p464
F9.94251450533924
sS'/html/body/div/div/div/div/div/iframe'
p465
F7.94251450533924
sS'/html/body/div/div/div/dl/dd/img'
p466
F8.94251450533924
sS'/html/body/div/div/a/i'
p467
F8.94251450533924
sS'/html/body/div/div/div/div/strong'
p468
F7.357552004618085
sS'/html/body/div/div/div/div/div/div/div/ul/li/div/p/a'
p469
F9.94251450533924
sS'/html/body/div/div/div/div/div/div/ul/li/a/div/div/div/ul/li/ul/li/ul'
p470
F9.94251450533924
sS'/html/body/div/div/div/div/div/div/div/p/em/strong/em/strong'
p471
F8.94251450533924
sS'/html/body/div/div/dl/dd/div/p/span'
p472
F8.357552004618084
sS'/html/body/div/div/div/div/div/table/tr/td/div/div/div/a/div'
p473
F6.772589503896928
sS'/html/body/p/f'
p474
F8.94251450533924
sS'/html/body/p/i'
p475
F9.94251450533924
sS'/html/body/div/div/div/img'
p476
F4.8981203859807865
sS'/html/body/p/k'
p477
F9.94251450533924
sS'/html/body/p/l'
p478
F9.94251450533924
sS'/html/body/p/n'
p479
F8.94251450533924
sS'/html/body/div/div/div/div/div/div/div/div/div/span'
p480
F6.242074787198148
sS'/html/body/div/div/div/div/div/ul/div/div/div/div/div/div/div/ul/li/div/a'
p481
F6.772589503896928
sS'/html/body/p/v'
p482
F9.94251450533924
sS'/html/body/div/div/div/div/div/div/ul/li/ul/ul/li/strong'
p483
F9.94251450533924
sS'/html/body/div/div/div/dl/dd/div/ul/li/a'
p484
F9.94251450533924
sS'/html/body/div/div/div/div/div/div/div/div/div/div/div/a/img'
p485
F6.772589503896928
sS'/html/body/div/header/div/nav/a'
p486
F9.94251450533924
sS'/html/body/div/footer/div/div/header/button'
p487
F9.94251450533924
sS'/html/body/div/div/div/div/div/div/ul/li/div/div/p/img'
p488
F9.94251450533924
sS'/html/body/div/div/div/div/div/table/tr/td/div/div/div/div/div/div/em'
p489
F6.772589503896928
sS'/html/body/div/h2/span/a'
p490
F6.357552004618085
sS'/html/body/div/div/div/div/div/div/a/img'
p491
F1.148098638989134
sS'/html/body/div/div/div/div/div/li/div/div/div/div/span'
p492
F9.94251450533924
sS'/html/body/div/div/div/div/div/div/div/ul/li/img'
p493
F1.787696396287136
sS'/html/body/div/div/div/div/div/table/thead/tr/th'
p494
F8.94251450533924
sS'/html/body/div/div/div/div/ul/li/div/a'
p495
F6.242074787198148
sS'/html/body/div/footer/div/div/div/ul/li/a'
p496
F9.94251450533924
sS'/html/body/div/div/div/div/div/div/div/ul/li/div/li/ul/li/div/li/div/div/div/span'
p497
F9.94251450533924
sS'/html/body/div/div/div/div/table/tbody/tr/td/p/span'
p498
F9.94251450533924
sS'/html/body/div/div/div/div/b/a'
p499
F8.357552004618084
sS'/html/body/div/div/div/div/div/div/div/dl/dt/span/a'
p500
F8.94251450533924
sS'/html/body/div/div/div/div/div/div/ul/li/ul/li/strong'
p501
F9.94251450533924
sS'/html/body/div/div/div/div/div/table/tr/td/div/div/div/table/tr/td/div/blockquote/font/font'
p502
F9.94251450533924
sS'/html/body/div/div/div/div/div/div/div/div/a/div/div/div/div/span'
p503
F9.94251450533924
sS'/html/body/div/div/div/ul/li/a/div/a/img'
p504
F9.94251450533924
sS'/html/body/div/div/dl/dd/div/span'
p505
F8.357552004618084
sS'/html/body/div/footer/div/div/div/h4'
p506
F9.94251450533924
sS'/html/body/div/div/div/div/ul/li/div/li/div/div/div/span'
p507
F9.94251450533924
sS'/html/body/div/div/div/div/div/form/div/div/a'
p508
F9.94251450533924
sS'/html/body/div/div/div/ul'
p509
F5.8550516640889
sS'/html/body/div/div/div/div/table/tr/td/p/span'
p510
F2.277178588154064
sS'/html/body/div/div/div/div/div/table/tr/td/div/div/div/table/tr/td/div/font/font/strong'
p511
F9.94251450533924
sS'/html/body/div/div/div/ul/li/div/a'
p512
F7.94251450533924
sS'/html/body/div/div/div/div/div/div/ul/div/div/div/div/div/li/div/span/a'
p513
F6.772589503896928
sS'/html/body/p/xmpmeta/rdf/description/derivedfrom'
p514
F5.084533510211668
sS'/html/body/div/div/div/div/div/div/div/div/ul/li/div/img'
p515
F8.357552004618084
sS'/html/body/div/div/div/div/div/div/div/div/span/a'
p516
F2.8132314883942735
sS'/html/body/div/div/div/div/div/div/ul/li/a/div/div/div/ul/li/div/div/a'
p517
F9.94251450533924
sS'/html/body/div/div/div/div/li/ul/li/div/div/div/b'
p518
F9.94251450533924
sS'/html/body/div/div/div/div/div/table/tr/td'
p519
F6.772589503896928
sS'/html/body/div/div/div/table/thead/tr/th/strong'
p520
F9.94251450533924
sS'/html/body/div/div/div/div/div/div/div/div/a/div'
p521
F5.4830828867019425
sS'/html/body/div/div/div/div/div/div/ul/li/a/div/div/div/ul/li/div/div/p'
p522
F9.94251450533924
sS'/html/body/div/div/div/div/div/div/div/ul/li/ul/li/div/div/div/div/span'
p523
F9.94251450533924
sS'/html/body/div/div/div/ul/a/img'
p524
F9.94251450533924
sS'/html/body/div/div/div/div/div/div/div/div/ul/li'
p525
F1.1159660180483248
sS'/html/body/div/div/div/div/div/div/ul/li/a/div/div/div/ul/li/div/div/div/b'
p526
F9.94251450533924
sS'/html/body/div/div/div/div/div/table/tr/td/div/div/div/table/tr/td/div/font/font'
p527
F9.94251450533924
sS'/html/body/div/div/div/div/div/dl/dd/ul/li/div/p/a'
p528
F2.3351841915896294
sS'/html/body/div/div/div/div/div/table/tr/td/div/a/i/span'
p529
F7.135159583281635
sS'/html/body/div/div/div/div/div/div/div/div/a/div/div/div/div'
p530
F9.94251450533924
sS'/html/body/div/div/div/div/div/table/tr/td/div/div/div/table/tr/td/div/ignore_js_op/div/div/p'
p531
F9.94251450533924
sS'/html/body/div/div/div/div/div/div/div/p/strong/span/a'
p532
F7.620586410451877
sS'/html/body/div/div/div/div/div/div/dl/dd/div/div/a'
p533
F9.94251450533924
sS'/html/body/div/div/div/div/div/div/div/p/strong/span/strong/img'
p534
F9.94251450533924
sS'/html/body/div/div/div/div/form/div/div/div/div/a'
p535
F9.94251450533924
sS'/html/body/div/div/div/div/form/div/div/div/div/b'
p536
F9.94251450533924
sS'/html/body/div/div/div/div/div/table/tr/td/div/div/div/table/tr/td/font/font/ignore_js_op/div/div/p/strong'
p537
F9.94251450533924
sS'/html/body/div/div/div/div/textarea'
p538
F5.357552004618084
sS'/html/body/div/div/div/div/div/table/tr/td/div/div/div/table/tr/td/div/ignore_js_op/div/div/p/em'
p539
F9.94251450533924
sS'/html/body/div/div/div/div/div/ul/li/div/p/span'
p540
F9.94251450533924
sS'/html/body/div/div/div/div/div/table/tr/td/div/div/div/table/tr/td/font/font/ignore_js_op/div/div'
p541
F9.94251450533924
sS'/html/body/div/div/div/div/div/div/div/li/div/div/div/a/div'
p542
F9.94251450533924
sS'/html/body/div/div/ul/li/div/div/div/span'
p543
F9.94251450533924
sS'/html/body/div/div/div/div/div/div/div/ul/li/div/div/div/a/div/b'
p544
F9.94251450533924
sS'/html/body/div/div/div/div/div/div/dl/dd/ul/li/a'
p545
F6.772589503896928
sS'/html/body/div/div/div/div/div/div/div/div/div/div/a/p'
p546
F8.357552004618084
sS'/html/body/div/div/div/div/div/div/div/ul/li/div/div/div/a/div/p'
p547
F9.94251450533924
sS'/html/body/div/div/div/div/div/table/tr/td/div/div/div/table/tr/td/br'
p548
F6.772589503896928
sS'/html/body/div/div/div/div/div/li/div/li/ul'
p549
F9.94251450533924
sS'/html/body/div/div/div/object/param'
p550
F8.94251450533924
sS'/html/body/div/div/div/div/div/div/div/p'
p551
F1.0907654639231823
sS'/html/body/div/div/div/div/div/li/div/li/img'
p552
F9.94251450533924
sS'/html/body/div/div/div/div/li/div/div/div/span'
p553
F8.94251450533924
sS'/html/body/div/div/div/div/div/div/div/div/a/div/div/div/dl/dt'
p554
F9.94251450533924
sS'/html/body/div/div/div/div/div/div/div/b'
p555
F7.620586410451877
sS'/html/body/div/div/div/div/div/div/div/a'
p556
F0.94251450533924
sS'/html/body/div/div/div/li/div/div/div/a/div/a/div'
p557
F9.94251450533924
sS'/html/body/div/div/dl/dd/ul/li/a'
p558
F7.94251450533924
sS'/html/body/div/div/div/div/li/ul/li/div/div/div/a/div'
p559
F9.94251450533924
sS'/html/body/div/div/div/div/div/div/div/p/strong/span/a/span'
p560
F8.357552004618084
sS'/html/body/div/div/div/div/div/div/div/p/ignore_js_op/ignore_js_op/ignore_js_op/img'
p561
F9.94251450533924
sS'/html/body/div/div/dl/dd/ul/li/p'
p562
F8.94251450533924
sS'/html/body/div/div/div/div/div/p/span'
p563
F9.94251450533924
sS'/html/body/div/div/div/div/div/form/div/div/label/div'
p564
F9.94251450533924
sS'/html/body/div/div/div/div/div/div/div/ul/li/div/li/div/div/p'
p565
F5.550197082560479
sS'/html/body/div/div/ul/li/div/a/div/h3/a'
p566
F9.94251450533924
sS'/html/body/div/div/div/div/div/table/tr/td/div/div/div/table/tr/td/div/ignore_js_op/div/div'
p567
F9.94251450533924
sS'/html/body/div/div/div/div/div/div/div/div/table/tbody/tr/td/p/a/strong/span/font'
p568
F9.94251450533924
sS'/html/body/div/div/div/div/div/div/div/ul/li/div/li/div/div/a'
p569
F5.550197082560479
sS'/html/body/div/dl/dd/ul/li/a/i'
p570
F8.94251450533924
sS'/html/body/div/div/dl/dt/div/a/b'
p571
F9.94251450533924
sS'/html/body/div/div/div/div/div/ul/li/div'
p572
F9.94251450533924
sS'/html/body/div/div/div/div/div/div/li/img'
p573
F6.94251450533924
sS'/html/body/div/div/ul/li/div/h3/a'
p574
F8.94251450533924
sS'/html/body/div/div/div/div/form/div/div/div/div/label'
p575
F9.94251450533924
sS'/html/body/div/div/div/div/table/tr/td/div/ul/li'
p576
F2.277178588154064
sS'/html/body/p/lng'
p577
F9.94251450533924
sS'/html/body/div/div/div/li/div/div/div/a/div/b'
p578
F9.94251450533924
sS'/html/body/div/div/div/dl/dd/ul/li/p'
p579
F6.357552004618085
sS'/html/body/div/div/div/div/div/div/p'
p580
F4.084533510211668
sS'/html/body/table/tbody/tr/td/table/tbody/tr/td/img'
p581
F7.620586410451877
sS'/html/body/div/div/div/div/div/div/i'
p582
F8.94251450533924
sS'/html/body/div/div/div/div/div/div/div/div/div/div/div/div/a/img'
p583
F9.94251450533924
sS'/html/body/div/div/div/div/div/div/b'
p584
F4.035623909730722
sS'/html/body/div/div/div/div/div/div/ul/li/ul/li/div/div/div/a/div'
p585
F9.94251450533924
sS'/html/body/div/div/div/div/div/div/div/div/div/div/ul/li/span/a'
p586
F9.94251450533924
sS'/html/body/div/div/div/div/div/table/tr/td/div/div/div/table/tr/td/ignore_js_op/div/div/p/a'
p587
F7.620586410451877
sS'/html/body/div/div/div/div/div/div/div/div/div/dl/dt/a'
p588
F9.94251450533924
sS'/html/body/div/div/div/li/div/li/div/div/a'
p589
F9.94251450533924
sS'/html/html/p/i'
p590
F9.94251450533924
sS'/html/body/div/div/div/li/div/li/div/div/p'
p591
F9.94251450533924
sS'/html/body/div/div/div/div/div/div/ul/li/div/div/a/img'
p592
F9.94251450533924
sS'/html/body/div/div/div/p/a/img'
p593
F1.948161068480382
sS'/html/body/div/div/div/div/div/div/div/ul/li/b'
p594
F9.94251450533924
sS'/html/body/div/div/div/li/div/ul/li/a'
p595
F9.94251450533924
sS'/html/body/div/div/div/div/div/li/div/div/a'
p596
F4.94251450533924
sS'/html/body/div/div/div/div/div/li/div/div/b'
p597
F9.94251450533924
sS'/html/body/div/div/div/div/li/ul/li/ul'
p598
F9.94251450533924
sS'/html/body/div/span/img'
p599
F9.94251450533924
sS'/html/body/div/div/div/ul/a'
p600
F9.94251450533924
sS'/html/body/div/div/div/div/div/li/div/div/p'
p601
F5.035623909730721
sS'/html/body/div/div/ul/li/div/a'
p602
F9.94251450533924
sS'/html/body/div/div/div/div/div/div/div/ul/li/h4'
p603
F8.94251450533924
sS'/html/body/div/div/img'
p604
F6.620586410451877
sS'/html/body/div/div/div/dl/dd/ul/li/a'
p605
F5.620586410451877
sS'/html/body/div/div/div/div/div/table/tr/td/div/div/div/table/tr/td/font/font'
p606
F8.94251450533924
sS'/html/body/div/div/div/ul/li/img'
p607
F7.357552004618085
sS'/html/body/div/div/ul/li/div/p'
p608
F8.94251450533924
sS'/html/body/ul'
p609
F6.135159583281637
sS'/html/body/div/div/div/div/div/div/div/input'
p610
F7.620586410451877
sS'/html/body/div/div/div/div/div/div/li/ul/li/img'
p611
F8.357552004618084
sS'/html/head/link'
p612
F0.16772744573806653
sS'/html/body/div/div/div/div/form/table/tr/td/span'
p613
F6.772589503896928
sS'/html/body/div/div/div/div/div/table/tr/td/div/div/div/table/tr/td/font/font/font/strong'
p614
F9.94251450533924
sS'/html/body/div/div/ul'
p615
F7.357552004618085
sS'/html/body/div/div/div/div/div/div/div/ul/li/ul/li/div/li/ul/li/div/div/a'
p616
F9.94251450533924
sS'/html/body/div/div/div/div/ul/li/div/div'
p617
F9.94251450533924
sS'/html/body/div/div/div/div/form/table/tr/td/div/div/div/div/span/a'
p618
F6.772589503896928
sS'/html/body/div/div/div/div/div/table/tr/td/div/div/div/table/tr/td/div/ignore_js_op/div/div/p/a'
p619
F9.94251450533924
sS'/html/body/div/div/div/div/div/div/ul/li/a/div/div/div/div/a'
p620
F9.94251450533924
sS'/html/body/div/div/dl/dd/div/div/div/table/tbody/tr/td/a/img'
p621
F8.357552004618084
sS'/html/body/div/div/div/div/div/div/div/ul/h2/a'
p622
F8.357552004618084
sS'/html/body/div/div/div/div/form/div/div/div/div/div/select/option'
p623
F9.94251450533924
sS'/html/body/div/div/div/div/div/div/div/ul/li/div/li/img'
p624
F5.550197082560479
sS'/html/body/div/div/div/div/div/div/div/div'
p625
F1.0721497857558355
sS'/html/body/div/div/div/div/div/dl/dd/div/div/ul/li/div/a'
p626
F3.898120385980786
sS'/html/body/div/div/li/div/li/ul/li/div/div/p'
p627
F9.94251450533924
sS'/html/body/div/div/div/dl/dt/form/a'
p628
F8.94251450533924
sS'/html/body/div/div/div/p/img'
p629
F9.94251450533924
sS'/html/body/div/div/div/div/div/div/div/dl/dd/a/img'
p630
F8.357552004618084
sS'/html/body/div/div/div/div/div/dl/dd/div/div/ul/li/div/p'
p631
F3.898120385980786
sS'/html/body/div/div/li/div/li/ul/li/div/div/a'
p632
F9.94251450533924
sS'/html/body/div/div/div/div/div/div/a'
p633
F0.9595209306449299
sS'/html/body/div/div/a'
p634
F0.7551624321387435
sS'/html/body/div/div/div/div/div/div/div/div/div/div/div/div'
p635
F7.94251450533924
sS'/html/body/div/div/ul/li/script'
p636
F9.94251450533924
sS'/html/body/div/div/div/div/div/div/div/div/a/div/div/p'
p637
F9.94251450533924
sS'/html/body/div/div/div/div/div/dl/dd/ul/li/a/strong'
p638
F2.3351841915896294
sS'/html/body/div/div/div/div/div/div/form/table/tbody/tr/th/div/div/em'
p639
F7.135159583281635
sS'/html/body/div/div/p'
p640
F6.620586410451877
sS'/html/body/div/div/div/div/div/ul/div/div/div/div/div/div/div/ul/li'
p641
F6.772589503896928
sS'/html/body/div/div/div/div/div/table/tr/td/div/div/div/table/tr/td/div/font'
p642
F9.94251450533924
sS'/html/body/div/div/div/div/div/div/div/ul/li/ul/li/div/div/b'
p643
F9.94251450533924
sS'/html/body/div/div/div/div/div/div/div/ul/li/ul/li/div/div/a'
p644
F3.1223355429240525
sS'/html/body/div/div/dl/dd/div/div/a/strong'
p645
F8.94251450533924
sS'/html/body/div/h2/span'
p646
F6.357552004618085
sS'/html/body/div/div/ul/li/div/div'
p647
F9.94251450533924
sS'/html/body/div/div/div/div/div/table/tr/td/div/div/div/em'
p648
F6.772589503896928
sS'/html/body/div/div/div/div/div/div/div/div/div/div/div/img'
p649
F8.357552004618084
sS'/html/body/div/div/div/div/div/dl/dd/ul/span'
p650
F8.94251450533924
sS'/html/body/div/div/div/div/div/div/li/ul/li/div/div/div/b'
p651
F8.357552004618084
sS'/html/body/div/div/ul/li/div/a/div/p'
p652
F9.94251450533924
sS'/html/body/div/div/div/div/em'
p653
F6.772589503896928
sS'/html/body/div/div/div/div/div/div/style'
p654
F9.94251450533924
sS'/html/body/div/h1/strong'
p655
F8.94251450533924
sS'/html/body/div/dl/dd/ul/li/a'
p656
F8.94251450533924
sS'/html/body/div/div/div/div/div/li/div/div/div/div/b'
p657
F9.94251450533924
sS'/html/body/div/div/div/div/div/div/div/label'
p658
F8.94251450533924
sS'/html/body/div/div/div/div/li/div/div/div/b'
p659
F8.94251450533924
sS'/html/body/div/div/div/div/div/div/div/dl/dt/dt'
p660
F8.94251450533924
sS'/html/body/div/div/div/div/li/div/div/div/k'
p661
F9.94251450533924
sS'/html/body/div/div/div/div/li/div/div/div/p'
p662
F9.94251450533924
sS'/html/body/div/main/section/div/div/div/a/i'
p663
F9.94251450533924
sS'/html/body/div/div/div/ul/li/div/div/a'
p664
F8.357552004618084
sS'/html/body/div/div/div/div/button/span'
p665
F9.94251450533924
sS'/html/body/div/div/li/ul/li/div/div/p'
p666
F7.94251450533924
sS'/html/body/div/div/div/div/div/ul/ul/li/a'
p667
F9.94251450533924
sS'/html/body/div/div/div/div/div/a/h2'
p668
F9.94251450533924
sS'/html/body/div/div/div/div/div/div/div/ul/li/ul'
p669
F1.8183931935100526
sS'/html/body/div/div/ul/li/div/h3/a/strong'
p670
F9.94251450533924
sS'/html/body/div/div/li/ul/li/div/div/a'
p671
F7.94251450533924
sS'/html/body/div/div/div/div/table/thead/tr/th'
p672
F9.94251450533924
sS'/html/body/div/div/div/div/div/div/div/span/br'
p673
F9.94251450533924
sS'/html/body/div/div/div/div/dl/dd/ul/li/a/b'
p674
F8.357552004618084
sS'/html/body/div/form/div/div'
p675
F7.135159583281635
sS'/html/body/div/div/div/div/div/em'
p676
F8.94251450533924
sS'/html/body/div/div/div/div/div/dl/dd/div/div/a/strong'
p677
F2.3351841915896294
sS'/html/body/div/div/div/div/div/div/ul/li/div/p/a'
p678
F9.94251450533924
sS'/html/body/div/span'
p679
F7.94251450533924
sS'/html/body/div/div/div/div/div/div/ul/li/a/div/div/div/div/span'
p680
F9.94251450533924
sS'/html/body/div/div/div/div/div/table/tr/td/div/div/div/dl/dd/a'
p681
F7.135159583281635
sS'/html/body/div/div/div/div/div/div/div/h2'
p682
F8.94251450533924
sS'/html/body/div/div/div/dl/dt/div/dl/dd/div/div/ul/li/div/a'
p683
F9.94251450533924
sS'/html/body/div/div/div/div/div/table/tr/td/div/div/div/table/tr/td/i'
p684
F7.357552004618085
sS'/html/body/div/div/div/div/div/table/tr/td/div/div/div/table/tr/td/a'
p685
F8.94251450533924
sS'/html/body/div/div/div/div/div/div/div/ul'
p686
F1.7477576509169919
sS'/html/body/div/div/div/div/div/div/...'
p687
F9.94251450533924
sS'/html/body/div/div/div/div/div/div/ul/li/a/div/script'
p688
F9.94251450533924
sS'/html/body/div/div/div/div/ul/li/ul/li/ul'
p689
F8.94251450533924
sS'/html/body/div/div/div/div/div/div/div/p/a/font'
p690
F9.94251450533924
sS'/html/body/div/div/div/div/div/div/div/div/div/div/img'
p691
F7.94251450533924
sS'/html/body/div/div/div/div/div/div/dl/a'
p692
F1.7428421605028757
sS'/html/body/div/main/section/div/div/div/img'
p693
F9.94251450533924
sS'/html/body/div/div/div/embed'
p694
F9.94251450533924
sS'/html/body/p/style'
p695
F6.772589503896928
sS'/html/body/div/div/div/div/div/div/dl/dd/ul/li/div/p/a'
p696
F7.135159583281635
sS'/html/body/div/div/div/div/div/dl/dt/div/dl/dd/div/div/ul/li/a/img'
p697
F7.135159583281635
sS'/html/body/div/div/div/div/div/div/div/div/dl/dd/div/div/p/span'
p698
F9.94251450533924
sS'/html/body/div/div/div/div/div/div/div/dl/dd/dd/a'
p699
F9.94251450533924
sS'/html/body/div/div/div/div/div/div/form/ul/li/div/a'
p700
F9.94251450533924
sS'/html/body/div/div/div/div/dl/dt/div/a/b'
p701
F7.357552004618085
sS'/html/body/form/div/div/div'
p702
F6.620586410451877
sS'/html/body/div/div/div/div/ul/li/div/a/img'
p703
F7.94251450533924
sS'/html/body/div/span/span'
p704
F9.94251450533924
sS'/html/body/div/div/div/div/div/div/div/div/ul/li/span/a'
p705
F8.357552004618084
sS'/html/body/div/div/div/div/div/li/ul'
p706
F5.084533510211668
sS'/html/body/div/div/div/div/form/table/tr/td/div/div/div/div'
p707
F6.772589503896928
sS'/html/body/div/div/div/div/div/div/div/ul/li/div/li/div/div/p/br'
p708
F7.620586410451877
sS'/html/body/div/div/div/div/a/div/div'
p709
F6.620586410451877
sS'/html/body/div/div/div/div/div/ul/br'
p710
F9.94251450533924
sS'/html/body/div/div/div/div/div/div/div/div/div/div/div/dl/dd/a'
p711
F9.94251450533924
sS'/html/body/div/div/div/div/div/table/tr/td/div/h3'
p712
F8.94251450533924
sS'/html/body/div/div/div/div/div/ul/li/div/a/img'
p713
F7.620586410451877
sS'/html/body/div/div/div/div/div/div/div/div/a/div/p'
p714
F9.94251450533924
sS'/html/body/p/xmpmeta/rdf/description/tonecurveblue/seq/li'
p715
F7.620586410451877
sS'/html/body/div/div/dl/dd/div/div/div/p/a'
p716
F8.94251450533924
sS'/html/body/div/div/div/div/ul/li/div/li/ul/li/img'
p717
F9.94251450533924
sS'/html/body/div/div/ul/li/a/img'
p718
F7.357552004618085
sS'/html/body/div/div/div/div/div/div/ul/li/a/div/div/div/ul/li/ul/li/img'
p719
F9.94251450533924
sS'/html/body/div/div/div/div/div/dl/dd/div/div/ul/li/div'
p720
F9.94251450533924
sS'/html/body/div/div/div/div/div/a/div'
p721
F6.357552004618085
sS'/html/body/div/div/div/div/div/div/div/div/ul/li/p/span'
p722
F6.772589503896928
sS'/html/body/div/div/div/div/li/ul/li/div/div/p'
p723
F9.94251450533924
sS'/html/body/div/div/div/ul/li/a/img'
p724
F4.516249750637142
sS'/html/body/div/div/div/em'
p725
F2.2700891633677442
sS'/html/body/div/div/dl/dd/ul/li/div/a/img'
p726
F8.94251450533924
sS'/html/body/div/div/div/div/li/ul/li/div/div/a'
p727
F9.94251450533924
sS'/html/body/div/div/div/div/div/div/div/ul/li/div/div/div/div/b'
p728
F5.418952549282227
sS'/html/body/div/div/div/div/div/ul/li'
p729
F6.4830828867019425
sS'/html/body/div/dl/dd/ul/li/a/span'
p730
F8.94251450533924
sS'/html/body/div/div/li/div/li/img'
p731
F8.94251450533924
sS'/html/body/div/div/div/div/div/div/div/p/a/br'
p732
F9.94251450533924
sS'/html/body/div/div/div/div/div/div/div/ul/li/div/div/li/div/div/a'
p733
F8.94251450533924
sS'/html/body/table/tbody/tr/td/table/tbody/tr/td/div/strong'
p734
F7.620586410451877
sS'/html/body/div/div/div/div/div/div/ol/li/a/img'
p735
F9.94251450533924
sS'/html/body/div/div/div/div/div/table/tr/td/div/div/span/a'
p736
F7.135159583281635
sS'/html/body/div/div/div/div/div/ul/li/div/em'
p737
F9.94251450533924
sS'/html/body/div/div/div/label/input'
p738
F6.772589503896928
sS'/html/body/div/div/div/div/div/div/div/ul/li/div/div/li/div/div/p'
p739
F8.94251450533924
sS'/html/head/noscript/style'
p740
F9.94251450533924
sS'/html/body/div/div/div/div/div/div/div/dl/dt/span'
p741
F8.94251450533924
sS'/html/body/div/div/div/div/div/div/label/input'
p742
F9.94251450533924
sS'/html/body/div/div/div/div/div/div/div/p/strong/strong'
p743
F6.94251450533924
sS'/html/body/div/div/div/div/a/img'
p744
F0.7403906815087792
sS'/html/body/div/header/nav/a/img'
p745
F9.94251450533924
sS'/html/body/div/div/div/div/div/div/ul/li/a/div/div/div/div/div/div/a'
p746
F9.94251450533924
sS'/html/body/div/div/div/div/div/div/div/div/a/strong/span/script'
p747
F8.94251450533924
sS'/html/body/div/div/div/div/div/div/ul/li/div/div/b'
p748
F9.94251450533924
sS'/html/body/div/main/section/div/a'
p749
F9.94251450533924
sS'/html/body/div/div/div/div/div/div/ul/li/div/div/a'
p750
F7.94251450533924
sS'/html/body/div/div/div/div/div/ul/li/div/div'
p751
F8.94251450533924
sS'/html/body/div/div/div/div/div/div/div/div/table/tbody/tr/td/p'
p752
F9.94251450533924
sS'/html/body/div/div/div/div/div/div/a/div/p'
p753
F9.94251450533924
sS'/html/body/div/div/div/div/div/div/ul/li/div/div/p'
p754
F8.94251450533924
sS'/html/body/div/div/div/div/div/div/ul/li/a/div/div/div/ul/li/div/div/p/br'
p755
F9.94251450533924
sS'/html/body/div/div/div/form/div/div/div/p'
p756
F8.94251450533924
sS'/html/body/div/header/div/nav/form/div/input'
p757
F9.94251450533924
sS'/html/body/div/div/h1/a/img'
p758
F9.94251450533924
sS'/html/body/div/div/ul/li/div/div/div/div/p'
p759
F9.94251450533924
sS'/html/body/div/div/div/div/div/div/div/i'
p760
F9.94251450533924
sS'/html/body/div/div/div/form/div/div/div/a'
p761
F8.94251450533924
sS'/html/body/div/div/div/div/div/dl/dd/a/img'
p762
F6.135159583281637
sS'/html/body/div/div/li/div/div/div/span'
p763
F7.94251450533924
sS'/html/body/div/div/div/div/div/div/dl/dd/ul/li/div/a/img'
p764
F7.135159583281635
sS'/html/body/div/div/div/div/div/div/div/span/img'
p765
F9.94251450533924
sS'/html/body/div/div/div/div/div/div/input'
p766
F6.772589503896928
sS'/html/body/div/div/div/ul/li/a/div/img'
p767
F0.7927673858345579
sS'/html/body/div/div/div/div/div/div/div/div/ul/div'
p768
F8.357552004618084
sS'/html/body/div/div/div/div/div/table/tr/td/div/div/div/table/tr/td/font/font/ignore_js_op/div/div/p/em'
p769
F9.94251450533924
sS'/html/body/div/div/ul/li/strong'
p770
F9.94251450533924
sS'/html/body/div/div/div/div/div/table/tbody/tr/th/br'
p771
F8.94251450533924
sS'/html/body/div/div/div/div/div/div/div/table/tbody/tr/td'
p772
F9.94251450533924
sS'/html/body/div/div/div/div/div/div/div/ul/li/div/li/ul/li/div/li/div/div/div/a/div'
p773
F9.94251450533924
sS'/html/body/div/div/div/div/div/div/div/ul/li/div/div/li/ul/li/img'
p774
F9.94251450533924
sS'/html/body/div/main/section/div/div/div/div/a/i'
p775
F9.94251450533924
sS'/html/body/div/div/div/div/div/table/tr/td/div/span'
p776
F7.135159583281635
sS'/html/body/div/div/div/div/div/div/li/div/div/div/a/div'
p777
F7.620586410451877
sS'/html/body/div/div/div/div/div/div/p/strong'
p778
F7.94251450533924
sS'/html/body/div/div/div/ul/li/div/a/img'
p779
F7.94251450533924
sS'/html/body/table/tbody/tr/td/table/tbody/tr/td/div'
p780
F7.620586410451877
sS'/html/body/div/div/div/div/div/dl/dt/div/a'
p781
F9.94251450533924
sS'/html/body/div/div/div/div/table/tr/td/div/img'
p782
F6.242074787198148
sS'/html/body/div/div/div/div/div/div/div/ul/li/div'
p783
F4.135159583281636
sS'/html/body/div/div/li/div/div/div'
p784
F9.94251450533924
sS'/html/body/div/div/div/div/a/div'
p785
F6.4830828867019425
sS'/html/body/div/div/div/div/div/img'
p786
F4.161154791814581
sS'/html/body/div/div/form/div/div/a'
p787
F6.135159583281637
sS'/html/body/div/footer/div/p/a'
p788
F9.94251450533924
sS'/html/body/div/div/div/div/li/ul/li/img'
p789
F9.94251450533924
sS'/html/body/div/div/div/div/div/dl/dt/div/dl/dt'
p790
F7.135159583281635
sS'/html/body/div/div/div/div/div/dl/dt/div/li/a'
p791
F7.357552004618085
sS'/html/body/div/div/div/div/div/div/form/div/div/div/a'
p792
F9.94251450533924
sS'/html/body/div/div/div/div/div/div/li/div'
p793
F9.94251450533924
sS'/html/body/div/div/div/div/dl/dd/ul/li/a/img'
p794
F8.357552004618084
sS'/html/body/div/div/div/div/div/div/li/ul'
p795
F7.620586410451877
sS'/html/body/div/div/div/div/div/div/form/div/div/div/p'
p796
F9.94251450533924
sS'/html/body/div/div/div/div/div/div/ul/li/ul/li/a/span'
p797
F9.94251450533924
sS'/html/body/div/div/div/div/div/div/form/table/tbody/tr/th/div/div/span'
p798
F7.135159583281635
sS'/html/body/div/div/form/div/div/label/img'
p799
F6.135159583281637
sS'/html/body/div/div/div/div/div/div/div/ul/li/div/img'
p800
F8.94251450533924
sS'/html/body/div/div/div/div/div/ul/li/a/span'
p801
F8.94251450533924
sS'/html/body/div/div/div/div/div/div/div/div/a/div/div/a/img'
p802
F9.94251450533924
sS'/html/body/div/div/div/div/dl/dt'
p803
F1.6251018915743707
sS'/html/body/div/div/div/div/div/div/div/iframe'
p804
F9.94251450533924
sS'/html/body/div/div/div'
p805
F1.2317080716398883
sS'/html/body/div/div/div/object/embed'
p806
F9.94251450533924
sS'/html/body/div/div/div/div/dl/dd'
p807
F5.357552004618084
sS'/html/body/div/div/dl/dd/ul/li/a/strong'
p808
F8.94251450533924
sS'/html/body/div/div/div/span'
p809
F7.135159583281635
sS'/html/body/div/div/div/h2'
p810
F6.772589503896928
sS'/html/body/div/div/div/div/div/div/div/ul/li/ul/li/ul'
p811
F3.174330180562314
sS'/html/body/div/div/div/div/div/table/tr/td/div/div/div/div/script'
p812
F6.94251450533924
sS'/html/body/div/dl/dt/strong'
p813
F8.94251450533924
sS'/html/body/div/div/div/div/div/div/div/form/span'
p814
F6.357552004618085
sS'/html/body/div/div/div/div/div/div/ul/li/a/div/div/div'
p815
F9.94251450533924
sS'/html/body/div/div/div/div/table/tbody/tr/td/p/span/span'
p816
F9.94251450533924
sS'/html/body/footer/div/div/br'
p817
F9.94251450533924
sS'/html/body/div/span/a/b'
p818
F1.948161068480382
sS'/html/body/div/div/div/div/div/div/div/div/input'
p819
F1.3168056622747748
sS'/html/body/div/div/div/div/div/p/span/label'
p820
F9.94251450533924
sS'/html/body/div/div/div/style'
p821
F6.772589503896928
sS'/html/body/div/div/div/div/form/div/div/div/h3'
p822
F9.94251450533924
sS'/html/body/div/div/div/div/div/div/div/div/div/label'
p823
F8.357552004618084
sS'/html/body/table/tbody/tr/td'
p824
F7.620586410451877
sS'/html/body/div/div/div/div/div/div/div/div/div/h3/a'
p825
F9.94251450533924
sS'/html/body/li/div/div/div/span'
p826
F8.94251450533924
sS'/html/body/div/div/ul/li/form/div/div/div'
p827
F9.94251450533924
sS'/html/body/div/div/div/div/div/div/div/div/a/div/style'
p828
F9.94251450533924
sS'/html/body/div/div/div/p/a/i'
p829
F9.94251450533924
sS'/html/body/div/div/div/div/div/div/p/strong/span'
p830
F9.94251450533924
sS'/html/body/div/div/div/div/div/div/div/div/div/div/div/div/div'
p831
F8.357552004618084
sS'/html/body/div/div/div/div/div/li/ul/li'
p832
F9.94251450533924
sS'/html/body/div/dl/dd/a/img'
p833
F6.94251450533924
sS'/html/body/div/div/div/div/div/table/tr/td/div/div/em/a'
p834
F7.135159583281635
sS'/html/body/div/div/div/div/div/li/h4'
p835
F9.94251450533924
sS'/html/body/div/div/li/ul/li/div/div/div/span'
p836
F7.94251450533924
sS'/html/body/div/div/div/ul/li/strong'
p837
F8.94251450533924
sS'/html/body/div/div/div/div/div/dl/dd/div/a'
p838
F6.620586410451877
sS'/html/body/div/div/div/div/div/table/tr/td/div/div/div/div/a/img'
p839
F7.135159583281635
sS'/html/body/div/form/div/div/label/img'
p840
F1.6898490728889914
sS'/html/body/div/div/div/div/span/a'
p841
F5.772589503896928
sS'/html/body/div/div/div/div/div/div/div/div/a/div/div/div/div/input'
p842
F9.94251450533924
sS'/html/body/div/div/div/li/div/li/div/div/div/a/div'
p843
F9.94251450533924
sS'/html/body/div/div/div/div/div/table/tr/td/div/div/div/table/tr/td/font/font/ignore_js_op/img'
p844
F9.94251450533924
sS'/html/body/div/div/div/div/div/div/div/ul/li/div/div/div/a/div/div/a/div'
p845
F8.94251450533924
sS'/html/body/div/div/div/div/ul/li/p'
p846
F7.94251450533924
sS'/html/body/div/div/div/div/div/div/div/ul/li/div/div/div/a/div/span'
p847
F9.94251450533924
sS'/html/body/div/div/div/div/div/div/div/ul/li/div/li/div/div/div/a/div'
p848
F5.694586991895655
sS'/html/body/div/div/div/div/div/div/div/div/ul/z'
p849
F9.94251450533924
sS'/html/body/table/tbody/tr/td/table/tbody/tr/td/a'
p850
F7.620586410451877
sS'/html/body/div/div/div/div/ul/li/b'
p851
F0.8004074480366898
sS'/html/body/div/dl/dd'
p852
F3.694586991895654
sS'/html/body/div/div/div/div/ul/li/a'
p853
F0.7379433610900362
sS'/html/body/div/div/div/div/div/div/div/ul/li/div/ul/li/div/div/span'
p854
F9.94251450533924
sS'/html/body/div/div/div/div/div/div/div/div/ul/a'
p855
F8.357552004618084
sS'/html/body/div/span/ul/li/ul/div/h3'
p856
F1.9538298185670742
sS'/html/body/div/div/div/div/div/li/div/div/span'
p857
F9.94251450533924
sS'/html/body/div/div/div/div/div/h2/strong'
p858
F9.94251450533924
sS'/html/body/div/div/div/div/div/div/div/span/a'
p859
F6.4830828867019425
sS'/html/body/div/h1/img'
p860
F8.94251450533924
sS'/html/body/p/xmpmeta/rdf/description'
p861
F5.550197082560479
sS'/html/body/div/p/span/script'
p862
F9.94251450533924
sS'/html/body/div/div/div/ul/li/div/h2/a'
p863
F8.94251450533924
sS'/html/body/div/div/div/div/li/div/div/div/div/a/div'
p864
F9.94251450533924
sS'/html/body/div/div/div/div/div/div/ul/li/a/div/div/div/div/div/div'
p865
F9.94251450533924
sS'/html/body/table/tbody/tr/td/table/tbody/tr/td/div/br'
p866
F7.620586410451877
sS'/html/body/div/div/div/div/div/div/div/ul/li/div/div/li/img'
p867
F8.94251450533924
sS'/html/body/div/div/div/div/div/ul/div/div/div/div/div/li/div/span/a'
p868
F6.772589503896928
sS'/html/body/div/div/a/strong'
p869
F2.0236512680646452
sS'/html/body/div/header/nav/ul/li/select/option'
p870
F9.94251450533924
sS'/html/body/div/div/div/div/div/table/tr/td/div/div/div/div/strong/a'
p871
F7.135159583281635
sS'/html/body/div/div/div/div/div/dl/dd/a'
p872
F5.418952549282227
sS'/html/body/div/div/div/div/ul/li/p/a'
p873
F6.4830828867019425
sS'/html/body/div/div/div/dl/dt/a/img'
p874
F8.94251450533924
sS'/html/body/div/div/div/ul/li/div/div'
p875
F9.94251450533924
sS'/html/body/div/div/div/div/div/div/div/div/ul/li/div/span'
p876
F8.357552004618084
sS'/html/body/div/div/div/div/div/dl/dd/p'
p877
F8.94251450533924
sS'/html/body/div/div/dl/dd/div/div/ul/li/a/img'
p878
F9.94251450533924
sS'/html/body/div/div/div/div/form/table/tr/td/div'
p879
F6.772589503896928
sS'/html/body/div/div/div/div/div/div/div/p/ignore_js_op/ignore_js_op/ignore_js_op/strong'
p880
F9.94251450533924
sS'/html/body/div/div/ul/li/a/div/strong'
p881
F9.94251450533924
sS'/html/body/div/div/div/div/dl/dd/div/div'
p882
F7.620586410451877
sS'/html/body/div/div/p/a'
p883
F7.94251450533924
sS'/html/body/table/tbody/tr/td/div/br'
p884
F7.620586410451877
sS'/html/body/div/div/div/div/li/div/div/div/div/b'
p885
F9.94251450533924
sS'/html/body/div/div/div/div/div/object/param'
p886
F7.357552004618085
sS'/html/body/div/div/div/div/div/div/form/table/tbody/tr/th/div/img'
p887
F7.135159583281635
sS'/html/body/div/div/div/div/div/div/hr'
p888
F6.242074787198148
sS'/html/body/div/div/ul/li/div/a/div/a/img'
p889
F9.94251450533924
sS'/html/body/div/div/div/div/dl/dd/div/ul/li/a'
p890
F7.620586410451877
sS'/html/body/div/li/ul'
p891
F9.94251450533924
sS'/html/body/div/div/div/div/div/dl/dd/ul/li/span'
p892
F1.8550516640889005
sS'/html/body/div/div/div/div/div/div/div/ul/li/div/li/ul/li/div/li/ul/li/img'
p893
F9.94251450533924
sS'/html/body/div/footer/div/div/div/div/form/div/ul/li/div/input'
p894
F9.94251450533924
sS'/html/body/div/div/div/div/li/div/li/img'
p895
F9.94251450533924
sS'/html/body/div/div/div/div/div/div/div/div/div/div/div'
p896
F7.94251450533924
sS'/html/body/div/div/div/div/div/ul/li/div/div/div/b'
p897
F6.357552004618085
sS'/html/body/div/div/div/div/div/div/ul/div/div/div/div/div/div/li/a/span'
p898
F6.772589503896928
sS'/html/body/div/div/div/dl/dd/ul/li/div/p/a'
p899
F6.357552004618085
sS'/html/body/div/span/div/div/div/div'
p900
F1.9538298185670742
sS'/html/body/div/div/div/div/div/div/div/p/span'
p901
F2.235155373258357
sS'/html/body/div/div/div/div/div/div/dl/dd/div/div'
p902
F3.7136958148433594
sS'/html/body/div/div/div/div/div/div/div/div/div/div/div/h2/a'
p903
F9.94251450533924
sS'/html/body/div/div/div/dl/dd/ul'
p904
F9.94251450533924
sS'/html/body/div/div/div/div/div/div/h5'
p905
F9.94251450533924
sS'/html/body/div/div/div/div/div/div/div/div/ul/li/a'
p906
F1.2986583155645153
sS'/html/body/div/div/div/div/div/div/h3'
p907
F6.357552004618085
sS'/html/body/div/div/div/div/div/div/h2'
p908
F8.357552004618084
sS'/html/body/div/div/div/div/div/div/h1'
p909
F1.259519921657557
sS'/html/body/div/div/div/div/div/div/div/button'
p910
F1.3204626858828636
sS'/html/body/div/div/div/div/div/div/div/ul/li/div/div/b'
p911
F6.94251450533924
sS'/html/body/div/div/div/div/div/div/div/ul/li/div/div/a'
p912
F1.8029631529404464
sS'/html/body/div/div/div/div/div/div/div/p/span/font'
p913
F9.94251450533924
sS'/html/body/div/div/div/dl/dt/strong'
p914
F8.94251450533924
sS'/html/body/div/p/script'
p915
F9.94251450533924
sS'/html/body/div/div/div/div/div/div/div/ul/li/div/div/p'
p916
F1.833990048561071
sS'/html/body/div/div/div/div/div/div/div/div/div/b'
p917
F1.3168056622747748
sS'/html/body/div/div/div/div/div/div/div/div/div/a'
p918
F5.357552004618084
sS'/html/body/div/div/div/div/div/table/tr/td/div/div/div/table/tr/td'
p919
F6.94251450533924
sS'/html/body/div/div/div/span/a'
p920
F6.357552004618085
sS'/html/body/div/div/div/div/div/div/div/div/div/p'
p921
F7.620586410451877
sS'/html/body/div/div/div/div/div/div/dl/dd/ul/li/a/b'
p922
F7.135159583281635
sS'/html/body/div/div/div/div/div/div/div/div/ul/li/p'
p923
F7.94251450533924
sS'/html/body/div/div/div/div/div/div/ul/li/ul/ul/li/a/span'
p924
F9.94251450533924
sS'/html/body/div/div/div/div/div/div/form/div'
p925
F9.94251450533924
sS'/html/body/div/div/div/div/div/form/input'
p926
F2.017702001733459
sS'/html/body/div/div/dl/dd/div/div/div/input'
p927
F8.357552004618084
sS'/html/body/div/div/div/div/div/div/form/table/tbody/tr/th/div/a'
p928
F7.135159583281635
sS'/html/body/li/ul/li/div/div/div/b'
p929
F9.94251450533924
sS'/html/body/div/div/div/div/ul/li/div/div/div/jf'
p930
F9.94251450533924
sS'/html/body/div/div/dl/dd/div/div/div/a/img'
p931
F8.94251450533924
sS'/html/body/div/div/div/div/ul/li/div/div/div/span'
p932
F5.8550516640889
sS'/html/body/div/div/div/div/div/dl/dd'
p933
F6.035623909730722
sS'/html/body/div/header/nav/ul/li/button/i'
p934
F9.94251450533924
sS'/html/body/div/div/div/div/dl/dd/img'
p935
F9.94251450533924
sS'/html/body/div/div/div/div/div/div/div/a/strong'
p936
F8.94251450533924
sS'/html/body/div/div/ul/li/a/b'
p937
F9.94251450533924
sS'/html/body/div/div/div/div/div/div/ul/div/div/div/div/div/li/div/span'
p938
F6.772589503896928
sS'/html/body/div/div/div/div/div/div/form/ul/li/div/a/img'
p939
F9.94251450533924
sS'/html/body/div/div/div/div/div/div/div/ul/li/div/li/ul/li/div/div/div/span'
p940
F6.357552004618085
sS'/html/body/div/main/section/div/div/div/a'
p941
F9.94251450533924
sS'/html/body/div/div/div/div/div/div/div/p/em/span'
p942
F9.94251450533924
sS'/html/body/div/div/div/div/div/div/div/p/strong/img'
p943
F5.772589503896928
sS'/html/body/div/div/div/div/div/dl/dt/li/a'
p944
F9.94251450533924
sS'/html/body/div/div/div/div/div/table/tr/td/div/div/div/div/div/div/font'
p945
F9.94251450533924
sS'/html/body/div/div/div/div/div/div/div/div/div/div/ul/br'
p946
F9.94251450533924
sS'/html/body/div/div/div/div/div/div/form/div/div/label/img'
p947
F9.94251450533924
sS'/html/body/div/div/div/div/div/div/div/p/span/span/a'
p948
F9.94251450533924
sS'/html/body/div/div/div/div/div/form/div/div/div'
p949
F9.94251450533924
sS'/html/body/p/xmpmeta/rdf/description/creator/seq/li'
p950
F5.084533510211668
sS'/html/body/div/div/div/div/div/div/dl/dd/ul/li'
p951
F6.94251450533924
sS'/html/body/div/div/div/div/ul/li/div/li/ul/li/div/div/p/img'
p952
F9.94251450533924
sS'/html/body/div/div/div/dl/dd/div/div/ul/li/div/a'
p953
F7.94251450533924
sS'/html/body/form/div/div/ul/li/a'
p954
F6.620586410451877
sS'/html/body/div/form/div/div/div/img'
p955
F7.620586410451877
sS'/html/body/div/div/div/div/div/div/div/div/div/div/p/a'
p956
F8.94251450533924
sS'/html/body/div/div/div/dl/dd/div/div/ul/li/div/p'
p957
F7.94251450533924
sS'/html/body/div/div/div/div/form/table/tr/td/p/label/input'
p958
F6.772589503896928
sS'/html/body/div/div/div/div/ul/li/div/li/ul/li/div/div/div/b'
p959
F9.94251450533924
sS'/html/body/div/div/div/ul/li/div/p/a'
p960
F9.94251450533924
sS'/html/body/div/div/div/div/ul/li/div/ul'
p961
F8.94251450533924
sS'/html/body/input'
p962
F8.357552004618084
sS'/html/body/div/div/div/div/div/table/tr/td/div/div/div/table/tr/td/div/strong'
p963
F9.94251450533924
sS'/html/body/div/div/dl/dd/div/h2'
p964
F8.357552004618084
sS'/html/body/div/div/div/div/a/div/div/p'
p965
F9.94251450533924
sS'/html/body/div/div/div/div/div/form/div/div/ul/li/a'
p966
F9.94251450533924
sS'/html/body/div/div/div/div/div/div/div/div/a/div/div/div/div/script'
p967
F9.94251450533924
sS'/html/body/div/div/li/div/div/div/div/b'
p968
F8.94251450533924
sS'/html/body/div/div/div/div/div/div/div/p/strong/a/span'
p969
F8.357552004618084
sS'/html/body/div/div/div/div/div/div/div/p/span/div/b'
p970
F8.357552004618084
sS'/html/body/div/div/div/div/div/div/div/p/span/div/a'
p971
F8.357552004618084
sS'/html/body/div/div/div/span/span'
p972
F9.94251450533924
sS'/html/body/p/xmpmeta/rdf/description/tonecurvered/seq/li'
p973
F7.620586410451877
sS'/html/body/div/div/div/div/div/ul/div/div/div/div/div/li/div/span'
p974
F6.772589503896928
sS'/html/body/div/div/div/div/div/div/div/div/a/b'
p975
F2.1943216557497798
sS'/html/body/div/div/div/div/div/div/ul/li/a/div/style'
p976
F9.94251450533924
sS'/html/body/div/div/div/div/div/li/div/li/ul/li/div/div/div/b'
p977
F9.94251450533924
sS'/html/body/div/main/section/div/div/div/div'
p978
F9.94251450533924
sS'/html/body/div/div/div/div/div/div/li/ul/li/ul'
p979
F8.357552004618084
sS'/html/body/div/div/div/div/div/div/div/ul/li/ul/li/div/li/div/div/p'
p980
F9.94251450533924
sS'/html/body/div/div/div/div/div/div/div/ul/li/ul/li/div/li/ul/li/img'
p981
F9.94251450533924
sS'/html/body/br'
p982
F7.620586410451877
sS'/html/body/div/div/div/div/div/div/div/p/a/span/span'
p983
F9.94251450533924
sS'/html/body/div/div/div/div/div/ul/li/div/p/br'
p984
F9.94251450533924
sS'/html/body/div/div/div/div/div/div/div/ul/li/ul/li/div/li/div/div/a'
p985
F9.94251450533924
sS'/html/body/nav/div/div/a'
p986
F9.94251450533924
sS'/html/body/div/div/div/div/div/div/div/div/dl/dd/div/div/a/img'
p987
F9.94251450533924
sS'/html/body/div/div/div/div/div/li/div/li/div/div/p/img'
p988
F9.94251450533924
sS'/html/body/div/div/div/div/div/div/span'
p989
F4.214594050776041
sS'/html/body/div/div/div/div/div/div/div/p/strong/span/strong/span/strong/span'
p990
F9.94251450533924
sS'/html/body/div/p/a'
p991
F3.533123569201538
sS'/html/body/div/div/div/div/div/p/img'
p992
F8.94251450533924
sS'/html/body/div/div/br'
p993
F2.017702001733459
sS'/html/body/div/dl/dd/span'
p994
F8.94251450533924
sS'/html/body/div/div/div/dl/dd/div/div'
p995
F9.94251450533924
sS'/html/body/div/div/div/div/div/ul/li/a/img'
p996
F6.620586410451877
sS'/html/body/div/div/div/div/div/div/ul/li/ul/li/div/div/p'
p997
F9.94251450533924
sS'/html/body/div/div/div/div/ul/li/a/img'
p998
F5.2986583155645155
sS'/html/body/div/div/div/div/div/div/ul/li/ul/li/div/div/a'
p999
F9.94251450533924
sS'/html/body/div/div/div/div/form/table/tr/td/p/script'
p1000
F6.772589503896928
sS'/html/body/div/div/div/div/div/table/tr/td/div/div/a/font/div'
p1001
F6.94251450533924
sS'/html/body/div/div/div/div/div/div/div/p/em/br'
p1002
F9.94251450533924
sS'/html/body/div/div/div/div/div/div/form/div/div/label/div'
p1003
F9.94251450533924
sS'/html/body/div/div/div/div/div/div/div/strong'
p1004
F5.942514505339241
sS'/html/body/div/div/div/div/div/div/ul/li/div/div/span'
p1005
F9.94251450533924
sS'/html/body/div/main/section/div/div/div/div/p'
p1006
F9.94251450533924
sS'/html/body/div/div/div/div/div/div/ul/li/a/div/div/ul/li'
p1007
F9.94251450533924
sS'/html/body/div/div/form/div/div/label/div'
p1008
F6.135159583281637
sS'/html/body/table/tbody/tr/td/table/tbody/tr/td/a/img'
p1009
F8.94251450533924
sS'/html/body/div/div/div/div'
p1010
F3.6571122864769916
sS'/html/body/div/div/ul/li/a/div/img'
p1011
F9.94251450533924
sS'/html/body/div/div/div/a/strong'
p1012
F9.94251450533924
sS'/html/body/div/div/div/div/div/div/div/p/span/span/span/span/span'
p1013
F9.94251450533924
sS'/html/body/div/div/div/div/form/table/tr/td/p/a'
p1014
F6.772589503896928
sS'/html/body/div/div/div/div/div/p/label/input'
p1015
F9.94251450533924
sS'/html/body/div/div/div/div/ul/li/div/div/div'
p1016
F9.94251450533924
sS'/html/body/div/div/div/div/div/div/script'
p1017
F4.8132314883942735
sS'/html/body/div/div/dl/dd/ul/li/span'
p1018
F7.94251450533924
sS'/html/body/div/div/div/div/div/div/ul/li/ul/ul/li/a/em'
p1019
F9.94251450533924
sS'/html/body/div/div/form/div/div/div/p'
p1020
F6.135159583281637
sS'/html/body/div/div/div/div/div/div/ul/div/div/div/div/div/div/div/ul/li/div/a/img'
p1021
F6.772589503896928
sS'/html/body/div/div/div/dl/dt/div/dl/dd/ul/li'
p1022
F9.94251450533924
sS'/html/body/div/div/div/div/div/div/div/ul/li/ul/li/div/div/div/b'
p1023
F3.135159583281636
sS'/html/body/div/div/dl/dd/div/div/div/img'
p1024
F8.357552004618084
sS'/html/body/div/div/div/div/div/div/div/dl/dd/a'
p1025
F1.1578796597817191
sS'/html/body/div/div/form/div/div/div/a'
p1026
F6.135159583281637
sS'/html/body/div/div/div/li/div/li/div/div/div/b'
p1027
F9.94251450533924
sS'/html/body/div/div/div/div/div/div/div/div/div/div/ul/li/em'
p1028
F9.94251450533924
sS'/html/body/div/div/div/div/div/p/strong'
p1029
F8.94251450533924
sS'/html/body/div/div/div/div/div/ul/li/div/p/a'
p1030
F9.94251450533924
sS'/html/body/div/div/div/div/div/div/dl/dd/a'
p1031
F7.620586410451877
sS'/html/body/div/div/div/div/div/div/div/ul/li/ul/li/div/div/span'
p1032
F9.94251450533924
sS'/html/body/div/div/div/div/li/div/div/p/img'
p1033
F8.94251450533924
sS'/html/body/div/div/div/strong'
p1034
F6.4830828867019425
sS'/html/body/div/div/div/ul/div'
p1035
F0.8004074480366898
sS'/html/body/div/div/div/div/ul/li/div/li/div/div/div/a/div'
p1036
F9.94251450533924
sS'/html/body/div/div/div/div/div/h4'
p1037
F8.94251450533924
sS'/html/body/div/div/div/div/div/h3'
p1038
F6.135159583281637
sS'/html/body/div/div/div/div/div/h2'
p1039
F7.357552004618085
sS'/html/body/div/div/div/div/div/h1'
p1040
F8.94251450533924
sS'/html/body/div/div/div/div/div/div/div/ul/li/div/div/p/img'
p1041
F2.8444824223787135
sS'/html/body/div/div/div/h1/i'
p1042
F8.357552004618084
sS'/html/body/div/div/div/div/div/li/ul/li/div/div/div'
p1043
F9.94251450533924
sS'/html/body/div/div/div/div/div/div/div/div/ul/li/b'
p1044
F9.94251450533924
sS'/html/body/div/a'
p1045
F5.4830828867019425
sS'/html/body/div/div/div/li/div/li/div/div/p/img'
p1046
F9.94251450533924
sS'/html/body/div/div/div/div/div/div/div/ul/li/div/div/li/div/div/div/span'
p1047
F8.94251450533924
sS'/html/body/div/p'
p1048
F8.357552004618084
sS'/html/body/div/div/div/ul/li/div/span'
p1049
F9.94251450533924
sS'/html/body/div/div/div/div/div/div/div/ul/li/div/li/ul/li/img'
p1050
F6.242074787198148
sS'/html/body/div/div/div/li/div/div/div/div/span'
p1051
F9.94251450533924
sS'/html/body/div/div/div/li/div/div/div/p/img'
p1052
F9.94251450533924
sS'/html/body/div/div/div/div/div/table/tr/td/div/h3/span'
p1053
F9.94251450533924
sS'/html/body/div/div/div/div/div/table/tr/td/div/div/a'
p1054
F7.135159583281635
sS'/html/body/div/div/div/div/div/div/ul/li/div/div/div/span'
p1055
F7.94251450533924
sS'/html/body/div/div/div/div/div/div/ul/li/div/div/div/p/a'
p1056
F9.94251450533924
sS'/html/body/div/div/div/div/div/div/comments'
p1057
F9.94251450533924
sS'/html/body/div/div/div/ul/li/div/div/div/a'
p1058
F8.357552004618084
sS'/html/body/div/div/div/div/div/table/tr'
p1059
F6.772589503896928
sS'/html/body/table/tbody/tr/td/a/img'
p1060
F7.620586410451877
sS'/html/body/div/div/div/div/div/div/ul/li/a/img'
p1061
F5.772589503896928
sS'/html/body/div/div/div/div/div/div/div/ul/li/div/li/ul/li/div/div/div/div/a/div'
p1062
F9.94251450533924
sS'/html/body/div/div/div/div/div/ul/li/img'
p1063
F5.8550516640889
sS'/html/body/div/div/div/div/div/div/div/p/span/span/br'
p1064
F7.357552004618085
sS'/html/body/div/div/div/div/div/div/span/span'
p1065
F9.94251450533924
sS'/html/body/div/div/div/div/div/div/div/div/dl/dd/div/div/p/a/i'
p1066
F9.94251450533924
sS'/html/body/div/div/div/div/div/ul/li/ul'
p1067
F6.357552004618085
sS'/html/body/div/div/ul/li/form/div/div/ul/li/a'
p1068
F9.94251450533924
sS'/html/body/div/div/div/div/div/div/div/ul/li/div/div/a/div/span'
p1069
F9.94251450533924
sS'/html/body/div/span/div/a/b'
p1070
F1.9538298185670742
sS'/html/body/div/div/div/li/div/ul/li/div/div/p/br'
p1071
F9.94251450533924
sS'/html/body/div/span/ul/li/ul/div/div/a'
p1072
F1.9538298185670742
sS'/html/body/div/div/div/div/div/div/div/ul/li/ul/li/div/li/ul/li/div/div/div/b'
p1073
F9.94251450533924
sS'/html/body/div/div/div/div/div/div/div/ul/div'
p1074
F8.94251450533924
sS'/html/body/div/div/div/div/ul/li/div/div/p/img'
p1075
F7.135159583281635
sS'/html/body/div/div/div/div/div/div/div/div/div/h2'
p1076
F9.94251450533924
sS'/html/body/div/div/div/div/ul/li/img'
p1077
F5.2986583155645155
sS'/html/body/div/div/div/div/div/ul/li/div/li/div/div'
p1078
F9.94251450533924
sS'/html/body/style'
p1079
F0.2577658849176141
sS'/html/body/div/div/div/div/div/ul/li/div/h3/a'
p1080
F9.94251450533924
sS'/html/body/div/footer/div/div/div/div/form/div/ul/li/label/span'
p1081
F9.94251450533924
sS'/html/body/div/div/div/div/div/table/tr/td/div/ul/li/a'
p1082
F8.357552004618084
sS'/html/body/div/div/div/div/div/div/div/p/em'
p1083
F6.242074787198148
sS'/html/body/div/div/div/div/div/div/textarea'
p1084
F8.94251450533924
sS'/html/body/div/div/div/p/strong'
p1085
F9.94251450533924
sS'/html/body/div/div/div/div/table/tr/td/div/a'
p1086
F9.94251450533924
sS'/html/body/div/div/script'
p1087
F4.214594050776041
sS'/html/body/div/div/div/div/div/li/ul/li/div/div/p/img'
p1088
F6.94251450533924
sS'/html/body/div/footer/div/div/div/iframe'
p1089
F9.94251450533924
sS'/html/body/div/div/div/div/div/dl/dd/ul/li/a/span'
p1090
F2.450661409009565
sS'/html/body/div/div/div/div/div/div/div/p/ignore_js_op/ignore_js_op/ignore_js_op/br'
p1091
F9.94251450533924
sS'/html/body/div/div/div/div/div/table/tr/td/div/div/div/table/tr/td/font/font/br'
p1092
F9.94251450533924
sS'/html/body/div/div/div/div/div/ul/li/div/h4'
p1093
F9.94251450533924
sS'/html/body/div/main/section/div/div/div/div/ul/li/h4'
p1094
F9.94251450533924
sS'/html/body/div/div/ul/li/a/span'
p1095
F9.94251450533924
sS'/html/body/div/div/div/div/form/input'
p1096
F9.94251450533924
sS'/html/body/div/div/div/li/div/ul/li/img'
p1097
F9.94251450533924
sS'/html/body/div/div/div/h4'
p1098
F9.94251450533924
sS'/html/body/div/div/div/div/div/ul/li/span'
p1099
F8.94251450533924
sS'/html/body/div/div/div/h1'
p1100
F6.357552004618085
sS'/html/body/div/div/li/div/li/div/div/span'
p1101
F9.94251450533924
sS'/html/body/div/div/div/div/div/div/li/div/div/p/img'
p1102
F7.620586410451877
sS'/html/body/div/div/div/div/div/div/div/div/div/a/b'
p1103
F1.302269569116894
sS'/html/body/div/div/div/div/div/div'
p1104
F1.0296251691092781
sS'/html/body/div/h3/span/button'
p1105
F9.94251450533924
sS'/html/body/li/div/div/p/img'
p1106
F9.94251450533924
sS'/html/body/div/div/div/div/div/div/div/ul/li/div/div/ul'
p1107
F8.94251450533924
sS'/html/body/div/div/div/div/li/div/div/p'
p1108
F8.94251450533924
sS'/html/body/div/div/div/div/div/div/div/dl/dd/div/ul/li/a'
p1109
F9.94251450533924
sS'/html/body/div/div/div/div/div/div/ul/li/p'
p1110
F6.772589503896928
sS'/html/body/div/div/div/div/div/ul/li/div/div/div/a/div'
p1111
F7.620586410451877
sS'/html/body/div/div/div/ul/li/span'
p1112
F8.94251450533924
sS'/html/body/div/div/div/div/li/div/div/a'
p1113
F8.94251450533924
sS'/html/body/div/div/div/div/div/table/tr/td/div/a'
p1114
F6.772589503896928
sS'/html/body/div/div/div/div/ul/li/div/img'
p1115
F8.94251450533924
sS'/html/body/div/div/div/div/div/div/ul/li/a'
p1116
F5.242074787198148
sS'/html/body/div/div/div/li/div/ul'
p1117
F9.94251450533924
sS'/html/body/div/div/div/ul/li/b'
p1118
F9.94251450533924
sS'/html/body/div/div/div/ul/li/a'
p1119
F0.2595199216575571
sS'/html/body/div/div/div/hr'
p1120
F8.94251450533924
sS'/html/body/table/tbody/tr/td/table/tbody/tr/td/div/a'
p1121
F7.620586410451877
sS'/html/body/div/div/div/div/div/div/div/ul/li/div/div/a/div'
p1122
F6.94251450533924
sS'/html/body/div/div/div/div/div/div/a/h1'
p1123
F6.772589503896928
sS'/html/body/div/div/div/div/div/div/div/div/ul/li/div'
p1124
F9.94251450533924
sS'/html/body/div/div/div/div/div/div/div/ul/li/ul/li/div/div/div/div/b'
p1125
F9.94251450533924
sS'/html/body/div/div/div/ul/li/p'
p1126
F5.084533510211668
sS'/html/body/li/ul'
p1127
F8.94251450533924
sS'/html/body/div/div/div/div/div/div/div/div/strong/a'
p1128
F8.94251450533924
sS'/html/body/div/div/div/div/div/div/p/span'
p1129
F6.242074787198148
sS'/html/body/div/div/div/div/ul/li/a/span'
p1130
F6.94251450533924
sS'/html/body/div/div/div/div/div/div/div/div/p'
p1131
F2.284303022587445
sS'/html/body/div/div/div/div/div/div/div/script'
p1132
F1.305889884795591
sS'/html/body/div/div/div/div/div/div/ul/li/a/div/div/div/ul'
p1133
F9.94251450533924
sS'/html/body/div/div/div/div/div/div/div/ul/li/div/li/ul/li/div/ul'
p1134
F9.94251450533924
sS'/html/body/div/footer/div/a/i'
p1135
F9.94251450533924
sS'/html/body/p/meta'
p1136
F7.357552004618085
sS'/html/body/div/div/div/div/div/div/div/ul/li/div/div/a/div/a/div'
p1137
F9.94251450533924
sS'/html/body/div/div/div/div/div/div/ul/li/a/div/div/div/dl/dt'
p1138
F9.94251450533924
sS'/html/body/div/dl/dd/ul/div/span'
p1139
F8.94251450533924
sS'/html/body/p/:cj'
p1140
F9.94251450533924
sS'/html/body/div/div/div/textarea'
p1141
F9.94251450533924
sS'/html/body/div/div/div/div/div/div/div/div/dl/dd/div/div/a'
p1142
F9.94251450533924
sS'/html/body/div/div/div/form/div/div/ul/li/a'
p1143
F8.94251450533924
sS'/html/body/div/div/div/div/div/div/ul/li/a/div/div/div/dl/dd'
p1144
F9.94251450533924
sS'/html/body/div/div/li/div/li/ul'
p1145
F8.94251450533924
sS'/html/body/div/div/div/div/div/table/tr/td/div/div/div/table/tr/td/div/ignore_js_op/div/div/p/strong'
p1146
F9.94251450533924
sS'/html/body/div/div/div/div/div/ul/div/div/div/div/div/div/li/a'
p1147
F6.772589503896928
sS'/html/body/div/div/div/li/ul/li/ul'
p1148
F8.94251450533924
sS'/html/body/li/p'
p1149
F9.94251450533924
sS'/html/body/div/div/div/div/div/div/div/div/img'
p1150
F1.2700891633677442
sS'/html/body/div/div/div/div/div/div/div/ul/li/ul/li/div/div/div'
p1151
F9.94251450533924
sS'/html/body/div/div/div/div/div/div/div/ul/li/div/li/ul/li/div/div/p'
p1152
F6.357552004618085
sS'/html/body/div/main/section/div/a/i'
p1153
F9.94251450533924
sS'/html/body/div/div/dl/dd/div/ul/li/a/span'
p1154
F8.94251450533924
sS'/html/body/div/div/div/div/div/div/dl/dt'
p1155
F1.491303393506911
sS'/html/body/nav/div/a/img'
p1156
F9.94251450533924
sS'/html/body/div/div/div/div/div/div/dl/dd/div/ul/li/a'
p1157
F3.7136958148433594
sS'/html/body/div/div/div/div/div/div/dl/dd'
p1158
F4.387925653661602
sS'/html/body/div/div/strong'
p1159
F9.94251450533924
sS'/html/body/div/div/div/form/div/div/label/img'
p1160
F8.94251450533924
sS'/html/body/div/div/div/div/div/div/div/div/div/a/img'
p1161
F7.620586410451877
sS'/html/body/form/div/div/label/input'
p1162
F6.620586410451877
sS'/html/body/div/div/div/dl/dt/div/li/a'
p1163
F9.94251450533924
sS'/html/body/div/div/h1/span'
p1164
F9.94251450533924
sS'/html/body/div/div/div/div/div/table/tr/td/div/div/div/table/tr/td/img'
p1165
F7.357552004618085
sS'/html/body/div/header/div/a/div/img'
p1166
F9.94251450533924
sS'/html/body/div/div/div/div/div/div/div/p/a/img'
p1167
F6.242074787198148
sS'/html/body/div/div/div/div/div/table/tr/td/div/div/div/table/tr/td/div/font/strong'
p1168
F9.94251450533924
sS'/html/body/div/div/div/div/div/div/ul/li/ul/li/ul'
p1169
F9.94251450533924
sS'/html/body/div/div/div/div/div/div/div/p/embed'
p1170
F8.94251450533924
sS'/html/body/div/div/div/div/ul/li/div/em'
p1171
F8.94251450533924
sS'/html/body/div/div/div/div/div/div/div/p/a/strong'
p1172
F6.4830828867019425
sS'/html/body/div/div/div/div/p/span'
p1173
F8.94251450533924
sS'/html/body/div/div/div/div/ul/li/div/dl/dd'
p1174
F9.94251450533924
sS'/html/body/table/tbody/tr/td/table/tbody/tr/td/div/span'
p1175
F7.620586410451877
sS'/html/body/div/form/div/div/label/div'
p1176
F1.6898490728889914
sS'/html/body/div/div/div/div/form/table/tr/td/div/div/div/div/script'
p1177
F6.772589503896928
sS'/html/body/div/div/div/div/div/div/label'
p1178
F6.772589503896928
sS'/html/body/div/div/div/div/ul/li/div/dl/dt'
p1179
F9.94251450533924
sS'/html/body/div/div/div/div/div/div/form/table/tbody/tr/th/p'
p1180
F9.94251450533924
sS'/html/body/div/div/div/div/div/div/div/p/strong/a'
p1181
F8.357552004618084
sS'/html/body/div/div/div/div/div/div/ul/li/a/div/div/div/div/div'
p1182
F9.94251450533924
sS'/html/body/div/div/div/div/div/li/a/span'
p1183
F8.94251450533924
sS'/html/body/div/div/div/div/div/ul/li/ul/li/img'
p1184
F9.94251450533924
sS'/html/body/div/div/div/div/div/ul/div/div/div/div/div/div/div/ul/li/div/a/img'
p1185
F6.772589503896928
sS'/html/body/div/div/div/div/div/table/tr/td/div/div/div/div/div/div/span'
p1186
F6.772589503896928
sS'/html/body/div/div/div/div/form/fieldset/label'
p1187
F8.357552004618084
sS'/html/body/div/div/div/div/div/div/ul/li/a/span'
p1188
F1.3204626858828636
sS'/html/body/div/div/div/div/div/dl/dd/ul/li/p'
p1189
F2.3351841915896294
sS'/html/body/div/div/div/div/div/div/div/p/span/div/a/b'
p1190
F8.357552004618084
sS'/html/body/div/div/div/div/div/div/div/div/p/span'
p1191
F6.620586410451877
sS'/html/body/div/div/div/div/div/dl/dd/ul/li/a'
p1192
F1.8444824223787133
sS'/html/body/div/div/div/ul/li/a/i'
p1193
F0.9090915038017897
sS'/html/body/div/div/div/div/div/table/tbody/tr/td'
p1194
F8.94251450533924
sS'/html/body/div/div/div/li/ul/li/div/div/p/img'
p1195
F9.94251450533924
sS'/html/body/div/div/div/ul/li/a/b'
p1196
F7.94251450533924
sS'/html/body/div/div/div/div/div/table/tbody/tr/th'
p1197
F8.94251450533924
sS'/html/body/div/div/div/div/table/tbody/tr/td'
p1198
F9.94251450533924
sS'/html/body/div/div/div/div/div/div/form/div/div/ul/li/a'
p1199
F9.94251450533924
sS'/html/body/div/div/div/div/div/ul/li/div/div/span'
p1200
F9.94251450533924
sS'/html/body/div/div/div/div/div/div/div/ul/li/div/ul/li/div/p'
p1201
F9.94251450533924
sS'/html/body/div/div/div/div/div/ul/li/p'
p1202
F8.94251450533924
sS'/html/body/div/div/div/div/div/div/div/span/span/a'
p1203
F8.357552004618084
sS'/html/body/div/div/div/div/div/div/div/ul/li/div/li/div/div/div'
p1204
F8.357552004618084
sS'/html/body/div/div/div/div/div/div/div/ul/li/div/ul/li/div/a'
p1205
F9.94251450533924
sS'/html/body/div/div/div/div/li/div/ul'
p1206
F9.94251450533924
sS'/html/body/div/div/div/div/div/ul/li/b'
p1207
F7.94251450533924
sS'/html/body/div/div/div/div/div/ul/li/a'
p1208
F1.8392266969272177
sS'/html/body/div/div/div/div/p/span/span'
p1209
F9.94251450533924
sS'/html/body/div/div/div/div/dl/dd/a/span'
p1210
F9.94251450533924
sS'/html/body/div/div/div/dl/dd/ul/li/span'
p1211
F5.694586991895655
sS'/html/body/div/div/div/div/div/div/dl/dd/div/div/dd/a/i'
p1212
F9.94251450533924
sS'/html/body/div/div/div/div/div/ul/li/div/div/p/img'
p1213
F8.94251450533924
sS'/html/body/div/div/div/ul/li/div/img'
p1214
F6.620586410451877
sS'/html/body/div/div/ul/li/div/a/div/a/b'
p1215
F9.94251450533924
sS'/html/body/div/div/ul/li/div/a/li/div/h3/a'
p1216
F9.94251450533924
sS'/html/body/div/div/div/div/div/div/div/p/p'
p1217
F7.357552004618085
sS'/html/body/div/div/ul/li/form/div/div/div/p'
p1218
F9.94251450533924
sS'/html/body/p/xmpmeta/rdf/description/tonecurvepv2012/seq/li'
p1219
F5.084533510211668
sS'/html/body/div/dl/dt/a'
p1220
F3.694586991895654
sS'/html/body/div/div/div/div/div/table/tr/td/div/span/a'
p1221
F6.94251450533924
sS'/html/body/div/div/div/div/div/div/div/ul/li/ul/li/div/li/ul/li/ul'
p1222
F9.94251450533924
sS'/html/body/div/main/section/div/div/div/div/ul/li/p'
p1223
F9.94251450533924
sS'/html/body/div/div/ul/li/form/div/div/div/a'
p1224
F9.94251450533924
sS'/html/body/div/div/div/li/ul/li/div/div/a'
p1225
F8.94251450533924
sS'/html/body/div/dl/dd/ul/div/div/a'
p1226
F8.94251450533924
sS'/html/body/div/div/div/h2/span/img'
p1227
F3.694586991895654
sS'/html/body/div/div/div/div/div/table/tr/td/div/div/div/table/tr/td/div/blockquote/font/a/img'
p1228
F9.94251450533924
sS'/html/body/div/div/div/div/div/ul/h2'
p1229
F9.94251450533924
sS'/html/body/table/tbody/tr/td/table/tbody/tr/td/p/strong'
p1230
F7.94251450533924
sS'/html/body/div/div/div/div/div/a/img'
p1231
F3.694586991895654
sS'/html/body/div/div/div/div/div/div/div/table/tbody/tr/td/br'
p1232
F9.94251450533924
sS'/html/body/div/div/div/div/ul/li/strong'
p1233
F8.357552004618084
sS'/html/body/div/div/ul/li'
p1234
F7.620586410451877
sS'/html/body/div/div/li/ul/li/div/div/div/b'
p1235
F7.94251450533924
sS'/html/body/div/div/div/div/div/div/div/div/a/div/div/div'
p1236
F9.94251450533924
sS'/html/body/div/div/div/div/div/div/div/ul/li/div/div/div/a/div'
p1237
F2.2282689876731174
sS'/html/body/div/header/div/a/h3/br'
p1238
F9.94251450533924
sS'/html/body/div/div/div/div/div/div/div/li/div/div/p'
p1239
F9.94251450533924
sS'/html/body/div/div/div/div/div/input'
p1240
F5.357552004618084
sS'/html/body/div/div/div/div/div/div/dl/dd/ul/li/a/strong'
p1241
F7.135159583281635
sS'/html/body/div/div/div/div/div/div/div/ul/li/div/div/div/span'
p1242
F1.8080881851183137
sS'/html/body/div/div/div/div/div/div/div/li/div/div/a'
p1243
F9.94251450533924
sS'/html/body/div/div/div/div/div/dl/dd/ul'
p1244
F8.94251450533924
sS'/html/body/div/div/div/div/div/div/div/p/ignore_js_op/ignore_js_op/ignore_js_op'
p1245
F9.94251450533924
sS'/html/body/div/div/div/div/div/li/div/li/ul/li/img'
p1246
F9.94251450533924
sS'/html/body/div/div/div/div/div/div/ul/li/span/strong/a'
p1247
F9.94251450533924
sS'/html/body/div/div/div/div/div/dl/dt/div/dl/dd/div/div/ul/li/div/p'
p1248
F7.135159583281635
sS'/html/body/div/div/div/div/div/div/li/div/d'
p1249
F9.94251450533924
sS'/html/body/div/div/div/div/div/div/li/div/p'
p1250
F9.94251450533924
sS'/html/body/div/div/div/div/div/dl/dt/div/dl/dd/div/div/ul/li/div/a'
p1251
F7.135159583281635
sS'/html/body/div/div/div/div/div/p/span/input'
p1252
F9.94251450533924
sS'/html/body/div/div/table/tbody/tr/td/div/div/iframe'
p1253
F9.94251450533924
sS'/html/body/div/div/div/div/div/div/div/li/a/img'
p1254
F6.772589503896928
sS'/html/body/div/div/div/dl/dd/div/div/ul/li/a'
p1255
F9.94251450533924
sS'/html/body/div/div/div/ul/li/div/p'
p1256
F9.94251450533924
sS'/html/body/div/div/div/div/div/div/div/ul/li/ul/li/div/div/divh'
p1257
F9.94251450533924
sS'/html/body/ul/li/a'
p1258
F6.357552004618085
sS'/html/body/div/div/div/div/div/div/ul/li/a/div/div/div/div/input'
p1259
F9.94251450533924
sS'/html/body/div/div/div/ul/li/div/i'
p1260
F9.94251450533924
sS'/html/body/div/div/div/dl/dd/strong'
p1261
F9.94251450533924
sS'/html/body/div/div/div/div/div/div/dl/dd/div/div/div/a/img'
p1262
F7.135159583281635
sS'/html/body/div/div/div/div/div/div/li/ul/li/div/div/div/a/div'
p1263
F8.94251450533924
sS'/html/body/div/div/div/div/ul/li/div/li/div/a'
p1264
F9.94251450533924
sS'/html/body/div/div/div/div/div/div/ul/li/a/div/div/div/dl/dd/a'
p1265
F9.94251450533924
sS'/html/body/div/div/div/div/div/ul/li/div/img'
p1266
F8.357552004618084
sS'/html/body/div/div/div/div/ul'
p1267
F5.4830828867019425
sS'/html/body/div/div/li/ul/li/img'
p1268
F7.94251450533924
sS'/html/body/div/div/table/tbody/tr/td/div/div'
p1269
F9.94251450533924
sS'/html/body/div/div/div/div/li/div/div/p/br'
p1270
F9.94251450533924
sS'/html/body/div/div/div/div/div/div/p/strong/a'
p1271
F8.94251450533924
sS'/html/body/div/div/a/img'
p1272
F5.942514505339241
sS'/html/body/div/div/div/div/div/div/div/div/div/h2/a'
p1273
F8.357552004618084
sS'/html/body/div/div/div/div/div/div/div/div/h3/b'
p1274
F9.94251450533924
sS'/html/body/div/div/div/div/div/div/div/div/h3/a'
p1275
F9.94251450533924
sS'/html/body/table/tbody/tr/td/table/tbody/tr/td/div/a/img'
p1276
F7.620586410451877
sS'/html/body/div/div/div/div/dl/dd/ul/li/span'
p1277
F7.620586410451877
sS'/html/body/div/div/div/div/div/div/div/p/span/span/span/span'
p1278
F8.357552004618084
sS'/html/body/div/div/ul/li/div'
p1279
F9.94251450533924
sS'/html/body/div/div/li/div/div/div/a/div'
p1280
F7.94251450533924
sS'/html/body/div/dl/dd/div/div/div'
p1281
F8.94251450533924
sS'/html/body/div/div/div/dl/dd/a/img'
p1282
F5.772589503896928
sS'/html/body/div/div/div/div/div/div/div/p/span/a/font'
p1283
F9.94251450533924
sS'/html/body/div/div/div/div/div/div/div/div/div/ul/li/a'
p1284
F7.620586410451877
sS'/html/body/div/button/i'
p1285
F9.94251450533924
sS'/html/body/div/div/div/div/ul/li/span'
p1286
F8.94251450533924
sS'/html/body/div/div/div/div/div/div/li/div/div/div/b'
p1287
F7.620586410451877
sS'/html/body/div/div/div/div/br'
p1288
F6.135159583281637
sS'/html/body/div/div/div/div/div/li/div/img'
p1289
F9.94251450533924
sS'/html/body/div/div/div/div/div/div/ul'
p1290
F6.4830828867019425
sS'/html/body/div/div/div/div/div/table/tr/td/div/div/div/div/span'
p1291
F7.135159583281635
sS'/html/body/div/div/div/ul/li/a/span'
p1292
F2.0117771677763536
sS'/html/body/div/div/div/div/div/div/div/ul/li/div/div/div/div/span'
p1293
F5.418952549282227
sS'/html/body/div/main/section/div/div/div/h1'
p1294
F9.94251450533924
sS'/html/body/div/div/div/div/div/div/div/ul/li/div/div/div'
p1295
F7.135159583281635
sS'/html/body/div/div/div/div/div/li/div/ul'
p1296
F9.94251450533924
sS'/html/body/div/div/div/div/div/div/div/li/a/span'
p1297
F6.772589503896928
sS'/html/body/div/div/div/div/div/table/tr/td/div/div/div/ul/li/p/a'
p1298
F7.357552004618085
sS'/html/body/div/div/div/div/div/table/tr/td/div/div/div/table/tr/td/ignore_js_op/div/div/p/em'
p1299
F7.620586410451877
sS'/html/body/div/div/div/div/div/dl/dd/div/div/ul/li/a/img'
p1300
F3.898120385980786
sS'/html/body/div/div/div/div/div/div/form/table/tbody/tr/th/div/div/a/em'
p1301
F7.135159583281635
sS'/html/body/div/div/div/dl/dd/ul/li'
p1302
F5.942514505339241
sS'/html/body/div/div/div/div/ul/li/ul/li/img'
p1303
F8.94251450533924
sS'/html/body/div/span/ul/li/a/b'
p1304
F1.9538298185670742
sS'/html/body/div/div/div/div/div/div/div/table/tr/td/dl/dd/p/a'
p1305
F9.94251450533924
sS'/html/body/div/div/div/div/div/table/tr/td/div/div/div/table/tr/td/font'
p1306
F7.94251450533924
sS'/html/body/div/div/div/div/div/div/ul/li/div/a/img'
p1307
F8.94251450533924
sS'/html/body/div/div/div/div/div/div/div/div/ul/li/img'
p1308
F9.94251450533924
sS'/html/body/div/div/div/div/div/div/div/div/a/div/div/div/dl/dd'
p1309
F9.94251450533924
sS'/html/body/div/div/div/div/div/dl/dd/ul/l/li/a/span'
p1310
F8.94251450533924
sS'/html/head/title'
p1311
F0.13838348415592208
sS'/html/body/div/div/div/div/div/div/div/div/a/div/div/div/div/a'
p1312
F9.94251450533924
sS'/html/body/div/div/div/div/div/div/div/p/span/strong/embed'
p1313
F9.94251450533924
sS'/html/body/ul/li/a/span'
p1314
F6.357552004618085
sS'/html/body/div/div/div/div/ul/li'
p1315
F6.035623909730722
sS'/html/body/div/li/div/div/div/a/div'
p1316
F9.94251450533924
sS'/html/html/p/g'
p1317
F9.94251450533924
sS'/html/body/div/div/div/div/div/ul/li/div/div/p'
p1318
F6.4830828867019425
sS'/html/html/p/c'
p1319
F9.94251450533924
sS'/html/html/p/a'
p1320
F9.94251450533924
sS'/html/html/p/n'
p1321
F9.94251450533924
sS'/html/body/div/div/div/div/div/div/ul/li/a/div/div/div/ul/li/ul/li/div/div/div/b'
p1322
F9.94251450533924
sS'/html/html/p/k'
p1323
F8.94251450533924
sS'/html/body/div/div/div/dl/dt/div/a/b'
p1324
F7.620586410451877
sS'/html/body/div/div/div/div/div/div/dl/dd/div/ul/li/a/span'
p1325
F7.135159583281635
sS'/html/body/div/div/div/div/div/ul/li/div/div/b'
p1326
F9.94251450533924
sS'/html/body/div/div/div/div/div/ul/li/div/div/a'
p1327
F6.357552004618085
sS'/html/body/div/div/div/div/div/div/div/hr'
p1328
F3.7927673858345576
sS'/html/html/p/q'
p1329
F8.94251450533924
sS'/html/html/p/z'
p1330
F9.94251450533924
sS'/html/html/p/x'
p1331
F9.94251450533924
sS'/html/body/div/div/div/div/div/h2/a'
p1332
F8.357552004618084
sS'/html/html/p/_'
p1333
F9.94251450533924
sS'/html/body/div/div/div/div/div/h2/i'
p1334
F9.94251450533924
sS'/html/body/div/form/div/script'
p1335
F8.94251450533924
sS'/html/body/div/div/div/div/div/div/ul/div/div/div/div/div/div/div/ul/li'
p1336
F6.772589503896928
sS'/html/body/div/div/div/div/div/table/tr/td/div/div/div/table/tr/td/ignore_js_op/div/div/p/strong'
p1337
F7.620586410451877
sS'/html/body/div/div/div/div/div/div/div/div/a/div/div/div/ul'
p1338
F9.94251450533924
sS'/html/body/div/div/div/div/div/div/div/div/ul/br'
p1339
F8.357552004618084
sS'/html/body/div/div/p/br'
p1340
F9.94251450533924
sS'/html/body/div/div/ul/li/div/a/div/a'
p1341
F9.94251450533924
sS'/html/body/div/div/ul/li/div/a/div/b'
p1342
F9.94251450533924
sS'/html/body/div/div/div/div/div/div/div/h3'
p1343
F6.772589503896928
sS'/html/body/div/div/div/ul/li'
p1344
F5.084533510211668
sS'/html/body/div/form/div/input'
p1345
F7.135159583281635
sS'/html/html/p/:'
p1346
F9.94251450533924
sS'/html/body/div/div/div/div/div/ul/li/div/li/div'
p1347
F9.94251450533924
sS'/html/body/div/div/div/div/div/dl/dd/div/div/div/p/a'
p1348
F2.3351841915896294
sS'/html/body/div/div/div/div/div/ul/li/div/div/div/span'
p1349
F6.357552004618085
sS'/html/body/div/div/div/div/div/table/tr/td/div/div/div/table/tr/td/ignore_js_op/img'
p1350
F7.357552004618085
sS'/html/body/div/div/div/div/div/textarea'
p1351
F6.620586410451877
sS'/html/body/div/div/div/div/div/a/div/div'
p1352
F6.620586410451877
sS'/html/body/div/div/div/div/dl/dd/ul/li/div/p/a'
p1353
F8.357552004618084
sS'/html/body/div/div/div/div/div/ul/li/div/div/a/img'
p1354
F9.94251450533924
sS'/html/body/div/div/div/div/div/div/div/div/div/strong/a'
p1355
F1.3168056622747748
sS'/html/body/div/div/div/div/ul/li/div/div/div/p/img'
p1356
F9.94251450533924
sS'/html/body/div/div/div/h2/a/img'
p1357
F9.94251450533924
sS'/html/body/div/header/nav/ul/li/a/i'
p1358
F9.94251450533924
sS'/html/body/div/div/div/li/div/li/img'
p1359
F9.94251450533924
sS'/html/body/div/div/div/div/div/div/a/div'
p1360
F8.94251450533924
sS'/html/body/div/header/div/nav/a/img'
p1361
F9.94251450533924
sS'/html/body/div/div/div/div/div/div/div/p/span/span/strong'
p1362
F9.94251450533924
sS'/html/body/div/div/div/div/div/div/form/ul/li/div/a/span'
p1363
F9.94251450533924
sS'/html/body/div/div/dl/dd/div/div/p'
p1364
F8.357552004618084
sS'/html/body/div/div/div/div/div/div/div/a/i'
p1365
F9.94251450533924
sS'/html/body/div/div/div/div/div/table/tr/td/div/div/div/div/div/a'
p1366
F6.94251450533924
sS'/html/body/div/div/div/div/div/div/div/a/b'
p1367
F3.174330180562314
sS'/html/body/div/div/li/div/div/div/b'
p1368
F7.94251450533924
sS'/html/body/div/div/div/li/div/ul/li/div/div/a'
p1369
F9.94251450533924
sS'/html/body/div/div/div/div/div/div/div/div/div'
p1370
F1.2317080716398883
sS'/html/body/div/div/ul/li/p/a'
p1371
F9.94251450533924
sS'/html/body/div/li/div/div/div/b'
p1372
F9.94251450533924
sS'/html/body/div/div/div/div/div/div/div/a/p'
p1373
F6.772589503896928
sS'/html/body/div/div/li/div/div/div/p'
p1374
F8.94251450533924
sS'/html/body/div/div/div/li/div/ul/li/div/div/p'
p1375
F9.94251450533924
sS'/html/body/div/div/div/div/div/div/div/p/strong/span/strong'
p1376
F8.94251450533924
sS'/html/body/div/div/div/div/div/div/ul/li/a/div/div/div/ul/li/ul/li/div/div/a'
p1377
F9.94251450533924
sS'/html/body/table/tbody/tr/td/table/tbody/tr/td/p/a/img'
p1378
F8.94251450533924
sS'/html/body/div/div/div/div/ul/li/div/li/ul'
p1379
F9.94251450533924
sS'/html/body/div/div/div/script'
p1380
F0.8183931935100524
sS'/html/body/div/div/div/div/div/div/ul/li/ul'
p1381
F7.94251450533924
sS'/html/body/div/div/div/div/div/div/ul/li/a/em'
p1382
F6.357552004618085
sS'/html/body/div/div/li/ul/li/div/div/div/a/div'
p1383
F8.357552004618084
sS'/html/body/div/div/div/div/div/div/ul/li/a/div/div/div/div/img'
p1384
F9.94251450533924
sS'/html/body/div/div/div/div/div/div/ul/li/a/div/div/div/ul/li/ul/li/div/div/p'
p1385
F9.94251450533924
sS'/html/body/div/div/div/div/div/div/div/div/script'
p1386
F1.6710514774348653
sS'/html/body/div/div/div/li/div/div/a'
p1387
F8.357552004618084
sS'/html/body/div/div/div/div/form/fieldset/input'
p1388
F0.7927673858345579
sS'/html/body/div/div/div/li/div/div/b'
p1389
F9.94251450533924
sS'/html/body/div/div/div/div/div/div/div/ul/li/ul/li/div/li/ul/li/div/div/div/a/div'
p1390
F9.94251450533924
sS'/html/body/div/div/div/div/div/div/li/div/div/div/span'
p1391
F7.620586410451877
sS'/html/body/div/div/div/div/div/div/dl/dd/div/div/a/img'
p1392
F6.94251450533924
sS'/html/body/div/div/div/div/div/div/div/ul/li/div/li/div/div/p/img'
p1393
F6.242074787198148
sS'/html/body/div/div/div/div/div/div/form/table/tbody/tr/th/a/img'
p1394
F7.135159583281635
sS'/html/body/div/div/div/li/div/div/p'
p1395
F8.357552004618084
sS'/html/body/div/div/div/div/div/div/li/div/div'
p1396
F9.94251450533924
sS'/html/body/div/div/div/div/div/table/tr/td/div/div/div/div/div/dl/dd/a'
p1397
F6.772589503896928
sS'/html/body/div/div/div/div/div/dl/dt/a'
p1398
F6.135159583281637
sS'/html/body/div/div/div/div/div/div/div/ul/li/div/div/div/p/img'
p1399
F8.357552004618084
sS'/html/body/div/div/div/div/div/li/div/li/ul/li/div/div/p/img'
p1400
F9.94251450533924
sS'/html/body/div/strong'
p1401
F6.94251450533924
sS'/html/body/div/div/div/div/form/table/tr/td/p/button/strong'
p1402
F6.772589503896928
sS'/html/body/div/div/div/div/div/div/ul/li/ul/li/img'
p1403
F9.94251450533924
sS'/html/body/div/div/div/div/div/div/dl/dd/a/img'
p1404
F8.94251450533924
sS'/html/body/div/div/div/li/ul'
p1405
F8.357552004618084
sS'/html/body/div/div/div/p/span'
p1406
F1.9425145053392399
sS'/html/body/div/div/div/b'
p1407
F7.357552004618085
sS'/html/body/div/div/div/div/div/div/div/table/tr/td/div/a/img'
p1408
F9.94251450533924
sS'/html/body/div/div/div/a'
p1409
F1.7725895038969275
sS'/html/body/div/div/div/div/div/div/ul/li/ul/li/div/div/div/b'
p1410
F9.94251450533924
sS'/html/body/div/div/div/dl/dd/div/div/ul/li/a/img'
p1411
F7.94251450533924
sS'/html/body/div/div/form/div/div/label/input'
p1412
F6.135159583281637
sS'/html/body/div/div/ul/li/div/div/div/img'
p1413
F9.94251450533924
sS'/html/body/div/div/div/p'
p1414
F1.8710521427826157
sS'/html/body/div/div/div/div/div/div/ul/li/ul/li/a/em'
p1415
F9.94251450533924
sS'/html/body/div/div/div/div/form/div/div/div/div/div/input'
p1416
F9.94251450533924
sS'/html/head/meta'
p1417
F0.12074052336867214
sS'/html/body/div/div/div/div/div/div/div/ul/li/ul/li/ul/p'
p1418
F8.94251450533924
sS'/html/body/div/dl/dd/div/div/i'
p1419
F8.94251450533924
sS'/html/body/div/div/div/div/div/div/div/p/strong/span/span'
p1420
F7.357552004618085
sS'/html/body/div/div/div/div/p/em'
p1421
F9.94251450533924
sS'/html/body/div/div/div/div/div/div/div/dl/dd/img'
p1422
F9.94251450533924
sS'/html/body/div/div/div/object/embed/li/div'
p1423
F9.94251450533924
sS'/html/body/div/div/div/div/div/div/div/div/div/strong'
p1424
F1.3168056622747748
sS'/html/body/div/div/div/div/div/table/tr/td/div/div/a/font'
p1425
F6.772589503896928
sS'/html/body/div/li/div/div/p'
p1426
F9.94251450533924
sS'/html/body/p/xmpmeta/rdf/description/tonecurvepv2012red/seq/li'
p1427
F5.084533510211668
sS'/html/body/div/div/div/div/div/div/div/ul/li/div/ul/li/ul'
p1428
F8.357552004618084
sS'/html/body/div/div/div/div/div/div/div/ul/li/span/a'
p1429
F8.94251450533924
sS'/html/body/div/div/div/div/h1/span'
p1430
F6.620586410451877
sS'/html/body/div/li/div/div/a'
p1431
F9.94251450533924
sS'/html/body/div/div/div/div/div/div/div/ul/li/ul/li/div/div/div/a/div'
p1432
F4.135159583281636
sS'/html/body/div/div/div/div/div/table/tr/td/div/div/div/div/div/div/div/a'
p1433
F6.772589503896928
sS'/html/body/div/form/div/div/label/input'
p1434
F1.6898490728889914
sS'/html/body/p'
p1435
F5.8550516640889
sS'/html/body/div/div/div/div/div/table/tr/td/div/div/div/ul/li/p/a/img'
p1436
F7.357552004618085
sS'/html/body/div/div/div/div/dl/dd/div/ul/li/a/span'
p1437
F8.357552004618084
sS'/html/body/div/div/div/div/div/div/div/ul/li/div/li/ul/li/div/div/a'
p1438
F6.242074787198148
sS'/html/body/div/div/div/div/div/a/span'
p1439
F9.94251450533924
sS'/html/body/div/div/div/div/div/div/div/p/em/strong'
p1440
F8.357552004618084
sS'/html/body/div/div/div/div/div/p/br'
p1441
F7.357552004618085
sS'/html/body/div/div/div/div/div/div/div/ul/li/ul/li/div/div/div/span'
p1442
F3.148098638989134
sS'/html/body/div/div/div/div/div/div/div/ul/li/ul/div/span'
p1443
F8.94251450533924
sS'/html/body/div/div/div/div/div/div/div/ul/li/div/div/span'
p1444
F6.94251450533924
sS'/html/body/div/div/div/div/a/i'
p1445
F8.357552004618084
sS'/html/body/div/div/li/div/div/a'
p1446
F7.94251450533924
sS'/html/body/div/div/div/div/a/b'
p1447
F8.94251450533924
sS'/html/body/div/div/div/div/div/dl/dd/div/ul/li/a'
p1448
F9.94251450533924
sS'/html/body/div/div/div/div/div/div/div/div/span'
p1449
F1.3131578852596304
sS'/html/body/div/div/div/div/div/table/caption'
p1450
F8.94251450533924
sS'/html/body/div/div/div/div/div/div/dl/dt/a'
p1451
F8.357552004618084
sS'/html/body/div/div/div/div/a/p'
p1452
F5.772589503896928
sS'/html/body/div/div/li/div/div/p'
p1453
F7.94251450533924
sS'/html/body/table/tbody/tr/td/table/tbody/tr/td/div/strong/br'
p1454
F9.94251450533924
sS'/html/body/table/tbody/tr/td/table/tbody/tr/td/strong/a'
p1455
F7.620586410451877
sS'/html/body/div/div/div/div/ul/li/div/div/div/a/div'
p1456
F5.942514505339241
sS'/html/body/div/div/div/div/div/li/ul/li/div/div/p'
p1457
F6.242074787198148
sS'/html/body/div/div/table/tbody/tr/td/div/div/div/button'
p1458
F9.94251450533924
sS'/html/body/div/div/div/form/div/div/a'
p1459
F8.94251450533924
sS'/html/body/div/div/div/div/div/div/form/ul/li/h3/img'
p1460
F9.94251450533924
sS'/html/body/div/div/div/div/div/li/ul/li/div/div/a'
p1461
F6.135159583281637
sS'/html/body/div/div/div/div/div/ul/li/ul/li/div/div/a'
p1462
F9.94251450533924
sS'/html/body/div/div/div/div/div/div/ul/li/div'
p1463
F9.94251450533924
sS'/html/body/div/div/div/div/div/li/ul/li/img'
p1464
F6.135159583281637
sS'/html/body/div/div/dl/dd/div/textarea'
p1465
F8.357552004618084
sS'/html/body/div/div/div/div/dl/dd/a'
p1466
F1.6524956584066215
sS'/html/body/div/div/div/div/div/ul/li/ul/li/div/div/p'
p1467
F9.94251450533924
sS'/html/body/div/div/div/div/div/div/div/p/strong'
p1468
F1.6160850182169366
sS'/html/body/div/div/div/div/div/div/div/li/div/div/div/b'
p1469
F9.94251450533924
sS'/html/body/div/div/div/dl/dd/div/div/div/p/a'
p1470
F6.357552004618085
sS'/html/body/div/div/div/div/div/div/div/span'
p1471
F5.772589503896928
sS'/html/body/div/div/div/div/div/div/div/p/a/span'
p1472
F4.3278046612240315
sS'/html/body/div/div/div/div/div/ul/div/div/div/div/div/li/div/a'
p1473
F6.772589503896928
sS'/html/body/div/div/ul/li/div/h3/a/strong/font'
p1474
F9.94251450533924
sS'/html/body/div/div/div/div/div/div/div/ul/li/div/li/div'
p1475
F9.94251450533924
sS'/html/body/div/div/div/div/div/div/div/ul/li/div/div/div/b'
p1476
F1.787696396287136
sS'/html/body/div/div/div/div/div/div/div/ul/li/div/div/div/a'
p1477
F8.94251450533924
sS'/html/body/div/span/ul/li/ul/div/div'
p1478
F1.9538298185670742
sS'/html/body/div/div/div/div/div/li/ul/li/ul'
p1479
F6.135159583281637
sS'/html/body/div/div/div/ul/li/div/div/div/p'
p1480
F8.357552004618084
sS'/html/html/p/am'
p1481
F9.94251450533924
sS'/html/body/div/div/div/div/div/div/div/ul/li/div/div/div/p'
p1482
F6.357552004618085
sS'/html/body/div/div/div/div/div/div/div/dl/dd/dd/dd/a'
p1483
F9.94251450533924
sS'/html/body/div/div/div/div/div/dl/dd/ul/li/div/a/img'
p1484
F2.3351841915896294
sS'/html/body/div/div/div/div/div/table/tr/td/div/strong/a/em'
p1485
F6.94251450533924
sS'/html/body/div/div/div/div/div/ul/li/ul/li/ul'
p1486
F9.94251450533924
sS'/html/body/div/div/div/div/div/div/label/span'
p1487
F9.94251450533924
sS'/html/body/div/form/div/div/ul/li/a'
p1488
F1.6898490728889914
sS'/html/body/div/div/div/div/div/div/div/ul/li/div/li/ul/li/div/div/p/br'
p1489
F9.94251450533924
sS'/html/body/div/div/ul/li/a/div/p'
p1490
F9.94251450533924
sS'/html/body/div/div/div/div/div/div/div/div/dl/dt'
p1491
F8.357552004618084
sS'/html/body/div/div/div/div/div/div/div/ul/li/div/div/li/ul'
p1492
F8.94251450533924
sS'/html/body/div/div/div/div/div/div/div/ul/li/ul/div/a/div'
p1493
F9.94251450533924
sS'/html/body/div/div/div/div/div/div/div/div/a/div/div/div/ul/li/img'
p1494
F9.94251450533924
sS'/html/body/div/div/div/dl/dt/div'
p1495
F9.94251450533924
sS'/html/body/div/main/section/div/div'
p1496
F9.94251450533924
sS'/html/body/div/div/li/div/li/div/div/div/a/div'
p1497
F8.94251450533924
sS'/html/body/div/div/div/div/div/div/div/ul/li/div/div/div/a/div/a/div'
p1498
F9.94251450533924
sS'/html/body/div/div/div/div/ul/li/div/div/ul/li/a'
p1499
F9.94251450533924
sS'/html/body/div/div/li/ul/li/div/div/p/img'
p1500
F9.94251450533924
sS'/html/body/div/div/div/div/div/div/div/p/strong/span/img'
p1501
F8.357552004618084
sS'/html/body/div/div/div/div/div/div/ul/li/a/span/span'
p1502
F9.94251450533924
sS'/html/body/div/div/div/ul/li/div/em'
p1503
F9.94251450533924
sS'/html/body/div/div/div/div/div/div/div/ul/li/div/div/li/ul/li/div/div/div/span'
p1504
F9.94251450533924
sS'/html/body/div/div/div/div/div/div/div/ul/li/ul/li/div/li/img'
p1505
F9.94251450533924
sS'/html/body/div/div/div/div/div/div/a/div/img'
p1506
F9.94251450533924
sS'/html/body/div/div/div/div/div/div/div/ul/li/div/p/br'
p1507
F9.94251450533924
sS'/html/body/div/div/div/div/div/table/tr/td/div/div/div/table/tr/td/ignore_js_op/div/div/p'
p1508
F7.620586410451877
sS'/html/body/div/div/div/div/div/ul/p'
p1509
F6.4830828867019425
sS'/html/body/li/ul/li/div/div/div/span'
p1510
F9.94251450533924
sS'/html/body/div/div/ul/li/div/div/div/dl/dd/a/img'
p1511
F9.94251450533924
sS'/html/body/div/span/div/div/p'
p1512
F1.9538298185670742
sS'/html/body/div/div/div/div/div/div/div/div/p/a'
p1513
F9.94251450533924
sS'/html/body/form/div/div/div/a'
p1514
F6.620586410451877
sS'/html/body/div/div/div/div/div/ul/li/div/p'
p1515
F8.94251450533924
sS'/html/body/div/div/div/div/div/table/tr/td/div/img'
p1516
F7.94251450533924
sS'/html/body/div/div/div/div/div/strong'
p1517
F6.135159583281637
sS'/html/body/div/div/div/div/ul/li/div/li/ul/li/div/div/div/span'
p1518
F9.94251450533924
sS'/html/body/div/div/div/div/div/div/object/param'
p1519
F9.94251450533924
sS'/html/body/form/div/div/div/p'
p1520
F6.620586410451877
sS'/html/body/div/div/div/div/div/ul/li/div/a'
p1521
F8.94251450533924
sS'/html/body/div/div/div/div/div/div/div/div/a/strong'
p1522
F7.620586410451877
sS'/html/body/div/div/div/div/div/div/div/table/tr/td/dl/dt/a'
p1523
F9.94251450533924
sS'/html/body/div/dl/dd/strong'
p1524
F8.94251450533924
sS'/html/body/div/div/div/div/div/div/div/p/span/span/span/br'
p1525
F9.94251450533924
sS'/html/body/div/div/li'
p1526
F9.94251450533924
sS'/html/body/div/div/div/div/dl/dd/ul/li/div/a/img'
p1527
F8.357552004618084
sS'/html/body/div/div/div/li/div/div/span'
p1528
F9.94251450533924
sS'/html/body/div/div/div/object/embed/li/strong'
p1529
F9.94251450533924
sS'/html/body/div/div/div/div/div/div/div/div/a/div/div/div/div/div/div'
p1530
F9.94251450533924
sS'/html/body/div/div/div/div/div/div/form/script'
p1531
F9.94251450533924
sS'/html/body/div/div/div/div/div/div/form/table/tbody/tr/td'
p1532
F7.135159583281635
sS'/html/body/div/div/div/ul/li/a/strong'
p1533
F8.94251450533924
sS'/html/body/div/div/div/div/div/div/div/p/strong/span'
p1534
F3.450661409009565
sS'/html/body/div/div/div/div/div/div/div/div/a/div/div/div/ul/li/div/div/div/b'
p1535
F9.94251450533924
sS'/html/body/div/div/li/div/li/div/div/a/div'
p1536
F9.94251450533924
sS'/html/body/div/dl/dt/span'
p1537
F8.94251450533924
sS'/html/body/div/div/dl/dd/div/div/span'
p1538
F8.357552004618084
sS'/html/body/div/div/div/div/div/table/tr/td/div/div/div/div/em'
p1539
F7.135159583281635
sS'/html/body/div/div/div/div/dl/dd/a/img'
p1540
F1.6898490728889914
sS'/html/body/div/div/div/div/div/table/tr/td/div/div/div/span'
p1541
F6.772589503896928
sS'/html/body/div/div/div/div/div/div/div/div/span/follow-button'
p1542
F1.3688673178459179
sS'/html/body/div/div/div/div/div/div/div/dl/dt/b'
p1543
F9.94251450533924
sS'/html/body/div/div/div/div/div/div/div/dl/dt/a'
p1544
F8.357552004618084
sS'/html/body/div/div/div/div/div/div/div/ul/li/div/li/ul/li/div/li/div/div/a'
p1545
F9.94251450533924
sS'/html/body/div/div/div/div/div/dl/a'
p1546
F9.94251450533924
sS'/html/body/div/h1'
p1547
F6.772589503896928
sS'/html/body/div/div/div/div/div/table/tr/td/div/strong/a'
p1548
F7.135159583281635
sS'/html/body/div/div/div/div/div/div/div/ul/li/div/li/ul/li/div/li/div/div/p'
p1549
F9.94251450533924
sS'/html/body/form/div/div/label/img'
p1550
F6.620586410451877
sS'/html/body/div/div/div/div/div/li/div/li/ul/li/div/div/p'
p1551
F9.94251450533924
sS'/html/body/div/div/div/div/h2/span'
p1552
F9.94251450533924
sS'/html/body/div/div/div/div/div/div/div/ul/li/div/div/div/a/div/div/span'
p1553
F8.94251450533924
sS'/html/body/div/div/div/div/div/div/dl/dd/ul/li/a/span'
p1554
F7.620586410451877
sS'/html/body/table/tbody/tr/td/div/a/img'
p1555
F7.620586410451877
sS'/html/body/div/div/div/div/div/li/div/li/ul/li/div/div/a'
p1556
F9.94251450533924
sS'/html/body/div/div/div/div/div/div/button'
p1557
F8.94251450533924
sS'/html/body/div/div/div/div/div/div/div/ul/li/div/div/li/ul/li/ul'
p1558
F9.94251450533924
sS'/html/body/div/div/div/div/div/div/ul/li/h3/a'
p1559
F8.357552004618084
sS'/html/body/div/div/div/div/div/div/div/div/a/div/div/div/div/img'
p1560
F9.94251450533924
sS'/html/body/div/div/div/div/table/tr/td/h2'
p1561
F2.277178588154064
sS'/html/body/div/div/div/div/div/div/dl/dt/span'
p1562
F9.94251450533924
sS'/html/body/div/div/div/div/div/div/div/div/div/p/a'
p1563
F8.94251450533924
sS'/html/body/div/div/form/div/div/ul/li/a'
p1564
F6.135159583281637
sS'/html/body/div/div/div/div/div/div/div/table/tbody/tr/td/p/span'
p1565
F8.357552004618084
sS'/html/body/div/div/div/div/dl/dd/div/div/div/a/img'
p1566
F8.357552004618084
sS'/html/body/div/div/div/dl/dd/p'
p1567
F8.357552004618084
sS'/html/body/div/div/div/div/form/div/h2'
p1568
F9.94251450533924
sS'/html/body/div/div/div/div/div/div/div/dl/dd/br'
p1569
F9.94251450533924
sS'/html/body/div/div/div/dl/dd/a'
p1570
F5.8550516640889
sS'/html/body/table/tbody/tr/td/span/a'
p1571
F7.620586410451877
sS'/html/body/div/div/div/div/div/ul/div/div/div/div'
p1572
F6.772589503896928
sS'/html/body/div/div/div/div/div/dl/dd/div/div'
p1573
F9.94251450533924
sS'/html/body/div/div/div/ul/li/div/div/div'
p1574
F8.357552004618084
sS'/html/body/div/div/div/div/div/div/div/span/follow-button'
p1575
F8.94251450533924
sS'/html/body/div/form/div'
p1576
F7.135159583281635
sS'/html/body/p/xmpmeta/rdf/description/tonecurvepv2012blue/seq/li'
p1577
F5.084533510211668
sS'/html/body/div/div/div/dl/dd/ul/li/div/a/img'
p1578
F6.357552004618085
sS'/html/body/div/div/div/div/div/div/div/a/div/a'
p1579
F9.94251450533924
sS'/html/body/div/div/div/div/div/div/strong'
p1580
F6.620586410451877
sS'/html/body/div/div/div/div/div/span'
p1581
F4.694586991895655
sS'/html/body/div/div/embed'
p1582
F9.94251450533924
sS'/html/body/div/div/div/div/div/table/tr/td/div/div/div/a'
p1583
F6.772589503896928
sS'/html/body/div/header/div/nav/form/div/button/i'
p1584
F9.94251450533924
sS'/html/body/div/div/div/div/div/div/div/a/div/p'
p1585
F9.94251450533924
sS'/html/body/div/div/div/div/div/ul/li/div/divm'
p1586
F9.94251450533924
sS'/html/body/li/img'
p1587
F8.94251450533924
sS'/html/body/div/div/div/div/div/div/sc'
p1588
F9.94251450533924
sS'/html/body/div/div/div/div/div/div/div/ul/li/div/div/li/div/div/div/a/div'
p1589
F8.94251450533924
sS'/html/body/div/div/div/div/div/div/li/div/div/p'
p1590
F7.620586410451877
sS'/html/body/div/div/div/div/div/div/div/ul/li/div/div/div/a/div/div/b'
p1591
F8.94251450533924
sS'/html/body/div/form/div/a'
p1592
F7.620586410451877
sS'/html/body/div/div/div/div/div/li'
p1593
F9.94251450533924
sS'/html/body/div/div/p/strong'
p1594
F8.94251450533924
sS'/html/body/div/div/div/div/div/div/div/p/span/span/img'
p1595
F7.94251450533924
sS'/html/body/div/div/div/div/div/div/li/div/div/a'
p1596
F7.620586410451877
sS'/html/body/div/div/div/div/div/div/li/div/div/b'
p1597
F9.94251450533924
sS'/html/body/div/div/div/div/div/div/div/p/span/a/strong/span'
p1598
F9.94251450533924
sS'/html/body/div/div/div/div/ul/li/em/span'
p1599
F9.94251450533924
sS'/html/body/div/div/div/div/form/div/div/div/div/div/a'
p1600
F9.94251450533924
sS'/html/body/div/div/div/div/div/dl/dt/div/dl/dd/div/div/ul/li/a'
p1601
F8.94251450533924
sS'/html/body/div/div/div/div/div/div/ul/li/div/div/div/a/div'
p1602
F9.94251450533924
sS'/html/body/div/div/div/li/div/li'
p1603
F9.94251450533924
sS'/html/body/div/div/div/div/div/div/em'
p1604
F6.772589503896928
sS'/html/body/div/div/div/div/b'
p1605
F7.94251450533924
sS'/html/body/div/div/div/div/a'
p1606
F4.418952549282227
sS'/html/body/div/div/div/ul/li/div/div/div/p/span/b'
p1607
F8.357552004618084
sS'/html/body/div/div/div/div/i'
p1608
F9.94251450533924
sS'/html/body/div/div/div/div/p'
p1609
F4.109624491174499
sS'/html/body/div/div/div/div/div/div/form/input'
p1610
F6.772589503896928
sS'/html/body/div/div/div/div/div/dl/dd/ul/li/a/spa'
p1611
F8.94251450533924
sS'/html/body/div/div/div/div/div/h2/span'
p1612
F9.94251450533924
sS'/html/body/div/header/div/a/button'
p1613
F9.94251450533924
sS'/html/body/div/div/div/div/div/br'
p1614
F7.135159583281635
sS'/html/body/table/tbody/tr/td/div/span/strong/br'
p1615
F7.620586410451877
sS'/html/body/form/div/div/label/div'
p1616
F6.620586410451877
sS'/html/body/div/div/div/div/hr'
p1617
F9.94251450533924
sS'/html/body/div/div/div/li/div/div/div/a/div/span'
p1618
F9.94251450533924
sS'/html/body/div/div/div/div/h3/i'
p1619
F9.94251450533924
sS'/html/body/div/div/span/br'
p1620
F8.357552004618084
sS'/html/body/div/div/div/div/ul/li/ul/li/div/div/div/span'
p1621
F8.94251450533924
sS'/html/body/header/div/div/div/a/em'
p1622
F9.94251450533924
sS'/html/body/div/div/div/div/div/div/div/ul/li/p/img'
p1623
F9.94251450533924
sS'/html/body/div/div/div/div/div/div/div/div/a/div/div/div/div/div'
p1624
F9.94251450533924
sS'/html/body/div/div/p/span/script'
p1625
F8.94251450533924
sS'/html/body/div/div/div/div/div/div/dl/dd/span'
p1626
F9.94251450533924
sS'/html/body/div/div/div/div/h1/i'
p1627
F8.94251450533924
sS'/html/body/div/div/li/div/li/ul/li/img'
p1628
F9.94251450533924
sS'/html/body/div/div/div/div/h1/a'
p1629
F8.94251450533924
sS'/html/body/div/img'
p1630
F8.357552004618084
sS'/html/body/div/div/div/div/h3'
p1631
F7.357552004618085
sS'/html/body/div/div/div/div/h2'
p1632
F6.94251450533924
sS'/html/body/div/div/div/div/h1'
p1633
F9.94251450533924
sS'/html/body/table/tbody/tr/td/table/tbody/tr/td/br'
p1634
F7.620586410451877
sS'/html/body/div/div/div/div/div/div/div/table/tbody/tr/td/p/img'
p1635
F9.94251450533924
sS'/html/body/div/div/div/div/div/li/div/li/div/div/p'
p1636
F9.94251450533924
sS'/html/body/div/div/li/div/li/ul/li/div/div/div/b'
p1637
F9.94251450533924
sS'/html/body/div/div/div/div/div/li/div/div/div/a'
p1638
F9.94251450533924
sS'/html/body/div/div/div/a/div'
p1639
F6.772589503896928
sS'/html/body/div/div/div/div/div/table/tr/td/div/div/div/table/tr/td/div/font/strong/font'
p1640
F9.94251450533924
sS'/html/body/div/div/div/div/div/ul/li/h4'
p1641
F9.94251450533924
sS'/html/body/div/div/div/div/table/tr/td/p/a/strong'
p1642
F2.277178588154064
sS'/html/body/div/div/div/div/p/strong'
p1643
F7.94251450533924
sS'/html/body/div/div/div/dl/dd/ul/li/a/strong'
p1644
F6.357552004618085
sS'/html/body/div/div/div/li/ul/li/div/div/div/b'
p1645
F8.94251450533924
sS'/html/body/div/div/div/div/div/div/ul/li/a/div/div/div/ul/li/div/div/div/span'
p1646
F9.94251450533924
sS'/html/body/div/div/div/div/div/div/div/div/strong'
p1647
F8.94251450533924
sS'/html/body/div/div/div/div/ul/li/div/p'
p1648
F8.357552004618084
sS'/html/body/div/div/div/div/div/div/dl/dd/ul'
p1649
F9.94251450533924
sS'/html/body/div/div/div/div/div/div/div/div/table/tbody/tr/td/a/img'
p1650
F9.94251450533924
sS'/html/body/div/div/div/div/div/table/tr/td/div/style'
p1651
F6.772589503896928
sS'/html/body/div/div/div/div/button'
p1652
F5.357552004618084
sS'/html/body/div/div/div/div/div/div/ul/li/p/a'
p1653
F6.357552004618085
sS'/html/body/div/div/div/div/div/table/tr/td/div/div/div/table/tr/td/div/blockquote/br'
p1654
F7.620586410451877
sS'/html/body/div/div/div/div/div/dl/dd/div/ul/li/a/span'
p1655
F2.3351841915896294
sS'/html/body/div/div/div/a/p'
p1656
F7.620586410451877
sS'/html/body/div/div/div/div/div/li/div/div/p/img'
p1657
F6.035623909730722
sS'/html/body/div/div/div/div/div/div/ul/div/div/div/div/div/li/div/a'
p1658
F6.772589503896928
sS'/html/body/div/div/div/div/div/div/div/dl/dd/div/div'
p1659
F9.94251450533924
sS'/html/body/div/div/div/div/div/table/tr/td/div/div/a/b/font'
p1660
F6.772589503896928
sS'/html/body/div/div/div/a/i'
p1661
F9.94251450533924
sS'/html/body/script'
p1662
F0.19097044625014165
sS'/html/body/div/div/div/li/div/li/ul'
p1663
F9.94251450533924
sS'/html/body/div/div/div/div/div/div/ul/div/div/div/div'
p1664
F6.772589503896928
sS'/html/body/div/div/div/div/div/div/div/form/div/a'
p1665
F6.357552004618085
sS'/html/body/div/div/div/a/b'
p1666
F7.620586410451877
sS'/html/body/li/div/div/span'
p1667
F9.94251450533924
sS'/html/body/div/form/input'
p1668
F7.135159583281635
sS'/html/body/div/div/div/div/div/div/dl/dd/div/div/ul/li/div/a'
p1669
F9.94251450533924
sS'/html/body/div/div/div/div/div/div/div/ul/li/div/ul/li/div/div/a/div'
p1670
F9.94251450533924
sS'/html/body/div/div/div/div/div/div/dl/dd/div/div/ul/li/div/p'
p1671
F9.94251450533924
sS'/html/body/div/div/div/div/div/div/div/div/ul/li/div/p/a'
p1672
F8.357552004618084
sS'/html/body/div/div/div/div/div/table/tr/td/div/div/script'
p1673
F6.94251450533924
sS'/html/body/div/div/ul/li/img'
p1674
F8.94251450533924
sS'/html/body/div/div/div/div/div/div/div/ul/li/div/div/li/div/div/p/img'
p1675
F9.94251450533924
sS'/html/body/div/div/div/div/form/div/div/div/div'
p1676
F9.94251450533924
sS'/html/body/div/div/div/div/ul/li/ul/li/div/div/div/b'
p1677
F8.94251450533924
sS'/html/body/div/style'
p1678
F5.694586991895655
sS'/html/body/div/div/div/label/span'
p1679
F6.772589503896928
sS'/html/body/div/div/div/dl/dt'
p1680
F4.73306113971029
sS'/html/body/div/main/section/div'
p1681
F9.94251450533924
sS'/html/body/div/div/div/div/div/div/div/div/label'
p1682
F1.3204626858828636
sS'/html/body/div/div/div/div/div/dl/dd/ul/li/a/b'
p1683
F2.3500574680711597
sS'/html/body/div/div/ul/li/div/div/div/b'
p1684
F9.94251450533924
sS'/html/body/div/div/div/dl/dd'
p1685
F9.94251450533924
sS'/html/body/div/div/div/div/div/span/follow-button'
p1686
F9.94251450533924
sS'/html/body/div/div/div/br'
p1687
F7.135159583281635
sS'/html/body/div/div/div/div/div/div/div/div/a/div/script'
p1688
F9.94251450533924
sS'/html/body/div/div/div/div/div/dl/dd/ul/li/a/s'
p1689
F9.94251450533924
sS'/html/body/li/div/div/a'
p1690
F8.94251450533924
sS'/html/body/div/div/div/div/img'
p1691
F1.6433064869519611
sS'/html/body/li/div/div/b'
p1692
F9.94251450533924
sS'/html/body/div/div/div/div/div/div/ul/div/div/div/div/div/div/li/a'
p1693
F6.772589503896928
sS'/html/body/div/div/div/div/div/div/div/div/a/div/div/div/div/div/div/a'
p1694
F9.94251450533924
sS'/html/body/div/span/ul/li/ul/div/script'
p1695
F1.9538298185670742
sS'/html/body/div/div/div/div/table/tr/td/p'
p1696
F2.277178588154064
sS'/html/body/li/div/div/p'
p1697
F8.94251450533924
sS'/html/body/div/input'
p1698
F8.94251450533924
sS'/html/body/div/div/div/dl/dt/div/dl/dd/div/div/ul/li/div/p'
p1699
F9.94251450533924
sS'/html/body/div/div/div/div/ul/li/div/div/div/div/span'
p1700
F8.94251450533924
sS'/html/body/div/dl/dd/font'
p1701
F3.898120385980786
sS'/html/body/div/div/div/div/div/div/div/ul/li/ul/li/div/ul'
p1702
F9.94251450533924
sS'/html/body/div/div/div/div/div/div/div/h4/a'
p1703
F9.94251450533924
sS'/html/body/div/ul/li/a'
p1704
F7.357552004618085
sS'/html/body/div/div/div/div/div/ul/li/div/li'
p1705
F9.94251450533924
sS'/html/body/div/div/div/div/div/div/div/ul/li/div/li/ul/li/div/li/ul/li/div/b'
p1706
F9.94251450533924
sS'/html/body/div/div/div/div/div/dl/dt/div/a/b'
p1707
F3.876425314881468
sS'/html/html/p/git'
p1708
F9.94251450533924
sS'/html/body/div/div/div/div/div/div/form/div/div/div'
p1709
F9.94251450533924
sS'/html/body/div/div/div/div/div/div/div/form/p/button/strong'
p1710
F6.357552004618085
sS'/html/body/div/div/div/div/div/div/br'
p1711
F8.94251450533924
sS'/html/body/div/main/section/div/div/div/div/button/i'
p1712
F9.94251450533924
sS'/html/body/footer/div/div'
p1713
F9.94251450533924
sS'/html/body/div/div/div/div/div/div/div/ul/li/ul/li/div/div/a/div/b'
p1714
F9.94251450533924
sS'/html/body/div/div/div/div/div/div/div/div/div/span/div/img'
p1715
F8.357552004618084
sS'/html/body/div/div/div/div/div/div/div/ul/li/div/li/ul/li/div/li/ul'
p1716
F9.94251450533924
sS'/html/body/li/div/div/div/a/div'
p1717
F8.94251450533924
sS'/html/body/div/div/div/div/div/div/div/ul/li/ul/li/img'
p1718
F3.1096244911744986
sS'/html/body/div/div/div/div/div/div/div/ul/li'
p1719
F4.270089163367745
sS'/html/body/div/div/div/li/div/div/div/div/b'
p1720
F9.94251450533924
sS'/html/body/div/form/div/div/a'
p1721
F1.6571122864769914
sS'/html/body/div/div/div/div/table/tr/td/div/ul/li/span'
p1722
F2.277178588154064
sS'/html/body/div/div/div/div/div/div/a/span'
p1723
F8.357552004618084
sS'/html/body/div/div/ul/li/div/div/div/dl/dt'
p1724
F9.94251450533924
sS'/html/body/div/div/div/div/div'
p1725
F1.533123569201538
sS'/html/body/div/div/div/div/div/div/a/p'
p1726
F2.372658897008292
sS'/html/body/div/div/div/div/div/ul/ul/li/a/img'
p1727
F9.94251450533924
sS'/html/body/div/div/div/div/div/div/div/div/div/span/a'
p1728
F9.94251450533924
sS'/html/body/div/div/div/div/div/table/tr/td/div/div/div/div/div/dl/dt'
p1729
F6.772589503896928
sS'/html/body/div/div/table/tbody/tr/td/div/div/h2'
p1730
F9.94251450533924
sS'/html/body/div/div/div/div/ul/li/div/div/div/p'
p1731
F9.94251450533924
sS'/html/body/div/div/div/div/div/div/a/b'
p1732
F4.035623909730722
sS'/html/body/div/div/div/div/div/div/div/ul/br'
p1733
F9.94251450533924
sS'/html/body/div/dl/dt/ul/li/a'
p1734
F8.94251450533924
sS'/html/body/div/div/div/div/ul/li/div/div/object/embed'
p1735
F9.94251450533924
sS'/html/body/div/div/div/div/div/div/iframe'
p1736
F8.94251450533924
sS'/html/body/div/div/div/div/ul/li/div/li/ul/li/ul'
p1737
F9.94251450533924
sS'/html/body/div/div/div/div/div/table/tr/td/div/div/div/div/a/span/i'
p1738
F8.94251450533924
sS'/html/body/div/div/li/div/ul'
p1739
F8.94251450533924
sS'/html/body/div/h2/strong'
p1740
F6.357552004618085
sS'/html/body/div/div/div/div/div/div/div/a/img'
p1741
F1.7675888228385612
sS'/html/body/div/div/div/div/ul/li/div/li/div/div/div/b'
p1742
F9.94251450533924
sS'/html/body/div/div/div/div/div/div/div/ul/li/ul/li/div/li/ul/li/div/div/div/span'
p1743
F9.94251450533924
sS'/html/body/div/div/div/div/div/dl/dd/li/a'
p1744
F9.94251450533924
sS'/html/body/div/div/div/div/div/div/div/ul/li/div/li/ul/li/div/li/div/div/div/b'
p1745
F9.94251450533924
sS'/html/body/div/div/div/div/div/div/div/div/div/ul/li'
p1746
F8.94251450533924
sS'/html/body/div/div/div/div/div/div/div/div/table/tbody/tr/td/div'
p1747
F9.94251450533924
sS'/html/body/div/div/dl/dd/div/a'
p1748
F8.357552004618084
sS'/html/body/div/div/div/ul/li/p/a'
p1749
F6.772589503896928
sS'/html/body/div/div/div/ul/li/span/a'
p1750
F9.94251450533924
sS'/html/body/span/img'
p1751
F6.357552004618085
sS'/html/body/div/div/li/div/div/div/div/a/div'
p1752
F9.94251450533924
sS'/html/body/div/div/div/div/iframe'
p1753
F5.242074787198148
sS'/html/body/div/div/div/div/div/div/dl/dd/ul/li/span'
p1754
F6.772589503896928
sS'/html/body/div/div/div/div/table/tr/td/div/h2'
p1755
F2.277178588154064
sS'/html/body/div/div/div/div/div/div/div/div/a/div/div/div/ul/li/ul'
p1756
F9.94251450533924
sS'/html/body/div/div/div/div/div/div/div/ul/li/div/ul/li/div/div/b'
p1757
F9.94251450533924
sS'/html/body/div/div/div/div/div/div/div/ul/li/div/ul/li/div/div/a'
p1758
F8.357552004618084
sS'/html/body/div/div/div/div/div/div/div/ul/li/div/ul/li/div/div/p'
p1759
F9.94251450533924
sS'/html/body/div/div/div/div/div/div/div/div/follow-button'
p1760
F8.94251450533924
sS'/html/body/div/div/div/div/div/div/ul/div/h1/a'
p1761
F9.94251450533924
sS'/html/body/div/div/div/div/div/div/div/div/div/img'
p1762
F7.135159583281635
sS'/html/body/div/div/div/div/div/div/div/ul/li/ul/li/div/div/p/img'
p1763
F4.516249750637142
sS'/html/body/div/div/div/div/div/div/form/div/div/a'
p1764
F9.94251450533924
sS'/html/body/div/div/dl/dd/ul/li/a/img'
p1765
F8.94251450533924
sS'/html/body/div/div/div/div/div/div/ul/li/ul/li/div/div/div/span'
p1766
F9.94251450533924
sS'/html/body/div/div/div/div/div/div/div/div/b'
p1767
F2.6663901000650028
sS'/html/body/div/div/div/div/div/div/div/p/span/strong/span'
p1768
F9.94251450533924
sS'/html/body/div/div/div/div/div/div/div/div/a'
p1769
F1.0783283606849596
sS'/html/body/div/div/div/div/div/table/tr/td/div/div/div/a/img'
p1770
F6.772589503896928
sS'/html/body/div/div/div/div/ul/li/div/div/div/div/b'
p1771
F8.94251450533924
sS'/html/body/div/div/div/div/dl/dd/div/div/ul/li/a/img'
p1772
F9.94251450533924
sS'/html/body/div/div/div/div/div/li/div/li/ul/li/div/div/div/a/div'
p1773
F9.94251450533924
sS'/html/body/div/div/div/div/div/div/div/ul/li/div/p/img'
p1774
F8.94251450533924
sS'/html/body/div/div/div/div/div/div/div/div/div/div/ul/li/a/img'
p1775
F9.94251450533924
sS'/html/body/div/div/div/div/div/div/div/ul/li/ul/li/div'
p1776
F9.94251450533924
sS'/html/body/div/div/div/div/div/div/li/div/div/p/br'
p1777
F9.94251450533924
sS'/html/body/div/div/div/div/div/div/div/ul/li/div/div/p/br'
p1778
F4.450661409009565
sS'/html/body/div/div'
p1779
F0.750221690868473
sS'/html/body/div/div/div/div/li/div/div/div/div/span'
p1780
F9.94251450533924
sS'/html/body/div/div/div/div/div/div/div/div/ul/li/div/a'
p1781
F6.357552004618085
sS'/html/body/header/div/div/p/span'
p1782
F9.94251450533924
sS'/html/body/div/div/div/div/div/div/div/div/ul/li/div/p'
p1783
F9.94251450533924
sS'/html/body/div/div/div/div/form/div/div/div/div/div/br'
p1784
F9.94251450533924
sS'/html/body/div/div/div/div/div/div/div/dl/dd/div/div/ul/li/a/img'
p1785
F8.94251450533924
sS'/html/body/div/div/div/div/div/div/form/ul/li/h3/a'
p1786
F9.94251450533924
sS'/html/body/div/div/div/div/div/div/div/div/div/ul/li/b'
p1787
F8.357552004618084
sS'/html/body/div/footer/div/div/div/script'
p1788
F9.94251450533924
sS'/html/body/p/xmpmeta/rdf/description/tonecurvepv2012green/seq/li'
p1789
F5.084533510211668
sS'/html/body/div/div/div/ul/li/br'
p1790
F9.94251450533924
sS'/html/body/div/div/div/li/div/ul/li/ul'
p1791
F9.94251450533924
sS'/html/body/div/div/div/div/div/div/div/div/a/div/div/div/textarea'
p1792
F9.94251450533924
sS'/html/body/div/div/div/div/p/br'
p1793
F7.94251450533924
sS'/html/body/div/div/div/div/div/div/div/div/div/div/ul/li/a'
p1794
F9.94251450533924
sS'/html/body/div/div/div/div/div/li/div/li/div/div/div/b'
p1795
F9.94251450533924
sS'/html/body/div/div/dl/dd/div/div/a'
p1796
F8.357552004618084
sS'/html/body/div/div/div/dl/dd/div/div/div/a/img'
p1797
F6.357552004618085
sS'/html/body/div/div/div/ul/li/div'
p1798
F8.94251450533924
sS'/html/body/div/div/input'
p1799
F7.620586410451877
sS'/html/body/div/div/div/div/div/div/div/ul/li/div/li/ul/li/div/div/div/a/div'
p1800
F6.94251450533924
sS'/html/body/li/ul/li/img'
p1801
F9.94251450533924
sS'/html/body/div/div/div/form/div/div/label/input'
p1802
F8.94251450533924
sS'/html/body/div/div/div/div/div/div/div/ul/li/div/h3/a'
p1803
F7.94251450533924
sS'/html/body/div/div/div/div/div/div/div/ul/li/div/div'
p1804
F5.942514505339241
sS'/html/body/div/div/div/li/div/div/a/div'
p1805
F9.94251450533924
sS'/html/body/div/ul'
p1806
F8.94251450533924
sS'/html/body/div/div/div/div/div/table/tr/td/div/div/span'
p1807
F7.135159583281635
sS'/html/body/div/div/div/div/div/li/ul/li/div/div/div/a/div'
p1808
F7.135159583281635
sS'/html/body/div/div/div/div/div/div/div/div/a/div/div/div/dl/dd/a'
p1809
F9.94251450533924
sS'/html/body/div/div/div/div/div/div/dl/dd/div/div/a/strong'
p1810
F7.135159583281635
sS'/html/body/div/div/div/ul/div/li/a/i'
p1811
F0.8004074480366898
sS'/html/body/div/div/div/div/div/div/div/p/span/span/span'
p1812
F7.135159583281635
sS'/html/body/div/div/div/div/div/div/div/li/ul'
p1813
F9.94251450533924
sS'/html/body/div/div/div/div/div/div/div/div/table/tbody/tr/td/p/strong/span'
p1814
F9.94251450533924
sS'/html/body/div/div/div/div/ul/li/ul/li/div/div/p'
p1815
F8.94251450533924
sS'/html/body/div/a/img'
p1816
F8.94251450533924
sS'/html/body/div/div/div/div/a/span'
p1817
F9.94251450533924
sS'/html/body/div/div/div/div/div/div/div/div/dl/dd/a'
p1818
F8.94251450533924
sS'/html/body/div/div/div/div/div/div/div/p/span/a/span'
p1819
F7.357552004618085
sS'/html/body/div/div/div/div/div/ul/li/div/div/p/br'
p1820
F9.94251450533924
sS'/html/body/div/div/div/div/dl/dd/div/div/div/p/a'
p1821
F8.357552004618084
sS'/html/body/div/div/dl/dt/img'
p1822
F8.357552004618084
sS'/html/body/div/div/div/div/div/div/div/dl/dd/div/div/ul/li/div/p'
p1823
F8.94251450533924
sS'/html/body/div/div/p/span'
p1824
F8.94251450533924
sS'/html/body/div/div/div/div/div/li/img'
p1825
F4.855051664088901
sS'/html/body/div/div/div/dl/dt/div/dl/dt'
p1826
F9.94251450533924
sS'/html/body/div/div/div/div/div/div/div/p/em/strong/span'
p1827
F8.94251450533924
sS'/html/body/div/div/div/div/div/div/ul/li/a/div/div/div/button'
p1828
F9.94251450533924
sS'/html/body/div/div/div/div/form/table/tr/td/input'
p1829
F6.772589503896928
sS'/html/body/div/div/div/div/div/div/div/dl/dd/div/div/ul/li/div/a'
p1830
F8.94251450533924
sS'/html/body/div/div/ul/li/div/strong/a'
p1831
F9.94251450533924
sS'/html/body/p/xmpmeta/rdf/description/history/seq/li'
p1832
F5.084533510211668
sS'/html/body/div/div/div/div/div/div/ul/li/a/div/div/div/ul/li/img'
p1833
F9.94251450533924
sS'/html/body/div/div/div/dl/dt/div/div'
p1834
F9.94251450533924
sS'/html/body/div/div/div/div/div/div/div/table/tr/td/dl/dd/em/span'
p1835
F9.94251450533924
sS'/html/body/div/div/div/div/div/div/div/div/ul/li/h3/a'
p1836
F9.94251450533924
sS'/html/body/div/div/ul/li/div/a/img'
p1837
F8.357552004618084
sS'/html/body/div/div/div/h2/span/em/span'
p1838
F3.694586991895654
sS'/html/body/div/main/section/div/div/div/h2/a'
p1839
F9.94251450533924
sS'/html/body/div/div/ul/li/div/a/li/div/a/img'
p1840
F9.94251450533924
sS'/html/body/div/div/div/form/div/div/label/div'
p1841
F8.94251450533924
sS'/html/body/div/div/div/div/form/div/h3'
p1842
F9.94251450533924
sS'/html/body/div/div/div/div/div/ul/li/ul/li/br'
p1843
F9.94251450533924
sS'/html/body/div/div/ul/li/a/strong'
p1844
F0.787696396287136
sS'/html/body/div/div/div/div/div/a/li/a/b'
p1845
F9.94251450533924
sS'/html/body/div/div/div/div/div/li/div'
p1846
F9.94251450533924
sS'/html/body/div/div/div/div/ul/li/ul/li/div/div/a'
p1847
F8.94251450533924
sS'/html/body/div/div/div/div/div/div/div/ul/li/div/li/div/div/div/a'
p1848
F9.94251450533924
sS'/html/body/div/div/div/div/div/div/div/div/ul/li/div/a/img'
p1849
F8.357552004618084
sS'/html/body/div/div/div/div/div/li/ul/li/div/div/p/br'
p1850
F8.94251450533924
sS'/html/body/div/footer/div/div/div/form/input'
p1851
F9.94251450533924
sS'/html/body/div/div/div/div/div/div/div/div/div/div/ul/a'
p1852
F9.94251450533924
sS'/html/body/div/div/div/div/div/div/div/ul/li/div/li/ul'
p1853
F5.550197082560479
sS'/html/body/div/div/div/div/li/div/div/div/a/div'
p1854
F8.94251450533924
sS'/html/body/div/div/div/form/div/div/div'
p1855
F8.94251450533924
sS'/html/body/div/main/section/div/div/div/div/iframe'
p1856
F9.94251450533924
sS'/html/body/div/div/div/div/div/div/dl/dd/ul/li/a/img'
p1857
F7.135159583281635
sS'/html/body/div/div/div/div/div/div/div/dl/dt/div/a/b'
p1858
F9.94251450533924
sS'/html/body/div/div/div/li/div/ul/li/div/div/div/b'
p1859
F9.94251450533924
sS'/html/body/div/div/div/div/div/div/div/p/strong/span/br'
p1860
F7.620586410451877
sS'/html/body/table/tbody/tr/td/table/tbody/tr/td/a/strong'
p1861
F7.620586410451877
sS'/html/body/div/main/section/div/div/div/div/img'
p1862
F9.94251450533924
sS'/html/body/div/div/ul/li/div/div/div/dl/dd/a'
p1863
F9.94251450533924
sS'/html/body/div/div/div/div/li/ul/li/div/div/div/span'
p1864
F9.94251450533924
sS'/html/body/div/div/div/div/form/div/div/div/div/br'
p1865
F9.94251450533924
sS'/html/body/div/div/div/div/div/table/tr/td/div/div/div/table/tr/td/div/ignore_js_op/img'
p1866
F9.94251450533924
sS'/html/body/div/div/div/div/div/div/div/ul/li/div/div/d'
p1867
F9.94251450533924
sS'/html/body/li/ul/li/div/div/a'
p1868
F9.94251450533924
sS'/html/body/div/div/div/div/div/ul/li/div/span'
p1869
F9.94251450533924
sS'/html/body/div/div/div/h1/span'
p1870
F8.357552004618084
sS'/html/body/div/div/div/div/div/li/div/div/div/a/div'
p1871
F5.084533510211668
sS'/html/body/div/div/div/dl/dd/div/div/ul/li'
p1872
F8.94251450533924
sS'/html/body/div/div/div/div/div/table/tr/td/div/div/div/div/div/div/a/img'
p1873
F6.772589503896928
sS'/html/body/div/div/div/div/ul/li/strong/a'
p1874
F7.94251450533924
sS'/html/body/div/div/div/div/div/div/div/ul/li/div/b'
p1875
F7.620586410451877
sS'/html/body/div/div/div/div/div/div/div/ul/li/div/li/div/div/div/span'
p1876
F5.550197082560479
sS'/html/body/div/div/div/div/div/p'
p1877
F1.5204497391664278
sS'/html/body/div/div/div/div/div/div/ul/li/a/div/div/div/div/script'
p1878
F9.94251450533924
sS'/html/body/div/div/div/div/div/u'
p1879
F9.94251450533924
sS'/html/body/form/div/div/a'
p1880
F6.620586410451877
sS'/html/body/div/div/div/div/div/b'
p1881
F4.988318194952365
sS'/html/body/div/div/div/div/div/div/div/ul/li/div/p'
p1882
F4.084533510211668
sS'/html/body/div/div/div/div/div/a'
p1883
F1.5718270985320224
sS'/html/body/div/div/div/div/div/div/div/p/span/p/span'
p1884
F9.94251450533924
sS'/html/body/div/div/div/div/div/div/div/ul/li/ul/li/div/li/div/div/div/a/div'
p1885
F9.94251450533924
sS'/html/body/div/div/div/div/div/i'
p1886
F8.357552004618084
sS'/html/body/div/div/div/li/div/div/div/div/a/div'
p1887
F9.94251450533924
sS'/html/body/div/div/div/div/div/embed'
p1888
F9.94251450533924
sS'/html/body/div/div/div/div/div/div/div/ul/li/ul/div/b'
p1889
F8.94251450533924
sS'/html/body/div/div/div/div/div/div/div/p/strong/strong/strong'
p1890
F9.94251450533924
sS'/html/body/div/div/span/img'
p1891
F9.94251450533924
sS'/html/body/div/div/div/div/div/div/div/p/a'
p1892
F3.9201466923107855
sS'/html/body/div/div/dl/dd/img'
p1893
F9.94251450533924
s.