(dp0
S'/html/body/div/div/div/div/form/div/div/div/a'
p1
F5.401250547548768
sS'/html/body/div/div/div/noscript/div/img'
p2
F1.9024446905773267
sS'/html/body/div/div/div/div/div/div/div/div/div/a'
p3
F0.6073998898409115
sS'/html/body/div/div/div/form/div/div/div/p/br'
p4
F9.92481250360578
sS'/html/body/div/div/div/div/div/table/tr/td/div/table/tr/td/div/div/div/span'
p5
F2.0119231673758193
sS'/html/body/div/div/div/div/ul/li/ul/li/a'
p6
F5.754887502163469
sS'/html/body/div/div/div/div/div/p/i'
p7
F4.401250547548768
sS'/html/body/div/div/div/div/ul/li/ul/li/a/strong'
p8
F6.117457581548177
sS'/html/body/div/div/div/div/div/div/p/br'
p9
F4.04216945424394
sS'/html/body/div/div/div/div/div/div/table/tr/td/table/tr/td/div/br'
p10
F4.924812503605781
sS'/html/body/div/div/div/form/div/div/div/p/sup'
p11
F9.92481250360578
sS'/html/body/div/div/div/div/div/p/a'
p12
F3.7548875021634687
sS'/html/body/div/div/div/div/div/p/b'
p13
F3.9940751660428946
sS'/html/body/div/div/div/div/div/div/table/tr/td/div/h1'
p14
F5.280956313831057
sS'/html/body/div/div/div/div/div/div/table/tr/td/div/h2'
p15
F5.169925001442312
sS'/html/body/div/div/div/div/div/div/table/tr/td/div/h3'
p16
F6.339850002884625
sS'/html/body/div/div/div/div/form/div/div/noscript/p/a'
p17
F4.04216945424394
sS'/html/body/div/div/div/div/form/p/label/span'
p18
F9.92481250360578
sS'/html/body/div/div/div/div/table/tr/td/div/div/span'
p19
F6.754887502163469
sS'/html/body/div/div/div/div/div/div/div/div/div/div/ul/li/span'
p20
F2.6028844087184186
sS'/html/body/div/div/div/form/div/div/div/blockquote/p'
p21
F9.92481250360578
sS'/html/body/div/div/div/div/div/form/input'
p22
F2.401250547548768
sS'/html/body/div/div/div/div/div/div/table/tr/td/div/h1/strong'
p23
F6.117457581548177
sS'/html/body/div/div/div/div/table/tr/td/div/div/br'
p24
F8.339850002884624
sS'/html/body/div/div/div/div/div/div/div/div/div/div/div/div/span/span'
p25
F9.92481250360578
sS'/html/body/div/div/div/div/div/div/table/tr/td/div/ul/li/ul/li/em'
p26
F8.92481250360578
sS'/html/body/div/div/div/div/div/table/tr/td/div/div/p/strong'
p27
F4.04216945424394
sS'/html/body/div/div/div/div/div/div/table/tr/td/div/p/sub/em'
p28
F8.339850002884624
sS'/html/body/div/div/div/a'
p29
F0.04676159087724428
sS'/html/body/div/div/div/div/div/div/table/tbody/tr/td/a'
p30
F5.532495080827021
sS'/html/body/div/div/div/div/div/table/tr/td/div/div/p/img'
p31
F6.465380884968484
sS'/html/body/div/div/div/div/div/div/div/div/div/span'
p32
F0.8749639541552195
sS'/html/body/div/div/div/div/div/div/div/div/h2/span/a/b'
p33
F7.924812503605781
sS'/html/body/div/div/div/div/table/tr/td/div/div/div/div/p'
p34
F8.339850002884624
sS'/html/body/div/div/div/div/div/div/table/tr/td/div/blockquote/ul/li'
p35
F8.92481250360578
sS'/html/body/div/div/div/div/div/table/tr/td/span'
p36
F6.602884408718419
sS'/html/body/div/div/div/div/div/div/span'
p37
F3.5672604989876975
sS'/html/body/div/div/div/div/form/div/div/div/div/div/input'
p38
F4.754887502163469
sS'/html/body/div/div/div/div/div/table/tr/td/div/div'
p39
F6.602884408718419
sS'/html/body/div/div/div/div/div/ul/li/a/b'
p40
F9.92481250360578
sS'/html/head/meta'
p41
F0.04676159087724428
sS'/html/body/div/div/div/div/div/div/table/tr/td/div/ol/li'
p42
F4.465380884968484
sS'/html/body/div/div/div/div/form/p/span'
p43
F9.92481250360578
sS'/html/body/div/div/div/div/p/em'
p44
F9.92481250360578
sS'/html/body/div/div/div/div/div/div/div/div/div/p'
p45
F2.816288046827612
sS'/html/body/div/div/div/div/table/tr/td/h1'
p46
F6.754887502163469
sS'/html/body/div/div/div/form/table/tr/td/input'
p47
F5.532495080827021
sS'/html/body/div/div/div/div/div/ul/li/ul/li/code'
p48
F9.92481250360578
sS'/html/body/div/div/div/div/div/table/tr/td/div/div/blockquote/p/em'
p49
F9.92481250360578
sS'/html/body/div/div/div/div/div/div/div/ul/li/a/span'
p50
F2.593895625491164
sS'/html/body/div/div/div/div/div/div/div/form/input'
p51
F7.339850002884624
sS'/html/body/div/div/div/div/p/a'
p52
F4.04216945424394
sS'/html/body/div/div/div/div/p/b'
p53
F7.339850002884624
sS'/html/body/div/div/div/div/h1/span'
p54
F8.339850002884624
sS'/html/body/div/div/div/div/p/i'
p55
F8.92481250360578
sS'/html/body/div/div/div/div/form/label'
p56
F5.401250547548768
sS'/html/body/div/div/div/div/table/tr/td/div/div/div/ol/span'
p57
F9.92481250360578
sS'/html/body/div/div/div/div/div/div/div/div/a/div/img'
p58
F5.117457581548177
sS'/html/head/script'
p59
F0.04676159087724428
sS'/html/body/div/div/div/div/div/form/div/p/a'
p60
F2.4091126653217385
sS'/html/body/div/div/div/div/div/form/div/input'
p61
F2.4091126653217385
sS'/html/body/div/div/div/div/div/div/table/tr/td/div/ul/li/a'
p62
F4.280956313831056
sS'/html/body/div/div/div/div/b/a'
p63
F0.04676159087724428
sS'/html/body/div/div/div/div/div/div/ol/li'
p64
F1.8969065070358964
sS'/html/body/div/div/div/div/div/table/tbody/tr/td/a'
p65
F7.339850002884624
sS'/html/body/div/div/br'
p66
F0.04676159087724428
sS'/html/body/div/div/div/div/div/div/div/div/div/pre/code'
p67
F9.92481250360578
sS'/html/body/feed/subtitle'
p68
F4.9706161932189055
sS'/html/body/div/div/div/div/div/table'
p69
F5.92481250360578
sS'/html/body/div/div/div/div/table/tr/td/div/div/div/p/strong'
p70
F8.92481250360578
sS'/html/body/div/div/div/div/div/p/br'
p71
F4.465380884968484
sS'/html/body/div/div/div/div/div/div/table/tr/td/div/ul/li/p'
p72
F7.924812503605781
sS'/html/body/div/div/div/div/div/table/tr/td/div/table/tbody/tr/td/div/span/code'
p73
F4.9706161932189055
sS'/html/body/div/div/div/form/div/input'
p74
F4.5672604989876975
sS'/html/body/div/div/div/div/div/table/tr/td/div/table/tbody/tr/td/div/a/span'
p75
F5.017921907997263
sS'/html/body/div/div/div/div/div/table/tr/td/div/div/pre'
p76
F9.92481250360578
sS'/html/body/div/div/div/form/div/div/div/div/div'
p77
F9.92481250360578
sS'/html/body/div/div/div/div/div/div/table/tr/td/div/ol/li/ul/li'
p78
F9.92481250360578
sS'/html/body/div/div/div/table/tr/td/a'
p79
F8.339850002884624
sS'/html/body/div/div/div/div/div/div/div/p/em/a'
p80
F8.92481250360578
sS'/html/body/div/div/div/div/table/tr/td/div/div/div/div/p/code'
p81
F9.92481250360578
sS'/html/body/div/div/div/div/div/table/tr/td/div/div/p/em'
p82
F5.837349662355441
sS'/html/body/div/div/div/div/div/table/tr/td/div/div/ul/li/p/code'
p83
F7.339850002884624
sS'/html/body/div/div/div/div/div/table/tr/td/div/table/tbody/tr/td/div/span/i/a'
p84
F9.92481250360578
sS'/html/body/div/div/div/div/div/table/tr/td/div/table/tbody/tr/td/div/span/i/b'
p85
F9.92481250360578
sS'/html/body/div/div/div/div/div/div/div/div/div/div/i'
p86
F4.880418384247328
sS'/html/body/div/div/div/div/div/div/div/div/div/div/a'
p87
F2.775065384101099
sS'/html/body/div/div/div/div/div/div/table/tr/td/div/h3/strong'
p88
F6.117457581548177
sS'/html/body/div/div/div/div/div/div/h3/span'
p89
F5.465380884968483
sS'/html/body/div/div/div/div/table/tr/td/span'
p90
F7.602884408718419
sS'/html/body/div/div/div/div/table/tr/td/div/div/div/p/em'
p91
F9.92481250360578
sS'/html/body/div/div/div/div/div/div/table/tr/td/div/blockquote/pre/code'
p92
F9.92481250360578
sS'/html/body/div/div/div/div/div/div/div/div/div/div/p'
p93
F9.92481250360578
sS'/html/body/div/div/div/div/div/ul/li/ul/li/a'
p94
F8.92481250360578
sS'/html/body/div/div/div/div/div/table/tr/td/div/div/p/br'
p95
F6.92481250360578
sS'/html/body/div/div/div/div/div/div/div/div/div/h1'
p96
F8.92481250360578
sS'/html/body/div/div/div/form/div/div/div/ul/li/a'
p97
F9.92481250360578
sS'/html/body/div/div/div/div/div/div/table/tr/td/div/table/tbody/tr/td/div/span'
p98
F2.9361278168336153
sS'/html/body/div/div/div/div/div/table/tr/td/div/table/tr/td/div/div/div'
p99
F3.465380884968484
sS'/html/body/div/div/div/div/form/p/select/option'
p100
F9.92481250360578
sS'/html/body/div/div/div/form/div/div/div/ul/li/p'
p101
F9.92481250360578
sS'/html/body/div/div/div/div/table/tr/td/select/option'
p102
F5.280956313831057
sS'/html/body/feed/entry/link'
p103
F4.9706161932189055
sS'/html/body/div/div/div/div/a/div/div/i'
p104
F9.92481250360578
sS'/html/body/div/div/div/div/div/div/div/div/div/span/strong'
p105
F2.0059492663311866
sS'/html/body/div/div/div/div/br'
p106
F4.370223651928144
sS'/html/body/div/div/div/div/div/div/table/tr/td/div/h2/strong'
p107
F6.602884408718419
sS'/html/body/div/div/div/div/div/div/table/tr/td/div/ul/li/br'
p108
F5.465380884968483
sS'/html/body/div/div/div/div/div/div/div/a/span'
p109
F4.339850002884625
sS'/html/body/div/div/div/div/div/div/div/h3/span'
p110
F2.6028844087184186
sS'/html/body/feed/entry/category'
p111
F4.9706161932189055
sS'/html/body/div/div/div/div/div/ul/li/span/a'
p112
F5.401250547548768
sS'/html/body/div/div/div/div/table/tr/td/span/span'
p113
F7.602884408718419
sS'/html/body/div/div/div/div/table/tr/td/div/div/a/div/img'
p114
F6.754887502163469
sS'/html/body/feed/entry/updated'
p115
F4.9706161932189055
sS'/html/body/div/div/div/div/div/table/tr/td/div/div/p/em/a'
p116
F8.92481250360578
sS'/html/body/div/div/div/div/div/div/table/tr/td/div/p/strong/em'
p117
F9.92481250360578
sS'/html/body/div/div/div/div/div/p/a/img'
p118
F9.92481250360578
sS'/html/body/div/div/div/div/div/table/tr/td/div/div/div'
p119
F9.92481250360578
sS'/html/body/div/div/div/table/tr/td/hr'
p120
F9.92481250360578
sS'/html/body/div/div/div/div/div/form/div/a'
p121
F2.4091126653217385
sS'/html/body/div/div/div/div/table/tr/td/div/div/div/div/div'
p122
F9.92481250360578
sS'/html/body/div/div/div/div/div/form/div/div/div/div/div/table/tr/td/div/input'
p123
F2.4091126653217385
sS'/html/body/div/div/div/div/div/div/table/tr/td/div/a'
p124
F2.393431043089469
sS'/html/body/div/div/div/div/p/code'
p125
F9.92481250360578
sS'/html/body/div/div/div/div/div/div/div/div/div/div/span/span'
p126
F2.0793224526614056
sS'/html/body/div/div/div/div/div/div/table/tr/td/div/p'
p127
F2.5154215674680795
sS'/html/body/div/div/div/div/div/div/div/div/table/tbody/tr/td/div/div/table/tbody/tr/td'
p128
F8.339850002884624
sS'/html/body/div/div/div/div/div/table/tr/td/div/div/div/ul/li/span'
p129
F7.339850002884624
sS'/html/body/div/div/div/div/form/div/div/div/div/a'
p130
F4.754887502163469
sS'/html/body/div/div/div/div/div/div/table/tr/td/div/p/a/strong'
p131
F9.92481250360578
sS'/html/body/div/div/div/div/div/div/div/div/div/p/br'
p132
F5.92481250360578
sS'/html/body/div/div/div/div/div/table/tr/td/div/div/br'
p133
F9.92481250360578
sS'/html/body/div/div/div/div/div/div/table/tr/td/div/blockquote/p/code'
p134
F7.117457581548177
sS'/html/body/div/div/div/div/table/tr/td/label'
p135
F5.280956313831057
sS'/html/body/div/div/div/div/div/p/img'
p136
F8.339850002884624
sS'/html/body/div/div/div/div/div/a/span'
p137
F0.9706161932189058
sS'/html/body/div/div/div/div/form/div/div/div/div/p'
p138
F5.401250547548768
sS'/html/body/div/div/div/div/div/div/table/tr/td/div/ol/li/em'
p139
F5.754887502163469
sS'/html/body/div/div/div/div/div/div/img'
p140
F7.339850002884624
sS'/html/body/div/div/div/div/table/tr/td/div/div/div/span/span'
p141
F7.602884408718419
sS'/html/body/div/div/div/div/div/table/tr/td/br'
p142
F9.92481250360578
sS'/html/body/div/div/div/div/div/div/table/tr/td/div/ol/li/code'
p143
F5.602884408718419
sS'/html/body/div/div/div/div/table/tr/td/div/div/div/p/em/span'
p144
F9.92481250360578
sS'/html/body/div/div/div/div/table/tr/td/ol/li/a'
p145
F0.04676159087724428
sS'/html/body/div/div/div/div/div/div/table/tbody/tr/td/span'
p146
F5.532495080827021
sS'/html/body/div/div/div/div/div/div/div/a/div/svg'
p147
F4.602884408718419
sS'/html/body/div/div/div/div/table/tr/td/div/div/div/h1/span/span'
p148
F8.92481250360578
sS'/html/body/div/div/div/div/table/tr/td/div/span'
p149
F7.924812503605781
sS'/html/body/div/div/div/div/div/div/div/table/tbody/tr/td/a/span'
p150
F9.92481250360578
sS'/html/body/div/div/div/div/div/div/table/tr/td/div/ol/li/p/img'
p151
F8.92481250360578
sS'/html/body/div/div/div/div/div/table/tr/td/div/table/tr/td/div/div/a'
p152
F1.9135852481825268
sS'/html/body/div/div/div/div/div/div/table/tr/td/div/table/tbody/tr/td/div/a'
p153
F2.959028218943694
sS'/html/body/div/div/div/form/div/div/div/p/s'
p154
F9.92481250360578
sS'/html/body/div/div/div/div/div/div/a/div/img'
p155
F3.8804183842473274
sS'/html/body/div/div/div/div/div/div/div/p'
p156
F3.6768849901621956
sS'/html/body/div/div/div/form/div/div/noscript/h3'
p157
F9.92481250360578
sS'/html/body/div/div/div/div/div/div/table/tr/td/div/h1/a'
p158
F8.92481250360578
sS'/html/body/div/div/div/div/ul/li/a'
p159
F0.04676159087724428
sS'/html/body/div/div/div/table/thead/tr/th'
p160
F8.92481250360578
sS'/html/body/div/div/div/form/div/div/div/p/a'
p161
F7.924812503605781
sS'/html/body/div/div/div/div/div/div/div/div/div/div/div/div/br'
p162
F9.92481250360578
sS'/html/body/div/div/div/div/div/table/tr/td/div/div/blockquote/p/br'
p163
F9.92481250360578
sS'/html/body/div/div/div/form/div/div'
p164
F4.5672604989876975
sS'/html/body/div/div/div/div/div/table/tr/td/div/div/p/sub'
p165
F9.92481250360578
sS'/html/body/div/div/div/div/div/div/table/tr/td/div/strong'
p166
F7.602884408718419
sS'/html/body/div/div/div/div/div/table/tr/td/div/table/tbody/tr/td/div/span/span'
p167
F2.4409967263415244
sS'/html/body/div/div/div/div/div/div/div/div/div/p/img'
p168
F9.92481250360578
sS'/html/body/div/div/div/div/div/div/div/h3/span/span/i'
p169
F4.715359137976831
sS'/html/body/div/div/div/div/div/div/div/div/div/span/span'
p170
F2.4329594072761065
sS'/html/body/div/div/div/form/div/div/div/div/label'
p171
F9.92481250360578
sS'/html/body/div/div/div/div/form/div/a'
p172
F4.754887502163469
sS'/html/body/div/div/div/div/div/table/tr/td/div/div/p/sup'
p173
F7.339850002884624
sS'/html/body/div/div/div/div/table/tr/td/div'
p174
F5.754887502163469
sS'/html/body/div/div/div/link'
p175
F1.9024446905773267
sS'/html/body/div/div/div/div/table/tr/td/div/div/div/div/div/div'
p176
F9.92481250360578
sS'/html/body/div/div/div/div/div/div/div'
p177
F1.5027477374329685
sS'/html/body/div/div/div/div/div/div/div/div/br'
p178
F6.754887502163469
sS'/html/body/div/div/div/div'
p179
F1.6721470711555322
sS'/html/body/div/div/div/div/form/div/br'
p180
F4.754887502163469
sS'/html/body/div/div/div/div/div/div/h3/a'
p181
F2.117457581548177
sS'/html/body/div/div/div/div/div/div/h2/b'
p182
F4.04216945424394
sS'/html/body/div/div/div/div/div/div/table/tr/td/table/tr/td/div/div/a/br'
p183
F4.9706161932189055
sS'/html/body/div/div/div/div/div/div/h2/a'
p184
F4.04216945424394
sS'/html/body/div/div/div/div/div/ul/li/div'
p185
F1.9024446905773267
sS'/html/body/div/div/div/form/div/div/script'
p186
F9.92481250360578
sS'/html/body/div/div/div/div/div/div/table/tr/td/div/ol/li/a'
p187
F6.017921907997262
sS'/html/body/div/div/div/div/div/ul/li/b/a'
p188
F9.92481250360578
sS'/html/body/div/div/div/div/div/div/script'
p189
F7.339850002884624
sS'/html/body/div/div/div/form/div/div/div/table/tr/td/label'
p190
F5.117457581548177
sS'/html/body/div/div/div/div/div/div/h2/span'
p191
F4.04216945424394
sS'/html/body/div/div/div/div/form/div/div/div/div/label'
p192
F5.401250547548768
sS'/html/body/div/div/div/div/div/table/tr/td/div/p/span/a'
p193
F8.92481250360578
sS'/html/body/div/div/div/div/div/div/table/tr/td/div/p/em'
p194
F4.4329594072761065
sS'/html/body/div/div/div/div/div/div/table/tr/td/div/ol/li/p'
p195
F6.465380884968484
sS'/html/body/div/div/div/div/div/table/tr/td/div/table/tr/td/div/a'
p196
F1.9024446905773267
sS'/html/body/div/div/div/div/div/table/tr/td/div/div/blockquote/p/a'
p197
F9.92481250360578
sS'/html/body/div/div/div/div/div/span/span'
p198
F2.0982640163148663
sS'/html/body/div/div/div/p'
p199
F8.339850002884624
sS'/html/body/div/div/div/div/div/form/div/div/div/div'
p200
F2.4091126653217385
sS'/html/body/div/div/div/div/div/ul/li/blockquote'
p201
F9.92481250360578
sS'/html/body/div/div/div/div/div/div/div/div/div/a/span'
p202
F4.924812503605781
sS'/html/body/div/div/div/div/div/div/p'
p203
F2.1500254440046076
sS'/html/body/div/div/div/div/ul/li/div'
p204
F2.0544477840223765
sS'/html/body/div/div/div/form/div/div/div/p/strong'
p205
F7.339850002884624
sS'/html/body/div/div/div/div/div/div/div/div/div/div/span'
p206
F2.0606263589515006
sS'/html/body/div/div/div/div/div/div/span/span'
p207
F4.498547748903683
sS'/html/body/div/div/div/div/div/div/b'
p208
F1.8969065070358964
sS'/html/body/div/div/div/div/div/div/a'
p209
F0.04676159087724428
sS'/html/body/div/div/div/div/div/hr'
p210
F2.970616193218906
sS'/html/body/div/div/div/a/span'
p211
F0.04676159087724428
sS'/html/body/div/div/div/div/div/form/div/noscript/div/table/tr/td/div/label'
p212
F2.4091126653217385
sS'/html/body/div/div/div/div/div/form/div/script'
p213
F2.4091126653217385
sS'/html/body/div/div/div/div/div/div/table/tr/td/div/hr'
p214
F5.017921907997263
sS'/html/body/div/div/div/div/table/tr/td/div/div/div/span'
p215
F6.754887502163469
sS'/html/body/div/div/div/div/table/tr/td/p/b/span'
p216
F9.92481250360578
sS'/html/body/div/div/div/div/div/table/tr/td/div/div/p/a/img'
p217
F7.339850002884624
sS'/html/body/div/div/div/div/div/div/table/tr/td/div/p/strong/a'
p218
F7.602884408718419
sS'/html/body/div/div/div/div/div/div/table/tr/td/div/p/sup/code'
p219
F6.117457581548177
sS'/html/body/div/div/div/div/table/tr/td/p/b/a'
p220
F6.92481250360578
sS'/html/body/div/div/div/div/div/div/div/div/div/ol/li/a'
p221
F8.92481250360578
sS'/html/body/div/div/div/div/div/div/div/a'
p222
F0.821524695193759
sS'/html/body/div/div/div/form/div/script'
p223
F5.117457581548177
sS'/html/body/div/div/div/div/div/div/div/table/thead/tr/th'
p224
F9.92481250360578
sS'/html/body/div/div/div/div/div/form/div/noscript/div/table/tr/td/div/input'
p225
F2.4091126653217385
sS'/html/body/div/div/div/form/div/div/div/div/input'
p226
F9.92481250360578
sS'/html/body/div/div/div/div/div/div/div/span'
p227
F2.6119295483214255
sS'/html/body/div/div/div/div/div/div/table/tr/td/div/span'
p228
F2.393431043089469
sS'/html/body/div/div/div/div/table/tr/td/div/div'
p229
F6.754887502163469
sS'/html/body/div/div/div/div/div/div/div/div/h2/span'
p230
F3.816288046827612
sS'/html/body/div/div/div/div/div/div/table/tr/td/div/table/tbody/tr/td/table/tbody/tr/td/span'
p231
F3.5497730722588563
sS'/html/body/div/div/div/div/div/div/div/table/tr/td/div/span'
p232
F2.8695300681045914
sS'/html/body/div/div/div/div/div/h4'
p233
F1.68163852013283
sS'/html/body/div/div/div/div/div/h3'
p234
F0.04676159087724428
sS'/html/body/div/div/div/div/div/h2'
p235
F5.169925001442312
sS'/html/body/div/div/div/div/div/h1'
p236
F9.92481250360578
sS'/html/body/div/div/div/div/div/form/div/div/div/div/script'
p237
F2.4091126653217385
sS'/html/body/div/div/div/form/div/div/div/label'
p238
F5.169925001442312
sS'/html/body/div/div/div/script'
p239
F0.8347000839414923
sS'/html/body/div/div/div/div/div/ul/li/br'
p240
F9.92481250360578
sS'/html/body/div/div/div/div/form/div/div/div/div/noscript/p'
p241
F5.401250547548768
sS'/html/body/div/div/div/div/div/table/tr/td/div/div/blockquote/p'
p242
F6.465380884968484
sS'/html/body/div/div/div/div/div/table/tr/td/b/a'
p243
F9.92481250360578
sS'/html/body/div/div/div/div/table/tr/td/a/span'
p244
F7.924812503605781
sS'/html/body/div/div/div/div/div/div/div/div/div/div/div/div/div/div/img'
p245
F9.92481250360578
sS'/html/body/div/div/div/div/p/span/a'
p246
F6.117457581548177
sS'/html/body/div/div/div/div/h2/span'
p247
F5.676884990162196
sS'/html/body/div/div/div/div/form/div/div/div/input'
p248
F5.401250547548768
sS'/html/body/div/div/div/div/div/table/tr/td/div/table/tbody/tr/td/table/tbody/tr/td/span'
p249
F3.3549568952748334
sS'/html/body/div/div/div/div/div/form/h2'
p250
F2.4091126653217385
sS'/html/body/div/div/div/table/tr/td'
p251
F8.339850002884624
sS'/html/head/link'
p252
F0.04676159087724428
sS'/html/body/div/div/div/div/div/div/div/div/table/tbody/tr/td/div/div/table/tbody/tr/td/span'
p253
F8.339850002884624
sS'/html/body/div/div/div/form/div/style'
p254
F6.117457581548177
sS'/html/body/div/div/div/table/tr/th'
p255
F9.92481250360578
sS'/html/body/div/div/div/div/div/div/div/div/div/div/div/span'
p256
F9.92481250360578
sS'/html/body/div/div/div/div/div/div/div/div/div/a/br'
p257
F6.92481250360578
sS'/html/body/div/div/div/div/div/div/div/table/tr/td/a/span'
p258
F9.92481250360578
sS'/html/body/div/div/div/div/div/table/tr/td/div/table/tr/td/div/div/a/span'
p259
F2.4329594072761065
sS'/html/body/div/div/div/div/div/div/div/div/div/p/a'
p260
F5.465380884968483
sS'/html/body/div/div/div/div/div/div/div/div/div/p/b'
p261
F9.92481250360578
sS'/html/body/div/div/div/div/div/table/tr/td/div/div/b'
p262
F1.9024446905773267
sS'/html/body/div/div/div/div/div/table/tr/td/div/div/a'
p263
F1.84799690655495
sS'/html/body/div/div/div/div/table/tr/td/div/div/div/p/span'
p264
F8.339850002884624
sS'/html/body/div/div/div/div/div/div/table/tr/td/div/p/strong/code'
p265
F9.92481250360578
sS'/html/body/div/div/div/div/div/table/tr/td/div/table/tr/td/div/div'
p266
F3.498547748903683
sS'/html/body/div/div/div/div/div/ul/li/code'
p267
F8.339850002884624
sS'/html/body/div/div/div/div/div/div/div/div/span/a/span'
p268
F8.339850002884624
sS'/html/body/div/div/div/div/ol/li/p'
p269
F9.92481250360578
sS'/html/body/div/div/div/div/div/form/div/noscript/h3'
p270
F2.4091126653217385
sS'/html/body/div/div/div/div/div/table/tr/td/div/div/p'
p271
F1.9764452720211032
sS'/html/body/div/div/div/div/div/form/div/div/div/input'
p272
F2.4091126653217385
sS'/html/body/div/div/div/div/a/div/div'
p273
F9.92481250360578
sS'/html/body/div/div/div/div/div/table/tr/td/div/div/ol/li/p/strong'
p274
F9.92481250360578
sS'/html/body/div/div/div/div/div/div/div/table/tr/td/div/h4'
p275
F2.8695300681045914
sS'/html/body/div/div/div/div/table/tr/td/div/div/div/div/p/a/span'
p276
F9.92481250360578
sS'/html/body/div/div/div/div/div/div/table/tr/td/table/tr/td/div/div/a/div/img'
p277
F2.6119295483214255
sS'/html/body/div/div/div/div/div/h3/a'
p278
F0.04676159087724428
sS'/html/body/div/div/div/div/div/p/b/i'
p279
F9.92481250360578
sS'/html/body/div/div/div/div/div/div/table/tr/td/div/div/span'
p280
F6.92481250360578
sS'/html/body/div/div/div/div/div/span'
p281
F3.734987944725764
sS'/html/body/div/div/div/div/div/p/b/a'
p282
F7.924812503605781
sS'/html/body/div/div/div/div/div/ol/li/a'
p283
F8.92481250360578
sS'/html/body/div/div/div/div/div/ol/li/b'
p284
F8.92481250360578
sS'/html/body/div/div/div/div/div/div/div/div/div/ul/li/em'
p285
F8.339850002884624
sS'/html/body/div/div/div/div/div/div/table/tr/td/div/ul/li/ul/li'
p286
F6.754887502163469
sS'/html/body/div/div/div/div/form/br'
p287
F4.017921907997263
sS'/html/body/div/div/div/div/div/table/tr/td/div/div/div/p'
p288
F7.339850002884624
sS'/html/body/div/div/div/div/div/table/tr/td/div/div/h2/a'
p289
F7.339850002884624
sS'/html/body/div/div/div/div/div/div/div/div'
p290
F3.481869007757053
sS'/html/body/div/div/div/div/div/div/table/tr/td/div/table/tbody/tr/td/div/a/span'
p291
F5.224372785464689
sS'/html/body/div/div/div/div/span/a'
p292
F0.04676159087724428
sS'/html/body/div/div/div/div/div/div/div/div/div/h2'
p293
F7.924812503605781
sS'/html/body/div/div/div/div/div/table/tr/td/div/div/ul/li/a'
p294
F5.754887502163469
sS'/html/body/div/div/div/div/div/div/p/a/img'
p295
F9.92481250360578
sS'/html/body/div/div/div/div/div/div/div/div/h2/script'
p296
F4.169925001442312
sS'/html/body/div/div/div/div/div/h2/a'
p297
F1.908004215919227
sS'/html/body/div/div/div/div/div/div/table/tr/td/table/tr/td/div/span'
p298
F2.393431043089469
sS'/html/body/div/div/div/div/div/table/tr/td/div/div/ul/li/p'
p299
F6.465380884968484
sS'/html/body/div/div/div/div/div/p/span'
p300
F4.532495080827021
sS'/html/body/div/div/div/div/div/div/table/tr/td/table/tr/td/div/div/a/span'
p301
F3.0059492663311866
sS'/html/body/div/div/div/div/div/div/div/div/div/div/div/div'
p302
F6.754887502163469
sS'/html/body/div/div/div/div/form/div/div/div/div/div/p'
p303
F4.754887502163469
sS'/html/head/style'
p304
F4.602884408718419
sS'/html/body/div/div/div/div/div/table/tr/td/div/ul/li/b'
p305
F6.754887502163469
sS'/html/body/div/div/div/div/div/table/tr/td/div/ul/li/a'
p306
F6.754887502163469
sS'/html/body/div/div/div/div/div/table/tr/td/div/div/ul/li/p/em'
p307
F7.924812503605781
sS'/html/body/div/div/div/div/table/tr/td/div/div/div/h3/strong/span'
p308
F9.92481250360578
sS'/html/body/div/div/div/div/a'
p309
F0.04676159087724428
sS'/html/body/div/div/div/div/div/div/table/tr/td/div/ul/li/strong'
p310
F6.339850002884625
sS'/html/body/div/div/div/div/div/table/tr/td/div/table/tr/td/div/div/a/div/img'
p311
F2.0119231673758193
sS'/html/body/div/div/div/div/p'
p312
F1.5849625007211563
sS'/html/body/feed/entry/summary'
p313
F4.9706161932189055
sS'/html/body/div/div/script'
p314
F1.7449034135908466
sS'/html/body/div/div/div/div/table/tr/td/div/div/div/div/p/span'
p315
F8.339850002884624
sS'/html/body/div/div/div/div/div/div/table/tbody/tr/td/div'
p316
F5.532495080827021
sS'/html/body/div/div/div/div/div/form/div/div/input'
p317
F2.4091126653217385
sS'/html/body/div/div/div/div/div/div/table/tr/td/div/blockquote/p/em/code'
p318
F9.92481250360578
sS'/html/body/div/div/div/div/div/div/table/tr/td/div/h1/em'
p319
F9.92481250360578
sS'/html/body/div/div/div/div/div/br'
p320
F7.924812503605781
sS'/html/body/div/div/div/table/thead/tr/th/span'
p321
F8.92481250360578
sS'/html/body/div/div/div/div/div/ul/li/blockquote/a'
p322
F9.92481250360578
sS'/html/body/div/div/div/div/div/div/p/b'
p323
F8.92481250360578
sS'/html/body/div/div/div/div/hr'
p324
F8.92481250360578
sS'/html/body/div/div/div/div/div/ol/li'
p325
F7.339850002884624
sS'/html/body/div/div/div/div/div/div/table/tr/td/table/tr/td/div/div/div/span/span'
p326
F2.6394102847435326
sS'/html/body/div/div/div/div/form/input'
p327
F0.04676159087724428
sS'/html/body/div/div/div/div/div/table/tr/td/div/div/h1'
p328
F8.92481250360578
sS'/html/body/div/div/div/div/div/table/tr/td/div/div/h2'
p329
F6.754887502163469
sS'/html/body/div/div/div/div/h2/a'
p330
F4.4329594072761065
sS'/html/body/div/div/div/h2'
p331
F9.92481250360578
sS'/html/body/div/div/div/h1'
p332
F8.339850002884624
sS'/html/body/div/div/div/div/div/div/table/tbody/tr/td/span/span'
p333
F5.602884408718419
sS'/html/body/div/div/div/div/div/div/div/div/div/div/div/div/span'
p334
F2.7349879447257637
sS'/html/body/div/div/div/div/div/div/table/tr/td/div/p/sup/a'
p335
F5.602884408718419
sS'/html/body/div/div/div/div/div/div'
p336
F0.04676159087724428
sS'/html/body/div/div/div/div/div/div/table/tr/td/div/pre/code'
p337
F4.498547748903683
sS'/html/body/div/div/div/form/div/div/div/h1/em'
p338
F9.92481250360578
sS'/html/body/div/div/div/div/h1/a'
p339
F1.5716656781076983
sS'/html/body/div/div/div/div/div/table/tr/td/div/p'
p340
F5.837349662355441
sS'/html/body/div/div/div/form/div/div/div/div/div/h3/a'
p341
F9.92481250360578
sS'/html/body/div/div/div/div/h4'
p342
F1.8913895020683307
sS'/html/body/div/div/div/div/h3'
p343
F8.92481250360578
sS'/html/body/div/div/div/div/div/form/div/div/div/textarea'
p344
F2.4091126653217385
sS'/html/body/div/div/div/div/h1'
p345
F1.6721470711555322
sS'/html/body/div/div/div/div/div/div/table/tr/td/div/p/code'
p346
F4.252387161634285
sS'/html/body/div/div/div/div/div/table/tr/td/div/a'
p347
F1.9024446905773267
sS'/html/body/div/div/div/div/div/div/div/div/table/tbody/tr/td'
p348
F9.92481250360578
sS'/html/body/div/div/div/div/div/div/ul/li/a'
p349
F9.92481250360578
sS'/html/body/feed/title'
p350
F4.9706161932189055
sS'/html/body/div/div/div/div/div/table/tr/td/div/div/hr'
p351
F5.676884990162196
sS'/html/body/div/div/div/div/div/p/strong/a'
p352
F8.92481250360578
sS'/html/body/div/div/div/div/form/p/br'
p353
F9.92481250360578
sS'/html/body/div/div/div/div/div/ul/li/div/a'
p354
F0.04676159087724428
sS'/html/body/div/div/div/hr'
p355
F9.92481250360578
sS'/html/body/div/div/div/form/div/a'
p356
F4.5672604989876975
sS'/html/body/div/div/div/div/p/strong'
p357
F9.92481250360578
sS'/html/body/div/div/div/div/div/form/script'
p358
F2.4091126653217385
sS'/html/body/div/div/div/div/div/div/table/tr/td/div/table/tbody/tr/td/div/span/code'
p359
F4.676884990162196
sS'/html/body/div/div/div/div/div/table/tr/td/p/b'
p360
F1.9024446905773267
sS'/html/body/div/div/div/div/div/div/div/div/strong'
p361
F2.0421694542439397
sS'/html/body/div/div/div/div/form/p/input'
p362
F9.92481250360578
sS'/html/body/div/div/div/div/div/ul/li/strong'
p363
F8.92481250360578
sS'/html/body/div/div/div/div/div/table/tr/td/div/table/tbody/tr/td/div/span/b'
p364
F6.465380884968484
sS'/html/body/div/div/div/p/a'
p365
F5.602884408718419
sS'/html/body/div/div/div/form/div/div/div/table/tr/td/input'
p366
F5.117457581548177
sS'/html/body/div/div/div/div/div/table/tr/td/div/a/b'
p367
F4.252387161634285
sS'/html/body/div/div/div/div/table/tr/td/div/div/div'
p368
F8.339850002884624
sS'/html/body/div/div/div/div/div/div/table/tr/td/div/input'
p369
F2.393431043089469
sS'/html/body/div/div/div/form/div/div/input'
p370
F4.5672604989876975
sS'/html/body/div/div/div/div/div/div/div/script'
p371
F2.593895625491164
sS'/html/body/feed/entry/rank'
p372
F4.9706161932189055
sS'/html/body/div/div/div/div/div/div/div/div/div/p/em'
p373
F8.339850002884624
sS'/html/body/div/div/div/div/div/div/table/tr/td/div/p/s/a'
p374
F9.92481250360578
sS'/html/body/div/div/div/div/span/div/div/ul/li/a/span'
p375
F0.04676159087724428
sS'/html/body/div/div/div/div/div/table/tr/td/div/h2/a'
p376
F5.224372785464689
sS'/html/body/div/div/div/div/div/div/div/table/tr/td/div/ul/li/span'
p377
F2.8695300681045914
sS'/html/body/div/div/div/div/div/table/tr/td/div/h2/b'
p378
F5.224372785464689
sS'/html/body/div/div/div/div/div/div/table/tr/td/table/tr/td/div/div/div'
p379
F3.224372785464689
sS'/html/body/div/div/div/div/div/div/table/tr/td/div/p/code/p'
p380
F9.92481250360578
sS'/html/body/div/div/div/div/div/table/tr/td/div/h2/span/span'
p381
F5.280956313831057
sS'/html/body/div/div/div/div/div/table/tr/td/div/input'
p382
F1.9024446905773267
sS'/html/body/div/div/div/div/div/div/div/div/h3'
p383
F9.92481250360578
sS'/html/body/div/div/div/div/span'
p384
F2.0606263589515006
sS'/html/body/div/div/div/div/div/div/div/div/h1'
p385
F9.92481250360578
sS'/html/body/div/div/div/div/div/table/tr/td/div/div/ol/li/em'
p386
F7.924812503605781
sS'/html/body/div/div/div/div/div/table/tr/td/h4'
p387
F9.92481250360578
sS'/html/body/div/div/div/div/div/div/div/div/div/div/a/span'
p388
F6.465380884968484
sS'/html/body/div/div/div/div/div/div/table/tr/td/div/table/tbody/tr/td/table/tbody/tr/td'
p389
F2.8804183842473274
sS'/html/body/div/div/div/div/div/div/div/div/div/ol/li'
p390
F9.92481250360578
sS'/html/body/div/div/div/div/div/table/tbody/tr/td/span/span'
p391
F6.754887502163469
sS'/html/body/div/div/div/div/div/table/tr/td/div/div/div/span'
p392
F6.754887502163469
sS'/html/body/div/div/div/div/div/div/div/div/table/tbody/tr/td/div/div/table/tbody/tr/td/a'
p393
F8.339850002884624
sS'/html/body/div/div/div/div/div/table/tr/td/div/div/p/strong/em'
p394
F9.92481250360578
sS'/html/body/div/div/div/div/div/p/em'
p395
F6.754887502163469
sS'/html/body/div/div/div/div/form/div/div/div/div'
p396
F4.04216945424394
sS'/html/body/div/div/div/div/p/img'
p397
F9.92481250360578
sS'/html/body/div/div/div/div/div/div/table/tbody/tr/td'
p398
F7.117457581548177
sS'/html/body/div/div/div/div/div/div/div/h3/a'
p399
F7.924812503605781
sS'/html/body/div/div/div/div/div/div/table/tr/td/div/ul/li/strong/a'
p400
F8.339850002884624
sS'/html/body/div/div/div/div/div/div/table/tr/td/div/ol/li/strong'
p401
F7.339850002884624
sS'/html/body/div/div/div/div/div/table/tr/td/div/table/tr/td/div/div/span'
p402
F1.9024446905773267
sS'/html/body/div/div/div/div/div/div/div/a/div'
p403
F1.7903861833848551
sS'/html/body/div/div/div/div/div/div/div/div/div/hr'
p404
F7.339850002884624
sS'/html/body/div/div/div/form/div/div/div/input'
p405
F5.117457581548177
sS'/html/body/div/div/div/div/div/div/table/tr/td/div/table/tbody/tr/td/div/span/span'
p406
F2.8804183842473274
sS'/html/body/div/div/div/div/div/div/table/tr/td/div/p/kbd'
p407
F7.924812503605781
sS'/html/body/div/div/div/div/table/tr/td/div/div/div/ol/li/p/span'
p408
F9.92481250360578
sS'/html/body/div/div/div/div/div/div/div/a/div/ul/li'
p409
F4.498547748903683
sS'/html/body/div/div/div/div/div/ul/li/span/span'
p410
F4.498547748903683
sS'/html/body/div/div/div/div/div/div/div/table/tbody/tr/td/b'
p411
F9.92481250360578
sS'/html/body/div/div/div/br'
p412
F1.8587233131480083
sS'/html/body/div/div/div/div/div/div/div/table/tr/td/a'
p413
F9.92481250360578
sS'/html/body/div/div/div/div/div/table/tr/td/div/div/ul/li'
p414
F5.754887502163469
sS'/html/body/div/div/div/div/img'
p415
F4.04216945424394
sS'/html/body/div/div/div/div/div/a/div'
p416
F2.259476586420605
sS'/html/body/div/div/div/div/div/table/tr/td/div/table/tr/td/div/br'
p417
F5.837349662355441
sS'/html/body/div/div/div/div/p/span'
p418
F4.880418384247328
sS'/html/body/feed/license'
p419
F4.9706161932189055
sS'/html/body/div/div/div/div/div/table/tr/td/div/div/a/div/img'
p420
F6.602884408718419
sS'/html/body/div/div/div/div/table/tr/td/div/a'
p421
F6.754887502163469
sS'/html/body/feed/entry/author/name'
p422
F4.9706161932189055
sS'/html/body/div/div/div/div/h4/i'
p423
F9.92481250360578
sS'/html/body/div/div/div/div/div/table/tbody/tr/td/div'
p424
F7.339850002884624
sS'/html/body/div/div/div/div/div/table/tr/td/p'
p425
F1.9024446905773267
sS'/html/body/div/div/div/div/h4/a'
p426
F2.0544477840223765
sS'/html/body/div/div/div/div/div/p/strong/em'
p427
F9.92481250360578
sS'/html/body/div/div/div/div/table/tr/td/p'
p428
F5.532495080827021
sS'/html/body/div/div/div/div/table/tr/td/div/div/div/div/ol/li/p/span'
p429
F9.92481250360578
sS'/html/body/div/div/div/div/div/ul/li'
p430
F6.602884408718419
sS'/html/body/div/div/div/div/div/div/div/div/span'
p431
F3.5672604989876975
sS'/html/body/div/div/div/div/div/div/table/tr/td/div/p/em/a'
p432
F7.117457581548177
sS'/html/body/div/div/div/div/div/div/div/div/div/br'
p433
F9.92481250360578
sS'/html/body/div/div/div/div/div/table/tr/td/div/div/p/code'
p434
F5.754887502163469
sS'/html/body/div/div/div/div/table/tr/td/b'
p435
F8.339850002884624
sS'/html/body/div/div/div/div/table/tr/td/a'
p436
F6.2243727854646895
sS'/html/body/div/div/div/div/p/a/img'
p437
F9.92481250360578
sS'/html/body/div/div/div/div/div/table/tr/td/div/div/p/s'
p438
F7.602884408718419
sS'/html/body/div/div/div/form/input'
p439
F4.465380884968484
sS'/html/body/div/div/div/div/div/table/tr/td/div/div/p/a'
p440
F4.169925001442312
sS'/html/body/div/div/div/div/div/table/tr/td/p/b/a'
p441
F2.393431043089469
sS'/html/body/div/div/div/div/div/div/div/table/tbody/tr/th'
p442
F9.92481250360578
sS'/html/body/div/div/div/form/div/div/div/p/img'
p443
F8.92481250360578
sS'/html/body/div/div/div/div/div/div/div/table/tbody/tr/td'
p444
F9.92481250360578
sS'/html/body/div/div/div/form/div/div/noscript/div/table/tr/td/div/input'
p445
F9.92481250360578
sS'/html/body/div/div/div/div/div/div/div/div/span/span'
p446
F8.339850002884624
sS'/html/body/div/div/div/div/div/div/table/tr/td/div/p/sup/strong'
p447
F7.924812503605781
sS'/html/body/div/div/div/div/div/table/tr/td/div/table/tbody/tr/td/table/tbody/tr/td'
p448
F2.4409967263415244
sS'/html/body/div/div/div/div/div/div/br'
p449
F1.4249666165225756
sS'/html/body/div/div/div/div/div/div/div/div/a/span'
p450
F7.924812503605781
sS'/html/body/div/div/div/div/div/div/table/tbody/tr/td/a/span'
p451
F5.92481250360578
sS'/html/body/div/div/div/div/form/div/div/div/div/input'
p452
F4.04216945424394
sS'/html/body/div/div/div/div/div/div/table/tr/td'
p453
F2.1833455172046343
sS'/html/body/feed/entry/published'
p454
F4.9706161932189055
sS'/html/body/div/div/div/div/div/div/table/tr/td/div/ol/li/p/code'
p455
F8.92481250360578
sS'/html/body/div/div/div/div/div/form/div/div'
p456
F2.4091126653217385
sS'/html/body/div/div/div/div/style'
p457
F5.465380884968483
sS'/html/body/div/div/div/div/div/table/tr/td/div/div/h1/strong'
p458
F7.602884408718419
sS'/html/body/div/div/div/div/div/div/table/tr/td/table/tr/td/div/a'
p459
F2.393431043089469
sS'/html/body/div/div/div/div/div/div/div/ul/li'
p460
F9.92481250360578
sS'/html/body/div/div/div/div/div/ul/li/p'
p461
F8.339850002884624
sS'/html/body/div/div/div/div/div/div/p/a'
p462
F1.8533501410491569
sS'/html/body/div/div/div/div/div/div/a/span'
p463
F9.92481250360578
sS'/html/body/div/div/div/div/div/ul/li/b'
p464
F9.92481250360578
sS'/html/body/noscript/div/img'
p465
F0.04676159087724428
sS'/html/body/div/div/div/div/div/div/table/tr/td/div/ul/li/ul/li/ul/li/a'
p466
F7.117457581548177
sS'/html/body/div/div/div/div/div/ul/li/a'
p467
F1.7903861833848551
sS'/html/body/div/div/div/div/div'
p468
F0.8400041158014195
sS'/html/body/div/div/div/form/div/div/div/p'
p469
F6.117457581548177
sS'/html/body/div/div/div/div/div/div/table/tr/td/div/table/tbody/tr/td/div/span/i'
p470
F4.837349662355442
sS'/html/body/feed/updated'
p471
F4.9706161932189055
sS'/html/body/div/div/div/form/div/div/div/p/em'
p472
F9.92481250360578
sS'/html/body/div/div/div/div/div/table/tr/td/div/div/ul/li/br'
p473
F9.92481250360578
sS'/html/body/div/div/div/div/div/div/table/tr/td/div/table/tbody/tr/td/div/span/b'
p474
F6.339850002884625
sS'/html/body/div/div/div/div/div/div/table/tr/td/div/table/tbody/tr/td/div/span/a'
p475
F4.639410284743533
sS'/html/body/div/div/div/form/div/div/div/a'
p476
F9.92481250360578
sS'/html/body/div/div/div/div/div/div/div/div/div/ul/li/strong/a'
p477
F9.92481250360578
sS'/html/body/div/div/div/div/div/div/table/tr/td/div/ol/li/ul/li/p/code'
p478
F9.92481250360578
sS'/html/body/div/div/div/div/table/tr/td/div/div/div/a/span'
p479
F8.92481250360578
sS'/html/body/div/div/noscript/div/img'
p480
F2.259476586420605
sS'/html/body/div/div/div/div/div/div/p/a/span'
p481
F9.92481250360578
sS'/html/body/div/div/div/div/div/p/strong'
p482
F6.754887502163469
sS'/html/body/div/div/div/div/div/table/tr/td/div/div/ul/li/em'
p483
F7.117457581548177
sS'/html/body/div/div/div/form/div/div/div/h2/a'
p484
F9.92481250360578
sS'/html/body/div/div/div/div/div/table/tr/td/div/span/a'
p485
F6.754887502163469
sS'/html/body/div/div/div/div/div/div/div/table/tr/td/div/ul/li/a/span'
p486
F2.8695300681045914
sS'/html/body/div/div/div/div/div/ul/li/ul/li/em'
p487
F9.92481250360578
sS'/html/body/div/div/div/div/div/form/br'
p488
F9.92481250360578
sS'/html/body/div/div/div/form/div/div/div/ul/li'
p489
F9.92481250360578
sS'/html/body/div/div/div/div/div/div/table/tr/td/div/ul/li/p/s/a'
p490
F7.602884408718419
sS'/html/body/div/div/div/div/div/div/div/br'
p491
F3.7955294866608145
sS'/html/body/div/div/div/div/div/div/div/div/table/tbody/tr/td/span'
p492
F8.339850002884624
sS'/html/body/div/div/div/div/div/div/table/tr/td/div/ul/li/ul/li/a'
p493
F6.602884408718419
sS'/html/body/div/div/div/form/div/h2'
p494
F6.117457581548177
sS'/html/body/div/div/div/div/div/div/table/tr/td/div/ul/li/p/strong'
p495
F9.92481250360578
sS'/html/body/div/div/div/div/div/div/table/tr/td/div/blockquote/p/em'
p496
F9.92481250360578
sS'/html/body/div/div/div/div/div/table/tr/td/div/span'
p497
F1.9024446905773267
sS'/html/body/div/div/div/div/form/span'
p498
F9.92481250360578
sS'/html/body/div/div/div/form/div/div/div/div/div/h3'
p499
F9.92481250360578
sS'/html/body/div/div/div/form/div/div/div/h1/strong'
p500
F9.92481250360578
sS'/html/body/div/div/div/div/div/table/tr/td/div/div/div/span/span'
p501
F6.754887502163469
sS'/html/body/div/div/div/form/div/div/div/ul/li/p/code'
p502
F9.92481250360578
sS'/html/body/div/div/div/form/div/div/div/div/div/div/table/tr/td/div/input'
p503
F9.92481250360578
sS'/html/body/div/div/div/div/div/table/tbody/tr/td/a/span'
p504
F7.924812503605781
sS'/html/body/div/div/div/div/table/tr/th'
p505
F0.04676159087724428
sS'/html/body/div/div/div/div/div/div/table/tr/td/div/ol/li/sup/em'
p506
F8.339850002884624
sS'/html/body/div/div/div/div/table/tr/td'
p507
F5.754887502163469
sS'/html/body/div/div/div/div/div/p/sup/a'
p508
F8.92481250360578
sS'/html/body/div/div/div/div/div/div/table/tr/td/div/p/br'
p509
F6.117457581548177
sS'/html/body/div/div/div/div/div/ul/li/ul/li/p/code'
p510
F9.92481250360578
sS'/html/body/div/div/div/div/div/div/div/ul/li/div'
p511
F2.6028844087184186
sS'/html/body/div/div/div/div/table/tr/td/div/div/div/p/strong/span'
p512
F9.92481250360578
sS'/html/body/div/div/div/div/noscript/div/img'
p513
F5.532495080827021
sS'/html/body/div/div/div/div/div/div/div/div/h2'
p514
F3.4490790726393827
sS'/html/body/div/div/div/div/div/div/table/tr/td/div/blockquote/p'
p515
F4.639410284743533
sS'/html/body/div/div/div/div/div/img'
p516
F9.92481250360578
sS'/html/body/div/div/div/div/div/form/div/div/div/div/h3'
p517
F2.4091126653217385
sS'/html/body/div/div/div/div/div/table/tr/td/div/div/ol/li/p/a'
p518
F9.92481250360578
sS'/html/body/div/div/div/div/div/div/div/div/div/p/sup'
p519
F8.339850002884624
sS'/html/body/div/div/div/form/div/div/div/textarea'
p520
F4.5672604989876975
sS'/html/body/div/div/div/div/form/div/div/div/div/div/label'
p521
F4.754887502163469
sS'/html/body/div/div/div/div/div/div/div/div/div/div/div/b'
p522
F9.92481250360578
sS'/html/body/div/div/div/div/div/div/div/h2/span'
p523
F2.393431043089469
sS'/html/body/div/div/div/form/div/div/label'
p524
F4.5672604989876975
sS'/html/body/div/div/div/div/form/p/label'
p525
F9.92481250360578
sS'/html/body/div/div/div/div/div/div/table/tr/td/div/br'
p526
F7.602884408718419
sS'/html/body/div/div/div/div/div/table/tr/td/div/p/a'
p527
F7.117457581548177
sS'/html/body/div/div/div/div/div/div/table/tr/td/div/p/a/img'
p528
F8.339850002884624
sS'/html/body/feed/entry/id'
p529
F4.9706161932189055
sS'/html/body/div/div/div/div/div/div/table/tr/td/div/ol/li/p/a'
p530
F8.339850002884624
sS'/html/body/div/div/div/div/div/table/tr/td/div/table/tr/td/div/div/a/br'
p531
F5.837349662355441
sS'/html/body/div/div/div/div/div/div/div/div/p'
p532
F9.92481250360578
sS'/html/body/div/div/div/div/div/ul/li/a/span'
p533
F9.92481250360578
sS'/html/body/div/div/div/div/div/div/div/ul/li/a/span/span'
p534
F2.621031755428678
sS'/html/body/div/div/div/div/table/tr/td/div/div/div/p/code/span'
p535
F9.92481250360578
sS'/html/body/div/div/div/div/div/table/tr/td/div/table/tbody/tr/td'
p536
F3.5849625007211565
sS'/html/body/div/div/div/div/div/div/table/tr/td/div/blockquote/p/strong'
p537
F7.602884408718419
sS'/html/body/div/div/div/div/div/div/div/div/b'
p538
F6.602884408718419
sS'/html/body/div/div/div/form/label'
p539
F8.92481250360578
sS'/html/body/div/div/div/div/div/div/div/div/a'
p540
F2.401250547548768
sS'/html/body/div/div/div'
p541
F0.04676159087724428
sS'/html/body/div/div/div/form/script'
p542
F4.5672604989876975
sS'/html/body/div/div/div/div/div/div/div/div/i'
p543
F9.92481250360578
sS'/html/body/feed/id'
p544
F4.9706161932189055
sS'/html/body/div/div/div/div/div/div/table/thead/tr/th'
p545
F6.754887502163469
sS'/html/body/div/div/div/div/form/div/div/div/hr'
p546
F4.04216945424394
sS'/html/body/div/div/div/div/table/tr/td/p/b'
p547
F5.532495080827021
sS'/html/body/div/div/div/div/div/p/a/span'
p548
F7.924812503605781
sS'/html/body/noscript/div'
p549
F0.04676159087724428
sS'/html/body/div/div/div/div/div/table/tr/td/div/div/h1/em'
p550
F7.602884408718419
sS'/html/body/div/div/div/div/div/script'
p551
F1.8969065070358964
sS'/html/body/div/div/div/div/table/tr/td/div/div/div/div/ol/span'
p552
F9.92481250360578
sS'/html/body/div/div/div/div/div/table/tr/td/span/a'
p553
F6.754887502163469
sS'/html/body/div/div/div/div/div/div/table/tr/td/div/ul/li/ul/li/ul/li/em'
p554
F9.92481250360578
sS'/html/body/div/div/div/div/div/div/table/tr/td/div/p/sub'
p555
F8.339850002884624
sS'/html/body/div/div/div/div/div/table/tr/td/div/table/tr/td/div/div/div/span/span'
p556
F2.117457581548177
sS'/html/body/div/div/div/div/div/div/table/tr/td/div/blockquote/ol/li/a'
p557
F9.92481250360578
sS'/html/body/div/div/div/div/div/table/tr/td/div'
p558
F9.92481250360578
sS'/html/body/div/div/div/div/div/div/table/tr/td/div/p/sup'
p559
F6.465380884968484
sS'/html/body/div/div/div/div/table/tr/td/div/div/div/div/ol/li/span'
p560
F9.92481250360578
sS'/html/body/div/div/div/div/table/tr/td/div/div/div/div/p/strong/span'
p561
F9.92481250360578
sS'/html/body/div/div/div/div/div/div/div/div/h3/a'
p562
F8.339850002884624
sS'/html/body/div/div/div/form/div/div/noscript/div/table/tr/td/div/label'
p563
F9.92481250360578
sS'/html/body/div/div/div/div/p/em/a'
p564
F9.92481250360578
sS'/html/body/div/div/div/div/div/div/h2/span/span'
p565
F4.04216945424394
sS'/html/body/div/div/div/div/div/div/table/tr/td/table/tr/td/div/div'
p566
F3.2666010208539866
sS'/html/body/div/div/div/div/div/div/div/div/div/p/a/img'
p567
F7.117457581548177
sS'/html/body/div/div/div/div/div/div/div/div/div/ul/li/a'
p568
F7.339850002884624
sS'/html/body/div'
p569
F0.04676159087724428
sS'/html/body/div/div/div/div/div/table/tr/td/div/div/ul/li/code'
p570
F7.924812503605781
sS'/html/body/div/div/div/div/div/table/tr/td/div/div/pre/code'
p571
F6.92481250360578
sS'/html/body/div/div/div/div/div/table/tr/td/div/table/tr/td/div/span'
p572
F1.9024446905773267
sS'/html/body/div/div/div/form/div/div/div/div/div/script'
p573
F9.92481250360578
sS'/html/body/div/div/div/div/div/div/div/a/div/svg/g/polyline'
p574
F8.339850002884624
sS'/html/body/div/div/div/div/div/ul/li/em'
p575
F8.339850002884624
sS'/html/body/div/div/div/div/p/br'
p576
F6.465380884968484
sS'/html/body/div/div/div/form/div/div/div/h2'
p577
F9.92481250360578
sS'/html/body/div/div/div/div/div/table/tr/td'
p578
F1.8969065070358964
sS'/html/body/div/div/div/div/div/div/table/tr/td/div/ul/li/p/a'
p579
F6.117457581548177
sS'/html/body/div/div/div/div/div/table/tr/td/div/div/ol/li/p/code'
p580
F9.92481250360578
sS'/html/body/div/div/div/div/div/ul/li/sup/a'
p581
F9.92481250360578
sS'/html/body/div/div/div/div/div/table/tr/td/div/table/tbody/tr/td/div/span'
p582
F2.593895625491164
sS'/html/body/div/div/div/div/div/div/div/div/div/div'
p583
F1.769994394553677
sS'/html/body/div/div/div/div/div/form/div/div/div/div/div/p/span'
p584
F2.4091126653217385
sS'/html/body/div/div/div/div/div/div/div/div/a/div'
p585
F3.7955294866608145
sS'/html/body/div/div/div/form/div/div/div/div/textarea'
p586
F9.92481250360578
sS'/html/body/div/div/div/table/tr/td/br'
p587
F8.339850002884624
sS'/html/body/div/div/div/div/div/div/table/tr/td/div/p/a'
p588
F2.8913895020683307
sS'/html/body/div/div/div/div/div/table/tr/td/div/div/span'
p589
F6.602884408718419
sS'/html/body/div/div/div/div/div/div/table/tr/td/div/ul/li/ul/li/strike/a'
p590
F8.92481250360578
sS'/html/body/div/div/div/div/div/p/a/em'
p591
F9.92481250360578
sS'/html/body/div/div/div/div/div/div/table/tr/td/div/ol/li/ul/li/p'
p592
F9.92481250360578
sS'/html/body/div/div/div/table/tr/td/span'
p593
F8.92481250360578
sS'/html/body/div/div/div/div/div/ul/li/ul/li/strong'
p594
F9.92481250360578
sS'/html/body/div/div/div/div/div/div/table/tr/td/div/ul/li/ol/li/a'
p595
F9.92481250360578
sS'/html/body/div/div/div/div/table/tr/td/div/div/div/div/h3/strong/span'
p596
F9.92481250360578
sS'/html/body/div/div/div/div/table/tr/td/div/div/div/p/a/span'
p597
F9.92481250360578
sS'/html/body/div/div/div/form/div/div/div/hr'
p598
F8.92481250360578
sS'/html/body/div/div/div/div/div/table/tr/td/div/div/ol/li'
p599
F7.924812503605781
sS'/html/body/div/div/div/div/h2'
p600
F5.837349662355441
sS'/html/body/div/div/div/div/div/div/div/ul/li/a/span/span/span'
p601
F2.6959938131099
sS'/html/body/div/div/div/div/div/div/table/tr/td/div/p/strong'
p602
F4.370223651928144
sS'/html/body/div/div/div/div/a/span'
p603
F2.0360692547075216
sS'/html/body/div/div/div/div/div/form/div/div/div/div/h3/a'
p604
F2.4091126653217385
sS'/html/body/feed/link'
p605
F4.9706161932189055
sS'/html/body/div/div/div/div/div/table/tr/td/div/div/div/ul/li/a'
p606
F7.339850002884624
sS'/html/head/title'
p607
F0.04676159087724428
sS'/html/body/div/div/div/div/div/div/table/tr/td/div/ul/li/em'
p608
F6.339850002884625
sS'/html/body/div/div/div/div/div/div/table/tr/td/div/a/b'
p609
F4.498547748903683
sS'/html/body/div/div/div/div/div/blockquote/p/strong/a'
p610
F9.92481250360578
sS'/html/body/div/div/div/table/tr/td/span/span/span'
p611
F8.92481250360578
sS'/html/body/div/div/div/div/form/div/input'
p612
F4.04216945424394
sS'/html/body/div/div/div/div/div/div/table/tr/td/div/ul/li/s/a'
p613
F7.602884408718419
sS'/html/body/div/div/div/div/div/p/code'
p614
F7.924812503605781
sS'/html/body/div/div/div/div/ul/li'
p615
F8.92481250360578
sS'/html/body/div/div/div/div/form/div/label'
p616
F4.754887502163469
sS'/html/body/div/div/div/div/div/div/div/a/div/svg/g/line'
p617
F8.339850002884624
sS'/html/body/div/div/div/div/div/div/div/span/a'
p618
F5.754887502163469
sS'/html/body/div/div/div/div/div/div/div/h3/span/span/a'
p619
F2.7449034135908463
sS'/html/body/div/div/div/div/ul/li/a/strong'
p620
F4.017921907997263
sS'/html/body/div/div/div/div/div/table/tr/td/div/div/blockquote/p/strong'
p621
F8.92481250360578
sS'/html/body/div/div/div/div/span/a/span'
p622
F0.04676159087724428
sS'/html/body/div/div/div/div/table/tr/td/div/div/a'
p623
F6.2243727854646895
sS'/html/body/div/div/div/div/div/div/div/ul/li/a'
p624
F3.252387161634285
sS'/html/body/div/div/div/div/div/div/table/tr/td/div/ul/li/code'
p625
F5.602884408718419
sS'/html/body/div/div/div/div/div/p/kbd'
p626
F9.92481250360578
sS'/html/body/div/div/div/div/table/tr/td/div/div/div/div/p/em'
p627
F9.92481250360578
sS'/html/body/div/div/div/div/div/div/table/tr/td/div/ol/li/kbd'
p628
F6.117457581548177
sS'/html/body/div/div/div/div/div/div/div/span/span/a/span'
p629
F4.715359137976831
sS'/html/body/div/div/div/form/div/h2/a'
p630
F6.117457581548177
sS'/html/body/div/div/div/div/div/table/tr/td/div/table/tbody/tr/td/div/a'
p631
F2.481869007757053
sS'/html/body/div/div/div/div/table/tr/td/div/div/div/div/p/strong'
p632
F8.92481250360578
sS'/html/body/div/div/div/div/table/tr/td/div/div/div/a'
p633
F8.339850002884624
sS'/html/body/div/div/div/div/script'
p634
F0.8320553626859284
sS'/html/body/div/div/div/div/div/div/table/tr/td/div/ul/li/sup/code'
p635
F6.117457581548177
sS'/html/body/div/div/div/div/div/ul/li/i'
p636
F9.92481250360578
sS'/html/body/div/div/div/div/div/div/table/tr/td/table/tr/td/div/div/span'
p637
F2.393431043089469
sS'/html/body/div/div/div/div/div/div/div/div/div/a/div/img'
p638
F1.3174821898561702
sS'/html/body/div/div/div/div/table/tr/td/div/div/div/p'
p639
F8.92481250360578
sS'/html/body/div/div/div/div/div/div/table/tr/td/table/tr/td/div/div/a'
p640
F2.401250547548768
sS'/html/body/div/div/div/div/div/div/table/tr/td/div/ol/li/strong/em'
p641
F9.92481250360578
sS'/html/body/div/div/div/div/div/div/div/div/div/div/ul/li/a'
p642
F4.401250547548768
sS'/html/body/div/div/div/div/div/div/div/span/span'
p643
F5.465380884968483
sS'/html/body/div/div/div/div/table/tr/td/div/div/div/div/h1/span/span'
p644
F8.92481250360578
sS'/html/body/div/div/div/form/div/div/div'
p645
F9.92481250360578
sS'/html/body/div/div/div/div/div/div/div/h3'
p646
F2.6028844087184186
sS'/html/body/div/div/div/div/div/div/div/h2'
p647
F3.5849625007211565
sS'/html/body/div/div/div/div/div/table/tr/td/div/table/tbody/tr/td/div/span/a'
p648
F3.224372785464689
sS'/html/body/div/div/div/div/div/div/div/div/table/tbody/tr/td/a'
p649
F8.339850002884624
sS'/html/body/div/div/div/div/div/ul/li/div/span'
p650
F0.04676159087724428
sS'/html/body/div/div/div/div/div/table/tr/td/div/table/tbody/tr/td/div/span/i'
p651
F4.880418384247328
sS'/html/body/div/div/div/div/div/div/table/tr/td/div/p/img'
p652
F7.602884408718419
sS'/html/body/div/div/div/div/div/h4/a'
p653
F1.9024446905773267
sS'/html/body/div/div/div/div/table/tr/td/div/div/div/div/span'
p654
F9.92481250360578
sS'/html/body/div/div/div/form/div/div/div/div/div/div/table/tr/td/div/label'
p655
F9.92481250360578
sS'/html/body/div/div/div/div/div/div/table/tr/td/div/table/tbody/tr/td/div/span/i/b'
p656
F9.92481250360578
sS'/html/body/div/div/div/div/form/div/div/div/div/div/noscript/p'
p657
F4.754887502163469
sS'/html/body/div/div/div/div/div/div/table/tr/td/div/table/tbody/tr/td'
p658
F2.970616193218906
sS'/html/body/div/div/div/div/table/tr/td/input'
p659
F6.602884408718419
sS'/html/body/div/div/div/div/table/tr/td/div/div/div/ol/li/span'
p660
F9.92481250360578
sS'/html/body/div/div/div/div/div/div/div/span/a/b'
p661
F7.602884408718419
sS'/html/body/div/div/div/div/div/div/table/tr/td/div/blockquote/p/a'
p662
F7.602884408718419
sS'/html/body/div/div/div/div/div/div/hr'
p663
F3.7955294866608145
sS'/html/body/div/div/div/div/div/table/tr/td/div/table/tbody/tr/td/div/span/b/a/i'
p664
F9.92481250360578
sS'/html/body/div/div/div/div/div/div/h3/a/span'
p665
F5.465380884968483
sS'/html/body/div/div/div/div/div/div/div/div/div/ul/li'
p666
F6.602884408718419
sS'/html/body/div/div/div/div/div/table/tr/td/div/h2/span'
p667
F5.837349662355441
sS'/html/body/div/div/div/div/div/div/table/tr/td/div/ul/li/ul/li/strong'
p668
F9.92481250360578
sS'/html/body/div/div/div/div/div/div/a/div'
p669
F6.754887502163469
sS'/html/body/div/div/div/div/form/p/textarea'
p670
F9.92481250360578
sS'/html/body/div/div/div/div/div/div/p/span'
p671
F2.224372785464689
sS'/html/body/div/div/div/div/div/table/tr/td/div/div/ol/li/p'
p672
F7.339850002884624
sS'/html/body/div/div/div/form/div/div/div/div'
p673
F4.532495080827021
sS'/html/body/div/div/div/div/div/div/table/tr/td/table/tr/td/div/div/div/span'
p674
F2.6119295483214255
sS'/html/body/div/div/div/div/table/tr/td/div/div/div/p/code'
p675
F9.92481250360578
sS'/html/body/feed/entry/title'
p676
F4.9706161932189055
sS'/html/body/div/div/div/div/div/div/div/div/div/div/div'
p677
F6.754887502163469
sS'/html/body/div/div/div/div/div/div/table/tr/td/div/blockquote/ol/li/p'
p678
F9.92481250360578
sS'/html/body/div/div/div/div/div/ul/li/a/div'
p679
F0.04676159087724428
sS'/html/body/script'
p680
F0.04676159087724428
sS'/html/body/div/div/div/div/div/div/table/tr/td/span'
p681
F5.602884408718419
sS'/html/body/div/div/div/div/div/div/table/tr/td/div/ol/li/br'
p682
F6.117457581548177
sS'/html/body/div/div/div/div/ul/li/ul'
p683
F9.92481250360578
sS'/html/body/div/div/div/div/div/blockquote/a'
p684
F9.92481250360578
sS'/html/body/div/div/div/div/div/p'
p685
F3.5324950808270206
sS'/html/body/div/div/div/div/div/div/div/div/div/p/strong'
p686
F6.754887502163469
sS'/html/body/div/div/div/div/span/span'
p687
F5.401250547548768
sS'/html/body/div/div/div/div/div/div/div/a/b'
p688
F9.92481250360578
sS'/html/body/div/div/div/div/div/div/div/div/div'
p689
F4.196892049042582
sS'/html/body/div/div/div/div/table/tr/td/div/div/div/div/p/code/span'
p690
F9.92481250360578
sS'/html/body/div/div/div/div/div/b'
p691
F7.924812503605781
sS'/html/body/div/div/div/div/div/a'
p692
F0.04676159087724428
sS'/html/body/div/div/div/div/div/div/h3'
p693
F9.92481250360578
sS'/html/body/div/div/div/div/div/div/h2'
p694
F9.92481250360578
sS'/html/body/div/div/div/div/div/ul/li/ul/li/a/strong'
p695
F9.92481250360578
sS'/html/body/div/div/div/div/div/div/table/tr/td/div/blockquote/ol/li'
p696
F8.339850002884624
sS'/html/body/div/div/div/div/div/div/table/tr/td/div/ul/li/kbd'
p697
F7.602884408718419
sS'/html/body/div/div/div/div/table/tr/td/div/div/div/div/p/em/span'
p698
F9.92481250360578
sS'/html/body/div/div/div/div/div/div/table/tr/td/div/ul/li'
p699
F4.465380884968484
sS'/html/body/div/div/div/div/div/div/div/div/div/div/div/div/div/span'
p700
F2.7852611512069876
sS'/html/body/div/div/div/table/tr/td/a/img'
p701
F9.92481250360578
sS'/html/body/div/div/div/div/table/tr/td/div/div/h1'
p702
F9.92481250360578
sS'/html/body/feed/entry/author/uri'
p703
F4.9706161932189055
sS'/html/body/div/div/div/form/div/div/div/div/div/div/p/span'
p704
F9.92481250360578
sS'/html/body/div/div/div/div/div/div/div/p/a'
p705
F7.117457581548177
sS'/html/body/div/div/div/div/div/table/tr/td/div/div/ul/li/strong'
p706
F9.92481250360578
sS'/html/body/div/div/div/div/div/div/div/p/b'
p707
F9.92481250360578
sS'/html/body/div/div/div/div/form/a'
p708
F5.401250547548768
sS'/html/body/div/div/div/div/div/form/div/div/div/div/div/table/tr/td/div/label'
p709
F2.4091126653217385
sS'/html/body/div/div/div/div/div/h1/span'
p710
F5.532495080827021
sS'/html/body/div/div/div/div/div/div/div/div/script'
p711
F8.339850002884624
s.