(dp0
S'/html/body/div/div/div/div/div/div/div/div/div/div/div/ol/li/ol/li/ul/li/span/div/div/div/div'
p1
F6.643856189774725
sS'/html/body/div/div/div/div/div/div/div/div/div/div/button/span/span/span/span'
p2
F4.184424571137428
sS'/html/body/div/div/div/div/div/div/div/div/div/div/ul/li/div/div/div/section/div/div/div/div/div'
p3
F5.643856189774724
sS'/html/body/div/div/div/div/div/div/div/div/div/div/div/button/span/span'
p4
F0.03652587602511388
sS'/html/body/div/div/div/div/div/div/div/div/div/div/div/span/button/span'
p5
F1.1844245711374277
sS'/html/body/div/div/div/div/div/div/div/div/div/div/div/div/div/div/span/span/span/img'
p6
F7.643856189774724
sS'/html/body/div/div/div/div/div/div/div/div/div/p'
p7
F4.643856189774724
sS'/html/body/div/div/div/div/div/div/div/div/div/div/div/div/ul/li/a'
p8
F3.3219280948873626
sS'/html/body/div/div/div/div/div/div/div/div/div/div/h3'
p9
F0.03652587602511388
sS'/html/body/div/div/div/div/div/div/div/div/div/div/ul/li/div/table/tbody/tr/td/span/button'
p10
F3.3219280948873626
sS'/html/body/div/div/div/div/div/div/div/div/div/div/div/h1/span/span/span/a'
p11
F1.0144995696951153
sS'/html/body/div/div/div/div/div/div/div/div/div/div/h2'
p12
F6.058893689053569
sS'/html/body/iframe'
p13
F4.321928094887363
sS'/html/body/div/div/div/div/div/div/div/div/div/div/ul/li/div/div/div/div/div/br'
p14
F2.5145731728297585
sS'/html/body/div/div/div/div/div/div/div/div/div/div/div/div/div/div/div/p/span'
p15
F6.643856189774725
sS'/html/body/div/div/div/div/form/div/div/div/span'
p16
F7.643856189774724
sS'/html/body/div/div/div/div/div/div/div/div/div/div/ul/li/span'
p17
F5.643856189774724
sS'/html/body/div/div/div/div/div/div/div/div/div/span/button/span/span'
p18
F4.836501267717121
sS'/html/head/link'
p19
F0.00723156923107573
sS'/html/body/div/div/div/div/div/div/div/div/ul/li/div/form/span/input'
p20
F1.434402824145775
sS'/html/body/div/div/div/div/div/div/div/div/div/div/div/div/div/div/h2'
p21
F7.643856189774724
sS'/html/body/div/div/div/p/span'
p22
F0.03652587602511388
sS'/html/body/div/div/div/div/div/div/div/div/div/div/ul/li/div/div/div/div/div/div/div/ul/li/div/div/div/h3/a'
p23
F1.8889686876112561
sS'/html/body/div/div/div/div/div/div/div/div/div/div/ul/li/a/span/span'
p24
F3.5563933485243853
sS'/html/body/div/div/div/div/div/div/div/div/div/div/div/div/ol/li/ol/li/div/div/div/div/h2/span'
p25
F7.643856189774724
sS'/html/body/div/div/div/div/div/div/div/div/div/div/div/div/span/span'
p26
F1.0144995696951153
sS'/html/body/div/div/div/div/div/div/div/div/div/div/div/div/div/div/button/span'
p27
F7.643856189774724
sS'/html/body/div/div/div/div/div/div/div/div/div/div/div/div/div/div/div/div/span/button'
p28
F6.643856189774725
sS'/html/body/div/div/div/img'
p29
F7.643856189774724
sS'/html/body/div/div/div/div/div/div/div/div/div/div/ul/li/div/div/div/div/div/ul/li/div/div/div/a/span/span/span/span/span'
p30
F4.473931188332412
sS'/html/body/div/div/div/div/div/div/div/div/div/div/div/script'
p31
F1.7612131404128835
sS'/html/body/div/div/div/a/span/img'
p32
F7.643856189774724
sS'/html/body/div/div/div/div/div/div/div/div/div/div/div/div/ol/li/ol/li/div/div/div/div/div/a/span'
p33
F7.643856189774724
sS'/html/body/div/div/div/div/div/div/div/div/div/div/div/div/h3/span/span'
p34
F6.058893689053569
sS'/html/body/div/div/div/div/div/div/div/div/div/div/ul/li/ul/li/div/div/div/a/span/span/span/span/span'
p35
F7.643856189774724
sS'/html/body/div/div/div/div/div/div/div/div/div/div/div/div/div/div/div/div/div/div/div/span/span/button/span'
p36
F7.643856189774724
sS'/html/body/div/div/div/div/form/div/div/div/div/div/input'
p37
F7.643856189774724
sS'/html/body/div/div/div/div/div/div/div/div/div/div/div/div/ol/li/ol/li/div/div/div/div/ul/li/div/div/div/span/button/span'
p38
F7.643856189774724
sS'/html/head/meta'
p39
F0.0
sS'/html/body/div/div/div/div/form/div/div/div/div/div/label'
p40
F7.643856189774724
sS'/html/body/div/div/div/div/div/div/div/div/div/div/ul/li/ul/li/div/div/span/button/span/span'
p41
F6.058893689053569
sS'/html/body/div/div/div/div/div/div/div/div/div/div/div/ol/li/ol/li/ul/li/span/div/div/div/div/div/div/p/span'
p42
F6.643856189774725
sS'/html/body/div/div/div/div/div/div/div/div/div/div/ul/li/div/div/div/div/div/wbr/a'
p43
F5.643856189774724
sS'/html/body/div/div/div/div/div/div/div/div/h1/img'
p44
F7.643856189774724
sS'/html/body/div/div/div/div/div/div/div/div/div/div/ul/li/div/div/div/div/div/div/button/span/span'
p45
F1.8365012677171209
sS'/html/body/div/div/div/div/div/div/div/div/div/ul/li/span/div/h3/a/span/span'
p46
F2.0
sS'/html/body/div/div/div/div/div/div/div/div/div/div/div/div/ul/li/a/span/span/span/button/ul/li/span'
p47
F2.736965594166206
sS'/html/body/div/div/div/div/div/div/div/div/div/div/div/div/div/div/div/div/span/button/span/span'
p48
F6.643856189774725
sS'/html/body/div/div/div/div/div/div/div/div/div/div/div/div/div/ul/li/div/span'
p49
F1.5777669993169523
sS'/html/body/div/div/div/div/div/div/div/div/div/strong'
p50
F7.643856189774724
sS'/html/body/div/div/div/div/div/div/div/div/div/div/div/div/ol/li/ol/li/div/div/div/div/div/div/span/button/span/span'
p51
F7.643856189774724
sS'/html/body/div/div/div/button/span'
p52
F0.01449956969511517
sS'/html/body/div/div/div/div/div/div/div/div/div/div/ul/li/div/div/div/div/div/ul/li/div/div/h3/span'
p53
F7.643856189774724
sS'/html/body/div/div/div/div/div/div/div/div/div/div/ul/li/div/div'
p54
F1.6665762662748083
sS'/html/body/div/div/div/div/div/div/div/div/div/div/ul/li/div/div/div/div/div/div/br'
p55
F5.321928094887363
sS'/html/body/div/div/div/div/div/div/div/div/div/div/div/p/span'
p56
F1.1844245711374277
sS'/html/body/div/div/div/div/div/div/div/div/div/div/ul/li/div/table/tbody/tr/td/span/span/button/span'
p57
F3.3219280948873626
sS'/html/body/div/div/div/div/div/div/div/div/div/div/div/div/span'
p58
F0.03652587602511388
sS'/html/body/div/div/div/div/div/div/div/div/div/div/div/div/ol/li/ol/li/div/div/div/div/div/div/a/span'
p59
F7.643856189774724
sS'/html/body/div/div/div/div/div/div/div/div/div/div/span/span/span'
p60
F1.1844245711374277
sS'/html/body/div/div/div/nav/nav/div/button'
p61
F7.643856189774724
sS'/html/head/script'
p62
F0.00723156923107573
sS'/html/body/div/div/div/div/div/form/div/input'
p63
F0.03652587602511388
sS'/html/body/div/div/div/div/div/div/div/div/div/div/div/div/ol/li/ol/li/div/div/div/div/ul/li/div/div/div/h3/a'
p64
F7.643856189774724
sS'/html/body/div/div/div/div/div/div/div/div/div/div/div/div/div/span/div/a/span'
p65
F3.3219280948873626
sS'/html/body/div/div/div/div/div/div/div/div/div/ol/li/a/div/h4'
p66
F3.2515387669959646
sS'/html/body/div/div/div/div/div/div/div/div/div/div/ul/li/div/table/tbody/tr/td/div/a'
p67
F3.473931188332412
sS'/html/body/div/div/div/div/div/div/div/div/div/div/span/span/div/div/div/div/div/div/div/p/span'
p68
F1.1844245711374277
sS'/html/body/div/div/div/div/div/div/div/div/div/div/ul/li/ul/li/div/div/a/span/span/span/img'
p69
F6.058893689053569
sS'/html/body/div/div/div/div/div/div/div/div/div/div/span/span/div/div/div/div/div/div/div'
p70
F1.1844245711374277
sS'/html/body/div/div/div/div/div/button/span/span'
p71
F0.03652587602511388
sS'/html/body/div/div/div/div/div/div/div/div/div/ol/li/span'
p72
F3.2515387669959646
sS'/html/body/div/div/div/div/div/div/div/div/div/div/div/div/div/button'
p73
F7.643856189774724
sS'/html/body/div/div/div/div/div/div/div/div/div/div/ul/li/ul/li/div/div/div/div/ul/li'
p74
F4.473931188332412
sS'/html/body/div/div/div/div/div/div/div/div/div/div/ul/li/div/div/div/section/div/div/div/div/button'
p75
F6.058893689053569
sS'/html/body/div/div/div/div/div/div/div/div/div/div/div/div/span/button/span/span'
p76
F1.0144995696951153
sS'/html/body/div/div/div/div/div/div/div/div/div/div/div/div/p'
p77
F7.643856189774724
sS'/html/body/div/div/div/div/div/div/div/div/div/div/ul/li/div/div/div/section/div/div/div/button'
p78
F5.643856189774724
sS'/html/body/div/div/div/div/div/div/div/div/div/div/div/div/ol/li/ol/li/div/div/div/div/div/button/span'
p79
F7.643856189774724
sS'/html/body/div/div/div/div/div/div/div/div/div/div/div/div/div/div/div/div/div/div/div/span/button'
p80
F7.643856189774724
sS'/html/body/div/div/div/div/div/div/div/div/div/a'
p81
F7.643856189774724
sS'/html/body/div/div/div/div/div/div/div/div/div/div/div/div/div/div/div/div/div/div/h1/span/span/span'
p82
F7.643856189774724
sS'/html/body/div/div/div/div/div/div/div/div/div/div/div/div/ul/li/a/span'
p83
F2.434402824145775
sS'/html/body/div/div/div/div/div/div/div/div/div/div/div/div/div/div/span/span/span/span'
p84
F7.643856189774724
sS'/html/body/div/div/div/div/div/div/div/div/div/div/ul/li/div/div/div/div/div/h2/a/span/span/span/span'
p85
F3.6438561897747253
sS'/html/body/div/div/div/div/div/div/div/div/div/div/ul/li/div/div/div/div/div/div/div/ul/li/div/div/div/a/span/span/span/button/ul/li/span'
p86
F3.6438561897747253
sS'/html/body/div/div/div/div/div/div/div/div/div/div/ul/li/div/div/div/div/div/ul/li/div/div/div/span/a/span/span/span/span'
p87
F4.184424571137428
sS'/html/body/div/div/div/div/div/div/div/div/div/div/div/div/ol/li/ol/li/div/div/div/div/div/div/span/span'
p88
F7.643856189774724
sS'/html/body/div/div/div/div/div/div/div/div/div/div/ul/li/div/div/div'
p89
F2.2515387669959646
sS'/html/body/div/div/div/div/div/div/div/div/style'
p90
F1.0144995696951153
sS'/html/body/div/div/div/div/div/div/div/div/div/div/ul/li/div/div/div/section/div/div/div/div/span/a'
p91
F6.058893689053569
sS'/html/body/div/div/div/div/div/div/div/div/div/div/img'
p92
F2.089267338097087
sS'/html/body/div/div/div/div/div/div/div/div/div/div/ul/li/div/div/h3'
p93
F7.643856189774724
sS'/html/body/div/div/div/div/div/div/div/div/div/div/div/div/ol/li/ol/li/div/div/div/div/ul/li/div/div/div/h3/span'
p94
F7.643856189774724
sS'/html/body/div/div/div/div/div/div/div/div/div/div/div/div/form/div/span/input'
p95
F6.058893689053569
sS'/html/body/div/div/div/div/div/div/div/div/div/div/div/div/div/div/div/div/div/div'
p96
F7.643856189774724
sS'/html/body/div/div/div/div/div/div/div/div/div/div/ul/li/div/table/tbody/tr/td/span/a/span/span/span/img'
p97
F3.3219280948873626
sS'/html/body/div/div/div/div/div/div/div/div/span/a'
p98
F7.643856189774724
sS'/html/body/div/div/div/div/div/div/div/div/div/div/ul/li/div/table/tbody/tr/td/span/a/span/span/span/span'
p99
F3.3219280948873626
sS'/html/body/div/div/div/div/div/div/div/div/div/div/ul/li/div/div/div/div/div/ul/li/div/div/div/a/span/span/span/span'
p100
F4.473931188332412
sS'/html/body/div/div/div/div/div/div/div/div/div/div/ul/li/div/div/div/div/div/ul/li/div/div/div/ul/li/h4/a'
p101
F5.321928094887363
sS'/html/body/div/div/div/div/div/div/div/div/div/div/ul/li/div/div/div/div/div/div/div/ul/li/div/div/div/div/a'
p102
F1.971430847803229
sS'/html/body/div/div/div/div/div/div/div/div/div/div/ul/li/div/div/div/section/div/div/div'
p103
F6.058893689053569
sS'/html/body/div/div/div/div/div/div/div/div/div/ul/li/span/div/h3/a'
p104
F2.2515387669959646
sS'/html/body/div/div/div/div/div/div/div/div/div/div/div/div/ol/li/ol/li/div/div/div/div/div/div/a'
p105
F7.643856189774724
sS'/html/body/div/div/div/div/div/div/div/div/div/div/ul/li/div/div/div/section/div/div/div/div/a/span/span/span/span'
p106
F6.058893689053569
sS'/html/body/div/div/div/div/div/div/div/div/ul/li'
p107
F7.643856189774724
sS'/html/body/div/div/div/div/div/div/div/div/div/div/ul/li/ul/li/div/div/div/h3/span'
p108
F4.473931188332412
sS'/html/body/div/div/div/div/div/div/div/div/div/div/ul/li/div/div/div/div/div/div/div/ul/li/div/div/a/span/button/span'
p109
F7.643856189774724
sS'/html/body/div/div/div/div/div/div/div/div/div/div/div/div/div/div/div/div/div'
p110
F6.058893689053569
sS'/html/body/div/div/div/div/div/span/link'
p111
F7.643856189774724
sS'/html/body/div/div/div/div/div/div/div/div/div/button/span'
p112
F1.1681227588083272
sS'/html/body/div/div/div/div/div/div/div/div/div/div/ul/li/div/div/div/section/div/div/div/div/div/button/span'
p113
F5.643856189774724
sS'/html/body/div/div/div/div/div/div/div/div/div/div/div/div/ol/li/ol/li/div/div/div/div/div/div/h3/span'
p114
F7.643856189774724
sS'/html/body/div/div/div/div/div/div/div/div/div/div/ul/li/div/div/div/section/div/div/div/div/a/span/span/span/img'
p115
F6.058893689053569
sS'/html/body/div/div/div/a/span/span'
p116
F0.01449956969511517
sS'/html/body/div/div/div/div/div/div/div/div/div/div/ul/li/div/table/tbody/tr/td/span/button/span'
p117
F3.3219280948873626
sS'/html/body/div/div/div/div/div/div/div/div/div/div/ul/li/ul/li/div/div/div/a/span/span/span/span/img'
p118
F7.643856189774724
sS'/html/body/div/div/div/div/div/div/div/div/div/div/span/span/div/div/div/span'
p119
F1.1844245711374277
sS'/html/body/div/div/div/div/div/div/div/div/div/div/div/div/div/div/div/div/div/div/span/span/button/ul/li/span'
p120
F7.643856189774724
sS'/html/body/div/div/div/div/div/div/div/div/div/div/div/div/div/div/div/div/div/div/div'
p121
F7.643856189774724
sS'/html/body/div/div/div/div/div/div/div/div/div/div/div/div/div/div/div/div/div/h1/span/span/span/a'
p122
F7.643856189774724
sS'/html/body/div/div/div/div/div/div/div/div/div/div/ul/li/div/div/div/div/div/wbr/wbr/a'
p123
F7.643856189774724
sS'/html/body/div/div/div/div/div/div/div/div/div/div/div/div/div/ul/li/span/div/h3'
p124
F1.1844245711374277
sS'/html/body/div/div/div/div/div/div/div/div/div/div/ul/li/a/span'
p125
F1.4540316308947077
sS'/html/body/div/div/div/div/form/button/span'
p126
F5.643856189774724
sS'/html/body/div/div/div/div/div/div/div/div/div/div/div/ol/li/ol/li/div/div/div/ul/li/div/div/div/div/button'
p127
F7.643856189774724
sS'/html/body/div/div/div/div/div/div/div/div/div/div/ul/li/div/div/div/button/span'
p128
F4.643856189774724
sS'/html/body/div/div/div/div/div/a/span'
p129
F0.03652587602511388
sS'/html/body/div/div/div/div/div/div/div/div/div/div/ul/li/div/div/div/div/div/div/div/ul/li/div/div/div/div/span'
p130
F2.0291463456595165
sS'/html/body/div/div/div/div/div/div/div/div/div/div/ul/li/div/div/div/div/div/ul/li/div/div/div/h3/span'
p131
F3.3959286763311396
sS'/html/body/div/div/div/div/div/div/img'
p132
F1.1681227588083272
sS'/html/body/div/div/div/div/div/div/div/div/div/div/ul/li/div/div/div/div/div/div/div/ul/li/div/div/h3/a'
p133
F5.058893689053569
sS'/html/body/div/div/div/div/div/div/div/div/div/div/div/strong'
p134
F1.1844245711374277
sS'/html/body/div/div/div/div/div/div/div/div/div/div/div/div/ol/li/ol/li/div/div/div/div/ul/li/div/div/div/div/ul/li'
p135
F7.643856189774724
sS'/html/body/div/div/div/div/div/div/div/div/div/div/ul/li/div/div/div/div/div/div/div/ul/li/div/div/div/a/span/span/span/span/span/img'
p136
F7.643856189774724
sS'/html/body/div/span/meta'
p137
F1.340075441597622
sS'/html/body/div/div/div/div/div/div/div/div/div/div/div/div/ol/li/ol/li/div/div/div/div/div/div/button/span'
p138
F7.643856189774724
sS'/html/body/div/div/div/div/div/div/div/div/div/div/ul/li/div/div/button/span/span/span/span'
p139
F5.643856189774724
sS'/html/body/div/div/div/div/div/div/div/div/div/div/div/div/div/a/span'
p140
F3.3219280948873626
sS'/html/body/div/div/div/div/div/div/div/div/div/div/ul/li/div/div/div/div/div/button/span'
p141
F3.5563933485243853
sS'/html/body/div/div/div/div/div/div/div/div/div/div/ul/li/div/div/div/section/div/div/div/div'
p142
F5.643856189774724
sS'/html/body/span/link'
p143
F1.340075441597622
sS'/html/body/div/div/div/div/div/div/div/div/div/div/div/div/ul/li/a/span/span'
p144
F4.473931188332412
sS'/html/body/div/div/div/div/div/div/div/div/div/div/span/button/ul/li/span'
p145
F0.03652587602511388
sS'/html/body/div/div/div/div/div/div/div/div/div/div/ul/li/div/div/div/div/div/ul/li/div/div/div/span/span'
p146
F7.643856189774724
sS'/html/body/div/div/div/div/div/div/div/div/div/div/ul/li/ul/li/div/div/div/a/span/span/button'
p147
F7.643856189774724
sS'/html/body/div/div/div/div/div/div/div/div/span/meta'
p148
F1.1844245711374277
sS'/html/body/div/div/div/div/div/div/div/div/div/div/div/div/div/div/div/div/div/div/span/a/span/span/span/img'
p149
F7.643856189774724
sS'/html/body/div/div/div/div/div/div/div/div/div/div/ul/li/div/div/div/div/div/wbr/wbr/br'
p150
F7.643856189774724
sS'/html/body/div/div/div/div/div/div/div/div/div/div/ul/li/span/div/h3/span'
p151
F6.058893689053569
sS'/html/body/div/div/div/div/div/div/div/div/div/div/ul/li/div/div/div/div/div/ul/li/div/div'
p152
F3.3219280948873626
sS'/html/body/div/div/div/div/div/div/div/div/div/div/ul/li/div/div/div/div/div/div/div/ul/li/div/div/div/span/span/span'
p153
F1.971430847803229
sS'/html/body/div/div/div/div/div/div/div/div/div/div/span/span/button/span/span'
p154
F1.1844245711374277
sS'/html/body/div/div/div/div/div/div/div/div/div/div/ul/li/div/div/div/div/div/ul/li/div/div/div/h3/a'
p155
F3.3219280948873626
sS'/html/body/div/div/div/div/div/div/div/div/div/div/div/span/span/div/div'
p156
F1.1844245711374277
sS'/html/body/div/div/div/div/div/div/div/div/div/div/div/div/ol/li/ol/li/div/div/div/div/div/div/button'
p157
F7.643856189774724
sS'/html/body/div/div/div/div/div/div/div/div/div/button'
p158
F1.1844245711374277
sS'/html/body/div/div/div/div/div/div/div/div/p/a'
p159
F6.058893689053569
sS'/html/body/div/div/div/div/div/div/div/div/div/div/ul/li/div/div/div/div/div/div/a'
p160
F6.058893689053569
sS'/html/body/div/div/div/div/div/div/div'
p161
F1.1046973786666934
sS'/html/body/div/div/div/div/div/div/div/div/div/div/div/img'
p162
F7.643856189774724
sS'/html/body/div/div/div/nav/nav/div/a'
p163
F7.643856189774724
sS'/html/body/div/div/div/div'
p164
F0.02914634565951651
sS'/html/body/div/div/div/div/div/div/ul/li/h3'
p165
F7.643856189774724
sS'/html/body/div/div/div/div/div/div/ul/li/h2'
p166
F1.2515387669959643
sS'/html/body/div/div/div/div/div/div/div/div/div/div/ul/li/div/div/div/section/div/div/div/div/div/div/div/div/button/span'
p167
F6.058893689053569
sS'/html/body/div/div/div/div/div/div/div/div/div/div/ul/li/ul/li/div/div/div/span/button'
p168
F4.643856189774724
sS'/html/body/div/div/div/div/div/div/div/div/div/div/div/div/div/p/a'
p169
F1.217591435072627
sS'/html/body/div/div/div/div/div/div/div/div/div/div/ul/li/div/div/div/div/div/ul/li/div/div/div/span/span/button/span'
p170
F4.184424571137428
sS'/html/body/div/div/div/div/div/div/div/div/div/ol/li/ul/li'
p171
F7.643856189774724
sS'/html/body/div/div/div/div/div/div/div/div/div/div/div/div/div/p/span'
p172
F7.643856189774724
sS'/html/body/div/div/div/div/div/div/div/div/div/div/ul/li/button/span'
p173
F3.5563933485243853
sS'/html/body/div/div/div/div/div/div/div/div/div/div/ul/li/div/div/div/div/div/div/div/ul/li/div/div/div/span/span'
p174
F7.643856189774724
sS'/html/body/div/div/div/div/div/div/div/div/div/div/ul/li/div/div/div/section/div/div/div/button/span/span'
p175
F6.058893689053569
sS'/html/body/div/div/div/div/div/div/div/div/div/div/ul/li/div/div/div/div/div/div/div/ul/li/div/div/div/a/span/span/span/span'
p176
F3.6438561897747253
sS'/html/body/div/div/div/div/div/div/div/div/div/div/div/div/div/div/div/div/span/span'
p177
F6.643856189774725
sS'/html/body/div/div/div/div/div/div/div/div/div/div/ul/li/ul/li/div/div/h3/a/span/span'
p178
F6.058893689053569
sS'/html/body/div/div/div/div/div/div/div/ul/li/div/ul/li/a/span/span'
p179
F0.9159357352115255
sS'/html/body/div/div/div/div/div/div/ul/li/img'
p180
F7.643856189774724
sS'/html/body/div/div/div/div/div/div/div/div/div/div/ul/li/div/button/span/span'
p181
F4.836501267717121
sS'/html/body/div/div/div/div/div/div/div/div/div/ol/li/a/span/span/span/img'
p182
F3.2515387669959646
sS'/html/body/div/div/div/div/div/div/div/div/div/div/div/div/script'
p183
F7.643856189774724
sS'/html/body/div/div/div/div/div/div/p'
p184
F7.643856189774724
sS'/html/body/div/div/div/div/div/div/div/div/div/div/div/div/p/a'
p185
F7.643856189774724
sS'/html/body/div/div/div/div/div/div/div/div/div/div/ul/li/div/div/div/section/div/div/div/span/span'
p186
F7.643856189774724
sS'/html/body/div/div/div/div/div/div/div/div/div/div/div/ol/li/ol/li/ul/li/span/div/div/div/div/div/div/button/span'
p187
F6.643856189774725
sS'/html/body/div/div/div/div/div/div/div/div/div/div/span'
p188
F0.03652587602511388
sS'/html/body/div/div/div/div/div/div/div/div/div/div/ul/li/div/div/div/div/div/div/div/ul/li/div/div/div/span/span/button/span'
p189
F1.971430847803229
sS'/html/body/div/div/div/div/div/div/div/button/span/span'
p190
F1.1844245711374277
sS'/html/body/div/div/div/div/div/div/div/div/div/div/div/div/ul/li/div/a/span'
p191
F1.1844245711374277
sS'/html/body/div/div/div/div/div/div/div/div/div/div/ul/li/div/div/div/div/div/ul/li/div/div/div/span/button/span'
p192
F4.184424571137428
sS'/html/body/div/div/div/div/div/div/div/div/div/div/div/div/div/div/div/div/span/span/button/ul/li/span'
p193
F6.643856189774725
sS'/html/body/div/div/div/div/div/div/div/div/div/div/ul/li/div/div/div/section/div/div/a/span/span/span/span'
p194
F6.058893689053569
sS'/html/body/div/div/div/div/div/div/div/div/div/ul/li/span/div/a/span/span/span/span'
p195
F1.971430847803229
sS'/html/body/div/div/div/div/div/div/div/div/div/ol/li/a'
p196
F7.643856189774724
sS'/html/body/div/div/div/div/div/div/div/div/div/div/div/div/div/div/div/div/span/a/span/span/span/img'
p197
F6.643856189774725
sS'/html/body/div/div/div/div/div/div/div/div/div/div/div/div/button/span/span/span/span'
p198
F7.643856189774724
sS'/html/body/div/div/div/div/div/div/div/div/div/div/ul/li/div/div/div/div/div/div/div/ul/li/a/h4/span'
p199
F1.8889686876112561
sS'/html/body/div/div/div/div/div/div/div/div/div/div/div/div/div/div/div/div/div/div/span/button/span'
p200
F7.643856189774724
sS'/html/body/div/div/div/div/div/div/div/div/div/div/ul/li/div/div/ul/li/b'
p201
F7.643856189774724
sS'/html/body/div/div/div/div/div/div/div/div/div/div/ul/li/div/div/ul/li/a/span'
p202
F5.643856189774724
sS'/html/body/div/div/div/div/div/div/div/span'
p203
F1.1844245711374277
sS'/html/body/div/div/div/div/div/div/div/div/div/div/ul/li/div/div/div/div/div/div/div/ul/li/div/div/div/a/span/span/button'
p204
F3.6438561897747253
sS'/html/body/div/div/div/div/div/div/div/div/div/div/ul/li/div/div/div/section/div/div/div/div/button/span'
p205
F6.058893689053569
sS'/html/body/div/div/div/div/div/div/div/div/div/div/ul/li/div/div/div/div/div/div/div/ul/li/div/div/a/button/span'
p206
F7.643856189774724
sS'/html/body/div/div/div/div/div/div/div/div/div/div/div/div/ol/li/ol/li/div/div/div/div/div/div/div/ul/li'
p207
F7.643856189774724
sS'/html/body/div/div/div/div/div/div/div/div/div/div/div/div/div/span/span/button/span'
p208
F3.3219280948873626
sS'/html/body/div/div/div/div/div/div/div/div/div/div/div/div/ol/li/ol/li/div/div/div/div/div/a/div/span/img'
p209
F7.643856189774724
sS'/html/body/div/div/div/div/div/div/div/div/div/div/div/div/button/span/span'
p210
F7.643856189774724
sS'/html/body/div/div/div/div/div/div/div/div/div/div/ul/li/div/div/div/div/div/div/div/ul/li/div/div/h3/a/span/span'
p211
F4.643856189774724
sS'/html/body/div/div/div/div/div/div/div/div/div/div/ul/li/div/div/div/div/div/ul/li/div/div/div/div'
p212
F5.058893689053569
sS'/html/body/div/div/div/div/span/span'
p213
F7.643856189774724
sS'/html/body/div/div/div/div/div/div/div/div/div/div/ul/li/div/div/div/div/div/ul/li/div/div/h3/a'
p214
F7.643856189774724
sS'/html/body/div/div/div/div/div/div/div/div/ul/li/a'
p215
F7.643856189774724
sS'/html/body/div/div/div/div/div/div/div/div/div/div/div/div/ol/li/ol/li/div/div/div/div/ul/li/div/div/div/a/span'
p216
F7.643856189774724
sS'/html/body/div/div/div/div/div/div/div/div/div/div/a/span/span/span/img'
p217
F1.1844245711374277
sS'/html/body/div/div/div/div/div/div/div/div/div/div/ul/li/div/div/div/div/div/div/div/ul/li/div/div/a/button'
p218
F7.643856189774724
sS'/html/body/div/div/div/div/div/div/div/div/ul/li/p'
p219
F7.643856189774724
sS'/html/body/div/div/div/div/div/div/div/div/div/div/ul/li/div/div/div/div/div/div/div/ul/li/div/div/div/span/a/span/span/span/span'
p220
F1.971430847803229
sS'/html/body/div/div/div/div/div/div/div/div/div/div/ul/li/ul/li/div/div/h3/span'
p221
F6.058893689053569
sS'/html/body/div/div/div/div/div/div/div/div/div/div/div/div/ol/li/ol/li/div/div/div/div/ul/li/div/div/div/button'
p222
F7.643856189774724
sS'/html/body/div/div/div/div/div/div/div/div/ul/li/div/button/span'
p223
F1.434402824145775
sS'/html/body/div/div/div/div/div/div/div/div/div/div/div/span'
p224
F0.03652587602511388
sS'/html/body/div/div/div/div/div/div/div/div/div/div/ul/li/div/div/ul/li/a/img'
p225
F5.643856189774724
sS'/html/body/div/div/div/div/div/div/div/div/div/div/div/h1/span/a/span'
p226
F1.7131188522118383
sS'/html/body/div/div/div/div/div/div/div/ul/li/hr'
p227
F0.9159357352115255
sS'/html/body/div/div/div/div/div/div/div/div/div/div/ul/li/div/div/div/div/div/div'
p228
F2.5145731728297585
sS'/html/body/div/div/div/div/div/div/div/div/div/p/a'
p229
F4.058893689053568
sS'/html/body/div/div/div/div/div/div/div/div/div/div/ul/li/div/div/div/div/div/div/div/ul/li/div/div/a/span/span/span/span'
p230
F4.321928094887363
sS'/html/body/div/div/div/div/div/div/div/div/div/div/div/div/ol/li/ol/li/div/div/div/div/h2/a/div/div/span/img'
p231
F7.643856189774724
sS'/html/body/div/div/div/div/div/div/div/div/div/div/div/div/div/div/div/div/a/span/span/span/span'
p232
F7.643856189774724
sS'/html/body/div/div/div/div/label'
p233
F7.643856189774724
sS'/html/body/div/div/div/div/div/div/div/div/div/div/ul/li/div/div/div/div/div/h2/a/span'
p234
F1.8889686876112561
sS'/html/body/div/div/div/div/div/div/div/div/div/div/ul/li/div/div/div/div/div/ul/li/div/div/a/span/span/span/span'
p235
F7.643856189774724
sS'/html/body/div/div/div/div/div/div/div/div/div/div/ul/li/div/div/div/div/div/div/div/ul/li/div/div/div/div/ul'
p236
F3.5563933485243853
sS'/html/body/div/div/div/div/div/div/div/div/div/div/div/div/ul/li/a/span/span/span/span/span/b'
p237
F2.5145731728297585
sS'/html/body/div/div/div/div/div/div/div/div/div/div/div/div/ul/li/div/a/span/img'
p238
F1.1844245711374277
sS'/html/body/div/div/div/div/div/div/div/div/div/div/div/div/ol/li/ol/li/div/div/div/div/ul/li/div/div/div/a/div/span/img'
p239
F7.643856189774724
sS'/html/body/div/div/div/div/div/div/div/div/div/div/div/span/span/button/span'
p240
F1.1844245711374277
sS'/html/body/div/div/div/div/div/div/div/div/div/div/div/ol/li/ol/li/ul/li/span/span/button/span'
p241
F6.643856189774725
sS'/html/body/div/div/div/div/div/div/div/div/div/div/div/div/div/div/div'
p242
F5.643856189774724
sS'/html/body/div/div/div/div/div/div/div/div/div/div/div/div/ul/button/span'
p243
F1.2009126939259964
sS'/html/body/div/div/div/div/div/div/div/div/div/div/div/div/ol/li/ol/li/div/div/div/div/div/div/a/div/span/img'
p244
F7.643856189774724
sS'/html/body/div/div/div/div/link'
p245
F7.643856189774724
sS'/html/body/div/div/div/div/div/div/div/div/div/div/ul/li/ul/li/div/div/div/span/button/span'
p246
F4.643856189774724
sS'/html/body/div/div/div/div/div/div/div/div/div/div/div/h1/span/span/span'
p247
F3.0
sS'/html/body/div/div/div/div/div/div/div/div/div/div/ul/li/div/table/tbody/tr/td'
p248
F3.3219280948873626
sS'/html/body/div/div/div/div/div/div/div/div/div/div/ul/li/ul/li/div/div/div/span/a/span/span/span/span'
p249
F4.643856189774724
sS'/html/body/div/div/div/div/div/div/div/div'
p250
F1.15200309344505
sS'/html/body/div/div/div/div/div/div/div/div/div/div/div/div/ol/li/ol/li/div/div/div/div/ul/li/div/div/div/div/a'
p251
F7.643856189774724
sS'/html/body/div/div/div/div/div/div/div/div/div/div/div/div/div/div/div/div/div/div/p/span'
p252
F6.058893689053569
sS'/html/body/div/div/div/div/div/div/div/div/div/div/ul/li/div/div/h2/span'
p253
F5.643856189774724
sS'/html/body/div/div/div/div/div/div/div/div/div/h3'
p254
F4.643856189774724
sS'/html/body/div/div/div/div/div/div/div/div/div/h2'
p255
F1.971430847803229
sS'/html/body/div/div/div/div/div/div/div/div/div/div/ul/li/button/ul/li/span'
p256
F3.5563933485243853
sS'/html/body/div/div/div/div/div/div/div/div/div/div/ul/li/div/div/div/div/div/div/div/ul/li/div/div/div/span/a/span/span/span/img'
p257
F1.971430847803229
sS'/html/body/div/div/div/div/div/div/div/div/div/div/div/div/div/div/div/div/div/div/div/span/a/span/span/span/img'
p258
F7.643856189774724
sS'/html/body/div/div/div/div/div/div/div/div/div/div/div/div/div/div/div/div/div/h1/span/a/span'
p259
F7.643856189774724
sS'/html/body/div/div/div/div/div/div/div/div/div/ul/li/span/div/div/span/span'
p260
F1.971430847803229
sS'/html/body/div/span/link'
p261
F1.340075441597622
sS'/html/body/div/meta'
p262
F1.340075441597622
sS'/html/body/div/div/div/div/div/div/div/div/div/div/div/ol/li/ol/li/ul/li/span/div/div/div/div/div/div'
p263
F6.643856189774725
sS'/html/body/div/div/div/div/div/div/div/div/div/div/div/ol/li/ol/li/ul/li/span/div/div/div/div/div/p'
p264
F6.643856189774725
sS'/html/body/div/div/div/div/div/div/div/div/div/div/ul/li/ul/li/div/div/div/a/span/span/span/span'
p265
F7.643856189774724
sS'/html/body/div/div/div/div/div/div/div/div/div/div/div/div'
p266
F0.43440282414577486
sS'/html/body/style'
p267
F1.4540316308947077
sS'/html/body/div/div/div/div/div/div/div/div/ul/li/a/span'
p268
F1.0144995696951153
sS'/html/body/div/div/div/div/div/div/div/div/div/div/div/div/ul/li/div/a/span/span'
p269
F1.1844245711374277
sS'/html/body/div/div/div/div/div/div/div/div/div/div/div/div/div/a/span/span/span/img'
p270
F6.643856189774725
sS'/html/body/div/div/div/div/div/div/div/div/div/ol/li/a/div/span'
p271
F6.643856189774725
sS'/html/body/div/div/div/div/div/div/div/ul/li/div/ul/li/a/span/span/span/span/span/img'
p272
F0.9159357352115255
sS'/html/body/div/div/div/div/div/div/div/div/div/div/div/div/div/div/div/div/div/div/div/span/span'
p273
F7.643856189774724
sS'/html/body/div/div/div/div/div/div/div/div/div/div/ul/li/div/table/tbody/tr/td/div/span'
p274
F7.643856189774724
sS'/html/body/div/div/div/div/div/div/div/div/div/div/ul/li/ul/li/div/div/div/a/span/span/span/span/span/b'
p275
F7.643856189774724
sS'/html/body/div/div/div/div/div/div/ul/li/span'
p276
F7.643856189774724
sS'/html/body/div/div/div/div/div/div/div/div/div/div/ul/li/div/div/div/div/div/ul/li/div/div/div/div/ul'
p277
F6.643856189774725
sS'/html/body/div/div/div/div/div/div/div/div/div/div/ul/li/div/div/div/div/div/ul/li/div/div/div/div/br'
p278
F4.473931188332412
sS'/html/body/div/div/div/div/div/div/div/div/div/div/ul/li/div/div/div/div/div/ul/li/div/div/div/ul/li'
p279
F7.643856189774724
sS'/html/body/div/div/div/div/div/div/div/div/div/ol/li/a/span/span/span/span'
p280
F3.2515387669959646
sS'/html/body/div/div/div/div/div/div/div/div/div/div/div/div/div/span/input'
p281
F1.5777669993169523
sS'/html/body/div/div/div/div/div/form/button/span'
p282
F0.03652587602511388
sS'/html/body/div/div/div/button'
p283
F0.03652587602511388
sS'/html/body/div/div/div/div/div/div/div/div/div/div/div/div/ol/li/ol/li/div/div/div/div/ul/li/div/div/div/button/span'
p284
F7.643856189774724
sS'/html/body/div/div/div/div/div/div/div/div/div/div/ul/li/span/div/div/span/button/span/span'
p285
F6.058893689053569
sS'/html/body/div/div/div/div/form/input'
p286
F7.643856189774724
sS'/html/body/div/div/div/div/div/div/div/div/div/div/ul/li/div/div/div/div/div/ul/li/div/div/div/span/span/button/ul/li/span'
p287
F4.184424571137428
sS'/html/body/div/div/div/h3'
p288
F0.03652587602511388
sS'/html/body/div/div/div/div/div/div/div/div/div/div/ul/script'
p289
F1.340075441597622
sS'/html/body/div/div/div/h1'
p290
F7.643856189774724
sS'/html/body/div/div/div/div/div/div/div/div/div/div/div/div/ol/li/ol/li/div/div/div/div/div/h3/span'
p291
F7.643856189774724
sS'/html/body/div/div/div/div/div/div/div/div/div/div/ul/li/div/div/div/div/div/div/div/ul/li/div/div/a/span'
p292
F7.643856189774724
sS'/html/body/div/div/div/div/div/div/div/div/div/div/div/ol/li/ol/li/div/div/div/ul/li/div/div/div/div/div/br'
p293
F7.643856189774724
sS'/html/body/div/div/div/div/div/div'
p294
F0.02914634565951651
sS'/html/body/div/div/div/ul/li'
p295
F0.021804370318348337
sS'/html/body/div/div/div/div/div/div/div/div/div/div/ul/li/div/div/div/div/div/div/div/ul/li/div/div/div/span/span/button/ul/li/span'
p296
F1.971430847803229
sS'/html/body/div/div/div/div/div/div/div/div/div/div/ul/li/ul/li/div/div/a/span/span/span/span'
p297
F6.058893689053569
sS'/html/body/div/div/div/div/div/div/div/div/div/div/div/div/div/div/div/div/span/button/span'
p298
F6.643856189774725
sS'/html/body/div/div/a'
p299
F0.01449956969511517
sS'/html/body/div/script'
p300
F7.643856189774724
sS'/html/body/div/div/div/div/div/div/div/div/div/div/div/div/ul/li/a/span/span/span/span/img'
p301
F2.5145731728297585
sS'/html/body/div/div/div/div/div/div/div/div/div/ol/li/a/div/span/span'
p302
F3.2515387669959646
sS'/html/body/div/div/div/div/div/div/div/div/div/div/ul/li/div/div/div/div/div/ul/li/div/div/a/span/span/span/img'
p303
F7.643856189774724
sS'/html/body/div/div/div/ul/li/span'
p304
F7.643856189774724
sS'/html/body/div/div/div/div/div/div/div/div/div/div/div/div/ol/li/ol/li/div/div/div/button/span/span'
p305
F7.643856189774724
sS'/html/body/div/div/div/div/div/div/div/div/div/div/div/ol/li/ol/li/div/div/div/ul/li/div/div/div/div/h3/span'
p306
F7.643856189774724
sS'/html/body/div/div/div/div/div/div/div/div/div/div/ul/li/div/div/div/section/div/div/div/button/span'
p307
F5.643856189774724
sS'/html/body/div/div/div/div/div/div/div/div/div/div/ul/li/div/div/div/div/div/div/div/ul/li/div/div/a/span/button/ul/li/span'
p308
F7.643856189774724
sS'/html/body/div/div/div/div/div/div/div/div/div/div/div/ol/li/ol/li/ul/li/button/span'
p309
F6.643856189774725
sS'/html/body/div/div/div/div/div/div/div/div/div/div/div/div/div/div/div/div/div/p/span'
p310
F6.058893689053569
sS'/html/body/div/div/div/div/div/div/div/div/div/div/div/div/div/div/div/div/p'
p311
F7.643856189774724
sS'/html/body/div/div/div/ul/li/a'
p312
F0.0
sS'/html/body/div/div/div/button/span/span'
p313
F0.01449956969511517
sS'/html/body/div/div/div/div/div/div/div/div/div/div/ul/li/div/div/div/div/div/ul/li/div/div/div/a/span/span/span/span/span/b'
p314
F4.473931188332412
sS'/html/body/div/div/div/div/div/div/div/div/div/div/div/div/ol/li/ol/li/div/div/div/div/div/div/span/button/ul/li/span'
p315
F7.643856189774724
sS'/html/body/div/div/div/div/div/div/div/div/div/div/ul/li/div/div/div/div/div/h2/a/span/span/span/img'
p316
F3.6438561897747253
sS'/html/body/div/div/div/div/div/div/div/div/link'
p317
F1.1844245711374277
sS'/html/body/div/div/div/div/div/div/div/div/div/div/ul/li/div/div/div/div/div/ul/li/div/div/div'
p318
F7.643856189774724
sS'/html/body/div/div/div/div/div/div/p/span'
p319
F0.03652587602511388
sS'/html/body/div/div/div/div/div/div/div/div/div/div/div/h3'
p320
F7.643856189774724
sS'/html/body/div/div/div/div/div/div/div/div/div/div/div/h2'
p321
F2.5145731728297585
sS'/html/body/div/div/div/div/div/div/div/div/div/div/ul/li/span/div/h3/a'
p322
F6.058893689053569
sS'/html/body/div/div/div/div/div/div/div/div/div/div/ul/li/span/div/a/span/span/span/span'
p323
F6.058893689053569
sS'/html/body/div/div/div/div/div/span/a/span'
p324
F1.0588936890535687
sS'/html/body/div/div/div/div/div/div/div/div/meta'
p325
F1.1844245711374277
sS'/html/body/div/div/div/div/div/div/div/div/div/div/div/div/div/div/div/div/a/span/span/span/img'
p326
F7.643856189774724
sS'/html/body/div/div/div/div/div/div/div/div/div/div/div/div/ul/li'
p327
F3.3219280948873626
sS'/html/body/span/meta'
p328
F1.340075441597622
sS'/html/body/div/div/div/div/div/div/div/div/div/div/ul/li/div/div/div/div/div/ul/li/div/div/div/a/span/span/button'
p329
F4.473931188332412
sS'/html/body/div/div/div/div/div/div/div/div/div/div/div/div/ol/li/ol/li/div/div/div/div/ul/li/div/div/div/span/button/ul/li/span'
p330
F7.643856189774724
sS'/html/body/div/div/div/div/div/div/div/div/div/div/ul/li/div/div/div/div/span'
p331
F2.2515387669959646
sS'/html/body/div/div/div/div/div/div/div/div/div/div/span/span/div/div/div/div/div'
p332
F1.1844245711374277
sS'/html/body/div/div/div/div/div/div/div/div/div/div/div/span/div/h3'
p333
F1.1844245711374277
sS'/html/body/div/div/div/div/div/div/div/div/div/div/div/ul/li/span'
p334
F3.3219280948873626
sS'/html/body/div/div/div/div/div/div/div/div/div/div/div/ol/li/ol/li/div/div/div/ul/li/div/div/div/div/div/span'
p335
F7.643856189774724
sS'/html/body/div/div/div/div/div/div/div/div/div/div/ul/li/div/div/div/div/div/ul/li/div/div/div/div/a'
p336
F3.6438561897747253
sS'/html/body/script'
p337
F0.0
sS'/html/body/div/div/div/div/div/div/div/div/div/div/div/ol/li/ol/li/div/div'
p338
F7.643856189774724
sS'/html/body/div/div/div/div/div/div/div/div/h2'
p339
F6.643856189774725
sS'/html/body/div/form/input'
p340
F0.01449956969511517
sS'/html/body/div/div/div/div/div/div/div/div/div/div/div/hr'
p341
F1.5777669993169523
sS'/html/body/div/div/div/div/div/div/div/div/div/div/div/ol/li/ol/li/ul/li/span/div/div/div/div/div/div/div/p/span'
p342
F6.643856189774725
sS'/html/body/div/div/div/div/div/div/div/div/div/div/div/div/div/ul/li/span/div/div'
p343
F1.1844245711374277
sS'/html/body/div/div/div/div/div/div/div/div/div/div/div/div/ol/li/ol/li/div/div/div/div/div/span/button/ul/li/span'
p344
F7.643856189774724
sS'/html/body/div/div/div/div/div/div/div/div/div/div/ul/li/div/div/div/div/button/span'
p345
F5.643856189774724
sS'/html/body/div/div/div/div/div/div/div/div/div/div/ul/li/ul/li/div/div'
p346
F4.473931188332412
sS'/html/body/div/div/div/div/div/div/div/img'
p347
F1.2009126939259964
sS'/html/body/div/div/div/div/div/div/div/div/ul/li/div/p/a'
p348
F7.643856189774724
sS'/html/body/div/div/div/div/div/div/div/div/div/div/div/div/ol/li/ol/li/div/div/div/div/div'
p349
F7.643856189774724
sS'/html/body/div/div/div/div/div/div/div/button/span'
p350
F1.1844245711374277
sS'/html/body/div/div/div/div/div/div/div/div/div/div/ul/li/div/div/div/div/div/div/div/ul/li/div/div'
p351
F1.8889686876112561
sS'/html/body/div/div/div/div/div/div/div/div/div/ol/li'
p352
F7.643856189774724
sS'/html/body/div/div/div/ul/li/button/span'
p353
F0.01449956969511517
sS'/html/body/div/div/div/div/div/div/div/div/div/div/ul/li/div/div/button/span/span'
p354
F5.643856189774724
sS'/html/body/div/div/div/div/div/div/div/div/div/div/ul/li/div/div/div/div/div'
p355
F1.6665762662748083
sS'/html/body/div/div/div/div/div/div/div/div/div/script'
p356
F3.2515387669959646
sS'/html/body/div/div/div/div/div/div/div/div/div/div/div/ol/li/ol/li/div/div/div/ul/li/div/div/div/div/div/a'
p357
F7.643856189774724
sS'/html/body/div/div/div/div/div/div/div/div/div/div/div/div/h4'
p358
F1.5777669993169523
sS'/html/body/div/div/div/div/div/div/div/div/div/div/div/div/h1'
p359
F3.3219280948873626
sS'/html/body/div/div/div/div/div/div/div/div/div/div/ul/li/div/div/div/div'
p360
F2.1202942337177118
sS'/html/body/div/div/div/div/div/div/div/div/div/div/ul/li/div/div/div/div/div/ul/li/div/div/div/span/span/span'
p361
F4.321928094887363
sS'/html/body/div/div/div/div/form/label/input'
p362
F7.643856189774724
sS'/html/body/div/div/div/div/div/span/meta'
p363
F7.643856189774724
sS'/html/body/div/div/div/div/div/div/div/div/div/a/img'
p364
F1.0144995696951153
sS'/html/body/div/div/div/div/div/div/div/div/div/div/div/div/ol/li/ol/li/div/div/div/div/h2/span/b/a'
p365
F7.643856189774724
sS'/html/body/div/div/button'
p366
F6.058893689053569
sS'/html/body/div/div/div/div/div/div/div/div/div/div/ul/li/div/div/div/section/div/a/span/span/span/img'
p367
F5.643856189774724
sS'/html/body/div/div/div/div/div/div/div/div/div/div/div/div/a'
p368
F3.3219280948873626
sS'/html/body/div/div/div/div/div/div/div/div/div/div/div/ol/li/ol/li/div/div/div/ul/li/div/div/div/div/span/button/ul/li/span'
p369
F7.643856189774724
sS'/html/body/div/div/div/div/div/div/div/div/div/div/ul/li/ul/li/div/div/div/a/span/span/span/button/ul/li/span'
p370
F7.643856189774724
sS'/html/body/div/div/div/div/div/div/div/div/div/div/div/div/ul/li/a/span/span/span/span'
p371
F2.5145731728297585
sS'/html/body/div/div/div/div/div/div/div/div/div/div/ul/li/div/div/div/section/div/div/div/span'
p372
F5.643856189774724
sS'/html/body/div/div/div/div/img'
p373
F7.643856189774724
sS'/html/body/div/div/div/div/div/div/div/div/div/div/div/span/span/div/a/span'
p374
F1.1844245711374277
sS'/html/body/div/div/div/div/p/span'
p375
F0.01449956969511517
sS'/html/body/div/div/div/div/div/div/div/div/div/div/div/ol/li/ol/li/div/div/div/div/h2/span'
p376
F7.643856189774724
sS'/html/body/div/div/div/div/div/div/div/div/div/div/div/div/div/div/div/div/div/div/div/span/button/span'
p377
F7.643856189774724
sS'/html/body/div/div/div/div/div/div/div/div/div/div/div/div/div/div/p'
p378
F6.643856189774725
sS'/html/body/div/div/div/div/div/div/div/div/div/div/div/div/ol/li/ol/li/div/div/div/div/div/div/ul/li'
p379
F7.643856189774724
sS'/html/body/div/div/div/div/div/div/div/div/div/div/div/div/div/strong'
p380
F1.1844245711374277
sS'/html/body/div/div/div/div/div/div/div/div/div/div/ul/li/div/div/div/section/div/div/div/button/span/span/span/span'
p381
F6.058893689053569
sS'/html/body/div/div/div/div/div/div/div/div/div/div/div/div/div/ul/li/ul/li'
p382
F1.1844245711374277
sS'/html/body/div/div/div/div/div/div/div/div/div/div/span/span/div/div/div/div/div/div/div/div'
p383
F1.1844245711374277
sS'/html/body/div/div/div/div/div/div/div/div/div/div/ul/li/div/div/div/div/div/ul/li/a/h4/span'
p384
F3.8365012677171206
sS'/html/body/div/div/div/div/div/div/div/div/div/div/div/div/div/span/div/h3'
p385
F3.3219280948873626
sS'/html/body/div/div/div/div/div/div/div/div/div/div/div/div/span/div/div/div/span'
p386
F1.434402824145775
sS'/html/body/div/div/div/div/div/div/div/div/span'
p387
F5.643856189774724
sS'/html/body/div/div/div/div/div/div/div/div/div/div/div/div/div/div/div/div/span/span/button/span'
p388
F6.643856189774725
sS'/html/body/div/div/div/div/div/div/div/div/div/div/div/div/div/div/div/div/div/div/div/span/a/span/span/span/span'
p389
F7.643856189774724
sS'/html/body/div/div/div/div/div/div/div/div/div/div/div/div/span/div/div/div/div/div/div/div'
p390
F1.434402824145775
sS'/html/body/div/div/div/div/div/div/div/div/div/div/div/div/h3/span/a/span'
p391
F7.643856189774724
sS'/html/body/div/div/div/div/div/div/div/div/div/div/ul/li/button/span/span/span/span'
p392
F4.473931188332412
sS'/html/body/div/div/div/div/div/div/div/ol/li/a'
p393
F6.643856189774725
sS'/html/body/div/div/div/div/div/div/div/div/div/ul/li/span/div/h3/span'
p394
F1.971430847803229
sS'/html/body/div/div/div/div/div/div/div/div/div/div/div/div/div/ul/li/span/a/img'
p395
F6.058893689053569
sS'/html/body/div/div/div/div/div/div/div/div/div/div/div/div/div/div/div/div/div/div/span/button'
p396
F7.643856189774724
sS'/html/body/div/div/div/span/a/img'
p397
F7.643856189774724
sS'/html/body/div/div/div/div/div/div/div/div/div/div/div/div/span/div/div/div/div/div/div/div/p/span'
p398
F1.434402824145775
sS'/html/body/div/div/div/div/div/div/div/div/div/div/ul/li/div/div/span'
p399
F4.643856189774724
sS'/html/body/div/div/div/div/div/div/div/div/p/span'
p400
F6.058893689053569
sS'/html/body/div/div/div/div/div/div/div/div/div/div/div/div/div/div/div/div'
p401
F6.643856189774725
sS'/html/body/div/div/div/div/div/div/div/div/div/div/div/div/div/div/div/a/span/span/span/span'
p402
F7.643856189774724
sS'/html/body/div/div/div/div/a/img'
p403
F7.643856189774724
sS'/html/body/div/div/div/div/div/div/div/div/div/div/ul/li/div/div/div/div/div/div/div/ul/li/div/div/div/div/ul/li/span'
p404
F2.7858751946471525
sS'/html/body/div/div/div/div/div/div/div/div/div/div/ul/li/ul/li/div/div/div/span/a/span/span/span/img'
p405
F4.643856189774724
sS'/html/body/div/div/div/div/div/div/div/div/div/div/div/div/div/div/div/div/div/div/h1/span/a/span'
p406
F7.643856189774724
sS'/html/body/div/div/div/div/div/div/div/div/div/div/ul/li/div/div/div/div/div/div/div/ul/li/div/div/div/a/span/span/span/span/span/span'
p407
F7.643856189774724
sS'/html/body/div/div/div/div/div/div/div/div/div/div/div/div/div/div/div/div/p/span'
p408
F7.643856189774724
sS'/html/body/div/div/div/div/div/div/div/div/div/div/ul/li/div/div/div/div/div/ul/li/div/div/div/div/span'
p409
F4.473931188332412
sS'/html/body/div/div/div/div/div/div/div/div/div/div/ul/li/div/div/div/div/div/ul/li/div/div/div/div/ul/li'
p410
F3.473931188332412
sS'/html/body/div/div/div/div/div/div/div/div/div/div/div/div/div/span/div/div/p/span'
p411
F3.3219280948873626
sS'/html/body/div/div/div/div/div/div/div/div/div/div/div/div/div/p'
p412
F6.643856189774725
sS'/html/body/div/div/div/div/div/div/div/div/div/div/ul/li/div/div/div/section/div/div/div/div/div/div/span/a'
p413
F6.058893689053569
sS'/html/body/div/div/div/div/div/div/div/div/div/div/div/div/button/span'
p414
F1.1360615495760285
sS'/html/body/div/div/div/div/div/div/div/div/div/div/ul/li/ul/li/div/div/span/span'
p415
F6.058893689053569
sS'/html/body/div/div/div/div/div/div/div/div/div/div/ul/li/div/div/div/section/div/div/div/span/a'
p416
F5.643856189774724
sS'/html/body/div/div/div/div/div/div/div/div/div/div/div/div/ol/li/ol/li/div/div/div/div/div/h3/a'
p417
F7.643856189774724
sS'/html/body/div/div/div/div/div'
p418
F0.01449956969511517
sS'/html/body/div/div/div/div/div/div/div/div/div/div/ul/li/div/div/div/div/div/ul/li/div/div/div/div/ul/li/span'
p419
F7.643856189774724
sS'/html/body/div/div/div/div/div/div/div/div/div/div/div/ul/li/a'
p420
F3.3219280948873626
sS'/html/body/div/div/div/div/div/div/div/div/div/div/div/ol/li/ol/li/div/div/div/ul/li/div/div/div/div/button/span'
p421
F7.643856189774724
sS'/html/body/div/div/div/div/div/div/div/div/div/div/div/div/p/span'
p422
F1.1844245711374277
sS'/html/body/div/div/div/div/div/div/div/div/div/div/div/div/ol/li/ol/li/div/div/div/div/div/div/span/button/span'
p423
F7.643856189774724
sS'/html/body/div/div/div/ul/li/button/span/span'
p424
F0.01449956969511517
sS'/html/body/div/div/div/div/div/div/div/div/div/div/div/div/div/div/div/div/div/div/span/a/span/span/span/span'
p425
F7.643856189774724
sS'/html/body/div/div/div/div/div/div/div/div/div/div/div/div/div/div'
p426
F1.1844245711374277
sS'/html/body/div/div/div/div/div/div/div/div/div/div/div/div/div/p/br'
p427
F1.234465253637023
sS'/html/body/div/div/div/div/div/div/div/div/div/div/ul/li/div/div/div/section/div/div/div/a'
p428
F5.643856189774724
sS'/html/body/div/div/div/div/div/div/div/div/div/div/div/div/ul/li/div/span'
p429
F1.1844245711374277
sS'/html/body/div/div/div/div/div/div/div/div/div/div/ul/li/div/div/div/div/ul/li/button/span'
p430
F5.643856189774724
sS'/html/body/div/div/div/div/div/div/div/div/ul/li/div/ul/li'
p431
F7.643856189774724
sS'/html/body/div/div/div/div/div/div/div/div/div/div/div/div/div/div/p/a'
p432
F7.643856189774724
sS'/html/body/div/div/div/div/div/div/div/div/div/div/ul/li/div/div/div/div/div/ul/li/div/div/div/a/span/span/span/button/span'
p433
F4.473931188332412
sS'/html/body/div/div/div/div/div/div/div/div/div/div/div/ol/li/ol/li/div/a'
p434
F7.643856189774724
sS'/html/body/div/div/div/div/div/div/div/div/div/div/div/ol/li/ol/li/ul/li/span/div/div/div/div/div/button/span'
p435
F6.643856189774725
sS'/html/body/div/div/div/div/div/div/div/div/div/div/ul/li/div/div/div/div/div/div/div/ul/li/div/div/div/div/ul/li'
p436
F1.9434164716336328
sS'/html/body/div/div/div/div/div/div/ul/li/a/span'
p437
F0.9434164716336326
sS'/html/body/div/div/div/div/div/div/div/div/div/div/div/span/div/a/span'
p438
F1.1844245711374277
sS'/html/body/div/div/span'
p439
F0.03652587602511388
sS'/html/body/div/div/div/div/div/div/div/div/div/div/div/div/ol/li/ol/li/div/div/div/div/div/div/div/a'
p440
F7.643856189774724
sS'/html/body/div/div/div/div/div/div/div/div/div/div/ul/li/ul/li/div/div/div/a/span/span/span/button/span'
p441
F7.643856189774724
sS'/html/body/div/div/div/div/div/div/div/div/div/div/div/div/div/span/div/div'
p442
F3.3219280948873626
sS'/html/body/div/div/div/div/div/div/div/div/div/ul/li/span/div/div/span/button/span/span'
p443
F1.971430847803229
sS'/html/body/div/div/div/div/div/div/div/div/div/div/div/div/ol/li/ol/li/div/div/div/div/ul/li/div/div/div/div/span'
p444
F7.643856189774724
sS'/html/body/div/div/div/div/div/div/div/div/div/div/div/div/ol/li/ol/li/div/div/div/div/div/span/button/span'
p445
F7.643856189774724
sS'/html/body/div/div/div/div/div/div/div/div/div/div/ul/li/div/div/div/span/b'
p446
F5.643856189774724
sS'/html/body/div/div/div/div/div/a/img'
p447
F7.643856189774724
sS'/html/body/div/div/div/div/div/div/div/div/div/div/ul/li/div/table/tbody/tr/td/span/span/button/ul/li/span'
p448
F3.3219280948873626
sS'/html/body/div/div/div/div/div/div/div/ul/li/div/a/span'
p449
F0.9159357352115255
sS'/html/body/div/div/div/div/div/div/div/div/div/div/div/ul/li'
p450
F7.643856189774724
sS'/html/body/div/div/div/div/div/div/div/div/div/div/span/button/span'
p451
F0.03652587602511388
sS'/html/body/div/div/div/div/div/div/div/div/ul/li/h2'
p452
F1.340075441597622
sS'/html/body/div/div/div/div/div/div/div/div/div/div/ul/li/div/div/div/section/div/div/div/div/div/div/a'
p453
F6.058893689053569
sS'/html/body/div/div/div/div/div/div/div/div/div/div/div/div/ol/li/ol/li/div/div/div/div/div/div/h3/a'
p454
F7.643856189774724
sS'/html/body/div/div/div/div/div/div/div/div/div/div/ul/li/div/div/div/div/div/ul/li/div/div/div/a/span/span/span/span/img'
p455
F4.473931188332412
sS'/html/body/div/div/div/h2'
p456
F7.643856189774724
sS'/html/head/style'
p457
F0.00723156923107573
sS'/html/body/div/div/div/div/div/div/div/ul/li/div/h3'
p458
F0.9159357352115255
sS'/html/body/div/div/div/div/div/div/div/div/div/div/div/a'
p459
F1.1844245711374277
sS'/html/body/div/div/div/div/div/div/div/div/div/div/ul/li/div/div/div/section/div/div/div/div/div/div/div'
p460
F6.058893689053569
sS'/html/body/div/div/div/div/div/div/div/div/div/div/div/div/ol/li/ol/li/div/div/div/div/div/button'
p461
F7.643856189774724
sS'/html/body/div/div/div/div/div/div/div/div/div/div/div/ol/li/ol/li/div/div/div/ul/li/div/div/div/div/div'
p462
F7.643856189774724
sS'/html/body/div/div/div/div/div/div/div/div/div/div/div/div/div/div/div/div/div/p'
p463
F7.643856189774724
sS'/html/body/div/div/div/div/div/div/div/div/div/div/ul/li/div/div/div/div/div/h2/a/span/span'
p464
F1.7612131404128835
sS'/html/body/div/div/div/div/div/div/div/div/div/div/ul/li/div/div/div/div/div/div/div/ul/li/div/div/div/ul'
p465
F7.643856189774724
sS'/html/body/div/div/div/div/div/div/div/div/div/div/button/span/span'
p466
F4.184424571137428
sS'/html/body/div/div/div/div/div/div/div/div/div/div/ul/li/div/div/div/div/div/div/div/ul/li/div/div/div/a/span/span/span/span/span/b'
p467
F3.6438561897747253
sS'/html/body/div/div/div/div/div/div/div/div/div/div/div/div/ul/li/a/span/span/span/button/span'
p468
F2.736965594166206
sS'/html/body/div/div/div/div/div/div/div/div/div/div/div/div/img'
p469
F3.3219280948873626
sS'/html/body/div/div/div/div/div/div/div/div/p'
p470
F6.058893689053569
sS'/html/body/div/div/div/div/div/div/div/div/div/div/ul/li/div/div/div/section/div/div/div/div/div/div/div/a'
p471
F7.643856189774724
sS'/html/body/div/div/div/div/div/div/div/div/div/div/ul/li/span/div/a/span/span/span/img'
p472
F6.058893689053569
sS'/html/body/div/div/div/div/div/div/div/div/div/div/ul/li/div/div/div/div/div/div/div/ul/li/div/div/span/button/span/span'
p473
F4.473931188332412
sS'/html/body/div/div/div/div/div/div/div/div/a'
p474
F7.643856189774724
sS'/html/body/div/div/div'
p475
F0.02914634565951651
sS'/html/body/div/div/div/div/div/div/div/ol/li/ol/li/a'
p476
F6.643856189774725
sS'/html/body/div/div/div/div/div/div/div/div/div/div/div/h1/span'
p477
F1.1844245711374277
sS'/html/body/div/div/div/div/div/div/div/div/div/div/div/div/div/ul/li/ul/li/a'
p478
F1.1844245711374277
sS'/html/body/div/div/div/span'
p479
F6.058893689053569
sS'/html/body/div/div/div/div/div/div/div/div/div/div/div/ol/li/ol/li/div/div/div/ul/li/div/div/div/div/div/ul/li'
p480
F7.643856189774724
sS'/html/body/div/div/div/div/div/div/div/div/div/div/div/div/div/div/div/div/div/div/div/span/span/button/ul/li/span'
p481
F7.643856189774724
sS'/html/body/div/div/div/a/span'
p482
F0.00723156923107573
sS'/html/body/div/div/div/div/div/div/div/div/div/div/ul/li/div/div/div/div/div/div/div/ul/li/div/div/div/a/span/span/span/button/span'
p483
F3.6438561897747253
sS'/html/body/div/div/div/div/div/div/div/div/div/div/ul/li/div/div/div/div/div/div/div/ul/li/div/div/a/span/span/span/img'
p484
F4.321928094887363
sS'/html/body/div/div/div/div/div/script'
p485
F0.066427361738976
sS'/html/body/div/div/div/div/div/div/div/div/div/div/ul/li/a/img'
p486
F1.434402824145775
sS'/html/body/div/div/div/div/div/div/div/div/div/div/div/ol/li/ol/li/div/div/div/ul/li/div/div/div/div/a/span'
p487
F7.643856189774724
sS'/html/body/div/div/div/div/form/div/div/a'
p488
F7.643856189774724
sS'/html/body/div/div/div/div/div/div/div/div/div/div/div/ol/li/ol/li/div/div/div/div/div'
p489
F7.643856189774724
sS'/html/body/div/div'
p490
F0.00723156923107573
sS'/html/body/div/div/div/div/div/div/div/div/div/div/ul/li/span/div/div/span/span'
p491
F6.058893689053569
sS'/html/body/div/div/div/div/div/div/div/div/div/div/ul/li/ul/li/div/div/div/span/span/button/ul/li/span'
p492
F4.643856189774724
sS'/html/body/div/div/div/div/div/div/div/div/div/div/ul/li/div/div/div/a/span/span/span/img'
p493
F5.643856189774724
sS'/html/body/div/div/div/div/div/div/div/div/div/div/div/div/div/div/div/div/div/h1/span/span/span'
p494
F7.643856189774724
sS'/html/body/div/div/div/div/div/div/div/div/ul/li/div/p'
p495
F7.643856189774724
sS'/html/body/div/div/div/div/div/div/div/div/div/div/div/div/div/div/div/div/div/div/h1/span/span/span/a'
p496
F7.643856189774724
sS'/html/body/div/div/div/div/div/div/div/div/div/div/ul/li/div/div/div/span'
p497
F4.643856189774724
sS'/html/body/div/div/div/div/div/div/div/div/div/div/div/ol/li/ol/li/div'
p498
F7.643856189774724
sS'/html/body/div/div/div/div/div/div/div/div/div/h2/a'
p499
F4.321928094887363
sS'/html/body/div/div/div/div/div/div/div/div/div/div/div/div/div/div/div/div/div/div/div/span/button/span/span'
p500
F7.643856189774724
sS'/html/body/div'
p501
F0.04394334758759686
sS'/html/body/div/div/div/div/div/div/div/div/div/div/div/div/span/div/div/div/div/div/div/div/div'
p502
F1.434402824145775
sS'/html/body/div/div/div/div/div/div/div/div/div/div/div/div/div/ul/li/div/a/span/img'
p503
F1.5777669993169523
sS'/html/body/div/div/div/div/div/div/div/div/div/div/ul/li/div/table/tbody/tr/td/div'
p504
F3.3219280948873626
sS'/html/body/div/div/div/div/div/div/div/div/div/div/div/div/span/div/div/div/div/div'
p505
F1.434402824145775
sS'/html/body/div/div/div/div/div/div/div/div/div/div/ul/li/div/div/div/div/div/ul/li/div/div/div/ul/li/span'
p506
F5.058893689053569
sS'/html/body/div/div/div/div/div/div/div/div/div/div/span/span/div/div/div/div/div/div/div/div/p/span'
p507
F1.1844245711374277
sS'/html/body/div/div/div/div/div/div/div/div/div/div/div/button/span'
p508
F1.1844245711374277
sS'/html/body/div/div/div/div/div/div/div/div/div/div/ul/li/div/div/div/div/div/div/div/ul/li/div/div/div/span/button/span'
p509
F1.971430847803229
sS'/html/body/div/div/div/div/div/div/div/div/div/div/ul/li/div/div/div/div/div/wbr/br'
p510
F6.058893689053569
sS'/html/body/div/div/div/div/div/div/div/div/div/div/div/a/span'
p511
F1.1844245711374277
sS'/html/body/div/div/div/div/div/div/div/div/div/div/ul/li/div/div/div/div/div/a'
p512
F2.473931188332412
sS'/html/body/div/div/div/div/div/div/div/ul/li/div/ul/li/a/span/span/span/span/span/span'
p513
F0.9159357352115255
sS'/html/body/div/div/div/div/div/div/div/div/div/div/div/div/div'
p514
F0.8624964762500651
sS'/html/body/div/div/div/div/div/div/div/div/div/div/ul/li/div/div/div/div/div/ul/li/div/div/div/span/button'
p515
F4.184424571137428
sS'/html/body/div/div/div/div/div/div/div/div/p/strong'
p516
F7.643856189774724
sS'/html/body/div/div/div/div/div/div/div/div/button/span'
p517
F6.058893689053569
sS'/html/body/div/div/div/div/a/span'
p518
F0.01449956969511517
sS'/html/body/div/div/div/div/div/div/div/div/div/div/ul/li/ul/li/div/div/div/h3/a'
p519
F4.473931188332412
sS'/html/body/div/div/div/div/div/div/div/div/div/div/div/ol/li/ol/li/ul/li/span/div/div/span'
p520
F6.643856189774725
sS'/html/body/div/div/div/div/div/div/div/div/div/div/ul/li/div/table/tbody/tr/td/div/div'
p521
F3.3219280948873626
sS'/html/body/div/div/div/div/div/div/div/div/div/div/ul/li/div/div/div/section/div/div/a/span/span/span/img'
p522
F6.058893689053569
sS'/html/body/div/div/div/div/div/div/div/div/div/div/div/span/span/div/h3'
p523
F1.1844245711374277
sS'/html/body/div/div/div/div/div/meta'
p524
F7.643856189774724
sS'/html/body/div/div/div/div/div/div/div/div/div/div/div/div/div/div/div/div/div/div/span/span'
p525
F7.643856189774724
sS'/html/body/div/div/div/div/div/div/div/div/div/div/ul/li/div/div/div/div/a'
p526
F2.395928676331139
sS'/html/body/div/link'
p527
F1.340075441597622
sS'/html/body/div/div/div/div/div/div/div/div/div/div/div/div/div/span/label/span'
p528
F1.5777669993169523
sS'/html/body/div/div/div/div/div/div/a/img'
p529
F1.0144995696951153
sS'/html/body/div/div/div/div/div/div/div/div/div/div/ul/li/div/div/div/div/div/ul/li/div/div/div/a/span/span/span/button/ul/li/span'
p530
F4.473931188332412
sS'/html/body/div/div/div/div/div/div/div/div/div/div/div/div/div/ul/li/button/span'
p531
F1.6665762662748083
sS'/html/body/div/div/div/div/div/div/div/div/div/div/ul/li/div/div/div/div/div/ul/li/div/div/div/span/button/span/span'
p532
F7.643856189774724
sS'/html/body/div/div/div/div/div/link'
p533
F7.643856189774724
sS'/html/body/div/div/div/div/div/div/div/div/div/div/ul/li/div/div/div/div/div/div/div/ul/li/div/div/div/a/span/span/span/span/img'
p534
F3.6438561897747253
sS'/html/body/div/div/div/div/div/div/div/div/div/div/ul/li/div/div/div/section/div/div/div/div/b'
p535
F7.643856189774724
sS'/html/body/div/div/div/div/div/div/div/div/div/div/ul/li/div/div/div/section/div/div/div/div/a'
p536
F5.643856189774724
sS'/html/body/div/div/div/div/form/div/div/input'
p537
F7.643856189774724
sS'/html/body/div/div/div/div/div/div/div/div/div/div/div/div/ul/div/li'
p538
F1.2009126939259964
sS'/html/body/div/div/div/div/div/div/div/div/div/div/ul/li/div/div/div/div/div/div/div/ul/li/div/div/div/div/span/button/span'
p539
F6.058893689053569
sS'/html/body/div/div/div/div/div/div/div/div/div/div/ul/li/div/button/span/span/span/span'
p540
F4.836501267717121
sS'/html/body/div/div/div/div/div/div/div/div/div/div/div/div/div/ul/li/span/div/a/span'
p541
F1.1844245711374277
sS'/html/body/div/div/div/div/div/div/div/ul/li/div/ul/li/a/span/span/span'
p542
F0.9159357352115255
sS'/html/head/title'
p543
F0.0
sS'/html/body/div/div/div/div/div/div/div/div/div/div/ul/li/div/div/div/div/div/div/div/ul/li/div/div/div/span/button'
p544
F1.971430847803229
sS'/html/body/div/div/div/div/form/div/input'
p545
F6.058893689053569
sS'/html/body/div/div/div/div/div/div/div/div/div/div/ul/li/div/div/div/div/div/div/div/ul/li/div/div/div/a/span/span/span/span/span'
p546
F3.6438561897747253
sS'/html/body/div/div/div/div/div/div/p/span/a'
p547
F7.643856189774724
sS'/html/body/div/div/div/div/div/div/div/div/div/div/ul/li/div/div/div/br'
p548
F5.643856189774724
sS'/html/body/div/div/div/div/div/div/div/div/span/link'
p549
F1.1844245711374277
sS'/html/body/div/div/div/div/div/div/div/ul/li/p'
p550
F0.9159357352115255
sS'/html/body/div/div/ul/li/a'
p551
F6.058893689053569
sS'/html/body/div/div/div/div/div/div/div/div/div/div/ul/li/div/div/div/section/div/div/div/div/div/div/button'
p552
F6.058893689053569
sS'/html/body/div/div/div/div/div/div/div/div/div/div/ul/li/div/div/div/div/div/div/div/ul/li/div/div/span/span'
p553
F4.321928094887363
sS'/html/body/div/div/div/div/div/div/div/div/a/span'
p554
F6.643856189774725
sS'/html/body/div/div/div/div/div/div/div/div/div/div/ul/li/div/div/div/h3/a'
p555
F2.395928676331139
sS'/html/body/div/div/div/div/div/div/ul/li/span/a'
p556
F7.643856189774724
sS'/html/body/div/div/div/div/div/div/div/div/div/div/ul/li/div/div/div/section/div/div/div/div/div/div/span'
p557
F6.058893689053569
sS'/html/body/div/div/div/div/div/button/span'
p558
F6.058893689053569
sS'/html/body/div/div/div/div/div/div/div/div/div/div/ul/li/ul/li/div/div/div/span/span/button/span'
p559
F4.643856189774724
sS'/html/body/div/div/div/div/div/div/div/div/div/div/div/div/ol/li/ol/li/div/div/div/div/h2/a/span'
p560
F7.643856189774724
sS'/html/body/div/div/div/div/div/div/div/div/div/div/ul/li/div/div/pre'
p561
F5.643856189774724
sS'/html/body/div/div/div/div/div/div/div/div/div/div/ul/li/div/div/div/section/div/a/span/span/span/span'
p562
F5.643856189774724
sS'/html/body/div/div/div/div/div/div/div/div/div/div/div/div/div/ul/li/div/a/span/ul/li/span'
p563
F6.058893689053569
sS'/html/body/div/div/div/div/div/div/div/div/div/div/div/div/div/div/div/div/span/a/span/span/span/span'
p564
F6.643856189774725
sS'/html/body/div/div/div/div/div/div/div/div/div/div/ul/li/div/div/div/div/div/div/div/ul/li/div/div/div/ul/li/span'
p565
F7.643856189774724
sS'/html/body/div/div/div/div/div/div/div/div/div/div/ul/li/ul/li/div/div/div/span/span/span'
p566
F4.643856189774724
sS'/html/body/div/div/div/div/div/div/div/div/div/div/div/div/div/ul/li/div/a/span/span'
p567
F1.5777669993169523
sS'/html/body/div/div/div/div/div/div/div/div/div/div/div/div/div/div/div/h1/span/span/span/a'
p568
F6.643856189774725
sS'/html/body/div/div/div/div/div/div/div/div/div/div/ul/li/div/div/div/a/span/span/span/span'
p569
F5.643856189774724
sS'/html/body/div/div/div/div/div/div/div/div/div/div/div/div/ul/li/a/span/span/button'
p570
F2.736965594166206
sS'/html/body/div/div/div/div/div/div/div/div/div/div/div/div/ul/li/a/span/span/span/span/span'
p571
F2.5145731728297585
sS'/html/body/div/div/div/div/div/div/div/div/div/div/div/div/h3/a/span'
p572
F6.643856189774725
sS'/html/body/div/div/div/div/div/div/div/h2'
p573
F7.643856189774724
sS'/html/body/div/div/div/div/div/div/div/h1'
p574
F1.15200309344505
sS'/html/body/div/div/div/div/div/div/div/div/div/div/div/div/span/div/div/div/div/div/div/div/div/p/span'
p575
F1.434402824145775
sS'/html/body/div/div/div/div/div/div/div/div/div/div/ul/li/button/span/span'
p576
F4.473931188332412
sS'/html/body/link'
p577
F1.340075441597622
sS'/html/body/div/div/div/div/div/div/div/div/div/div/ul/li/div/div/div/div/div/div/div/ul/li/div/div/div/h3/span'
p578
F1.8889686876112561
sS'/html/body/div/div/div/div/div/div/div/div/div/div/div/div/div/span'
p579
F4.836501267717121
sS'/html/body/div/div/div/div/div/div/div/div/div/div/div/div/div/ul/li/div/a/span'
p580
F1.5777669993169523
sS'/html/body/div/div/div/div/div/div/div/div/div/div/div/a/span/span'
p581
F3.2515387669959646
sS'/html/body/div/div/div/div/div/div/div/div/div/div/ul/li/span/div/h3/a/span/span'
p582
F6.058893689053569
sS'/html/body/div/div/div/div/div/div/div/div/div/div/ul/li/div/table/tbody/tr/td/div/div/span'
p583
F3.3219280948873626
sS'/html/body/div/div/div/div/div/div/div/div/div/div/div/div/h3/img'
p584
F6.643856189774725
sS'/html/body/div/div/div/div/div/div/div/div/div/div/div/div/div/div/div/a/span/span/span/img'
p585
F7.643856189774724
sS'/html/body/div/div/div/div/div/div/div/div/div/div/ul/li/div/div/div/div/button'
p586
F5.643856189774724
sS'/html/body/div/div/div/div/div/div/div/div/div/div/ul/li/div/div/div/section/div'
p587
F5.643856189774724
sS'/html/body/div/div/div/div/div/div/div/div/div/div/div/div/div/ul/li/span/button/span'
p588
F1.1844245711374277
sS'/html/body/div/div/div/div/div/div/div/div/div/div/div/div/ul/li/h2'
p589
F6.643856189774725
sS'/html/body/div/div/div/div/div/div/div/div/div/div/div/ol/li/ol/li/div/div/div/ul/li/div/div/div/div/span/button/span'
p590
F7.643856189774724
sS'/html/body/div/div/div/div/div/div/div/div/div/div/div/ol/li/ol/li/ul/li/span/div/div/div/div/div/h2'
p591
F6.643856189774725
sS'/html/body/div/div/div/div/div/div/div/div/div/div/div/ol/li/ol/li/div/div/div/ul/li/div/div/div/div/h3/a'
p592
F7.643856189774724
sS'/html/body/div/div/div/div/div/div/div/div/div/div/div/div/div/div/div/h1/span/a/span'
p593
F6.643856189774725
sS'/html/body/div/div/div/div/div/div/div/div/div/div/a/span/span/span/span'
p594
F1.1844245711374277
sS'/html/body/div/div/div/div/div/div/div/div/ul/li/button/span'
p595
F7.643856189774724
sS'/html/body/div/div/div/div/div/div/div/div/div/ol/p/span'
p596
F0.03652587602511388
sS'/html/body/div/div/div/div/div/div/div/div/div/div/ul/li/div/div/div/section/div/div'
p597
F5.643856189774724
sS'/html/body/meta'
p598
F1.340075441597622
sS'/html/body/div/div/div/div/div/div/div/div/div/div/div/div/ul/li/div/a/span/ul/li/span'
p599
F3.5563933485243853
sS'/html/body/div/div/div/div/div/div/div/div/div/div/div/span/span/button'
p600
F3.2515387669959646
sS'/html/body/div/div/div/div/div/div/div/div/div/div/div'
p601
F0.09696172988708811
sS'/html/body/div/div/div/div/div/div/div/div/div/ul/li/span/div/a/span/span/span/img'
p602
F1.971430847803229
sS'/html/body/div/div/div/div/div/div/div/div/div/div/ul/li/div/div/div/section/div/div/div/div/span'
p603
F6.058893689053569
sS'/html/body/div/div/div/div/div/div/div/div/div/div/div/div/div/div/div/div/div/div/span/span/button/span'
p604
F7.643856189774724
sS'/html/body/div/div/div/div/div/div/div/div/div/div/div/span/div/div'
p605
F1.1844245711374277
sS'/html/body/div/div/div/div/div/div/div/p/span'
p606
F0.01449956969511517
sS'/html/body/div/div/div/div/span/select/option'
p607
F7.643856189774724
sS'/html/body/div/div/div/div/div/div/div/div/div/div/ul/li/div/div/div/div/div/ul/li/div/div/div/span/a/span/span/span/img'
p608
F4.184424571137428
sS'/html/body/div/div/div/div/div/div/div/div/div'
p609
F0.02914634565951651
sS'/html/body/div/div/div/div/div/div/div/div/div/div/div/div/div/ul/li/h4'
p610
F1.1844245711374277
sS'/html/body/div/div/div/div/div/div/div/div/div/div/div/h3/a'
p611
F3.3219280948873626
sS'/html/body/div/div/div/div/div/div/button/span'
p612
F0.03652587602511388
sS'/html/body/div/div/div/div/div/div/h1'
p613
F7.643856189774724
sS'/html/body/div/div/div/div/div/div/div/div/div/div/div/div/ol/li/ol/li/div/div'
p614
F7.643856189774724
sS'/html/body/div/div/div/div/div/div/div/div/div/div/div/div/div/div/div/div/div/div/span/button/span/span'
p615
F7.643856189774724
sS'/html/body/div/div/div/div/div/div/div/div/div/div/div/div/div/a/span/span/span/span'
p616
F6.643856189774725
sS'/html/body/div/div/div/div/div/div/div/div/div/div/div/div/div/label'
p617
F1.5777669993169523
sS'/html/body/div/div/div/div/div/div/div/div/div/div/div/div/div/div/div/div/div/img'
p618
F6.058893689053569
sS'/html/body/div/div/div/div/div/div/div/div/div/div/ul/li/div/div/div/section/div/div/div/div/div/div/button/span'
p619
F5.643856189774724
sS'/html/body/div/div/div/div/div/div/div/div/div/div/ul/li/div/div/h2/b'
p620
F5.643856189774724
sS'/html/body/div/div/div/div/div/div/div/div/div/div'
p621
F0.7734914701913203
sS'/html/body/div/div/div/div/div/div/div/div/div/div/ul/li/div/div/div/div/div/div/div/ul/li/div/div/h3/span'
p622
F4.321928094887363
sS'/html/body/div/div/div/div/div/div/div/div/div/div/ul/li/div/table/tbody/tr/td/a'
p623
F3.3219280948873626
sS'/html/body/div/div/div/div/div/div/div/div/div/div/div/div/div/span/span'
p624
F1.5777669993169523
sS'/html/body/div/div/div/div/div/div/div/div/div/div/div/ol/li/ol/li/div/div/div/ul/li/div/div/div/div/a/div/span/img'
p625
F7.643856189774724
s.