(dp0
S'/html/body/div/div/div/div/div/div/div/div/div/div/div/ol/li/ol/li/ul/li/span/div/div/div/div'
p1
F8.965784284662087
sS'/html/body/div/div/div/a/span/img'
p2
F8.380821783940931
sS'/html/body/div/div/div/div/div/div/div/div/div/div/button/span/span/span/span'
p3
F5.107803289534515
sS'/html/body/div/div/div/div/div/div/div/div/div/div/div/div/div/p/wbr/wbr/wbr/wbr/wbr/wbr/wbr/br'
p4
F9.965784284662087
sS'/html/body/div/div/div/div/div/div/div/div/div/div/ul/li/div/div/div/section/div/div/div/div/div'
p5
F6.643856189774725
sS'/html/body/div/div/div/div/div/div/div/div/div/div/div/button/span/span'
p6
F0.01449956969511517
sS'/html/body/div/div/div/div/div/div/div/div/div/div/div/span/button/span'
p7
F0.9241251330248724
sS'/html/body/div/div/div/div/div/div/div/div/div/div/div/div/div/div/span/span/span/img'
p8
F9.965784284662087
sS'/html/body/div/div/div/div/div/div/div/div/div/p'
p9
F5.380821783940931
sS'/html/body/div/div/div/div/div/div/div/div/div/div/div/div/ul/li/a'
p10
F3.680382065799839
sS'/html/body/div/div/div/div/div/div/div/div/div/div/h3'
p11
F0.01449956969511517
sS'/html/body/div/div/div/div/div/div/div/div/div/div'
p12
F0.6688680777827979
sS'/html/body/div/div/div/div/div/div/div/div/div/div/ul/li/div/table/tbody/tr/td/span/button'
p13
F3.680382065799839
sS'/html/body/div/div/div/div/div/div/div/div/div/div/div/h1/span/span/span/a'
p14
F1.15200309344505
sS'/html/body/div/div/div/div/div/div/div/div/div/div/div/div/div/p/wbr/wbr/wbr/wbr'
p15
F9.965784284662087
sS'/html/body/iframe'
p16
F4.107803289534515
sS'/html/body/div/div/div/div/div/div/div/div/div/div/ul/li/div/div/div/div/a'
p17
F2.343732465205711
sS'/html/body/div/div/div/div/div/div/div/div/div/div/ul/li/div/div/div/div/div/br'
p18
F2.4188898247744506
sS'/html/body/div/div/div/div/div/div/div/div/div/div/div/div/div/div/div/p/span'
p19
F8.965784284662087
sS'/html/body/div/div/div/div/div/div/div/div/div/div/div/div/div/p/wbr/wbr/wbr/wbr/wbr/wbr/wbr/wbr/wbr/wbr/wbr/wbr/wbr/wbr/wbr/wbr/wbr/wbr/wbr/br'
p20
F9.965784284662087
sS'/html/body/div/div/div/div/form/div/div/div/span'
p21
F8.965784284662087
sS'/html/body/div/div/div/div/div/div/div/div/div/div/ul/li/span'
p22
F4.836501267717121
sS'/html/body/div/div/div/div/div/div/div/div/div/span/button/span/span'
p23
F5.573466861883327
sS'/html/head/link'
p24
F0.0028882793248263526
sS'/html/body/div/div/div/div/div/div/div/div/ul/li/div/form/span/input'
p25
F1.4981787345790896
sS'/html/body/div/div/div/div/div/div/div/div/div/div/div/div/div/div/h2'
p26
F9.965784284662087
sS'/html/body/div/div/div/p/span'
p27
F0.01449956969511517
sS'/html/body/div/div/div/div/div/div/div/div/div/div/ul/li/div/div/div/div/div/div/div/ul/li/div/div/div/h3/a'
p28
F1.905088352974533
sS'/html/body/div/div/div/div/div/div/div/div/div/div/ul/li/a/span/span'
p29
F3.5734668618833267
sS'/html/body/div/div/div/div/div/div/div/div/div/div/div/div/ol/li/ol/li/div/div/div/div/h2/span'
p30
F9.965784284662087
sS'/html/body/div/div/div/div/div/div/div/div/div/div/div/div/span/span'
p31
F1.158429362604483
sS'/html/body/div/div/div/div/div/div/div/div/div/div/ul/li/div/div/div/div/div/div/a'
p32
F5.573466861883327
sS'/html/body/div/div/div/div/div/div/div/div/div/div/ul/li/ul/li/div/div/h3/span'
p33
F5.795859283219775
sS'/html/body/div/div/div/div/div/div/div/div/div/div/div/div/div/div/div/div/span/button'
p34
F8.965784284662087
sS'/html/body/div/div/div/img'
p35
F8.965784284662087
sS'/html/body/div/div/div/div/div/div/div/div/div/div/ul/li/div/div/div/div/div/ul/li/div/div/div/a/span/span/span/span/span'
p36
F4.965784284662088
sS'/html/body/div/div/div/div/div/div/div/div/div/div/div/script'
p37
F1.8836352433082157
sS'/html/body/div/div/div/div/div/div/div/div/div/div/ul/li/span/div/a/span/span/span/img'
p38
F8.380821783940931
sS'/html/body/div/div/div/div/div/div/div/div/div/div/ul/li/div/div/div/div/div/div/div/ul/li/div/div/div/span/a/span/span/span/span'
p39
F1.9827907099677768
sS'/html/body/div/div/div/div/div/div/div/div/div/div/div/div/ol/li/ol/li/div/div/div/div/div/a/span'
p40
F9.965784284662087
sS'/html/body/div/div/div/div/div/div/div/div/div/div/div/div/h3/span/span'
p41
F8.380821783940931
sS'/html/body/div/div/div/div/div/div/div/div/div/div/ul/li/ul/li/div/div/div/a/span/span/span/span/span'
p42
F6.058893689053569
sS'/html/body/div/div/div/div/div/div/div/div/div/div/div/div/div/div/div/div/div/div/div/span/span/button/span'
p43
F9.965784284662087
sS'/html/body/div/div/div/div/form/div/div/div/div/div/input'
p44
F8.965784284662087
sS'/html/body/div/div/div/div/div/div/div/div/div/div/ul/li/ul/li/div/div/div/span/span'
p45
F9.965784284662087
sS'/html/body/div/div/div/div/div/div/div/div/div/div/div/div/ol/li/ol/li/div/div/div/div/ul/li/div/div/div/span/button/span'
p46
F9.965784284662087
sS'/html/head/meta'
p47
F0.0
sS'/html/body/div/div/div/div/form/div/div/div/div/div/label'
p48
F8.965784284662087
sS'/html/body/div/div/div/div/div/div/div/div/div/div/ul/li/ul/li/div/div/span/button/span/span'
p49
F5.795859283219775
sS'/html/body/div/div/div/div/div/div/div/div/div/div/div/ol/li/ol/li/ul/li/span/div/div/div/div/div/div/p/span'
p50
F8.965784284662087
sS'/html/body/div/div/div/div/div/div/div/div/div/div/ul/li/div/div/div/div/div/wbr/a'
p51
F7.380821783940932
sS'/html/body/div/div/div/div/div/div/div/ul/li/button'
p52
F9.965784284662087
sS'/html/body/div/div/div/div/div/div/div/div/h1/img'
p53
F9.965784284662087
sS'/html/body/div/div/div/div/div/div/div/div/div/div/ul/li/div/div/div/div/div/div/button/span/span'
p54
F1.8624964762500653
sS'/html/body/div/div/div/div/div/div/div/div/div/ul/li/span/div/h3/a/span/span'
p55
F2.0469210473874924
sS'/html/body/div/div/div/div/div/div/div/div/div/div/ul/li/div/div/div/div/div/ul/li/div/div/div/div/wbr'
p56
F9.965784284662087
sS'/html/body/div/div/div/div/div/div/div/div/div/div/div/div/ul/li/a/span/span/span/button/ul/li/span'
p57
F2.231074664436249
sS'/html/body/div/div/div/div/div/div/div/div/div/div/div/div/div/div/div/div/span/button/span/span'
p58
F8.965784284662087
sS'/html/body/div/div/div/div/div/div/div/div/div/div/div/div/div/ul/li/div/span'
p59
F1.573466861883327
sS'/html/body/div/div/div/div/div/div/div/div/div/strong'
p60
F9.965784284662087
sS'/html/body/div/div/div/div/div/div/div/div/div/div/ul/li/div/div/div/button/span'
p61
F5.50635266602479
sS'/html/body/span/meta'
p62
F1.4266254735540556
sS'/html/body/div/div/div/div/div/div/div/div/div/div/div/div/div/div/div/div/div/span/div/div/div/div/div'
p63
F8.965784284662087
sS'/html/body/div/div/div/button/span'
p64
F0.00723156923107573
sS'/html/body/div/div/div/div/div/div/div/div/div/div/ul/li/div/div/div/div/div/ul/li/div/div/h3/span'
p65
F7.158429362604482
sS'/html/body/div/div/div/div/div/div/div/div/div/div/ul/li/div/div'
p66
F1.780908941753803
sS'/html/body/div/div/div/div/div/div/div/div/div/div/ul/li/div/div/div/div/div/div/br'
p67
F5.107803289534515
sS'/html/body/div/div/div/div/div/div/div/div/div/div/div/p/span'
p68
F0.9241251330248724
sS'/html/body/div/div/div/div/div/div/div/div/div/div/ul/li/div/table/tbody/tr/td/span/span/button/span'
p69
F3.680382065799839
sS'/html/body/div/div/div/div/div/div/div/div/div/div/div/div/span'
p70
F0.01449956969511517
sS'/html/body/div/div/div/div/div/div/div/div/div/div/div/div/ol/li/ol/li/div/div/div/div/div/div/a/span'
p71
F9.965784284662087
sS'/html/body/div/div/div/div/div/div/div/div/div/div/span/span/span'
p72
F0.9601597354682089
sS'/html/body/div/div/div/div/div/div/div/div/div/div/div/div/div/p/wbr/wbr/wbr/wbr/wbr/wbr/wbr/wbr/wbr/wbr/wbr/wbr/wbr/a'
p73
F9.965784284662087
sS'/html/body/div/div/div/nav/nav/div/button'
p74
F8.380821783940931
sS'/html/head/script'
p75
F0.0028882793248263526
sS'/html/body/div/div/div/div/div/form/div/input'
p76
F0.01449956969511517
sS'/html/body/div/div/div/div/div/div/div/div/div/div/div/div/ol/li/ol/li/div/div/div/div/ul/li/div/div/div/h3/a'
p77
F9.965784284662087
sS'/html/body/div/div/div/div/div/div/div/div/div/div/div/div/a/span/span/span/span'
p78
F8.965784284662087
sS'/html/body/div/div/div/div/div/div/div/div/div/div/div/div/div/p/wbr/wbr/wbr/wbr/wbr/wbr/wbr/wbr/wbr/wbr/wbr/br'
p79
F9.965784284662087
sS'/html/body/div/div/div/div/div/div/div/div/div/div/ul/li/div/div/div/div/div/div/span/button'
p80
F8.380821783940931
sS'/html/body/div/div/div/div/div/div/div/div/div/ol/li/a/div/h4'
p81
F2.434402824145775
sS'/html/body/div/div/div/div/div/div/div/div/div/div/ul/li/div/table/tbody/tr/td/div/a'
p82
F3.7958592832197753
sS'/html/body/div/div/div/div/div/div/div/div/div/div/span/span/div/div/div/div/div/div/div/p/span'
p83
F0.9241251330248724
sS'/html/body/div/div/div/div/div/div/div/div/div/div/div'
p84
F0.03356953269370174
sS'/html/body/div/div/div/div/div/div/div/div/div/div/ul/li/ul/li/div/div/a/span/span/span/img'
p85
F5.795859283219775
sS'/html/body/div/div/div/div/div/div/div/div/div/div/span/span/div/div/div/div/div/div/div'
p86
F0.9241251330248724
sS'/html/body/div/div/div/div/div/button/span/span'
p87
F0.01449956969511517
sS'/html/body/div/div/div/div/div/div/div/div/div/ol/li/span'
p88
F2.434402824145775
sS'/html/body/div/div/div/div/div/div/div/div/div/div/div/div/div/div/div/div/div/span/div/div/div/div/div/div/div'
p89
F8.965784284662087
sS'/html/body/div/div/div/div/div/div/div/div/div/div/ul/li/div/div/div/div/div/wbr/wbr/wbr/wbr/wbr/wbr/wbr/wbr/br'
p90
F9.965784284662087
sS'/html/body/div/div/div/div/div/div/div/div/div/div/ul/li/ul/li/div/div/div/div/ul/li'
p91
F4.680382065799838
sS'/html/body/div/div/div/div/div/div/div/div/div/div/ul/li/div/div/div/section/div/div/div/div/button'
p92
F6.795859283219775
sS'/html/body/div/div/div/div/div/div/div/div/div/div/div/div/span/button/span/span'
p93
F1.158429362604483
sS'/html/body/div/div/div/div/div/div/div/div/div/div/div/div/p'
p94
F8.380821783940931
sS'/html/body/div/div/div/div/div/div/div/div/div/div/ul/li/div/div/div/section/div/div/div/button'
p95
F6.50635266602479
sS'/html/body/div/div/div/div/div/div/div/div/div/div/ul/li/div/div/div/div/div/wbr/wbr/wbr/wbr/a'
p96
F9.965784284662087
sS'/html/body/div/div/div/div/div/div/div/div/div/div/div/div/div/div/span/div/div/div/div/div/div/div/p/span'
p97
F8.965784284662087
sS'/html/body/div/div/div/div/div/div/div/div/div/div/div/div/div/div/div/div/div/div/div/span/button'
p98
F9.965784284662087
sS'/html/body/div/div/div/div/div/div/div/div/div/a'
p99
F9.965784284662087
sS'/html/body/div/div/div/div/div/div/div/div/div/div/ul/li/div/div/div/div/div/ul/li/div/div/div/ul/li/span/span'
p100
F7.158429362604482
sS'/html/body/div/div/div/div/div/div/div/div/div/div/div/div/ul/li/a/span'
p101
F1.857259827883918
sS'/html/body/div/div/div/div/div/div/div/div/div/div/div/div/div/div/span/span/span/span'
p102
F9.965784284662087
sS'/html/body/div/div/div/div/div/div/div/div/div/div/ul/li/div/div/div/div/div/h2/a/span/span/span/span'
p103
F3.457989644463391
sS'/html/body/div/div/div/div/div/div/div/div/div/div/div/div/div/div/span/span'
p104
F8.965784284662087
sS'/html/body/div/div/div/div/div/div/div/div/div/div/ul/li/div/div/div/div/div/ul/li/div/div/div/span/a/span/span/span/span'
p105
F4.293358942690592
sS'/html/body/div/div/div/div/div/div/div/div/div/div/div/div/ol/li/ol/li/div/div/div/div/div/div/span/span'
p106
F9.965784284662087
sS'/html/body/div/div/div/div/div/div/div/div/div/div/div/div/div/p/wbr/wbr/wbr/wbr/wbr/wbr/br'
p107
F8.965784284662087
sS'/html/body/div/div/div/div/div/div/div/div/style'
p108
F1.15200309344505
sS'/html/body/div/div/div/div/div/div/div/div/div/div/ul/li/div/div/div/section/div/div/div/div/span/a'
p109
F6.795859283219775
sS'/html/body/div/div/div/div/div/div/div/div/div/div/img'
p110
F2.1584293626044833
sS'/html/body/div/div/div/div/div/div/div/div/div/div/ul/li/div/div/h3'
p111
F8.965784284662087
sS'/html/body/div/div/div/div/div/div/div/div/div/div/div/div/ol/li/ol/li/div/div/div/div/ul/li/div/div/div/h3/span'
p112
F9.965784284662087
sS'/html/body/div/div/div/div/div/div/div/div/div/div/ul/li/div/div/div/div/div/ul/li/div/div/div/span'
p113
F8.965784284662087
sS'/html/body/div/div/div/div/div/div/div/div/div/div/div/div/div/div/div/div/div/span/div/div/div/span'
p114
F8.965784284662087
sS'/html/body/div/div/div/div/div/div/div/div/div/div/div/div/form/div/span/input'
p115
F8.380821783940931
sS'/html/body/div/div/div/div/div/div/div/div/div/div/ul/li/div/div/div/div/div/div/div/ul/li/span'
p116
F9.965784284662087
sS'/html/body/div/div/div/div/div/div/div/div/div/div/ul/li/div/table/tbody/tr/td/span/a/span/span/span/img'
p117
F3.680382065799839
sS'/html/body/div/div/div/div/div/div/div/div/span/a'
p118
F9.965784284662087
sS'/html/body/div/div/div/div/div/div/div/div/div/div/ul/li/div/table/tbody/tr/td/span/a/span/span/span/span'
p119
F3.680382065799839
sS'/html/body/div/div/div/div/div/div/div/div/div/div/ul/li/div/div/div/div/div/ul/li/div/div/div/a/span/span/span/span'
p120
F4.965784284662088
sS'/html/body/div/div/div/div/div/div/div/div/div/div/ul/li/div/div/div/div/div/ul/li/div/div/div/ul/li/h4/a'
p121
F5.573466861883327
sS'/html/body/div/div/div/div/div/div/div/div/ol/li'
p122
F8.965784284662087
sS'/html/body/div/div/div/div/div/div/div/div/div/div/ul/li/div/div/div/div/div/div/div/ul/li/div/div/div/div/a'
p123
F2.0649174766813383
sS'/html/body/div/div/div/div/div/div/div/div/div/div/ul/li/div/div/div/section/div/div/div'
p124
F6.795859283219775
sS'/html/body/div/div/div/div/div/div/div/div/div/ul/li/span/div/h3/a'
p125
F2.4266254735540556
sS'/html/body/div/div/div/div/div/div/div/div/div/div/div/div/ol/li/ol/li/div/div/div/div/div/div/a'
p126
F9.965784284662087
sS'/html/body/div/div/div/div/div/div/div/div/div/div/ul/li/div/div/div/section/div/div/div/div/a/span/span/span/span'
p127
F6.643856189774725
sS'/html/body/div/div/div/div/div/div/div/div/ul/li'
p128
F8.380821783940931
sS'/html/body/div/div/div/div/div/div/div/div/div/div/ul/li/ul/li/div/div/div/h3/span'
p129
F4.50635266602479
sS'/html/body/div/div/div/div/div/div/div/div/div/div/ul/li/div/div/div/div/div/div/div/ul/li/div/div/a/span/button/span'
p130
F8.380821783940931
sS'/html/body/div/div/div/div/div/div/div/div/div/div/div/div/div/p/wbr/wbr/wbr/wbr/wbr'
p131
F9.965784284662087
sS'/html/body/div/div/div/div/div/div/div/div/div/div/div/div/div/div/div/div/div'
p132
F7.643856189774724
sS'/html/body/div/div/div/div/div/div/div/div/div/div/div/div/div/div/span/div/div/div/div/div/div/div/div/p/span'
p133
F8.965784284662087
sS'/html/body/div/div/div/div/div/span/link'
p134
F9.965784284662087
sS'/html/body/div/div/div/div/div/div/div/div/ol/li/address/br'
p135
F8.965784284662087
sS'/html/body/div/div/div/div/div/div/div/div/div/button/span'
p136
F0.929610672108602
sS'/html/body/div/div/div/div/div/div/div/div/div/div/ul/li/div/div/div/section/div/div/div/div/div/button/span'
p137
F6.50635266602479
sS'/html/body/div/div/div/div/div/div/div/div/div/div/div/div/ol/li/ol/li/div/div/div/div/div/div/h3/span'
p138
F9.965784284662087
sS'/html/body/div/div/div/div/div/div/div/div/div/div/ul/li/div/div/div/section/div/div/div/div/a/span/span/span/img'
p139
F6.643856189774725
sS'/html/body/div/div/div/div/div/div/div/div/div/div/ul/li/div/div/span/button/span'
p140
F9.965784284662087
sS'/html/body/div/div/div/a/span/span'
p141
F0.00723156923107573
sS'/html/body/div/div/div/div/div/div/div/div/div/div/ul/li/div/table/tbody/tr/td/span/button/span'
p142
F3.680382065799839
sS'/html/body/div/div/div/div/div/div/div/div/div/div/ul/li/ul/li/div/div/div/a/span/span/span/span/img'
p143
F6.058893689053569
sS'/html/body/div/div/div/div/div/div/div/div/div/div/div/div/div/p/wbr/br'
p144
F6.965784284662088
sS'/html/body/div/div/div/div/div/div/div/ul/li/div/ul/li/a/span/span/span/span/span/img'
p145
F1.1297339296040172
sS'/html/body/div/div/div/div/div/div/div/ul/li/div/ul/li/a/span/span/span'
p146
F1.1297339296040172
sS'/html/body/div/div/div/div/div/div/div/div/div/div/div/div/div/div/div/div/div/div/div'
p147
F9.965784284662087
sS'/html/body/div/div/div/div/div/div/div/div/div/div/div/div/div/div/div/div/div/h1/span/span/span/a'
p148
F9.965784284662087
sS'/html/body/div/div/div/div/div/div/div/div/div/div/ul/li/div/div/div/div/div/wbr/wbr/a'
p149
F8.380821783940931
sS'/html/body/div/div/div/div/div/div/div/div/div/div/div/div/div/ul/li/span/div/h3'
p150
F0.9241251330248724
sS'/html/body/div/div/div/div/div/div/div/div/div/div/ul/li/a/span'
p151
F1.6038405109268457
sS'/html/body/div/div/div/div/div/div/div/div/div/div/ul/li/div/div/div/div/div/div/div/br'
p152
F8.380821783940931
sS'/html/body/div/div/div/div/form/button/span'
p153
F6.965784284662088
sS'/html/body/div/div/div/div/div/div/div/div/div/div/div/ol/li/ol/li/div/div/div/ul/li/div/div/div/div/button'
p154
F9.965784284662087
sS'/html/body/div/div/div/div/div/div/div/div/div/div/div/div/div/p/wbr/wbr/wbr/wbr/wbr/wbr/wbr/wbr/a'
p155
F9.965784284662087
sS'/html/body/div/div/div/div/div/div/div/div/div/div/div/div/ol/li/ol/li/div/div/div/div/div/div/span/button/span/span'
p156
F9.965784284662087
sS'/html/body/div/div/div/div/div/div/div/div/div/div/div/div/div/p/wbr/wbr/wbr/wbr/wbr/br'
p157
F8.380821783940931
sS'/html/body/div/div/div/div/div/a/span'
p158
F0.015957573902976287
sS'/html/body/div/div/div/div/div/div/div/div/div/div/div/div/div/p/wbr/wbr/wbr/wbr/wbr/wbr/a'
p159
F8.965784284662087
sS'/html/body/div/div/div/div/div/div/div/div/div/div/ul/li/div/div/div/div/div/div/div/ul/li/div/div/div/div/span'
p160
F2.286304185156641
sS'/html/body/div/div/div/div/div/div/div/div/div/div/ul/li/div/div/div/div/div/ul/li/div/div/div/h3/span'
p161
F3.680382065799839
sS'/html/body/div/div/div/div/div/div/img'
p162
F0.9213901653036337
sS'/html/body/div/div/div/div/div/div/div/div/div/div/ul/li/div/div/div/div/div/div/div/ul/li/div/div/h3/a'
p163
F5.107803289534515
sS'/html/body/div/div/div/div/div/div/div/div/div/div/div/strong'
p164
F0.9241251330248724
sS'/html/body/div/div/div/div/div/div/div/div/div/div/div/div/div/span/button/span/span'
p165
F7.643856189774724
sS'/html/body/div/div/div/div/div/div/div/div/div/div/div/div/ol/li/ol/li/div/div/div/div/ul/li/div/div/div/div/ul/li'
p166
F9.965784284662087
sS'/html/body/div/div/div/div/div/div/div/div/div/div/ul/li/div/div/div/div/div/div/div/ul/li/div/div/div/a/span/span/span/span/span/img'
p167
F9.965784284662087
sS'/html/body/div/div/div/div/div/div/div/div/div/div/ul/li/ul/li/div/div/div/div/span'
p168
F6.965784284662088
sS'/html/body/div/span/meta'
p169
F1.4266254735540556
sS'/html/body/div/div/div/div/div/div/div/div/div/div/div/div/ol/li/ol/li/div/div/div/div/div/div/button/span'
p170
F9.965784284662087
sS'/html/body/div/div/div/div/div/div/div/div/div/div/ul/li/div/div/button/span/span/span/span'
p171
F6.643856189774725
sS'/html/body/div/div/div/div/div/div/div/div/div/div/div/div/div/a/span'
p172
F3.680382065799839
sS'/html/body/div/div/div/div/div/div/div/div/div/div/ul/li/div/div/div/div/div/button/span'
p173
F3.7563309190331378
sS'/html/body/div/div/div/div/div/div/div/div/div/div/ul/li/div/div/div/section/div/div/div/div'
p174
F6.50635266602479
sS'/html/body/span/link'
p175
F1.4266254735540556
sS'/html/body/div/div/div/div/div/div/div/div/div/div/ul/li/div/div/div'
p176
F2.231074664436249
sS'/html/body/div/div/div/div/div/div/div/p'
p177
F9.965784284662087
sS'/html/body/div/div/div/div/div/div/div/div/div/div/span/button/ul/li/span'
p178
F0.01449956969511517
sS'/html/body/div/div/div/div/div/div/div/div/div/div/ul/li/div/div/div/div/div/ul/li/div/div/div/span/span'
p179
F6.795859283219775
sS'/html/body/div/div/div/div/div/div/div/div/div/div/ul/li/ul/li/div/div/div/a/span/span/button'
p180
F6.058893689053569
sS'/html/body/div/div/div/div/div/div/div/div/span/meta'
p181
F0.9241251330248724
sS'/html/body/div/div/div/div/div/div/div/div/div/div/div/div/div/div/div/div/div/div/span/a/span/span/span/img'
p182
F9.965784284662087
sS'/html/body/div/div/div/div/div/div/div/div/div/div/ul/li/div/div/div/div/div/wbr/wbr/br'
p183
F7.643856189774724
sS'/html/body/div/div/div/div/div/div/div/div/div/div/ul/li/span/div/h3/span'
p184
F8.380821783940931
sS'/html/body/div/div/div/div/div/div/div/div/div/div/ul/li/div/div/div/div/div/ul/li/div/div'
p185
F3.6620035364849843
sS'/html/body/div/div/div/div/div/div/div/div/div/div/ul/li/div/div/div/div/div/div/div/ul/li/div/div/div/span/span/span'
p186
F1.9827907099677768
sS'/html/body/div/div/div/div/div/div/div/div/div/div/div/div/div/p/wbr/wbr/wbr/wbr/wbr/wbr/wbr/wbr/wbr/wbr/wbr/wbr/wbr/wbr/wbr/a'
p187
F9.965784284662087
sS'/html/body/div/div/div/div/div/div/div/div/div/div/span/span/button/span/span'
p188
F0.9241251330248724
sS'/html/body/div/div/div/div/div/div/div/div/div/div/ul/li/div/div/div/div/div/ul/li/div/div/div/h3/a'
p189
F3.6620035364849843
sS'/html/body/div/div/div/div/div/div/div/div/div/div/ul/li/button/ul/li/span'
p190
F3.5563933485243853
sS'/html/body/div/div/div/div/div/div/div/div/div/div/div/div/div/p/wbr/wbr/wbr/wbr/wbr/wbr/wbr/wbr/wbr/wbr/wbr/wbr/wbr/wbr/wbr/wbr/wbr/br'
p191
F9.965784284662087
sS'/html/body/div/div/div/div/div/div/div/div/div/div/div/span/span/div/div'
p192
F0.9241251330248724
sS'/html/body/div/div/div/div/div/div/div/div/div/div/div/div/ol/li/ol/li/div/div/div/div/div/div/button'
p193
F9.965784284662087
sS'/html/body/div/div/div/div/div/div/div/div/div/button'
p194
F0.9241251330248724
sS'/html/body/div/div/div/div/div/div/div/div/p/a'
p195
F7.158429362604482
sS'/html/body/div/div/div/div/div/div/div'
p196
F0.8836352433082156
sS'/html/body/div/div/div/div/div/div/div/div/div/div/div/div/div/div/div/div/span/b'
p197
F8.965784284662087
sS'/html/body/div/div/div/div/div/div/div/div/div/div/div/img'
p198
F7.158429362604482
sS'/html/body/div/div/div/div/div/div/div/div/div/div/ul/li/div/div/div/div/div/ul/li/div/div/div/div/br'
p199
F4.539519529959989
sS'/html/body/div/div/div/div/div/form/button/span'
p200
F0.015957573902976287
sS'/html/body/div/div/div/div/div/div/ul/li/h3'
p201
F9.965784284662087
sS'/html/body/div/div/div/div/div/div/ul/li/h2'
p202
F1.4305089080412836
sS'/html/body/div/div/div/div/div/div/div/div/div/div/ul/li/div/div/div/div/button/span'
p203
F6.50635266602479
sS'/html/body/div/div/div/div/div/div/div/div/div/div/ul/li/ul/li/div/div/div/span/button'
p204
F5.107803289534515
sS'/html/body/div/div/div/div/div/div/div/div/div/div/div/div/div/p/a'
p205
F1.1046973786666934
sS'/html/body/div/div/div/div/div/div/div/div/div/ol/li/ul/li'
p206
F9.965784284662087
sS'/html/body/div/div/div/div/div/div/div/div/div/div/ul/li/ul/li/div/div'
p207
F4.50635266602479
sS'/html/body/div/div/div/div/div/div/div/div/div/div/div/div/div/p/span'
p208
F9.965784284662087
sS'/html/body/div/div/div/div/div/div/div/div/div/div/ul/li/button/span'
p209
F3.5563933485243853
sS'/html/body/div/div/div/div/div/div/div/div/div/div/div/div/div/div/div/div/div/span/div/div/div/div/div/div/div/p/span'
p210
F8.965784284662087
sS'/html/body/div/div/div/div/div/div/div/div/div/div/ul/li/div/div/div/div/div/div/div/ul/li/div/div/div/span/span'
p211
F6.643856189774725
sS'/html/body/div/div/div/div/div/div/div/div/div/div/div/div/ol/li/ol/li/div/div/div/div/ul/li/div/div/div/a/div/span/img'
p212
F9.965784284662087
sS'/html/body/div/div/div/div/div/div/div/ul/li/p'
p213
F1.1297339296040172
sS'/html/body/div/div/div/div/div/div/div/div/div/div/div/div/div/div/h3/span'
p214
F8.965784284662087
sS'/html/body/div/div/div/div/div/div/div/div/div/div/div/div/div/div/div/div/span/span'
p215
F8.965784284662087
sS'/html/body/div/div/div/div/div/div/div/div/div/div/ul/li/ul/li/div/div/h3/a/span/span'
p216
F5.795859283219775
sS'/html/body/div/div/div/div/div/div/div/ul/li/div/ul/li/a/span/span'
p217
F1.1297339296040172
sS'/html/body/div/div/div/div/div/div/ul/li/img'
p218
F9.965784284662087
sS'/html/body/div/div/div/div/div/div/div/div/div/div/ul/li/div/button/span/span'
p219
F5.442222328605075
sS'/html/body/div/div/div/div/div/div/div/div/div/ol/li/a/span/span/span/img'
p220
F2.434402824145775
sS'/html/body/div/div/div/div/div/div/div/div/div/div/div/div/script'
p221
F9.965784284662087
sS'/html/body/div/div/div/div/div/div/p'
p222
F8.965784284662087
sS'/html/body/div/div/div/div/div/div/div/div/div/div/div/div/p/a'
p223
F8.965784284662087
sS'/html/body/div/div/div/div/div/div/div/div/div/div/ul/li/div/div/div/section/div/div/div/span/span'
p224
F8.965784284662087
sS'/html/body/div/div/div/div/div/div/div/div/div/div/div/ol/li/ol/li/ul/li/span/div/div/div/div/div/div/button/span'
p225
F8.965784284662087
sS'/html/body/div/div/div/div/div/div/div/div/div/div/span'
p226
F0.01449956969511517
sS'/html/body/div/div/div/div/div/div/div/div/div/div/ul/li/div/div/div/div/div/div/div/ul/li/div/div/div/span/span/button/span'
p227
F1.9827907099677768
sS'/html/body/div/div/div/div/div/div/div/button/span/span'
p228
F0.9105018491608974
sS'/html/body/div/div/div/div/div/div/div/div/div/div/div/div/ul/li/div/a/span'
p229
F0.9241251330248724
sS'/html/body/div/div/div/div/div/div/div/div/div/div/ul/li/div/div/div/div/div/ul/li/div/div/div/span/button/span'
p230
F4.293358942690592
sS'/html/body/div/div/div/div/div/div/div/div/div/div/div/div/div/div/div/div/span/span/button/ul/li/span'
p231
F8.965784284662087
sS'/html/body/div/div/div/div/div/div/div/div/div/div/ul/li/div/div/button/span/span'
p232
F6.643856189774725
sS'/html/body/div/div/div/div/div/div/div/div/div/div/ul/li/div/div/div/div/div/div/span/span/button/ul/li/span'
p233
F8.380821783940931
sS'/html/body/div/div/div/div/div/div/div/div/div/ol/li/a'
p234
F9.965784284662087
sS'/html/body/div/div/div/div/div/div/div/div/div/div/ul/li/div/div/div/div/div/ul/li/div/div/div/span/span/button/span'
p235
F4.293358942690592
sS'/html/body/div/div/div/div/div/div/div/div/div/div/div/div/button/span/span/span/span'
p236
F9.965784284662087
sS'/html/body/div/div/div/div/div/div/div/div/div/div/ul/li/div/div/div/div/div/div/div/ul/li/a/h4/span'
p237
F2.0174170530774096
sS'/html/body/div/div/div/div/div/div/div/div/div/div/div/div/div/div/div/div/div/div/span/button/span'
p238
F9.965784284662087
sS'/html/body/div/div/div/div/div/div/div/div/div/div/ul/li/div/div/ul/li/b'
p239
F8.965784284662087
sS'/html/body/div/div/div/div/div/div/div/div/div/div/ul/li/div/div/ul/li/a/span'
p240
F6.643856189774725
sS'/html/body/div/div/div/div/div/div/div/span'
p241
F0.9105018491608974
sS'/html/body/div/div/div/div/div/div/div/div/div/div/ul/li/div/div/div/div/div/div/div/ul/li/div/div/div/a/span/span/button'
p242
F3.590744853315162
sS'/html/body/div/div/div/div/div/div/div/div/div/div/ul/li/div/div/div/section/div/div/div/div/button/span'
p243
F6.795859283219775
sS'/html/body/div/div/div/div/div/div/div/div/div/div/div/div/div/p/wbr/wbr/wbr/wbr/wbr/wbr/wbr/wbr/wbr/wbr/wbr/wbr/wbr/wbr/wbr/wbr/br'
p244
F9.965784284662087
sS'/html/body/div/div/div/div/div/div/div/div/div/div/ul/li/div/div/div/div/div/div/div/ul/li/div/div/a/button/span'
p245
F8.380821783940931
sS'/html/body/div/div/div/div/div/div/div/div/div/div/div/div/ol/li/ol/li/div/div/div/div/div/div/div/ul/li'
p246
F9.965784284662087
sS'/html/body/div/div/div/div/div/div/div/div/div/div/div/div/div/span/div/div/br'
p247
F9.965784284662087
sS'/html/body/div/div/div/div/div/div/div/div/div/div/ul/li/div/div/div/div/div/div/div/ul/li'
p248
F8.380821783940931
sS'/html/body/div/div/div/div/div/div/div/div/div/div/div/div/ol/li/ol/li/div/div/div/div/h2/a/span'
p249
F9.965784284662087
sS'/html/body/div/div/div/div/div/div/div/div/div/div/div/div/ol/li/ol/li/div/div/div/div/div/a/div/span/img'
p250
F9.965784284662087
sS'/html/body/div/div/div/div/div/div/div/div/div/div/div/div/div/div/span/div/div/div/div/div'
p251
F8.965784284662087
sS'/html/body/div/div/div/div/div/div/div/div/div/div/div/div/button/span/span'
p252
F9.965784284662087
sS'/html/body/div/div/div/div/div/div/div/div/div/div/ul/li/div/div/div/div/div/div/div/ul/li/div/div/h3/a/span/span'
p253
F5.058893689053569
sS'/html/body/div/div/div/div/div/div/div/div/div/div/ul/li/div/div/div/div/div/ul/li/div/div/div/div'
p254
F5.210896782498619
sS'/html/body/div/div/div/div/div/div/div/div/div/div/ul/li/div/div/div/div/div/div/span/a/span/span/span/img'
p255
F8.380821783940931
sS'/html/body/div/div/div/div/span/span'
p256
F8.380821783940931
sS'/html/body/div/div/div/div/div/div/div/div/div/div/ul/li/div/div/div/div/div/ul/li/div/div/h3/a'
p257
F7.158429362604482
sS'/html/body/div/div/div/div/div/div/div/div/ul/li/a'
p258
F8.965784284662087
sS'/html/body/div/div/div/div/div/div/div/div/div/div/div/div/ol/li/ol/li/div/div/div/div/ul/li/div/div/div/a/span'
p259
F9.965784284662087
sS'/html/body/div/div/div/div/div/div/div/div/ol/li/p/a'
p260
F8.965784284662087
sS'/html/body/div/div/div/div/div/div/div/div/div/div/a/span/span/span/img'
p261
F0.9241251330248724
sS'/html/body/div/div/div/div/div/div/div/div/div/div/div/h1/span/span'
p262
F8.380821783940931
sS'/html/body/div/div/div/div/div/div/div/div/div/div/ul/li/div/div/div/div/div/div/div/ul/li/div/div/a/button'
p263
F8.380821783940931
sS'/html/body/div/div/div/div/div/div/div/div/ul/li/p'
p264
F9.965784284662087
sS'/html/body/div/div/div/div/div/div/div/div/div/div/div/div/div/div/div/a/span/span/span/span'
p265
F9.965784284662087
sS'/html/body/div/div/div/div/div/div/div/div/div/div/div/div/div/p/wbr/wbr/wbr/wbr/wbr/wbr/wbr/wbr/wbr/wbr/wbr/wbr/wbr/wbr/wbr/wbr/wbr/wbr/br'
p266
F9.965784284662087
sS'/html/body/div/div/div/div/div/div/div/div/div/div/div/div/ol/li/ol/li/div/div/div/div/ul/li/div/div/div/button'
p267
F9.965784284662087
sS'/html/body/div/div/div/div/div/div/div/div/div/div/div/div/div/div/span/div/div/div/div/div/div/div'
p268
F8.965784284662087
sS'/html/body/div/div/div/div/div/div/div/div/ul/li/div/button/span'
p269
F1.4981787345790896
sS'/html/body/div/div/div/div/div/div/div/div/div/div/div/span'
p270
F0.01449956969511517
sS'/html/body/div/div/div/div/div/div/div/div/div/div/ul/li/div/div/ul/li/a/img'
p271
F6.643856189774725
sS'/html/body/div/div/div/div/div/div/div/div/div/div/div/h1/span/a/span'
p272
F1.9213901653036336
sS'/html/body/div/div/div/div/div/div/div/ul/li/hr'
p273
F1.1297339296040172
sS'/html/body/div/div/div/div/div/div/div/div/div/div/ul/li/div/div/div/div/div/div'
p274
F3.0709665213541437
sS'/html/body/div/div/div/div/div/div/div/div/div/p/a'
p275
F4.321928094887363
sS'/html/body/div/div/div/div/div/div/div/div/div/div/ul/li/div/div/div/div/div/div/div/ul/li/div/div/a/span/span/span/span'
p276
F4.573466861883327
sS'/html/body/div/div/div/div/div/div/div/div/div/div/div/div/ol/li/ol/li/div/div/div/div/h2/a/div/div/span/img'
p277
F9.965784284662087
sS'/html/body/div/div/div/div/div/div/div/div/div/div/div/div/div/div/div/div/a/span/span/span/span'
p278
F8.965784284662087
sS'/html/body/div/div/div/div/label'
p279
F8.380821783940931
sS'/html/body/div/div/div/div/div/div/div/div/div/div/ul/li/div/div/div/div/div/h2/a/span'
p280
F1.9434164716336328
sS'/html/body/div/div/div/div/div/div/div/div/div/div/ul/li/div/div/div/div/div/ul/li/div/div/a/span/span/span/span'
p281
F7.158429362604482
sS'/html/body/div/div/div/div/div/div/div/div/div/div/ul/li/div/div/div/div/div/div/div/ul/li/div/div/div/div/ul'
p282
F3.4422223286050744
sS'/html/body/div/div/div/div/div/div/div/div/div/div/div/div/ul/li/a/span/span/span/span/span/b'
p283
F1.8677522017015604
sS'/html/body/div/div/div/div/div/div/div/div/div/div/ul/li/ul/li/div/div/div/span/span/button/span'
p284
F5.107803289534515
sS'/html/body/div/div/div/div/div/div/div/div/div/div/div/div/div/div/span/span/span'
p285
F8.380821783940931
sS'/html/body/div/div/div/div/div/div/div/div/div/div/div/div/ul/li/div/a/span/img'
p286
F0.9241251330248724
sS'/html/body/div/div/div/div/div/div/div/div/div/div/ul/li/div/div/div/div/div/div/div/ul/li/div/div/span/button/span/span'
p287
F4.680382065799838
sS'/html/body/div/div/div/div/div/div/div/div/div/div/div/span/span/button/span'
p288
F0.929610672108602
sS'/html/body/div/div/div/div/div/div/div/div/div/div/div/ol/li/ol/li/ul/li/span/span/button/span'
p289
F8.965784284662087
sS'/html/body/div/div/div/div/div/div/div/div/div/div/div/div/div/div/div'
p290
F7.965784284662087
sS'/html/body/div/div/div/div/div/div/div/div/div/div/div/div/ul/button/span'
p291
F0.9378782880922025
sS'/html/body/div/div/div/div/div/div/div/div/div/div/div/div/ol/li/ol/li/div/div/div/div/div/div/a/div/span/img'
p292
F9.965784284662087
sS'/html/body/div/div/div/div/link'
p293
F8.380821783940931
sS'/html/body/div/div/div/div/div/div/div/div/div/div/ul/li/ul/li/div/div/div/span/button/span'
p294
F5.107803289534515
sS'/html/body/div/div/div/div/div/div/div/div/div/div/div/h1/span/span/span'
p295
F3.473931188332412
sS'/html/body/div/div/div/div/div/div/div/div/div/div/ul/li/ul/li/div/div/div/div/a'
p296
F6.795859283219775
sS'/html/body/div/div/div/div/div/div/div/div/div/div/ul/li/div/table/tbody/tr/td'
p297
F3.680382065799839
sS'/html/body/div/div/div/div/div/div/div/div/div/div/ul/li/ul/li/div/div/div/span/a/span/span/span/span'
p298
F5.107803289534515
sS'/html/body/div/div/div/div/div/div/div/div'
p299
F0.8996950942043147
sS'/html/body/div/div/div/div/div/div/div/div/div/div/div/div/ol/li/ol/li/div/div/div/div/ul/li/div/div/div/div/a'
p300
F9.965784284662087
sS'/html/body/div/div/div/div/div/div/div/div/div/div/ul/li/div/div/h2/span'
p301
F6.50635266602479
sS'/html/body/div/div/div/div/div/div/div/div/div/h3'
p302
F5.50635266602479
sS'/html/body/div/div/div/div/div/div/div/div/div/h2'
p303
F2.0291463456595165
sS'/html/body/div/div/div/div/div/div/div/div/div/div/ul/li/div/div/div/div/div/div/h3/span'
p304
F8.380821783940931
sS'/html/body/div/div/div/div/div/div/div/div/div/div/ul/li/div/div/div/div/div/div/div/ul/li/div/div/div/span/a/span/span/span/img'
p305
F1.9827907099677768
sS'/html/body/div/div/div/div/div/div/div/div/div/div/div/div/div/div/div/div/div/div/div/span/a/span/span/span/img'
p306
F9.965784284662087
sS'/html/body/div/div/div/div/div/div/div/div/div/div/div/div/div/div/div/div/div/h1/span/a/span'
p307
F9.965784284662087
sS'/html/body/div/div/div/div/div/div/div/div/div/ul/li/span/div/div/span/span'
p308
F2.0291463456595165
sS'/html/body/div/div/div/div/div/div/div/div/div/div/div/div/div/div/div/div/span/a/span/span/span/img'
p309
F8.965784284662087
sS'/html/body/div/span/link'
p310
F1.4266254735540556
sS'/html/body/div/meta'
p311
F1.4266254735540556
sS'/html/body/div/div/div/div/div/div/div/div/div/div/div/ol/li/ol/li/ul/li/span/div/div/div/div/div/div'
p312
F8.965784284662087
sS'/html/body/div/div/div/div/div/div/div/div/div/div/div/ol/li/ol/li/ul/li/span/div/div/div/div/div/p'
p313
F8.965784284662087
sS'/html/body/div/div/a'
p314
F0.00723156923107573
sS'/html/body/div/div/div/div/div/div/div/div/div/div/div/div'
p315
F0.32192809488736235
sS'/html/body/style'
p316
F2.15200309344505
sS'/html/body/div/div/div/div/div/div/div/div/ul/li/a/span'
p317
F1.1713684183119812
sS'/html/body/div/div/div/div/div/div/div/div/div/div/div/div/ul/li/div/a/span/span'
p318
F0.9241251330248724
sS'/html/body/div/div/div/div/div/div/div/div/div/ul/li/span/div/a/span/span/span/span'
p319
F2.0291463456595165
sS'/html/body/div/div/div/div/div/div/div/div/div/div/ul/li/div/div/div/div/div/wbr/wbr/wbr/wbr/wbr/wbr/br'
p320
F8.380821783940931
sS'/html/body/div/div/div/div/div/div/div/div/div/ol/li/a/div/span'
p321
F5.717856771218502
sS'/html/body/div/div/div/div/div/a/span/span'
p322
F9.965784284662087
sS'/html/body/div/div/div/div/div/div/div/div/ol/li/address/span'
p323
F8.965784284662087
sS'/html/body/div/div/div/div/div/div/div/div/div/div/div/div/div/p/wbr/wbr/wbr/wbr/wbr/wbr/wbr/wbr/wbr/wbr/wbr/wbr/wbr/wbr/wbr/wbr/wbr/wbr/wbr/wbr/wbr/a'
p324
F9.965784284662087
sS'/html/body/div/div/div/div/div/div/div/div/div/div/ul/li/div/table/tbody/tr/td/div/span'
p325
F9.965784284662087
sS'/html/body/div/div/div/div/div/div/div/div/div/div/ul/li/ul/li/div/div/div/a/span/span/span/span/span/b'
p326
F6.058893689053569
sS'/html/body/div/div/div/div/div/div/div/div/div/div/ul/li/div/div/div/div/div/div/span/a/span/span/span/span'
p327
F8.380821783940931
sS'/html/body/div/div/div/div/div/div/ul/li/span'
p328
F9.965784284662087
sS'/html/body/div/div/div/div/div/div/div/div/div/div/div/div/div/p/wbr/wbr/wbr/wbr/wbr/wbr/wbr/a'
p329
F9.965784284662087
sS'/html/body/div/div/div/div/div/div/div/div/div/div/ul/li/div/div/div/div/div/ul/li/div/div/div/div/ul'
p330
F6.380821783940931
sS'/html/body/div/div/div/div/div/div/div/div/div/div/div/div/div/div/div/a/span/span/span/img'
p331
F9.965784284662087
sS'/html/body/div/div/div/div/div/div/div/div/div/div/div/div/div/span/br'
p332
F8.965784284662087
sS'/html/body/div/div/div/div/div/div/div/div/div/div/div/div/div/p/wbr/wbr/wbr/wbr/wbr/wbr/wbr/wbr/wbr/wbr/wbr/wbr/wbr/wbr/a'
p333
F9.965784284662087
sS'/html/body/div/div/div/div/div/div/div/div/div/div/ul/li/div/div/div/div/div/ul/li/div/div/div/ul/li'
p334
F7.380821783940932
sS'/html/body/div/span/span/meta'
p335
F9.965784284662087
sS'/html/body/div/div/div/div/div/div/div/div/div/div/ul/li/div/div/div/div/div/ul/li/div/div/div/br'
p336
F9.965784284662087
sS'/html/body/div/div/div/div/div/div/div/div/ol/li/p'
p337
F9.965784284662087
sS'/html/body/div/div/div/div/div/div/div/div/div/ol/li/a/span/span/span/span'
p338
F2.434402824145775
sS'/html/body/div/div/div/div/div/div/div/div/div/div/div/div/div/span/input'
p339
F1.573466861883327
sS'/html/body/div/div/div/div'
p340
F0.011587974275211823
sS'/html/body/div/div/div/div/div/div/div/div/div/div/div/div/div/p/wbr/wbr/wbr/wbr/wbr/wbr/wbr/wbr/wbr/wbr/wbr/wbr/wbr/wbr/wbr/wbr/wbr/wbr/wbr/wbr/wbr/br'
p341
F9.965784284662087
sS'/html/body/div/div/div/button'
p342
F0.01449956969511517
sS'/html/body/div/div/div/div/div/div/div/div/div/div/div/div/div/p/wbr/wbr/wbr/wbr/wbr/wbr/wbr/wbr/wbr/wbr/wbr/wbr/wbr/wbr/wbr/wbr/wbr/wbr/wbr/wbr/wbr/wbr/a'
p343
F9.965784284662087
sS'/html/body/div/div/div/div/div/div/div/div/div/div/div/div/ol/li/ol/li/div/div/div/div/ul/li/div/div/div/button/span'
p344
F9.965784284662087
sS'/html/body/div/div/div/div/div/div/div/div/div/div/ul/li/ul/li/div/div/div/a/span/span/span/button/ul/li/span'
p345
F6.058893689053569
sS'/html/body/div/div/div/div/form/input'
p346
F8.965784284662087
sS'/html/body/div/div/div/div/div/div/div/div/ol/li/a'
p347
F9.965784284662087
sS'/html/body/div/div/div/div/div/div/div/div/div/div/ul/li/div/div/div/div/div/ul/li/div/div/div/span/span/button/ul/li/span'
p348
F4.293358942690592
sS'/html/body/div/div/div/div/div/div/div/div/div/div/div/div/div/p/wbr/wbr/wbr/wbr/a'
p349
F8.380821783940931
sS'/html/body/div/div/div/div/div/div/div/div/div/div/ul/li/div/div/div/div/div/div/wbr/wbr/wbr/wbr/wbr'
p350
F8.965784284662087
sS'/html/body/div/div/div/h3'
p351
F0.01449956969511517
sS'/html/body/div/div/div/div/div/div/div/div/div/div/ul/script'
p352
F1.4266254735540556
sS'/html/body/div/div/div/h1'
p353
F8.965784284662087
sS'/html/body/div/div/div/div/div/div/div/div/div/div/div/div/ol/li/ol/li/div/div/div/div/div/h3/span'
p354
F9.965784284662087
sS'/html/body/div/div/div/div/div/div/div/div/div/div/ul/li/div/div/div/section/div/div/div/div/div/div/div/a'
p355
F7.380821783940932
sS'/html/body/div/div/div/div/div/div/div/div/div/div/div/ol/li/ol/li/div/div/div/ul/li/div/div/div/div/div/br'
p356
F9.965784284662087
sS'/html/body/div/div/div/div/div/div'
p357
F0.011587974275211823
sS'/html/body/div/div/div/ul/li'
p358
F0.008682243099800773
sS'/html/body/div/div/div/div/div/div/div/div/div/div/ul/li/ul/li/div/div/div/span/span/span'
p359
F5.107803289534515
sS'/html/body/div/div/div/div/div/div/div/div/div/div/ul/li/div/div/div/div/div/div/div/ul/li/div/div/div/span/span/button/ul/li/span'
p360
F1.9827907099677768
sS'/html/body/div/div/div/div/div/div/div/div/div/div/ul/li/ul/li/div/div/a/span/span/span/span'
p361
F5.795859283219775
sS'/html/body/div/div/div/div/div/div/div/div/div/div/div/div/div/div/div/div/span/button/span'
p362
F8.965784284662087
sS'/html/body/div/div/div/div/div/div/div/div/div/div/ul/li/div/div/div/section/div/div/div/div/div/div/div/div/button/span'
p363
F6.643856189774725
sS'/html/body/div/div/div/div/div/div/div/div/div/div/ul/li/ul/li/div/div/div/a/span/span/span/span'
p364
F6.058893689053569
sS'/html/body/div/script'
p365
F9.965784284662087
sS'/html/body/div/div/div/div/div/div/div/div/div/div/div/div/ul/li/a/span/span/span/span/img'
p366
F1.8677522017015604
sS'/html/body/div/div/div/div/div/div/div/div/div/ol/li/a/div/span/span'
p367
F2.434402824145775
sS'/html/body/div/div/div/div/div/div/div/div/div/div/ul/li/div/div/div/div/div/ul/li/div/div/a/span/span/span/img'
p368
F7.158429362604482
sS'/html/body/div/div/div/div/div/div/div/div/div/div/h4/strong'
p369
F7.643856189774724
sS'/html/body/div/div/div/ul/li/span'
p370
F9.965784284662087
sS'/html/body/div/div/div/div/div/div/div/div/div/div/div/div/ol/li/ol/li/div/div/div/button/span/span'
p371
F9.965784284662087
sS'/html/body/div/div/div/div/div/div/div/div/div/div/ul/li/div/div/div/div/div/div/div/ul/li/div/div/div/ul'
p372
F8.380821783940931
sS'/html/body/div/div/div/div/div/div/div/div/div/div/div/ol/li/ol/li/div/div/div/ul/li/div/div/div/div/h3/span'
p373
F9.965784284662087
sS'/html/body/div/div/div/div/div/div/div/div/div/div/ul/li/div/div/div/section/div/div/div/button/span'
p374
F6.50635266602479
sS'/html/body/div/div/div/div/div/div/div/div/div/div/ul/li/div'
p375
F8.380821783940931
sS'/html/body/div/div/div/div/div/div/div/div/div/div/ul/li/div/div/div/div/div/div/div/ul/li/div/div/a/span/button/ul/li/span'
p376
F8.380821783940931
sS'/html/body/div/div/div/div/div/div/div/div/div/div/div/ol/li/ol/li/ul/li/button/span'
p377
F8.965784284662087
sS'/html/body/div/div/div/div/div/div/div/div/div/div/div/div/div/div/div/div/div/p/span'
p378
F8.380821783940931
sS'/html/body/div/div/div/div/div/div/div/div/div/div/div/div/div/div/div/div/p'
p379
F9.965784284662087
sS'/html/body/div/div/div/ul/li/a'
p380
F0.0
sS'/html/body/div/div/div/button/span/span'
p381
F0.00723156923107573
sS'/html/body/div/div/div/div/div/div/div/div/div/div/ul/li/div/div/div/div/div/div/h3/a'
p382
F8.380821783940931
sS'/html/body/div/div/div/div/div/div/div/div/div/div/ul/li/div/div/div/div/div/ul/li/div/div/div/a/span/span/span/span/span/b'
p383
F4.965784284662088
sS'/html/body/div/div/div/div/div/div/div/div/div/div/div/div/ol/li/ol/li/div/div/div/div/div/div/span/button/ul/li/span'
p384
F9.965784284662087
sS'/html/body/div/div/div/div/div/div/div/div/div/div/div/div/h3/a/span'
p385
F8.965784284662087
sS'/html/body/div/div/div/div/div/div/div/div/div/div/ul/li/div/div/div/div/div/ul/li/div/div/div/div/ul/li'
p386
F3.77595972578207
sS'/html/body/div/div/div/div/div/div/div/div/div/div/ul/li/ul/li/div/div/div/span/span/button/ul/li/span'
p387
F5.107803289534515
sS'/html/body/div/div/div/div/div/div/div/div/link'
p388
F0.9241251330248724
sS'/html/body/div/div/div/div/div/div/div/div/div/div/div/div/ol/li/ol/li/div/div/div/div/div/button/span'
p389
F9.965784284662087
sS'/html/body/div/div/div/div/div/div/div/div/div/div/ul/li/div/div/div/div/div/ul/li/div/div/div'
p390
F7.380821783940932
sS'/html/body/div/div/div/div/div/div/p/span'
p391
F0.01449956969511517
sS'/html/body/div/div/div/div/div/div/div/div/div/div/div/h3'
p392
F4.321928094887363
sS'/html/body/div/div/div/div/div/div/div/div/div/div/h2'
p393
F8.380821783940931
sS'/html/body/div/div/div/div/div/div/div/div/div/div/ul/li/span/div/h3/a'
p394
F8.380821783940931
sS'/html/body/div/div/div/div/div/div/div/div/div/div/div/div/div/span/div/div/button/span/img'
p395
F9.965784284662087
sS'/html/body/div/div/div/div/div/span/a/span'
p396
F0.6393547975397839
sS'/html/body/div/div/div/div/div/div/div/div/meta'
p397
F0.9241251330248724
sS'/html/body/div/div/div/div/div/div/div/div/div/div/div/div/div/div/div/div/a/span/span/span/img'
p398
F8.965784284662087
sS'/html/body/div/div/div/div/div/div/div/div/div/div/div/div/ul/li'
p399
F3.680382065799839
sS'/html/body/div/div/div/div/div/div/div/div/div/div/div/div/div/p/wbr/wbr/br'
p400
F7.380821783940932
sS'/html/body/div/div/div/div/div/div/div/div/div/div/ul/li/div/div/div/div/div/ul/li/div/div/div/a/span/span/button'
p401
F4.965784284662088
sS'/html/body/div/div/div/div/div/div/div/div/div/div/div/div/ol/li/ol/li/div/div/div/div/ul/li/div/div/div/span/button/ul/li/span'
p402
F9.965784284662087
sS'/html/body/div/div/div/div/div/div/div/div/div/div/ul/li/div/div/div/div/span'
p403
F2.2515387669959646
sS'/html/body/div/div/div/div/div/div/div/div/div/div/ul/li/div/div/div/div/div/ul/li/div/div/div/ul'
p404
F9.965784284662087
sS'/html/body/div/div/div/div/div/div/div/div/div/div/span/span/div/div/div/div/div'
p405
F0.9241251330248724
sS'/html/body/div/div/div/div/div/div/div/div/div/div/div/span/div/h3'
p406
F0.9213901653036337
sS'/html/body/div/div/div/div/div/div/div/div/div/div/div/ul/li/span'
p407
F2.8262329322632938
sS'/html/body/div/div/div/div/div/div/div/div/div/div/ul/li/div/div/div/div/div/div/span/span/button/span'
p408
F8.380821783940931
sS'/html/body/div/div/div/div/div/div/div/div/div/div/div/ol/li/ol/li/div/div/div/ul/li/div/div/div/div/div/span'
p409
F9.965784284662087
sS'/html/body/div/div/div/div/div/div/div/div/div/div/ul/li/div/div/div/div/div/ul/li/div/div/div/div/a'
p410
F3.921390165303634
sS'/html/body/script'
p411
F0.0
sS'/html/body/div/div/div/div/div/div/div/div/div/div/ul/li/div/div/div/div/div/div/span/button/span'
p412
F8.380821783940931
sS'/html/body/div/div/div/div/div/div/div/div/div/div/div/ol/li/ol/li/div/div'
p413
F9.965784284662087
sS'/html/body/div/div/div/div/div/div/div/div/h4'
p414
F8.965784284662087
sS'/html/body/div/div/div/div/div/div/div/div/h2'
p415
F7.965784284662087
sS'/html/body/div/div/div/div/div/div/div/div/div/div/ul/li/div/div/div/span/b/a'
p416
F8.380821783940931
sS'/html/body/div/div/div/div/div/div/div/div/div/div/ul/li/div/div/div/section/div/div/div/button/span/span'
p417
F6.643856189774725
sS'/html/body/div/form/input'
p418
F0.00723156923107573
sS'/html/body/div/div/div/div/div/div/div/div/div/div/div/hr'
p419
F1.5479317697761892
sS'/html/body/div/div/div/div/div/div/div/div/div/div/ul/li/div/div/a/span/span/span/span/img'
p420
F8.380821783940931
sS'/html/body/div/div/div/div/div/div/div/div/div/div/div/ol/li/ol/li/ul/li/span/div/div/div/div/div/div/div/p/span'
p421
F8.965784284662087
sS'/html/body/div/div/div/div/div/div/div/div/div/div/div/div/div/ul/li/span/div/div'
p422
F0.9241251330248724
sS'/html/body/div/div/div/div/div/div/div/div/div/div/div/div/ol/li/ol/li/div/div/div/div/div/span/button/ul/li/span'
p423
F9.965784284662087
sS'/html/body/div/div/div/div/div/div/div/div/div/div/div/div/ul/li/a/span/span'
p424
F2.888968687611256
sS'/html/body/div/div/div/div/div/div/div/div/div/div/ul/li/div/div/div/div/div/div/div/ul/li/div/div/div/span'
p425
F7.965784284662087
sS'/html/body/div/div/div/div/div/div/div/img'
p426
F1.0291463456595165
sS'/html/body/div/div/div/div/div/div/div/div/ul/li/div/p/a'
p427
F9.965784284662087
sS'/html/body/div/div/div/div/div/div/div/div/div/div/div/div/ol/li/ol/li/div/div/div/div/div'
p428
F9.965784284662087
sS'/html/body/div/div/div/div/div/div/div/div/div/div/div/div/div/p/wbr/wbr/wbr/wbr/wbr/wbr/wbr/wbr/wbr/a'
p429
F9.965784284662087
sS'/html/body/div/div/div/div/div/div/div/button/span'
p430
F0.9105018491608974
sS'/html/body/div/div/div/div/div/div/div/div/div/div/ul/li/div/div/div/div/div/div/div/ul/li/div/div'
p431
F1.905088352974533
sS'/html/body/div/div/div/div/div/div/div/div/div/ol/li'
p432
F9.965784284662087
sS'/html/body/div/div/div/ul/li/button/span'
p433
F0.00723156923107573
sS'/html/body/div/div/div/div/div/div/div/div/div/div/span/a'
p434
F9.965784284662087
sS'/html/body/div/div/div/div/div/div/div/div/div/div/ul/li/div/div/div/div/div'
p435
F1.7661119398257226
sS'/html/body/div/div/div/div/div/div/div/div/div/script'
p436
F2.434402824145775
sS'/html/body/div/div/div/div/div/div/div/div/div/div/div/div/div/div/span/div/div/div/div/div/div/div/div'
p437
F8.965784284662087
sS'/html/body/div/div/div/div/div/div/div/div/div/div/div/div/h4'
p438
F1.573466861883327
sS'/html/body/div/div/div/div/div/div/div/div/div/div/div/div/h3'
p439
F9.965784284662087
sS'/html/body/div/div/div/div/div/div/div/div/div/div/div/div/h1'
p440
F3.680382065799839
sS'/html/body/div/div/div/div/div/div/div/div/div/div/ul/li/div/div/div/div'
p441
F2.1648843847417822
sS'/html/body/div/div/div/div/div/div/div/div/div/div/ul/li/div/div/div/div/div/ul/li/div/div/div/span/span/span'
p442
F4.321928094887363
sS'/html/body/div/div/div/div/form/label/input'
p443
F8.380821783940931
sS'/html/body/div/div/div/div/div/span/meta'
p444
F9.965784284662087
sS'/html/body/div/div/div/div/div/div/div/div/div/a/img'
p445
F1.15200309344505
sS'/html/body/div/div/div/div/div/div/div/div/div/div/div/h2'
p446
F2.265344566520995
sS'/html/body/div/div/div/div/div/div/div/div/div/div/div/div/ol/li/ol/li/div/div/div/div/h2/span/b/a'
p447
F9.965784284662087
sS'/html/body/div/div/button'
p448
F7.643856189774724
sS'/html/body/div/div/div/div/div/div/div/div/div/div/ul/li/div/div/div/section/div/a/span/span/span/img'
p449
F6.50635266602479
sS'/html/body/div/div/div/div/div/div/div/div/div/div/div/div/a'
p450
F3.680382065799839
sS'/html/body/div/div/div/div/div/div/div/div/div/div/div/div/div/div/div/div/div/span/div/div/div/div/div/div/div/div'
p451
F8.965784284662087
sS'/html/body/div/div/div/div/div/div/div/div/div/div/div/ol/li/ol/li/div/div/div/ul/li/div/div/div/div/span/button/ul/li/span'
p452
F9.965784284662087
sS'/html/body/div/div/div/div/div/div/div/div/div/div/ul/li/div/div/div/span/span'
p453
F8.380821783940931
sS'/html/body/div/div/div/div/div/div/div/div/div/div/div/div/ul/li/a/span/span/span/span'
p454
F1.8677522017015604
sS'/html/body/div/div/div/div/div/div/div/div/div/div/ul/li/div/div/div/section/div/div/div/span'
p455
F6.50635266602479
sS'/html/body/div/div/div/div/img'
p456
F8.965784284662087
sS'/html/body/div/div/div/div/div/div/div/div/div/div/div/div/div/div/div/div/div/div/div/span/span'
p457
F9.965784284662087
sS'/html/body/div/div/div/div/p/span'
p458
F0.00723156923107573
sS'/html/body/div/div/div/div/div/div/div/div/div/div/div/ol/li/ol/li/div/div/div/div/h2/span'
p459
F9.965784284662087
sS'/html/body/div/div/div/div/div/div/div/div/div/div/div/div/div/div/div/div/div/div/div/span/button/span'
p460
F9.965784284662087
sS'/html/body/div/div/div/div/div/div/div/div/div/div/div/div/div/div/p'
p461
F8.965784284662087
sS'/html/body/div/div/div/div/div/div/div/div/div/div/div/div/ol/li/ol/li/div/div/div/div/div/div/ul/li'
p462
F9.965784284662087
sS'/html/body/div/div/div/div/div/div/div/div/div/div/div/div/div/strong'
p463
F0.9241251330248724
sS'/html/body/div/div/div/div/div/div/div/div/div/div/ul/li/div/div/div/section/div/div/div/button/span/span/span/span'
p464
F6.643856189774725
sS'/html/body/div/div/div/div/div/div/div/div/div/div/div/div/div/ul/li/ul/li'
p465
F0.9241251330248724
sS'/html/body/div/div/div/div/div/div/div/div/div/div/span/span/div/div/div/div/div/div/div/div'
p466
F0.9241251330248724
sS'/html/body/div/div/div/div/div/div/div/div/div/div/ul/li/div/div/div/div/div/wbr/wbr/wbr/br'
p467
F7.965784284662087
sS'/html/body/div/div/div/div/div/div/div/div/div/div/ul/li/div/div/div/div/div/ul/li/a/h4/span'
p468
F4.351074440546879
sS'/html/body/div/div/div/div/div/div/div/div/div/div/ul/li/div/div/div/div/div/div/div/ul/li/div/div/div/a/span/span/span/span/span'
p469
F3.590744853315162
sS'/html/body/div/div/div/div/div/div/div/div/div/div/ul/li/div/div/div/section/div/div/div/div/div/b'
p470
F9.965784284662087
sS'/html/body/div/div/div/div/div/div/div/div/div/div/ul/li/div/div/div/section/div/div/div/div/div/a'
p471
F8.965784284662087
sS'/html/body/div/div/div/div/div/div/div/div/div/div/div/div/div/span/div/h3'
p472
F3.680382065799839
sS'/html/body/div/div/div/div/div/div/div/div/div/div/div/div/div/p/wbr/wbr/wbr/wbr/wbr/wbr/wbr/wbr/wbr/wbr/wbr/wbr/wbr/wbr/wbr/wbr/wbr/wbr/wbr/a'
p473
F9.965784284662087
sS'/html/body/div/div/div/div/div/div/div/div/div/div/div/div/span/div/div/div/span'
p474
F1.4819685073978306
sS'/html/body/div/div/div/div/div/div/div/div/span'
p475
F7.965784284662087
sS'/html/body/div/div/div/div/div/div/div/div/div/div/div/div/div/div/div/div/span/span/button/span'
p476
F8.965784284662087
sS'/html/body/div/div/div/div/div/div/div/div/div/div/div/div/div/div/div/div/div/div/div/span/a/span/span/span/span'
p477
F9.965784284662087
sS'/html/body/div/div/div/div/div/div/div/div/div/div/div/div/div/div/div/div/h3'
p478
F9.965784284662087
sS'/html/body/div/div/div/div/div/div/div/div/div/div/div/div/span/div/div/div/div/div/div/div'
p479
F1.4819685073978306
sS'/html/body/div/div/div/div/div/div/div/div/div/div/div/div/h3/span/a/span'
p480
F9.965784284662087
sS'/html/body/div/div/div/div/div/div/div/div/div/div/ul/li/button/span/span/span/span'
p481
F4.836501267717121
sS'/html/body/div/div/div/div/div/div/div/ol/li/a'
p482
F7.965784284662087
sS'/html/body/div/div/div/div/div/div/div/div/div/ul/li/span/div/h3/span'
p483
F2.0291463456595165
sS'/html/body/div/div/div/div/div/div/div/div/div/div/div/div/div/ul/li/span/a/img'
p484
F5.643856189774724
sS'/html/body/div/div/div/div/div/div/div/div/div/div/div/div/div/p/wbr/wbr/wbr/wbr/wbr/a'
p485
F8.965784284662087
sS'/html/body/div/div/div/div/div/div/div/div/div/div/div/div/div/div/div/div/div/div/span/button'
p486
F9.965784284662087
sS'/html/body/div/div/div/span/a/img'
p487
F8.380821783940931
sS'/html/body/div/div/div/div/div/div/div/div/div/div/div/div/span/div/div/div/div/div/div/div/p/span'
p488
F1.4819685073978306
sS'/html/body/div/div/div/div/div/div/div/div/div/div/ul/li/div/div/span'
p489
F5.573466861883327
sS'/html/body/div/div/div/div/div/div/div/div/p/span'
p490
F7.643856189774724
sS'/html/body/div/div/div/div/div/div/div/div/div/div/div/div/div/div/button/span'
p491
F9.965784284662087
sS'/html/body/div/div/div/div/div/div/div/div/div/div/div/div/div/div/div/div'
p492
F8.965784284662087
sS'/html/body/div/div/div/div/div/div/div/div/div/div/ul/li/ul/li/div/div/div/div/ul/li/span'
p493
F6.158429362604484
sS'/html/body/div/div/div/div/a/img'
p494
F8.380821783940931
sS'/html/body/div/div/div/div/div/div/div/div/div/div/ul/li/div/div/div/div/div/div/div/ul/li/div/div/div/div/ul/li/span'
p495
F2.84684321193858
sS'/html/body/div/div/div/div/div/div/div/div/div/div/ul/li/ul/li/div/div/div/span/a/span/span/span/img'
p496
F5.107803289534515
sS'/html/body/div/div/div/div/div/div/div/div/div/div/div/div/p/strong'
p497
F7.643856189774724
sS'/html/body/div/div/div/div/div/div/div/div/div/div/ul/li/div/div/div/div/div/div/div/ul/li/div/div/div/a/span/span/span/span/span/span'
p498
F9.965784284662087
sS'/html/body/div/div/div/div/div/div/div/div/div/div/div/div/div/div/div/div/p/span'
p499
F9.965784284662087
sS'/html/body/div/div/div/div/div/div/div/div/div/div/ul/li/div/div/div/div/div/ul/li/div/div/div/div/span'
p500
F4.539519529959989
sS'/html/body/div/div/div/div/div/div/div/div/div/div/div/ol/li/ol/li/ul/li/span/div/div/div/div/div/h2'
p501
F8.965784284662087
sS'/html/body/div/div/div/div/div/div/div/div/div/div/div/div/div/span/div/div/p/span'
p502
F3.680382065799839
sS'/html/body/div/div/div/div/div/div/div/div/div/div/div/div/div/p'
p503
F4.442222328605075
sS'/html/body/div/div/div/div/div/div/div/div/div/div/ul/li/div/div/div/section/div/div/div/div/div/div/span/a'
p504
F6.643856189774725
sS'/html/body/div/div/div/div/div/div/div/div/div/div/div/div/button/span'
p505
F0.9159357352115255
sS'/html/body/div/div/div/div/div/div/div/div/div/div/div/div/div/div/div/div/span'
p506
F9.965784284662087
sS'/html/body/span/span/meta'
p507
F9.965784284662087
sS'/html/body/div/div/div/div/div/div/div/div/div/div/ul/li/ul/li/div/div/span/span'
p508
F5.795859283219775
sS'/html/body/div/div/div/div/div/div/div/div/div/div/ul/li/div/div/div/section/div/div/div/span/a'
p509
F6.50635266602479
sS'/html/body/div/div/div/div/div/div/div/div/div/div/div/div/ol/li/ol/li/div/div/div/div/div/h3/a'
p510
F9.965784284662087
sS'/html/body/div/div/div/div/div'
p511
F0.00723156923107573
sS'/html/body/div/div/div/div/div/div/div/div/div/div/div/div/div/p/wbr/wbr/wbr/wbr/wbr/wbr/wbr/wbr/wbr/wbr/wbr/wbr/wbr/wbr/br'
p512
F9.965784284662087
sS'/html/body/div/div/div/div/div/div/div/div/div/div/ul/li/div/div/div/div/div/ul/li/div/div/div/div/ul/li/span'
p513
F6.643856189774725
sS'/html/body/div/div/div/div/div/div/div/div/div/div/div/div/div/p/wbr/wbr/wbr/wbr/wbr/wbr/wbr/wbr/wbr/wbr/wbr/wbr/a'
p514
F9.965784284662087
sS'/html/body/div/div/div/div/div/div/div/div/div/div/div/ul/li/a'
p515
F2.8262329322632938
sS'/html/body/div/div/div/div/div/div/div/div/div/div/div/ol/li/ol/li/div/div/div/ul/li/div/div/div/div/button/span'
p516
F9.965784284662087
sS'/html/body/div/div/div/div/div/div/div/div/div/div/div/div/p/span'
p517
F0.9241251330248724
sS'/html/body/div/div/div/div/div/div/div/div/div/div/ul/li/div/div/div/div/div/wbr/wbr/wbr/wbr/wbr/wbr/a'
p518
F8.965784284662087
sS'/html/body/div/div/div/div/div/div/div/div/div/div/div/div/ol/li/ol/li/div/div/div/div/div/div/span/button/span'
p519
F9.965784284662087
sS'/html/body/div/div/div/div/div/div/div/div/div/div/ul/li/div/div/div/section/div/div/div/div/div/div/button/span'
p520
F6.643856189774725
sS'/html/body/div/div/div/ul/li/button/span/span'
p521
F0.00723156923107573
sS'/html/body/div/div/div/div/div/div/div/div/div/div/div/div/div/div'
p522
F0.9268652953697848
sS'/html/body/div/div/div/div/div/div/div/div/div/div/div/div/div/p/br'
p523
F1.0709665213541435
sS'/html/body/div/div/div/div/div/div/div/div/div/div/ul/li/div/div/div/section/div/div/div/a'
p524
F6.50635266602479
sS'/html/body/div/div/div/div/div/div/div/div/div/div/div/div/div/p/wbr/wbr/wbr/wbr/wbr/wbr/wbr/wbr/wbr/wbr/a'
p525
F9.965784284662087
sS'/html/body/div/div/div/div/div/div/div/div/div/div/div/div/span/span/span/span'
p526
F8.380821783940931
sS'/html/body/div/div/div/div/div/div/div/div/div/div/div/div/ul/li/div/span'
p527
F0.9241251330248724
sS'/html/body/div/div/div/div/div/div/div/div/div/div/div/div/div/div/div/h1/span/a/span'
p528
F8.965784284662087
sS'/html/body/div/div/div/div/div/div/a'
p529
F9.965784284662087
sS'/html/body/div/div/div/div/div/div/div/div/ul/li/div/ul/li'
p530
F9.965784284662087
sS'/html/body/div/div/div/div/div/div/div/div/div/div/div/div/div/div/p/a'
p531
F9.965784284662087
sS'/html/body/div/div/div/div/div/div/div/div/div/div/ul/li/div/div/div/div/div/ul/li/div/div/div/a/span/span/span/button/span'
p532
F4.965784284662088
sS'/html/body/div/div/div/div/div/div/div/div/div/div/div/span/span/button'
p533
F2.49817873457909
sS'/html/body/div/div/div/div/div/div/div/div/div/div/ul/li/div/div/div/div/div/wbr/wbr/wbr/a'
p534
F8.965784284662087
sS'/html/body/div/div/div/div/div/div/div/div/div/div/div/div/ul/li/div/button'
p535
F9.965784284662087
sS'/html/body/div/div/div/div/div/div/div/div/div/div/div/ol/li/ol/li/ul/li/span/div/div/div/div/div/button/span'
p536
F8.965784284662087
sS'/html/body/div/div/div/div/div/div/div/div/div/div/ul/li/div/div/div/div/div/div/span/span/span'
p537
F8.380821783940931
sS'/html/body/div/div/div/div/div/div/div/div/div/div/ul/li/div/div/div/div/div/div/div/ul/li/div/div/div/div/ul/li'
p538
F1.9770995978899213
sS'/html/body/div/div/div/div/div/div/ul/li/a/span'
p539
F1.15521264992094
sS'/html/body/div/div/div/div/div/div/div/div/div/div/div/div/div/p/wbr/wbr/wbr/wbr/wbr/wbr/wbr/wbr/wbr/wbr/wbr/a'
p540
F9.965784284662087
sS'/html/body/div/div/div/div/div/div/div/div/div/div/div/span/div/a/span'
p541
F0.9213901653036337
sS'/html/body/div/div/div/div/div/div/div/div/div/div/ul/li/span/div/div/span/button/span/span'
p542
F8.380821783940931
sS'/html/body/div/div/div/div/div/div/div/div/div/div/div/div/div/p/wbr/wbr/wbr/wbr/wbr/wbr/wbr/wbr/wbr/wbr/wbr/wbr/wbr/wbr/wbr/wbr/wbr/wbr/a'
p543
F9.965784284662087
sS'/html/body/div/div/div/div/div/div/div/div/div/div/div/div/div/div/div/div/div/span/button/span/span'
p544
F8.965784284662087
sS'/html/body/div/div/span'
p545
F0.01449956969511517
sS'/html/body/div/div/div/div/div/div/div/div/div/div/div/div/ol/li/ol/li/div/div/div/div/div/div/div/a'
p546
F9.965784284662087
sS'/html/body/div/div/div/div/div/div/div/div/div/div/ul/li/ul/li/div/div/div/a/span/span/span/button/span'
p547
F6.058893689053569
sS'/html/body/div/div/div/div/div/div/div/div/div/div/div/div/div/span/div/div'
p548
F3.680382065799839
sS'/html/body/div/div/div/div/div/div/div/div/div/ul/li/span/div/div/span/button/span/span'
p549
F2.0291463456595165
sS'/html/body/div/div/div/div/div/div/div/div/div/div/div/div/ol/li/ol/li/div/div/div/div/ul/li/div/div/div/div/span'
p550
F9.965784284662087
sS'/html/body/div/div/div/div/div/div/div/div/div/div/div/div/ol/li/ol/li/div/div/div/div/div/span/button/span'
p551
F9.965784284662087
sS'/html/body/div/div/div/div/div/div/div/div/div/div/ul/li/div/div/div/span/b'
p552
F6.50635266602479
sS'/html/body/div/div/div/div/div/a/img'
p553
F9.965784284662087
sS'/html/body/div/div/div/div/div/div/div/div/div/div/ul/li/div/table/tbody/tr/td/span/span/button/ul/li/span'
p554
F3.680382065799839
sS'/html/body/div/div/div/div/div/div/div/ul/li/div/a/span'
p555
F1.1297339296040172
sS'/html/body/div/div/div/div/div/div/div/div/div/div/div/ul/li'
p556
F4.50635266602479
sS'/html/body/div/div/div/div/div/div/div/div/div/div/span/button/span'
p557
F0.01449956969511517
sS'/html/body/div/div/div/div/div/div/div/div/div/div/div/div/div/div/div/div/div/span/div/div/div/div/div/div/div/div/p/span'
p558
F8.965784284662087
sS'/html/body/div/div/div/div/div/div/div/div/ul/li/h2'
p559
F1.4500844463780445
sS'/html/body/div/div/div/div/div/div/div/div/div/div/ul/li/div/div/div/section/div/div/div/div/div/div/a'
p560
F6.643856189774725
sS'/html/body/div/div/div/div/div/div/div/div/div/div/div/div/div/p/wbr/wbr/wbr/wbr/wbr/wbr/wbr/wbr/wbr/wbr/wbr/wbr/br'
p561
F9.965784284662087
sS'/html/body/div/div/div/div/div/div/div/div/div/div/div/div/div/div/span/a'
p562
F8.380821783940931
sS'/html/body/div/div/div/div/div/div/div/div/div/div/div/div/ol/li/ol/li/div/div/div/div/div/div/h3/a'
p563
F9.965784284662087
sS'/html/body/div/div/div/div/div/div/div/div/div/div/ul/li/div/div/div/div/div/ul/li/div/div/div/a/span/span/span/span/img'
p564
F4.965784284662088
sS'/html/body/div/div/div/h2'
p565
F8.965784284662087
sS'/html/head/style'
p566
F0.004334590263891124
sS'/html/body/div/div/div/div/div/div/div/div/div/div/div/div/div/div/div/h1/span/span/span/a'
p567
F8.965784284662087
sS'/html/body/div/div/div/div/div/div/div/ul/li/div/h3'
p568
F1.1297339296040172
sS'/html/body/div/div/div/div/div/div/div/div/div/div/ul/li/div/div/div/span/a'
p569
F9.965784284662087
sS'/html/body/div/div/div/div/div/div/div/div/div/div/div/div/div/p/wbr/wbr/a'
p570
F8.965784284662087
sS'/html/body/div/div/div/div/div/div/div/div/div/div/ul/li/div/div/div/section/div/div/div/div/div/div/div'
p571
F6.643856189774725
sS'/html/body/div/div/div/div/div/div/div/div/div/div/div/div/ol/li/ol/li/div/div/div/div/div/button'
p572
F9.965784284662087
sS'/html/body/div/div/div/div/div/div/div/div/div/div/div/ol/li/ol/li/div/div/div/ul/li/div/div/div/div/div'
p573
F9.965784284662087
sS'/html/body/div/div/div/div/div/div/div/div/div/div/div/div/div/div/div/div/div/p'
p574
F9.965784284662087
sS'/html/body/div/div/div/div/div/div/div/div/div/div/ul/li/div/div/div/div/div/h2/a/span/span'
p575
F1.8365012677171209
sS'/html/body/div/div/div/div/div/div/div/div/div/div/ul/li/ul/li/div/div/div/div/ul'
p576
F6.265344566520995
sS'/html/body/div/div/div/div/div/div/div/div/div/div/button/span/span'
p577
F5.107803289534515
sS'/html/body/div/div/div/div/div/div/div/div/div/div/ul/li/div/div/div/div/div/div/div/ul/li/div/div/div/a/span/span/span/span/span/b'
p578
F3.590744853315162
sS'/html/body/div/div/div/div/div/div/div/div/div/div/div/div/ul/li/a/span/span/span/button/span'
p579
F2.231074664436249
sS'/html/body/div/div/div/div/div/div/div/div/div/div/div/div/img'
p580
F3.680382065799839
sS'/html/body/div/div/div/div/div/div/div/div/p'
p581
F7.158429362604482
sS'/html/body/div/div/div/div/div/div/div/div/div/div/ul/li/div/div/div/div/div/div/div/ul/li/div/div/a/span'
p582
F8.380821783940931
sS'/html/body/div/div/div/div/div/div/div/div/div/div/ul/li/div/div/div/br'
p583
F6.50635266602479
sS'/html/body/div/div/div/div/div/div/div/div/div/div/div/div/div/div/h3/b'
p584
F8.965784284662087
sS'/html/body/div/div/div/div/div/div/div/div/a'
p585
F8.965784284662087
sS'/html/body/div/div/div'
p586
F0.010134377133713133
sS'/html/body/div/div/div/div/div/div/div/ol/li/ol/li/a'
p587
F7.965784284662087
sS'/html/body/div/div/div/div/div/div/div/div/div/div/div/h1/span'
p588
F0.9241251330248724
sS'/html/body/div/div/div/div/div/div/div/div/div/div/div/div/div/ul/li/ul/li/a'
p589
F0.9241251330248724
sS'/html/body/div/div/div/span'
p590
F7.643856189774724
sS'/html/body/div/div/div/div/div/div/div/div/div/div/div/div/div/div/div/div/div/div'
p591
F9.965784284662087
sS'/html/body/div/div/div/div/div/div/div/div/div/div/div/ol/li/ol/li/div/div/div/ul/li/div/div/div/div/div/ul/li'
p592
F9.965784284662087
sS'/html/body/div/div/div/div/div/div/div/div/div/div/div/div/div/div/div/div/div/div/div/span/span/button/ul/li/span'
p593
F9.965784284662087
sS'/html/body/div/div/div/div/div/div/div/div/div/div/ul/li/div/div/div/div/p'
p594
F8.380821783940931
sS'/html/body/div/div/div/div/div/div/div/div/div/div/ul/li/div/div/div/a/span/span/span/span'
p595
F6.50635266602479
sS'/html/body/div/div/div/a/span'
p596
F0.0028882793248263526
sS'/html/body/div/div/div/div/div/div/div/div/div/div/ul/li/div/div/div/div/div/div/div/ul/li/div/div/div/a/span/span/span/button/span'
p597
F3.590744853315162
sS'/html/body/div/div/div/div/div/div/div/div/div/div/ul/li/div/div/div/div/div/div/div/ul/li/div/div/a/span/span/span/img'
p598
F4.573466861883327
sS'/html/body/div/div/div/div/div/script'
p599
F0.02914634565951651
sS'/html/body/div/div/div/div/div/div/div/div/div/div/ul/li/a/img'
p600
F1.5311560570253624
sS'/html/body/div/div/div/div/div/div/div/div/div/div/div/ol/li/ol/li/div/div/div/ul/li/div/div/div/div/a/span'
p601
F9.965784284662087
sS'/html/body/div/div/div/div/form/div/div/a'
p602
F8.965784284662087
sS'/html/body/div/div/div/div/div/div/div/div/div/div/ul/li/div/div/div/div/div/div/div/span'
p603
F9.965784284662087
sS'/html/body/div/div/div/div/div/div/div/div/div/div/div/div/div/p/wbr/wbr/wbr/wbr/wbr/wbr/wbr/wbr/wbr/wbr/wbr/wbr/wbr/br'
p604
F9.965784284662087
sS'/html/body/div/div/div/div/div/div/div/div/div/div/ul/li/div/div/div/section/div/div/a/span/span/span/span'
p605
F6.795859283219775
sS'/html/body/div/div'
p606
F0.0028882793248263526
sS'/html/body/div/div/div/div/div/div/div/div/div/div/div/ol/li/ol/li/div'
p607
F9.965784284662087
sS'/html/body/div/div/div/div/div/div/div/div/div/div/ul/li/span/div/div/span/span'
p608
F8.380821783940931
sS'/html/body/div/div/div/div/div/div/div/div/div/div/div/div/div/ul/li/div/a/span/span'
p609
F1.573466861883327
sS'/html/body/div/div/div/div/div/div/div/div/div/div/div/a'
p610
F0.9241251330248724
sS'/html/body/div/div/div/div/div/div/div/div/div/div/ul/li/div/div/div/a/span/span/span/img'
p611
F6.50635266602479
sS'/html/body/div/div/div/div/div/div/div/div/div/div/div/div/div/div/div/div/div/h1/span/span/span'
p612
F9.965784284662087
sS'/html/body/div/div/div/div/div/div/div/div/ul/li/div/p'
p613
F9.965784284662087
sS'/html/body/div/div/div/div/div/div/div/div/div/div/div/div/div/div/div/div/div/div/h1/span/span/span/a'
p614
F9.965784284662087
sS'/html/body/div/div/div/div/div/div/div/div/div/div/ul/li/div/div/div/span'
p615
F5.265344566520995
sS'/html/body/div/div/div/div/div/div/div/div/div/div/div/div/div/div/div/div/div/div/h1/span/a/span'
p616
F9.965784284662087
sS'/html/body/div/div/div/div/div/div/div/div/div/div/div/div/div/div/div/div/div/div/span/a/span/span/span/span'
p617
F9.965784284662087
sS'/html/body/div/div/div/div/div/div/div/div/div/div/ul/li/div/div/div/div/div/div/div/ul/li/div/div/div/a/span/span/span/button/ul/li/span'
p618
F3.590744853315162
sS'/html/body/div/div/div/div/div/div/div/div/div/div/div/div/div/div/span/button/span/span'
p619
F8.965784284662087
sS'/html/body/div/div/div/div/div/div/div/div/div/div/div/div/div/div/div/div/div/div/div/span/button/span/span'
p620
F9.965784284662087
sS'/html/body/div'
p621
F0.015957573902976287
sS'/html/body/div/div/div/div/div/div/div/div/div/div/div/div/span/div/div/div/div/div/div/div/div'
p622
F1.4819685073978306
sS'/html/body/div/div/div/div/div/div/div/div/div/div/div/div/div/p/wbr/wbr/wbr/wbr/wbr/wbr/wbr/wbr/wbr/br'
p623
F9.965784284662087
sS'/html/body/div/div/div/div/div/div/div/div/div/div/div/div/div/span/a'
p624
F8.965784284662087
sS'/html/body/div/div/div/div/div/div/div/div/div/div/ul/li/div/div/div/div/div/div/div/ul/li/div/div/div/div'
p625
F7.380821783940932
sS'/html/body/div/div/div/div/div/div/div/div/div/div/ul/li/div/div/div/div/div/ul/li/div/div/div/span/button/span/span'
p626
F7.158429362604482
sS'/html/body/div/div/div/div/div/div/div/div/div/div/div/div/span/div/div/div/div/div'
p627
F1.4819685073978306
sS'/html/body/div/div/div/div/div/div/div/div/div/div/ul/li/div/div/div/div/div/ul/li/div/div/div/ul/li/span'
p628
F5.643856189774724
sS'/html/body/div/div/div/div/div/div/div/div/div/div/span/span/div/div/div/div/div/div/div/div/p/span'
p629
F0.9241251330248724
sS'/html/body/div/div/div/div/div/div/div/div/div/div/div/button/span'
p630
F0.9241251330248724
sS'/html/body/div/div/div/div/div/div/div/div/div/div/ul/li/div/div/div/div/div/div/div/ul/li/div/div/div/span/button/span'
p631
F1.9827907099677768
sS'/html/body/div/div/div/div/div/div/div/div/div/div/ul/li/div/div/div/div/div/wbr/br'
p632
F6.795859283219775
sS'/html/body/div/div/div/div/div/div/div/div/div/div/div/div/div/div/div/div/span/a/span/span/span/span'
p633
F8.965784284662087
sS'/html/body/div/div/div/div/div/div/div/div/div/div/div/div/div/span/div/a/span'
p634
F3.680382065799839
sS'/html/body/div/div/div/div/div/div/div/div/div/div/div/div/div/p/wbr/wbr/wbr/wbr/wbr/wbr/wbr/wbr/wbr/wbr/wbr/wbr/wbr/wbr/wbr/wbr/wbr/wbr/wbr/wbr/wbr/wbr/br'
p635
F9.965784284662087
sS'/html/body/div/div/div/div/div/div/div/div/div/div/ul/li/div/div/div/div/div/a'
p636
F2.3584539709124765
sS'/html/body/div/div/div/div/div/div/div/div/div/div/div/div/div/p/wbr/wbr/wbr/wbr/wbr/wbr/wbr/wbr/wbr/wbr/wbr/wbr/wbr/wbr/wbr/wbr/a'
p637
F9.965784284662087
sS'/html/body/div/div/div/div/div/div/div/div/div/div/ul/li/p'
p638
F7.643856189774724
sS'/html/body/div/div/div/div/div/div/div/ul/li/div/ul/li/a/span/span/span/span/span/span'
p639
F1.1297339296040172
sS'/html/body/div/div/div/div/div/div/div/div/div/div/div/div/div'
p640
F0.7297700927620023
sS'/html/body/div/div/div/div/div/div/div/div/div/div/ul/li/div/div/div/div/div/ul/li/div/div/div/span/button'
p641
F4.293358942690592
sS'/html/body/div/div/div/div/div/div/div/div/p/strong'
p642
F8.380821783940931
sS'/html/body/div/div/div/div/div/div/div/div/button/span'
p643
F7.965784284662087
sS'/html/body/div/div/div/div/a/span'
p644
F0.00723156923107573
sS'/html/body/div/div/div/div/div/div/div/div/div/div/ul/li/ul/li/div/div/div/h3/a'
p645
F4.50635266602479
sS'/html/body/div/div/div/div/div/div/div/div/div/div/div/ol/li/ol/li/ul/li/span/div/div/span'
p646
F8.965784284662087
sS'/html/body/div/div/div/div/div/div/div/div/div/div/ul/li/div/table/tbody/tr/td/div/div'
p647
F3.680382065799839
sS'/html/body/div/div/div/div/div/div/div/div/div/div/ul/li/div/table/tbody/tr/td/span/button/span/span'
p648
F8.380821783940931
sS'/html/body/div/div/div/div/div/div/div/div/div/div/ul/li/div/div/div/section/div/div/a/span/span/span/img'
p649
F6.795859283219775
sS'/html/body/div/div/div/div/div/div/div/div/div/div/div/span/span/div/h3'
p650
F0.9241251330248724
sS'/html/body/div/div/div/div/div/meta'
p651
F9.965784284662087
sS'/html/body/div/div/div/div/div/div/div/div/div/div/div/div/div/div/div/div/div/div/span/span'
p652
F9.965784284662087
sS'/html/body/div/div/div/div/div/div/div/div/div/div/div/a/span/span/span/img'
p653
F8.965784284662087
sS'/html/body/div/link'
p654
F1.4266254735540556
sS'/html/body/div/div/div/div/div/div/div/div/div/div/div/div/div/span/label/span'
p655
F1.573466861883327
sS'/html/body/div/div/div/div/div/div/a/img'
p656
F1.1713684183119812
sS'/html/body/div/div/div/div/div/div/div/div/div/div/ul/li/div/div/div/div/div/ul/li/div/div/div/a/span/span/span/button/ul/li/span'
p657
F4.965784284662088
sS'/html/body/div/div/div/div/div/div/div/div/div/div/div/div/div/ul/li/button/span'
p658
F1.1015981400078068
sS'/html/body/div/div/div/div/div/div/div/div/div/div/div/div/div/p/wbr/wbr/wbr/wbr/wbr/wbr/wbr/wbr/wbr/wbr/br'
p659
F9.965784284662087
sS'/html/body/div/div/div/div/div/div/div/div/div/div/ul/li/div/table/tbody/tr/td/div'
p660
F3.680382065799839
sS'/html/body/div/div/div/div/div/link'
p661
F9.965784284662087
sS'/html/body/div/div/div/div/div/div/div/div/div/div/ul/li/div/div/div/div/div/div/div/ul/li/div/div/div/a/span/span/span/span/img'
p662
F3.590744853315162
sS'/html/body/div/div/div/div/div/div/div/div/div/div/div/div/div/div/div/div/div/div/h1/span/span/span'
p663
F9.965784284662087
sS'/html/body/div/div/div/div/div/div/div/div/div/div/ul/li/div/div/div/section/div/div/div/div/a'
p664
F6.643856189774725
sS'/html/body/div/div/div/div/form/div/div/input'
p665
F8.965784284662087
sS'/html/body/div/div/div/div/div/div/div/div/div/div/div/div/ul/div/li'
p666
F0.9378782880922025
sS'/html/body/div/div/div/div/div/div/div/div/div/div/ul/li/div/div/div/div/div/div/div/ul/li/div/div/div/div/span/button/span'
p667
F7.380821783940932
sS'/html/body/div/div/div/div/div/div/div/div/div/div/ul/li/div/button/span/span/span/span'
p668
F5.442222328605075
sS'/html/body/div/div/div/div/div/div/div/div/div/div/div/div/div/ul/li/span/div/a/span'
p669
F0.9241251330248724
sS'/html/body/div/div/div/div/div/div/div/div/div/div/div/div/div/div/div/div/div/div/span/span/button/ul/li/span'
p670
F9.965784284662087
sS'/html/head/title'
p671
F0.0
sS'/html/body/div/div/div/div/div/div/div/div/div/div/ul/li/div/div/div/div/div/div/div/ul/li/div/div/div/span/button'
p672
F1.9827907099677768
sS'/html/body/div/div/div/div/form/div/input'
p673
F7.643856189774724
sS'/html/body/div/div/div/div/div/div/div/div/div/div/div/h4/span'
p674
F8.965784284662087
sS'/html/body/div/div/div/div/div/div/p/span/a'
p675
F8.965784284662087
sS'/html/body/div/div/div/div/div/div/div/div/div/div/ul/li/span/div/a/span/span/span/span'
p676
F8.380821783940931
sS'/html/body/div/div/div/div/div/div/div/div/div/div/div/ol/li/ol/li/div/div/div/ul/li/div/div/div/div/div/a'
p677
F9.965784284662087
sS'/html/body/div/div/div/div/div/div/div/div/span/link'
p678
F0.9241251330248724
sS'/html/body/div/div/div/div/div/div/div/div/div/div/div/div/div/p/wbr/wbr/wbr/wbr/br'
p679
F7.643856189774724
sS'/html/body/div/div/ul/li/a'
p680
F7.643856189774724
sS'/html/body/div/div/div/div/div/div/div/div/div/div/ul/li/div/div/div/section/div/div/div/div/div/div/button'
p681
F6.643856189774725
sS'/html/body/div/div/div/div/div/div/div/div/div/div/ul/li/div/div/div/div/div/div/div/ul/li/div/div/span/span'
p682
F4.573466861883327
sS'/html/body/div/div/div/div/div/div/div/div/a/span'
p683
F8.965784284662087
sS'/html/body/div/div/div/div/div/div/div/div/div/div/ul/li/div/div/div/h3/a'
p684
F2.3147325934831584
sS'/html/body/div/div/div/div/div/div/ul/li/span/a'
p685
F9.965784284662087
sS'/html/body/div/div/div/div/div/div/div/div/div/div/ul/li/div/div/div/section/div/div/div/div/div/div/span'
p686
F6.643856189774725
sS'/html/body/div/div/div/div/div/button/span'
p687
F7.643856189774724
sS'/html/body/div/div/div/div/div/div/div/div/div/div/ul/li/div/div/div/div/div/div/div'
p688
F8.380821783940931
sS'/html/body/div/div/div/div/div/div/div/div/div/div/div/ol/li/ol/li/div/a'
p689
F9.965784284662087
sS'/html/body/div/div/div/div/div/div/div/div/div/div/ul/li/div/div/div/div/div/wbr/wbr/wbr/wbr/wbr/wbr/wbr/wbr/a'
p690
F9.965784284662087
sS'/html/body/div/div/div/div/div/div/div/div/div/div/div/div/div/p/wbr/wbr/wbr/a'
p691
F8.380821783940931
sS'/html/body/div/div/div/div/div/div/div/div/div/div/div/ol/li/ol/li/div/div/div/div/div'
p692
F9.965784284662087
sS'/html/body/div/div/div/div/div/div/div/div/div/div/div/div/div/div/div/div/div/span/span'
p693
F8.965784284662087
sS'/html/body/div/div/div/div/div/div/div/div/div/div/div/div/div/p/wbr/a'
p694
F7.965784284662087
sS'/html/body/div/div/div/div/div/div/div/div/div/div/div/div/div/span/span/button/span'
p695
F3.680382065799839
sS'/html/body/div/div/div/div/div/div/div/div/div/div/ul/li/div/div/div/div/div/div/div/a'
p696
F8.380821783940931
sS'/html/body/div/div/div/div/div/div/div/div/div/div/div/div/div/a'
p697
F8.380821783940931
sS'/html/body/div/div/div/div/div/div/div/div/div/div/ul/li/div/div/pre'
p698
F6.795859283219775
sS'/html/body/div/div/div/div/div/div/div/div/div/div/ul/li/div/div/div/div/div/div/div/ul/li/div/div/div/a/span/span/span/span'
p699
F3.590744853315162
sS'/html/body/div/div/div/div/div/div/div/div/div/div/ul/li/div/div/div/section/div/a/span/span/span/span'
p700
F6.50635266602479
sS'/html/body/div/div/div/div/div/div/div/div/div/div/div/div/div/p/wbr/wbr/wbr/br'
p701
F7.965784284662087
sS'/html/body/div/div/div/div/div/div/div/div/div/div/div/span/span/div/a/span'
p702
F0.9241251330248724
sS'/html/body/div/div/div/div/div/div/div/div/div/div/ul/li/div/div/div/div/div/wbr/wbr/wbr/wbr/br'
p703
F9.965784284662087
sS'/html/body/div/div/div/div/div/div/div/div/div/div/div/div/div/ul/li/div/a/span/ul/li/span'
p704
F7.158429362604482
sS'/html/body/div/div/div/div/div/div/div/div/div/div/div/div/div/a/span/span/span/img'
p705
F8.965784284662087
sS'/html/body/div/div/div/div/div/div/div/div/div/div/ul/li/div/div/div/div/div/div/div/ul/li/div/div/div/ul/li/span'
p706
F8.380821783940931
sS'/html/body/div/div/div/div/div/div/div/div/div/div/div/div/div/div/span'
p707
F8.380821783940931
sS'/html/body/div/div/div/div/div/div/div/div/div/div/ul/li/div/div/div/div/ul/li/button/span'
p708
F6.50635266602479
sS'/html/body/div/div/div/div/div/div/div/div/div/div/div/div/div/p/wbr/wbr/wbr/wbr/wbr/wbr/wbr/wbr/wbr/wbr/wbr/wbr/wbr/wbr/wbr/wbr/wbr/a'
p709
F9.965784284662087
sS'/html/body/div/div/div/div/div/div/div/div/div/div/ul/li/div/div/a/span/span/span/span/span'
p710
F8.380821783940931
sS'/html/body/div/div/div/div/div/div/div/div/ol/li/address/div/br'
p711
F8.965784284662087
sS'/html/body/div/div/div/div/div/div/div/div/div/div/p/span'
p712
F8.965784284662087
sS'/html/body/div/div/div/div/div/div/div/div/div/div/div/div/ul/li/a/span/span/button'
p713
F2.231074664436249
sS'/html/body/div/div/div/div/div/div/div/div/div/div/div/div/ul/li/a/span/span/span/span/span'
p714
F1.8677522017015604
sS'/html/body/div/div/div/div/div/div/div/h3'
p715
F8.965784284662087
sS'/html/body/div/div/div/div/div/div/div/h2'
p716
F8.965784284662087
sS'/html/body/div/div/div/div/div/div/div/h1'
p717
F0.8996950942043147
sS'/html/body/div/div/div/div/div/div/div/div/div/div/div/div/span/div/div/div/div/div/div/div/div/p/span'
p718
F1.4819685073978306
sS'/html/body/div/div/div/div/div/div/div/div/div/div/ul/li/button/span/span'
p719
F4.836501267717121
sS'/html/body/link'
p720
F1.4266254735540556
sS'/html/body/div/div/div/div/div/div/div/div/div/div/ul/li/div/div/div/div/div/div/div/ul/li/div/div/div/h3/span'
p721
F1.905088352974533
sS'/html/body/div/div/div/nav/nav/div/a'
p722
F8.380821783940931
sS'/html/body/div/div/div/div/div/div/div/div/div/div/div/div/div/ul/li/div/a/span'
p723
F1.573466861883327
sS'/html/body/div/div/div/div/div/div/div/div/div/div/div/a/span/span'
p724
F2.434402824145775
sS'/html/body/div/div/div/div/div/div/div/div/div/div/ul/li/div/div/div/div/div/div/div/ul/li/div/div/h3/span'
p725
F4.573466861883327
sS'/html/body/div/div/div/div/div/div/div/div/div/div/ul/li/div/table/tbody/tr/td/div/div/span'
p726
F3.680382065799839
sS'/html/body/div/div/div/div/div/div/div/div/div/div/div/div/h3/img'
p727
F8.965784284662087
sS'/html/body/div/div/div/div/div/div/div/div/div/div/div/div/span/span/span/img'
p728
F8.380821783940931
sS'/html/body/div/div/div/div/div/div/div/div/div/div/div/div/div/button'
p729
F9.965784284662087
sS'/html/body/div/div/div/div/div/div/div/div/div/div/ul/li/ul/li/div/div/h3/a'
p730
F6.50635266602479
sS'/html/body/div/div/div/div/div/div/div/div/div/div/ul/li/div/div/div/div/button'
p731
F6.50635266602479
sS'/html/body/div/div/div/div/div/div/div/div/div/div/ul/li/div/div/div/section/div'
p732
F6.50635266602479
sS'/html/body/div/div/div/div/div/div/div/div/div/div/div/div/div/ul/li/span/button/span'
p733
F0.9241251330248724
sS'/html/body/div/div/div/div/div/div/div/div/div/div/div/div/ul/li/h2'
p734
F8.965784284662087
sS'/html/body/div/div/div/div/div/div/div/div/div/div/div/ol/li/ol/li/div/div/div/ul/li/div/div/div/div/span/button/span'
p735
F9.965784284662087
sS'/html/body/div/div/div/div/div/div/div/div/div/div/div/a/span'
p736
F0.9241251330248724
sS'/html/body/div/div/div/div/div/div/div/div/div/div/div/div/div/button/span'
p737
F9.965784284662087
sS'/html/body/div/div/div/div/div/div/div/div/div/div/div/div/div/ul/li/ul/li/span/a'
p738
F7.965784284662087
sS'/html/body/div/div/div/div/div/div/div/div/div/div/div/div/div/ul/li/div/a/span/img'
p739
F1.573466861883327
sS'/html/body/div/div/div/div/div/div/div/div/div/div/div/ol/li/ol/li/div/div/div/ul/li/div/div/div/div/h3/a'
p740
F9.965784284662087
sS'/html/body/div/div/div/div/div/div/div/div/div/div/div/div/div/p/wbr/wbr/wbr/wbr/wbr/wbr/wbr/wbr/wbr/wbr/wbr/wbr/wbr/wbr/wbr/wbr/wbr/wbr/wbr/wbr/a'
p741
F9.965784284662087
sS'/html/body/div/div/div/div/div/div/div/div/div/div/a/span/span/span/span'
p742
F0.9241251330248724
sS'/html/body/div/div/div/div/div/div/div/div/ul/li/button/span'
p743
F9.965784284662087
sS'/html/body/div/div/div/div/div/div/div/div/div/div/div/div/div/p/wbr/wbr/wbr/wbr/wbr/wbr/wbr/wbr/wbr/wbr/wbr/wbr/wbr/wbr/wbr/wbr/wbr/wbr/wbr/wbr/br'
p744
F9.965784284662087
sS'/html/body/div/div/div/div/div/div/div/div/div/div/div/a/span/span/span/span'
p745
F8.965784284662087
sS'/html/body/div/div/div/div/div/div/div/div/div/ol/p/span'
p746
F0.01449956969511517
sS'/html/body/div/div/div/div/div/div/div/div/div/div/ul/li/div/div/div/section/div/div'
p747
F6.50635266602479
sS'/html/body/meta'
p748
F1.4266254735540556
sS'/html/body/div/div/div/div/div/div/div/div/div/div/div/div/ul/li/div/a/span/ul/li/span'
p749
F3.0232697793228476
sS'/html/body/div/div/div/div/div/div/div/div/div/div/div/div/div/div/div/div/div/div/p/span'
p750
F8.380821783940931
sS'/html/body/div/div/div/div/div/div/div/div/div/div/div/div/div/div/span/div/div/div/span'
p751
F8.965784284662087
sS'/html/body/div/div/div/div/div/div/div/div/div/ul/li/span/div/a/span/span/span/img'
p752
F2.0291463456595165
sS'/html/body/div/div/div/div/div/div/div/div/div/div/ul/li/div/div/div/section/div/div/div/div/span'
p753
F6.795859283219775
sS'/html/body/div/div/div/div/div/div/div/div/div/div/div/div/div/div/div/div/div/div/span/span/button/span'
p754
F9.965784284662087
sS'/html/body/div/div/div/div/div/div/div/div/div/h2/a'
p755
F4.442222328605075
sS'/html/body/div/div/div/div/div/div/div/div/div/div/div/div/a/span/span/span/img'
p756
F8.965784284662087
sS'/html/body/div/div/div/div/div/div/div/div/div/div/div/span/div/div'
p757
F0.9213901653036337
sS'/html/body/div/div/div/div/div/div/div/p/span'
p758
F0.00723156923107573
sS'/html/body/div/div/div/div/span/select/option'
p759
F8.380821783940931
sS'/html/body/div/div/div/div/div/div/div/div/div/div/ul/li/div/div/div/div/div/ul/li/div/div/div/span/a/span/span/span/img'
p760
F4.293358942690592
sS'/html/body/div/div/div/div/div/div/div/div/ol/li/address/div/span'
p761
F8.965784284662087
sS'/html/body/div/div/div/div/div/div/div/div/div'
p762
F0.011587974275211823
sS'/html/body/div/div/div/div/div/div/div/div/div/div/div/div/div/ul/li/h4'
p763
F0.9241251330248724
sS'/html/body/div/div/div/div/div/div/div/div/div/div/div/h3/a'
p764
F2.888968687611256
sS'/html/body/div/div/div/div/div/div/button/span'
p765
F0.01449956969511517
sS'/html/body/div/div/div/div/div/div/div/div/div/div/div/div/div/p/wbr/wbr/wbr/wbr/wbr/wbr/wbr/wbr/wbr/wbr/wbr/wbr/wbr/wbr/wbr/br'
p766
F9.965784284662087
sS'/html/body/div/div/div/div/div/div/h2'
p767
F9.965784284662087
sS'/html/body/div/div/div/div/div/div/h1'
p768
F8.965784284662087
sS'/html/body/div/div/div/div/div/div/div/div/div/div/div/div/ol/li/ol/li/div/div'
p769
F9.965784284662087
sS'/html/body/div/div/div/div/div/div/div/div/div/div/div/div/div/div/div/div/div/div/span/button/span/span'
p770
F9.965784284662087
sS'/html/body/div/div/div/div/div/div/div/div/div/div/div/div/div/a/span/span/span/span'
p771
F8.965784284662087
sS'/html/body/div/div/div/div/div/div/div/div/div/div/div/div/div/label'
p772
F1.573466861883327
sS'/html/body/div/div/div/div/div/div/div/div/div/div/div/div/div/div/div/div/div/img'
p773
F8.380821783940931
sS'/html/body/div/div/div/div/div/div/div/div/div/div/ul/li/div/div/div/div/div/h2/a/span/span/span/img'
p774
F3.457989644463391
sS'/html/body/div/div/div/div/div/div/div/div/div/div/ul/li/div/div/h2/b'
p775
F6.50635266602479
sS'/html/body/div/div/div/div/div/div/div/div/div/div/div/div/div/span'
p776
F5.210896782498619
sS'/html/body/div/div/div/div/div/div/div/div/div/div/ul/li/span/div/h3/a/span/span'
p777
F8.380821783940931
sS'/html/body/div/div/div/div/div/div/div/div/div/div/span/span/div/div/div/span'
p778
F0.9241251330248724
sS'/html/body/div/div/div/div/div/div/div/div/div/div/ul/li/div/table/tbody/tr/td/a'
p779
F3.680382065799839
sS'/html/body/div/div/div/div/div/div/div/div/div/div/div/div/div/br'
p780
F9.965784284662087
sS'/html/body/div/div/div/div/div/div/div/p/a'
p781
F9.965784284662087
sS'/html/body/div/div/div/div/div/div/div/div/ol/li/address/strong'
p782
F8.965784284662087
sS'/html/body/div/div/div/div/div/div/div/div/div/div/div/div/div/span/span'
p783
F1.573466861883327
sS'/html/body/div/div/div/div/div/div/div/div/div/div/div/div/div/p/wbr/wbr/wbr/wbr/wbr/wbr/wbr/wbr/br'
p784
F9.965784284662087
sS'/html/body/div/div/div/div/div/div/div/div/div/div/div/ol/li/ol/li/div/div/div/ul/li/div/div/div/div/a/div/span/img'
p785
F9.965784284662087
s.