(lp0
I142055
aI134829
aI185096
aI142055
aI142024
aI565539
aI34465
aI54893
aI59274
aI66111
aI85221
aI61166
aI64815
aI54501
aI144696
aI78127
aI59363
aI49146
aI47703
aI15171
aI44729
aI15798
aI34380
aI29405
aI42256
aI46523
aI47213
aI33454
aI47543
aI48452
aI15171
aI33545
aI31830
aI68798
aI45287
aI44394
aI43227
aI44692
aI15171
aI42304
aI42205
aI36176
aI40966
aI15171
aI43255
aI15171
aI46070
aI15279
aI32047
aI22638
aI40107
aI34597
aI33624
aI37453
aI35556
aI36506
aI34208
aI54950
aI30799
aI421105
aI203144
aI203155
aI203155
aI28526
aI28862
aI13849
aI14807
aI14345
aI512
aI14362
aI14720
aI7615
aI14864
aI14544
aI15070
aI14635
aI14402
aI14586
aI14225
aI506
aI14864
aI14446
aI15362
aI482
aI14463
aI13930
aI15063
aI14921
aI15637
aI14774
aI15035
aI14946
aI2249
aI14826
aI7769
aI493
aI1975
aI14845
aI14714
aI14952
aI1896
aI14847
aI14551
aI15057
aI28274
aI11968
aI193066
aI44630
aI40679
aI36084
aI41228
aI38319
aI30979
aI31823
aI38882
aI60863
aI32553
aI165718
aI32661
aI35734
aI59458
aI48336
aI34773
aI36860
aI35684
aI37098
aI100502
aI87715
aI32177
aI32177
aI34787
aI34049
aI31664
aI166854
aI152394
aI167994
aI169121
aI91081
aI91082
aI167636
aI165154
aI99701
aI162827
aI162821
aI101822
aI33462
aI34703
aI34556
aI137960
aI56522
aI94161
aI35857
aI56433
aI33354
aI35803
aI33193
aI31860
aI33752
aI32305
aI33547
aI35113
aI33148
aI32255
aI32467
aI33535
aI33535
aI35765
aI35756
aI35765
aI34934
aI41868
aI32551
aI33791
aI41595
aI36473
aI32036
aI32249
aI117615
aI40841
aI34767
aI56632
aI52846
aI65392
aI33389
aI34221
aI49472
aI35963
aI33585
aI32262
aI38867
aI32279
aI37223
aI29834
aI152987
aI81199
aI63676
aI33349
aI142378
aI158337
aI185333
aI22817
aI166311
aI93126
aI22862
aI95994
aI73586
aI100341
aI73317
aI57358
aI175186
aI55172
aI32164
aI102335
aI157057
aI119609
aI28936
aI179552
aI109410
aI106346
aI74818
aI59663
aI49817
aI40528
aI52459
aI77430
aI149106
aI140859
aI35241
aI55314
aI34963
aI175637
aI180644
aI208677
aI203709
aI96133
aI44100
aI87702
aI43102
aI42304
aI30551
aI100262
aI154602
aI184796
aI221689
aI206300
aI71975
aI185522
aI141123
aI38824
aI140337
aI71492
aI100649
aI167870
aI215238
aI64314
aI172809
aI190040
aI67390
aI127279
aI34174
aI177905
aI326522
aI386536
aI29361
aI48578
aI32306
aI158842
aI59375
aI88053
aI30380
aI173866
aI51572
aI129513
aI84308
aI156491
aI155224
aI104653
aI50501
aI33843
aI111652
aI36004
aI164153
aI173014
aI82547
aI73243
aI78236
aI160048
aI159091
aI161448
aI163642
aI55189
aI160004
aI42477
aI65842
aI62845
aI186024
aI142191
aI201333
aI200379
aI163958
aI162217
aI128660
aI170243
aI177556
aI175212
aI184779
aI45088
aI67134
aI61372
aI29488
aI91066
aI87584
aI105141
aI31643
aI30599
aI84756
aI233495
aI32519
aI125216
aI30731
aI38978
aI102620
aI34291
aI67015
aI68823
aI38940
aI35459
aI31842
aI86030
aI34818
aI33512
aI32797
aI94996
aI31241
aI34829
aI34502
aI38296
aI182040
aI52705
aI33319
aI73209
aI32843
aI31326
aI32267
aI55166
aI56468
aI50583
aI1090
aI1090
aI120244
aI98647
aI112735
aI57227
aI104554
aI121086
aI110834
aI109804
aI41623
aI42394
aI23441
aI63943
aI22458
aI15866
aI105743
aI23088
aI96651
aI102151
aI100380
aI41429
aI36740
aI23710
aI63535
aI32450
aI15866
aI163757
aI97630
aI55916
aI100022
aI99508
aI33776
aI41480
aI46250
aI18053
aI28572
aI64592
aI32707
aI33833
aI15179
aI15271
aI15866
aI166299
aI163665
aI24409
aI40845
aI37524
aI55432
aI15239
aI99970
aI98497
aI100891
aI33206
aI30589
aI63933
aI29924
aI15862
aI165366
aI38436
aI98703
aI19883
aI37113
aI41199
aI61586
aI36239
aI15862
aI168507
aI38251
aI100318
aI99810
aI103479
aI99304
aI111222
aI99348
aI94521
aI26360
aI17917
aI18570
aI15343
aI56594
aI37172
aI101892
aI98247
aI40714
aI36717
aI27862
aI64483
aI32044
aI15862
aI168711
aI199726
aI62345
aI61791
aI61654
aI64856
aI56979
aI106220
aI99881
aI99581
aI72095
aI110223
aI101183
aI95898
aI99760
aI107097
aI102489
aI37370
aI23230
aI15239
aI162736
aI38650
aI100701
aI77437
aI51082
aI20325
aI102447
aI20782
aI44975
aI62505
aI36674
aI15866
aI171321
aI39720
aI39671
aI96901
aI101026
aI101376
aI99521
aI33932
aI420785
aI42000
aI41714
aI141743
aI36767
aI18058
aI19304
aI18066
aI42344
aI24810
aI40436
aI42529
aI31293
aI43367
aI43249
aI44109
aI47287
aI42720
aI45677
aI47103
aI20592
aI35600
aI35604
aI62726
aI63696
aI61510
aI61274
aI61580
aI62200
aI62198
aI62372
aI36186
aI36205
aI15898
aI15866
aI172451
aI171846
aI43887
aI167894
aI171844
aI64457
aI161783
aI34341
aI39407
aI39626
aI96892
aI41848
aI44658
aI29199
aI61762
aI31759
aI15866
aI166104
aI23600
aI135032
aI101091
aI66908
aI100164
aI96663
aI100846
aI67246
aI53690
aI99678
aI33478
aI41132
aI31334
aI63758
aI34603
aI15866
aI167384
aI151581
aI43887
aI97938
aI32042
aI27899
aI29910
aI15239
aI162244
aI103654
aI57709
aI55648
aI20721
aI40169
aI18136
aI18634
aI19043
aI15866
aI20385
aI19148
aI19158
aI38329
aI37422
aI62034
aI114063
aI133724
aI133798
aI120200
aI33508
aI40724
aI40281
aI45762
aI30265
aI38184
aI36841
aI68057
aI76308
aI28585
aI73544
aI43600
aI71946
aI61340
aI46594
aI40418
aI26219
aI29690
aI30021
aI29996
aI29635
aI15299
aI15235
aI15239
aI15239
aI15235
aI15235
aI15235
aI21131
aI21129
aI24314
aI24171
aI24681
aI24294
aI22935
aI22413
aI40357
aI18056
aI37289
aI37289
aI25119
aI25237
aI30480
aI45176
aI43414
aI45028
aI19684
aI32431
aI172948
aI169920
aI163922
aI32970
aI38632
aI37321
aI99847
aI102649
aI37021
aI43555
aI61491
aI36624
aI15866
aI170928
aI39443
aI99585
aI131829
aI31773
aI28194
aI43622
aI21180
aI38576
aI26519
aI166715
aI31833
aI57162
aI17715
aI15239
aI108585
aI19662
aI42922
aI61945
aI37452
aI15866
aI169808
aI28945
aI38781
aI100402
aI44954
aI33214
aI62454
aI36146
aI15866
aI168087
aI24448
aI39123
aI54931
aI100721
aI32657
aI140331
aI33335
aI31341
aI60619
aI22029
aI22439
aI39712
aI29160
aI169030
aI39476
aI99354
aI63949
aI98689
aI45411
aI25460
aI62100
aI25500
aI15866
aI167505
aI25140
aI39387
aI98544
aI99798
aI122018
aI121351
aI41916
aI44786
aI43055
aI62556
aI35291
aI15866
aI172784
aI27190
aI131949
aI131946
aI33375
aI43623
aI29041
aI52772
aI42154
aI54078
aI24730
aI27804
aI28449
aI15191
aI15235
aI21460
aI21116
aI21522
aI40582
aI36830
aI36306
aI18030
aI28909
aI169574
aI161695
aI33380
aI38546
aI37463
aI98272
aI36293
aI24876
aI20966
aI15239
aI164299
aI101408
aI100054
aI58612
aI116441
aI61149
aI62418
aI96993
aI27961
aI23330
aI41528
aI41298
aI18039
aI36930
aI82252
aI62648
aI82330
aI24314
aI20977
aI15271
aI15866
aI167882
aI162288
aI38740
aI70072
aI69670
aI92030
aI27422
aI98214
aI119428
aI42130
aI25305
aI18469
aI22008
aI64920
aI63945
aI22544
aI23770
aI15271
aI15866
aI28793
aI50259
aI25422
aI39317
aI38717
aI124178
aI108837
aI132700
aI119010
aI133261
aI31877
aI39277
aI29374
aI106795
aI57692
aI91872
aI28642
aI29372
aI29378
aI29824
aI15191
aI15239
aI24965
aI20871
aI21970
aI21785
aI36311
aI36951
aI18028
aI29479
aI172519
aI162270
aI31626
aI37380
aI37952
aI107307
aI21041
aI18857
aI29053
aI131789
aI48150
aI98520
aI95043
aI100953
aI43854
aI45903
aI51263
aI102970
aI103003
aI40843
aI19276
aI19422
aI15866
aI32643
aI63951
aI18736
aI15235
aI26258
aI98409
aI128351
aI57342
aI104796
aI107054
aI17484
aI36716
aI42398
aI61096
aI24157
aI15862
aI168384
aI39333
aI101170
aI101531
aI44051
aI61480
aI35695
aI15862
aI170235
aI40350
aI39296
aI97245
aI103635
aI100501
aI101501
aI36649
aI40914
aI33477
aI15235
aI165538
aI100740
aI62187
aI18736
aI15235
aI26387
aI102377
aI133086
aI27616
aI27571
aI32817
aI98705
aI36840
aI27797
aI64395
aI24606
aI15862
aI166114
aI38056
aI116392
aI158000
aI101108
aI99838
aI110049
aI98332
aI98481
aI100229
aI33593
aI189864
aI41765
aI40167
aI146266
aI18048
aI24634
aI22889
aI25545
aI45388
aI42007
aI17075
aI66457
aI63708
aI80110
aI79217
aI79328
aI61921
aI32800
aI31848
aI15375
aI15862
aI168095
aI164969
aI163290
aI26609
aI38583
aI37590
aI48188
aI15750
aI15750
aI15750
aI15123
aI225510
aI232109
aI67144
aI76908
aI82144
aI60481
aI77442
aI34373
aI72908
aI73981
aI89357
aI86544
aI76523
aI37048
aI48406
aI40057
aI53989
aI56585
aI45620
aI74921
aI73595
aI37815
aI62559
aI81015
aI41113
aI43470
aI71631
aI37766
aI82944
aI53970
aI47726
aI46317
aI40766
aI75763
aI81828
aI81862
aI83367
aI85168
aI86614
aI79327
aI35442
aI78013
aI71490
aI73186
aI45863
aI43437
aI75937
aI75871
aI77943
aI28553
aI7141
aI7141
aI7141
aI7131
aI7139
aI7138
aI7125
aI7141
aI7141
aI7140
aI4518
aI4520
aI4518
aI4508
aI4518
aI4517
aI4504
aI4518
aI4518
aI4517
aI15207
aI15207
aI15207
aI15207
aI15203
aI15207
aI15115
a.