(dp0
S'/html/body/div/div/div/div/div/div/div/div/div/b'
p1
F9.96434086779242
sS'/html/body/div/div/article/div/div/section/div/div'
p2
F9.96434086779242
sS'/html/body/div/div/div/div/div/div/div/div/div/div/div/div/h2/a'
p3
F4.156985945734815
sS'/html/body/div/div/div/div/div/div/div/div/p/span/img'
p4
F7.964340867792419
sS'/html/body/div/div/article/div/div/ul/div/i/a'
p5
F8.379378367071263
sS'/html/body/div/div/article/div/div/center/div/p/font/em'
p6
F9.96434086779242
sS'/html/body/div/div/div/div/div/div/div/div/a/img'
p7
F2.5980186535466028
sS'/html/body/div/div/div/div/ul/li/ul/li/a'
p8
F5.794415866350105
sS'/html/body/div/div/div/div/div/div/div/p/span/a'
p9
F9.96434086779242
sS'/html/body/div/div/div/div/div/div/div/div/div/li/a'
p10
F9.96434086779242
sS'/html/body/div/div/div/div/div/div/h5/a'
p11
F8.96434086779242
sS'/html/body/div/div/div/div/div/div/div/div/div/p'
p12
F3.716413354348833
sS'/html/body/div/div/div/div/div/div/div/div/div/a'
p13
F4.876878026542079
sS'/html/body/div/div/article/header/div/div/img'
p14
F5.504909249155121
sS'/html/body/div/div/article/div/div/section/div/div/div/div/div/div/div'
p15
F1.7403391935943133
sS'/html/body/div/div/article/div/div/div/p/span/em/a'
p16
F7.964340867792419
sS'/html/body/div/div/div/div/div/p/a'
p17
F6.794415866350106
sS'/html/body/div/div/article/div/div/section/div/h3'
p18
F9.96434086779242
sS'/html/body/div/div/article/div/div/center/div/p/em/small'
p19
F9.96434086779242
sS'/html/body/div/div/article/div/div/div/script'
p20
F0.642412772905056
sS'/html/body/div/div/article/div/div/div/h4/strong/em'
p21
F9.96434086779242
sS'/html/body/div/div/div/div/div/div/div/div/h5/a'
p22
F9.96434086779242
sS'/html/body/div/div/div/div/div/div/div/div/div/p/img'
p23
F9.96434086779242
sS'/html/body/div/div/div/div/div/div/div/ul/li/div/div/div/ul/li/a'
p24
F3.0101445574055434
sS'/html/body/div/div/article/div/div/ul/li/div/span'
p25
F6.379378367071262
sS'/html/body/div/div/div/div/div/div/div/div/p/strong/u'
p26
F9.96434086779242
sS'/html/body/div/div/article/div/div/div/center/div/script'
p27
F8.379378367071263
sS'/html/body/div/div/div/div/div/div/h2/a/div/div/div/span'
p28
F6.379378367071262
sS'/html/body/div/div/article/div/div/div/div/div/div/ul/li/a'
p29
F0.6289505130984935
sS'/html/body/div/div/article/header/div/h2'
p30
F1.3906936802990963
sS'/html/body/div/div/article/header/div/h1'
p31
F0.6289505130984935
sS'/html/body/div/div/div/div/div/div/div/div/a/div/div'
p32
F4.6067888631743354
sS'/html/body/div/div/div/div/div/div/div/div/div/strong/ul/li/a'
p33
F9.96434086779242
sS'/html/body/div/div/article/div/div/section/div/div/div/div/div/p'
p34
F1.7403391935943133
sS'/html/body/div/div/article/div/div/center/div/p/iframe'
p35
F7.642412772905057
sS'/html/body/div/div/div/div/div/div/div/div/p/em/strong/br'
p36
F9.96434086779242
sS'/html/body/div/div/div/div/div/div/div/strong/a'
p37
F9.96434086779242
sS'/html/body/div/div/div/div/div/div/div/div/p/strong/a'
p38
F6.504909249155122
sS'/html/body/div/div/div/div/div/form/input'
p39
F8.96434086779242
sS'/html/body/div/div/div/div/div/div/div/div/ul/li/div/div/a/img'
p40
F7.156985945734815
sS'/html/body/div/div/div/div/div/div/h1/br'
p41
F8.96434086779242
sS'/html/body/div/div/article/div/div/section/div/div/div/div/div/a'
p42
F7.642412772905057
sS'/html/body/div/div/div/div/a/div'
p43
F7.156985945734815
sS'/html/body/rss/channel/item/link'
p44
F9.96434086779242
sS'/html/body/div/div/div/h1/a/img'
p45
F9.96434086779242
sS'/html/body/div/div/div/div/div/div/div/div/p/span/em/a'
p46
F9.96434086779242
sS'/html/body/div/div/div/div/div/div/div/div/div/div/blockquote/div/div/div'
p47
F8.96434086779242
sS'/html/body/div/div/div/div/div/div/div/div/div/div/div/div/p/strong'
p48
F8.96434086779242
sS'/html/body/div/div/article/div/div/div/blockquote/ul/li/a/span'
p49
F9.96434086779242
sS'/html/body/div/div/article/div/div/div/div/div/section/div/div'
p50
F6.0574502721839
sS'/html/body/div/div/article/div/div/section/div/div/div/div/div/blockquote/a'
p51
F8.96434086779242
sS'/html/body/div/div/div/img'
p52
F5.876878026542079
sS'/html/body/div/div/div/a'
p53
F1.5464883529065203
sS'/html/body/div/div/div/div/div/div/div/div/center/iframe'
p54
F9.96434086779242
sS'/html/body/div/div/article/div/div/div/p/em/a/span'
p55
F8.379378367071263
sS'/html/body/div/div/article/div/div/figure/div'
p56
F4.572023445013658
sS'/html/body/div/div/div/div/div/div/div/div/div/span'
p57
F2.8044695310140293
sS'/html/body/div/div/article/div/div/div/div/div/div/div/strong'
p58
F8.96434086779242
sS'/html/body/div/div/article/div/div/div/section/div/form/div/div/a'
p59
F0.6628446728098694
sS'/html/body/div/div/div/div/div/div/div/div/p/strong/em'
p60
F7.379378367071262
sS'/html/body/rss/channel/item/description/u'
p61
F9.96434086779242
sS'/html/body/div/div/div/div/div/div/div/div/div/div/div/a/img'
p62
F7.642412772905057
sS'/html/body/div/div/article/div/div/div/div/div/div/blockquote/p'
p63
F8.379378367071263
sS'/html/body/div/div/article/div/div/blockquote/div/p/a'
p64
F7.964340867792419
sS'/html/head/meta'
p65
F0.002891173394222513
sS'/html/body/div/div/div/div/div/div/ul/li/div/div/div/ul/li/span'
p66
F7.156985945734815
sS'/html/body/div/div/article/div/div/div/section'
p67
F8.96434086779242
sS'/html/body/div/div/div/div/div/div/div/div/h2/a/div'
p68
F7.379378367071262
sS'/html/body/div/div/div/div/div/ul/li/a/i'
p69
F5.5720234450136585
sS'/html/body/div/div/div/div/div/div/div/div/div/div/blockquote/a'
p70
F6.964340867792418
sS'/html/body/div/div/div/div/div/div/div/ul/li/br'
p71
F9.96434086779242
sS'/html/body/div/div/article/div/div/p/strong'
p72
F7.642412772905057
sS'/html/body/div/div/article/div/div/div/div/p/em/a'
p73
F9.96434086779242
sS'/html/body/div/div/article/div/div/div/blockquote/div/p/time'
p74
F5.440778911735405
sS'/html/body/div/center/div/div/div/span'
p75
F2.2848607682869724
sS'/html/body/div/div/div/div/div/div/ul/li/div/div/div/div/div/ul/li/a'
p76
F7.156985945734815
sS'/html/body/div/div/div/div/div/ul/li/div/div/div/div/ul/li/a/span/span/span'
p77
F3.554949931654717
sS'/html/body/div/div/div/div/div/div/div/ul/li/div/div/div/div'
p78
F7.964340867792419
sS'/html/body/div/div/div/div/div/div/div/div/ul/li/br'
p79
F9.96434086779242
sS'/html/body/div/div/div/div/div/div/div/ul/li/a/span'
p80
F4.010144557405543
sS'/html/body/div/div/div/div/div/div/h2/a/div/span'
p81
F6.642412772905057
sS'/html/body/div/center/div/div/div'
p82
F2.2848607682869724
sS'/html/body/div/div/div/div/div/div/div/div/div/strong'
p83
F2.8768780265420792
sS'/html/body/div/div/article/div/div/div/div/strong/em'
p84
F9.96434086779242
sS'/html/body/div/div/div/div/div/div/div/div/center/a'
p85
F7.964340867792419
sS'/html/body/div/div/article/div/div/div/div/div/div/div/a/em'
p86
F8.96434086779242
sS'/html/body/div/div/div/div/div/div/div/a/strong'
p87
F9.96434086779242
sS'/html/body/div/div/article/div/div/p/em'
p88
F6.794415866350106
sS'/html/body/div/div/div/div/div/div/div/div/div/div/div/p/img'
p89
F8.96434086779242
sS'/html/body/div/div/div/div/div/div/ul/li/div/div/div/ul/li/a'
p90
F7.156985945734815
sS'/html/body/div/div/div/div/div/div/div/form/input'
p91
F7.156985945734815
sS'/html/body/div/div/article/div/div/div/p/a/em/span'
p92
F8.379378367071263
sS'/html/body/div/div/article/div/div/div/em'
p93
F8.379378367071263
sS'/html/body/div/div/div/div/div/div/div/div/div/p/em/strong'
p94
F9.96434086779242
sS'/html/body/div/div/div/div/div/div/div/ul/li/span/a'
p95
F7.642412772905057
sS'/html/body/div/div/div/div/div/div/div/h2/a/div/h2/span/a'
p96
F4.876878026542079
sS'/html/body/div/div/div/div/div/div/div/div/div/div/div/div/span'
p97
F4.236420413229219
sS'/html/body/div/div/article/div/div/div/p'
p98
F0.7403391935943134
sS'/html/head/script'
p99
F0.004338935724337443
sS'/html/body/div/div/div/div/div/form/div/input'
p100
F9.96434086779242
sS'/html/body/div/div/article/div/div/section/div/ul/li/div/div'
p101
F7.642412772905057
sS'/html/body/div/div/div/div/div/h4/span'
p102
F9.96434086779242
sS'/html/body/div/div/article/div/div/div/div/div/section/div/form/div/label'
p103
F6.0574502721839
sS'/html/body/div/div/article/div/div/div/a'
p104
F0.6311855174818017
sS'/html/body/rss/channel/item/guid'
p105
F9.96434086779242
sS'/html/body/div/div/article/div/div/section/div/script'
p106
F7.379378367071262
sS'/html/body/div/div/div/div/div/div/div/script'
p107
F2.589301436445494
sS'/html/body/rss/channel/item/description/center/a/img'
p108
F9.96434086779242
sS'/html/body/div/div/article/div/div/center/blockquote/p/a'
p109
F9.96434086779242
sS'/html/body/div/div/div/div/div/div/div/input'
p110
F2.855816411014249
sS'/html/body/div/div/div/div/div/div/div/em'
p111
F6.263901149651327
sS'/html/body/div/div/div/div/div/div/div/div/div/div/div/div/a'
p112
F3.7548875021634687
sS'/html/body/div/div/article/div/div/div/div/div/div/div/form/input'
p113
F0.6289505130984935
sS'/html/body/div/div/article/div/div/div/p/a/em'
p114
F6.379378367071262
sS'/html/body/div/div/article/div/div/section/div/div/div/div'
p115
F1.7403391935943133
sS'/html/body/div/div/div/div/div/div/div/ul/li/div/div/div/div/div/ul/li/a'
p116
F3.0101445574055434
sS'/html/body/div/div/div/div/div/div/div/div/h5/em'
p117
F9.96434086779242
sS'/html/body/div/div/div/div/div/div/div/div/span'
p118
F1.8558164110142492
sS'/html/body/div/div/article/div/div/ol/li/a'
p119
F9.96434086779242
sS'/html/head/style'
p120
F0.6244908649077937
sS'/html/body/div/div/article/div/div/div/blockquote/ul/li/span/a/span'
p121
F9.96434086779242
sS'/html/body/div/div/div/div/div/div/div/div/div/div/div/div/p'
p122
F3.8558164110142497
sS'/html/body/div/div/article/div/div/div/blockquote/div'
p123
F8.96434086779242
sS'/html/body/div/div/article/header/div/ul/li/div'
p124
F2.6975543270975173
sS'/html/body/div/div/article/div/div/div/p/em/strong/a'
p125
F8.96434086779242
sS'/html/body/div/div/article/header/div/div/span'
p126
F1.1001547231381381
sS'/html/body/div/div/div/div/div/div/h2/a/div/h2/span/a/br'
p127
F9.96434086779242
sS'/html/body/div/div/article/div/div/div/div/div/div/div/br'
p128
F8.96434086779242
sS'/html/body/div/div/div/ul'
p129
F4.504909249155121
sS'/html/body/div/div/div/div/div/div/div/div/div/div/i'
p130
F4.263901149651326
sS'/html/body/div/div/article/div/div/ul/li/em'
p131
F9.96434086779242
sS'/html/body/div/div/article/header/div/h2/em'
p132
F9.96434086779242
sS'/html/body/div/div/article/header/div/ul/li/div/span/i'
p133
F8.96434086779242
sS'/html/body/div/div/div/div/div/div/div/br'
p134
F5.379378367071262
sS'/html/body/div/div/article/header/div/ul/li/div/span/a'
p135
F2.688216462518181
sS'/html/body/div/div/div/div/div/div/div/div/style'
p136
F7.642412772905057
sS'/html/body/div/div/div/div/div/div/div/div/p/span/em'
p137
F8.96434086779242
sS'/html/body/div/div/div/div/div/div/div/ul/li/div/a/span'
p138
F2.987060944292502
sS'/html/body/div/div/article/div/div/ul/div/strong/a'
p139
F8.379378367071263
sS'/html/body/div/div/article/div/div/section/div/div/div/div/div/img'
p140
F1.7695840133701706
sS'/html/body/div/div/article/div/div/blockquote/div/div/div'
p141
F9.96434086779242
sS'/html/body/div/div/div/div/div/div/div/div/p/hh--236slidepollajax--482764--hh'
p142
F9.96434086779242
sS'/html/body/div/div/article/div/div/section/div/ul/div'
p143
F8.96434086779242
sS'/html/body/div/div/div/div/div/div/div/div/div/div/p'
p144
F6.642412772905057
sS'/html/body/div/div/article/div/div/div/p/em/a/em'
p145
F9.96434086779242
sS'/html/body/div/div/div/div/strong'
p146
F7.964340867792419
sS'/html/body/div/div/article/div/div/section/div/ul/div/i'
p147
F9.96434086779242
sS'/html/body/div/div/div/div/div/div/div/ul/li/div/div/div/ul/li/a/span/img'
p148
F9.96434086779242
sS'/html/body/div/div/div/div/div/div/div/div/ul/li/strong/span'
p149
F8.96434086779242
sS'/html/body/div/div/div/div/div/div/div/form/button'
p150
F7.379378367071262
sS'/html/body/div/div/article/div/div/div/div/iframe'
p151
F5.263901149651326
sS'/html/body/div/div/div/div/div/div/div/ul/li/ol/li/a'
p152
F4.033603530229532
sS'/html/body/div/div/article/div/div/div/section/ul/li'
p153
F0.6628446728098694
sS'/html/body/div/div/div/div/div/div/div/div/div/div/div/div/div/div/ul/li/a/span'
p154
F8.96434086779242
sS'/html/body/div/div/article/div/div/div/div/div/blockquote/p'
p155
F7.379378367071262
sS'/html/body/div/div/article/div/div/div/ul/li/span/a'
p156
F9.96434086779242
sS'/html/body/div/div/div/div/div/div/div/div/ul/li/p/strong'
p157
F8.379378367071263
sS'/html/body/div/div/div/div/div/div/div/div/div/div/div/div/div/div/div/p/a'
p158
F9.96434086779242
sS'/html/body/div/div/div/div/div/div/table/tr/td/span/a'
p159
F2.2919155258209227
sS'/html/body/div/div/article/div/div/div/p/strong/br'
p160
F6.379378367071262
sS'/html/body/div/div/div/div/div/div/div/p/strong'
p161
F9.96434086779242
sS'/html/body/div/div/article/div/div/div/h4/span/em'
p162
F9.96434086779242
sS'/html/body/div/div/div/div/div/div/div/div/ol/li'
p163
F8.379378367071263
sS'/html/body/div/div/div/div/div/div/ul/li/div/span/span/span'
p164
F8.96434086779242
sS'/html/body/div/div/div/div/br'
p165
F2.0218263624531785
sS'/html/body/div/div/article/div/div/div/div/div/blockquote/a'
p166
F7.379378367071262
sS'/html/body/div/div/article/div/div/div/p/br'
p167
F3.1063598726648465
sS'/html/body/div/div/article/div/div/div/p/em/br'
p168
F6.156985945734815
sS'/html/body/div/div/div/div/div/div/div/div/div/div/div/div/div/ul/li/div/div/div/a/span'
p169
F9.96434086779242
sS'/html/body/div/div/div/div/div/div/div/div/ul/li'
p170
F5.716413354348833
sS'/html/body/div/div/div/div/div/center'
p171
F5.1063598726648465
sS'/html/body/div/div/article/div/div/div/p/a/em/u'
p172
F9.96434086779242
sS'/html/body/div/div/article/div/div/section/div/div/div/div/div/div/br'
p173
F5.010144557405543
sS'/html/body/div/div/div/div/div/div/div/h2/a/div/span/span/a'
p174
F5.642412772905057
sS'/html/body/rss/channel/item/description/p/span'
p175
F9.96434086779242
sS'/html/body/div/div/div/div/div/div/div/div/div/div/div/div/div/ul/li/div/div/div/p'
p176
F9.96434086779242
sS'/html/body/div/div/div/div/div/div/div/h5/a/span'
p177
F9.96434086779242
sS'/html/body/div/div/div/div/div/div/div/h2/a/div/span'
p178
F6.0574502721839
sS'/html/body/div/div/div/div/div/p/a/img'
p179
F9.96434086779242
sS'/html/body/div/div/article/header/ul/li/div'
p180
F1.345955365533812
sS'/html/body/div/div/article/div/div/div/div/a/em'
p181
F9.96434086779242
sS'/html/body/div/div/div/div/div/div/ul/li/div/a/img'
p182
F6.504909249155122
sS'/html/body/div/div/div/div/div/div/h5/div/h2/a'
p183
F8.96434086779242
sS'/html/body/div/div/div/ul/li/a'
p184
F1.794415866350106
sS'/html/body/div/div/article/div/div/div/div/div/div/div/a'
p185
F6.504909249155122
sS'/html/body/div/div/div/div/div/form/div/a'
p186
F9.96434086779242
sS'/html/body/div/div/div/div/div/div/div/div/div/div/div/p/br'
p187
F7.379378367071262
sS'/html/body/div/div/article/div/div/section/div/div/div/div/div/script'
p188
F8.96434086779242
sS'/html/body/rss/channel/item/author'
p189
F9.96434086779242
sS'/html/body/div/div/article/div/div/div/p/strong/em/em'
p190
F9.96434086779242
sS'/html/body/div/div/article/div/div/center/div/p/em/font'
p191
F9.96434086779242
sS'/html/body/div/div/article/div/div/section/div/div/div/div/div/div/i'
p192
F8.96434086779242
sS'/html/body/div/div/article/div/div/p/img'
p193
F7.964340867792419
sS'/html/body/div/div/article/div/div/div/p/span/span/strong'
p194
F9.96434086779242
sS'/html/body/div/div/article/div/div/div/p/a/img'
p195
F4.754887502163469
sS'/html/body/div/div/article/div/div/div/p/em/a/wbr'
p196
F6.642412772905057
sS'/html/body/div/div/article/div/div/section/div/div/div/div/div/div/a'
p197
F3.504909249155121
sS'/html/body/div/div/div/div/div/div/h4/a'
p198
F4.409752016114782
sS'/html/body/div/div/article/div/div/section/div/div/div/div/div/div/b'
p199
F7.964340867792419
sS'/html/body/div/div/article/div/div/section/div/div/div/div/div/div/em'
p200
F6.964340867792418
sS'/html/body/div/div/article/div/div/div/div/div/section/div/form/input'
p201
F6.0574502721839
sS'/html/body/div/center/div/div/div/a/img'
p202
F2.2848607682869724
sS'/html/body/div/div/article/div/div/section/div/ul/div/strong/a'
p203
F9.96434086779242
sS'/html/body/div/div/div/div/div/div/span'
p204
F6.379378367071262
sS'/html/body/div/div/div/div/div/div/div/ul/li/ol/li/div/div'
p205
F4.033603530229532
sS'/html/body/div/div/article/div/div/center/div/p/a'
p206
F7.964340867792419
sS'/html/body/div/div/div/div/div/div/div/div/div/p/br'
p207
F7.964340867792419
sS'/html/body/div/div/article/div/div/ul/li/strong'
p208
F8.96434086779242
sS'/html/body/div/div/div/div/div/div/div/div/ul/p/br'
p209
F9.96434086779242
sS'/html/body/div/div/article/div/div/center/div/script'
p210
F8.96434086779242
sS'/html/body/div/div/div/div/div/div/ul/li/div/span/a'
p211
F7.379378367071262
sS'/html/body/div/div/article/div/div/div/p/strong/a'
p212
F5.320484678017694
sS'/html/body/div/div/div/div/div/div/div/ul/li/div/div/span'
p213
F9.96434086779242
sS'/html/body/div/div/div/div/div/div/a/like'
p214
F9.96434086779242
sS'/html/body/div/div/article/div/div/div/center/blockquote/a'
p215
F9.96434086779242
sS'/html/body/div/div/div/div/div/div/img'
p216
F7.156985945734815
sS'/html/body/div/div/div/div/div/ul/li/div/div/div/div/strong'
p217
F2.2848607682869724
sS'/html/body/div/div/article/div/div/section/div/div/div/div/div/div/big'
p218
F9.96434086779242
sS'/html/body/div/div/article/div/div/div/div/div/h2'
p219
F0.6289505130984935
sS'/html/body/div/div/article/div/div/div/div/div/h3'
p220
F6.0574502721839
sS'/html/body/div/div/article/div/div/center/div/p'
p221
F6.263901149651327
sS'/html/body/div/div/article/header/ul/li/div/em'
p222
F8.96434086779242
sS'/html/body/div/div/div/div/div/div/div/div/p/em/center'
p223
F9.96434086779242
sS'/html/body/div/div/div/div/div/div/div/div/div/div/p/br'
p224
F7.642412772905057
sS'/html/body/div/div/div/div/ul/li/a/img'
p225
F9.96434086779242
sS'/html/body/div/div/div/div/div/div/div/div/div/div/div/div/div/a/span'
p226
F2.3061293850406237
sS'/html/body/div/div/article/div/div/section/div/ul/li/div/div/a'
p227
F9.96434086779242
sS'/html/body/div/div/article/div/div/div/blockquote/p/em'
p228
F8.96434086779242
sS'/html/body/div/div/div/div/div/div/div/h2/img'
p229
F7.964340867792419
sS'/html/body/div/div/article/div/div/span'
p230
F9.96434086779242
sS'/html/body/div/div/div/div/div/div/div/ul/li/div/div/div/div/strong'
p231
F2.987060944292502
sS'/html/body/div/div/article/div/div/ul/div/li'
p232
F9.96434086779242
sS'/html/body/div/div/article/div/div/div/div/center/img'
p233
F8.96434086779242
sS'/html/body/div/div/article/div/div/div/div/div'
p234
F0.6311855174818017
sS'/html/body/div/div/div/div/div/div/ul/li/ol/li/span'
p235
F2.118850816848043
sS'/html/body/div/div/div/div/div/div/div/ul/li/span/img'
p236
F6.794415866350106
sS'/html/body/div/div/div/div/div/div/div/div/div/div/div/div/div/h2/a/i'
p237
F8.96434086779242
sS'/html/body/div/div/div/div/div/div/div/ul/li/a/li/a'
p238
F8.96434086779242
sS'/html/body/div/div/article/div/div/section/div/form/div/label'
p239
F9.96434086779242
sS'/html/body/div/div/article/div/div/div/div/div/div/ul'
p240
F8.96434086779242
sS'/html/body/div/div/div/div/div/div/div/b'
p241
F9.96434086779242
sS'/html/body/div/div/div/div/div/div/h5/div/div'
p242
F8.96434086779242
sS'/html/body/div/div/div/div/div/div/div/a'
p243
F2.34963102367721
sS'/html/body/div/div/article/div/div/div/div/div/div/img'
p244
F4.236420413229219
sS'/html/body/div/div/article/div/div/div/div/p/br'
p245
F9.96434086779242
sS'/html/body/div/div/div/div/div/a/h1/img'
p246
F2.8768780265420792
sS'/html/body/div/div/div/div/div/div/div/div/ul/span/a'
p247
F9.96434086779242
sS'/html/body/div/div/div/div/div/div/div/div/div/div/div/div/div/ul/li/div/div/div/p/a'
p248
F9.96434086779242
sS'/html/body/div/div/div/div/div/div/div/ul/li/form/div/label/input'
p249
F4.033603530229532
sS'/html/body/div/div/article/div/script'
p250
F0.6289505130984935
sS'/html/body/div/div/article/div/p/strong/span'
p251
F9.96434086779242
sS'/html/body/div/div/div/div/div/div/div/div/p/em/strong/center/p/a'
p252
F9.96434086779242
sS'/html/body/div/div/div/div/div/div/div/div/p/a/s'
p253
F9.96434086779242
sS'/html/body/div/div/article/div/div/ul/li'
p254
F7.964340867792419
sS'/html/body/div/div/div/div/div/div/div/em/a'
p255
F7.156985945734815
sS'/html/body/div/div/article/div/div/blockquote/p'
p256
F4.919946748433965
sS'/html/body/div/div/article/div/div/div/p/em/span/span'
p257
F8.379378367071263
sS'/html/body/div/div/article/header/div/span/strong'
p258
F1.4486410295083758
sS'/html/body/div/div/article/div/div/ul/div/br'
p259
F6.642412772905057
sS'/html/body/div/div/div/div/div/div/div/h2/a/div/div/div/a/img'
p260
F4.835057850847452
sS'/html/body/div/div/article/div/div/div/div/img'
p261
F1.7597697235432148
sS'/html/body/div/div/div/div/div/div/ul/li'
p262
F8.96434086779242
sS'/html/body/div/div/article/div/div/div/h4/em'
p263
F9.96434086779242
sS'/html/body/div/div/div/div/div/div/div/h2/a/div/span/span/a/br'
p264
F8.96434086779242
sS'/html/body/div/div/div/div/div/a/b'
p265
F8.96434086779242
sS'/html/body/div/div/div/div/div/div/div/div/p/b'
p266
F9.96434086779242
sS'/html/body/div/div/div/div/div/div/div'
p267
F1.6975543270975169
sS'/html/body/div/div/article/header/div/a/img'
p268
F9.96434086779242
sS'/html/body/div/div/div/div/div/div/div/div/p/i'
p269
F8.96434086779242
sS'/html/body/div/div/div/div/div/div/div/div/div/div/div/div/div/a'
p270
F3.0939761482090136
sS'/html/body/div/div/div/div/div/div/div/div/br'
p271
F4.156985945734815
sS'/html/body/div/div/div/div/div/div/div/ul/li/div/div/div/ul/li/a/span/strong'
p272
F9.96434086779242
sS'/html/body/div/div/div/div'
p273
F0.004338935724337443
sS'/html/body/div/div/div/div/div/div/div/small'
p274
F8.379378367071263
sS'/html/body/div/div/article/div/div/div/div/div/a/div/div'
p275
F4.236420413229219
sS'/html/body/div/div/article/div/div/section/div/div/div/div/div/div'
p276
F1.7403391935943133
sS'/html/body/div/div/article/div/div/div/p/em/a'
p277
F3.0574502721839
sS'/html/body/div/div/div/div/div/div/div/div/p/u'
p278
F7.379378367071262
sS'/html/body/div/div/div/div/div/div/div/h2/a/div/span/span/a/em'
p279
F9.96434086779242
sS'/html/body/div/div/div/div/div/div/div/div/p/em/strong/a'
p280
F8.379378367071263
sS'/html/body/div/div/div/div/div/div/div/div/div/div/div/div/div/p/a'
p281
F5.20945336562895
sS'/html/body/div/div/style'
p282
F0.04846148895664503
sS'/html/body/div/div/div/a/div'
p283
F0.6289505130984935
sS'/html/body/div/div/div/div/div/div/div/div/div/div/blockquote/p/a'
p284
F6.964340867792418
sS'/html/body/div/div/div/div/div/ul/li/div'
p285
F7.156985945734815
sS'/html/body/div/div/div/div/div/div/div/div/div/div/div/div/ul/li/a'
p286
F8.379378367071263
sS'/html/body/div/div/article/div/div/p/strong/a'
p287
F9.96434086779242
sS'/html/body/div/div/article/div/div/p/font/strong/em/center'
p288
F9.96434086779242
sS'/html/body/div/div/div/div/div/div/script'
p289
F1.5213973719436902
sS'/html/body/div/div/article/div/div/div/div/div/div/div/em/a'
p290
F7.964340867792419
sS'/html/body/div/div/div/div/div/div/div/h3/a/em'
p291
F8.379378367071263
sS'/html/body/div/div/div/div/div/div/div/ul/li/div/div/div/div/ul/li/a/span/span'
p292
F2.9985565831303314
sS'/html/body/div/div/div/div/div/div/div/ul/li/ol/li/div/a'
p293
F4.409752016114782
sS'/html/body/div/div/article/div/div/iframe'
p294
F0.6289505130984935
sS'/html/body/div/div/div/div/div/h1/a/img'
p295
F2.3061293850406237
sS'/html/body/div/div/article/div/div/div/h3'
p296
F0.6628446728098694
sS'/html/body/div/div/article/div/div/div/div/a/img'
p297
F4.1063598726648465
sS'/html/body/div/div/article/div/div/section/div/ul/li/div/div/div/iframe'
p298
F9.96434086779242
sS'/html/body/div/div/article/div/div/div/blockquote/p/span/span'
p299
F9.96434086779242
sS'/html/body/div/div/article/h1'
p300
F9.96434086779242
sS'/html/body/div/div/div/div/div/span'
p301
F0.22793893647412822
sS'/html/body/div/div/div/div/div/div/div/ul/li/ol/li/div/span/script'
p302
F4.182981154267759
sS'/html/body/div/div/article/div/div/div/p/em/span'
p303
F5.5720234450136585
sS'/html/body/div/div/div/div/div/div/div/style'
p304
F4.835057850847452
sS'/html/body/div/div/div/div/div/div/div/div/div/a/span'
p305
F4.209453365628949
sS'/html/body/div/div/article/div/div/div/section/div/ul/li/strong'
p306
F0.6628446728098694
sS'/html/body/div/div/div/div/div/div/p'
p307
F8.379378367071263
sS'/html/body/div/div/article/div/div/div/h4/strong'
p308
F5.964340867792418
sS'/html/body/div/div/div/div/ul/li/div'
p309
F5.876878026542079
sS'/html/body/div/noscript/img'
p310
F8.379378367071263
sS'/html/body/div/div/article/div/div/div/blockquote/p/a/span'
p311
F7.964340867792419
sS'/html/body/div/div/div/div/div/div/div/div/div/div/div/div/p/b'
p312
F8.96434086779242
sS'/html/body/div/div/div/div/div/div/div/div/div/div/span'
p313
F2.5297126401556937
sS'/html/body/div/div/article/div/p/strong'
p314
F9.96434086779242
sS'/html/body/div/div/div/div/div/div/div/div/div/div/div/div/a/img'
p315
F4.236420413229219
sS'/html/body/div/div/div/div/div/div/div/div/div/div/div/div/p/i'
p316
F8.96434086779242
sS'/html/body/div/div/article/div/div/center/p/em'
p317
F9.96434086779242
sS'/html/body/div/div/article/div/div/div/div/form/p/input'
p318
F8.379378367071263
sS'/html/body/div/div/div/div/div/div/a'
p319
F3.8768780265420792
sS'/html/body/div/div/article/div/div/section/div/div/div/div/div/center/script'
p320
F9.96434086779242
sS'/html/body/div/div/div/div/div/div/ul/li/ol/li/div/span/script'
p321
F3.898251677334646
sS'/html/body/div/div/div/div/div/div/div/h2/a/br'
p322
F8.96434086779242
sS'/html/body/div/div/article/header/div/span'
p323
F0.6289505130984935
sS'/html/body/div/div/div/strong'
p324
F0.6267189657999108
sS'/html/body/div/div/article/div/div/figure/span'
p325
F3.118850816848043
sS'/html/body/div/div/div/div/div/div/div/div/blockquote/p/span'
p326
F9.96434086779242
sS'/html/body/div/div/article/div/div/div/h1'
p327
F9.96434086779242
sS'/html/body/rss/channel/link'
p328
F9.96434086779242
sS'/html/body/div/div/div/div/div/div/div/div/p/iframe'
p329
F7.642412772905057
sS'/html/body/div/div/div/div/div/div/div/h2/a'
p330
F3.409752016114781
sS'/html/body/div/div/div/div/div/div/div/div/div/i'
p331
F5.964340867792418
sS'/html/body/div/div/article/div/div/div/h4/a'
p332
F8.96434086779242
sS'/html/body/div/div/article/div/div/div/div/p/strong'
p333
F9.96434086779242
sS'/html/body/div/div/article/div/div/blockquote/span'
p334
F4.794415866350106
sS'/html/body/div/div/article/div/div/div/p/img'
p335
F4.835057850847452
sS'/html/body/div/div/div/div/div/div/div/h4/a/div'
p336
F6.964340867792418
sS'/html/body/div/div/div/div/div/div/div/ul/li/div/div/div/div/a/span/span'
p337
F9.96434086779242
sS'/html/body/div/div/article/div/div/div/em/strong'
p338
F8.379378367071263
sS'/html/body/div/div/div/div/div/div/div/a/div/div/span'
p339
F2.425182056684387
sS'/html/body/div/div/article/div/div/div/ul/li/a'
p340
F9.96434086779242
sS'/html/body/div/div/div/div/div/div/div/div/div/script'
p341
F3.794415866350106
sS'/html/body/div/div/div/div/div/div/div/div/blockquote/ul/p'
p342
F9.96434086779242
sS'/html/body/div/div/article/div/div/p/em/a'
p343
F9.96434086779242
sS'/html/body/div/div/div/div/div/div/div/span'
p344
F3.1961565430154923
sS'/html/body/div/div/article/div/div/div/div/p/em/strong'
p345
F9.96434086779242
sS'/html/body/div/div/div/div/div/div/h5/a/div/div'
p346
F8.96434086779242
sS'/html/body/div/div/div/div/div/div/div/div/div/div/div/div/div/div/h2/a'
p347
F9.96434086779242
sS'/html/body/div/div/div/div/div/div/div/ul/li/a'
p348
F1.6697201189007913
sS'/html/body/div/div/article/div/div/ul/div/i/br'
p349
F9.96434086779242
sS'/html/body/div/div/article/div/div/div/ul/li/p'
p350
F9.96434086779242
sS'/html/body/div/div/div/div/div/div/div/ul/li/h3/a'
p351
F8.96434086779242
sS'/html/body/div/div/div/div/div/div/div/p/em'
p352
F6.379378367071262
sS'/html/body/div/div/article/div/div/div/blockquote/p'
p353
F4.716413354348833
sS'/html/body/div/div/article/div/div/div/ul/li/p/a/span'
p354
F9.96434086779242
sS'/html/body/div/div/div/div/div/h3'
p355
F1.7994339411167308
sS'/html/body/div/div/div/div/div/h2'
p356
F2.774516308912401
sS'/html/body/div/div/div/div/div/h1'
p357
F8.96434086779242
sS'/html/body/div/div/div/div/div/div/div/div/em/a'
p358
F8.379378367071263
sS'/html/body/div/div/article/div/div/div/p/big/strong/a'
p359
F8.96434086779242
sS'/html/body/div/div/article/div/div/ul/li/div/a'
p360
F5.320484678017694
sS'/html/body/div/div/article/div/div/section/ul/li'
p361
F9.96434086779242
sS'/html/body/div/div/div/div/div/style'
p362
F3.8768780265420792
sS'/html/body/div/div/div/div/div/div/ul/li/form/p/a'
p363
F2.118850816848043
sS'/html/body/div/div/article/div/div/div/p/strong'
p364
F2.824789515393625
sS'/html/body/div/div/div/div/div/div/div/div/div/div/div/div/div/a/em/span'
p365
F9.96434086779242
sS'/html/body/div/div/div/div/div/div/div/div/div/div/div/div/div/ul/li/div/div/h3/a'
p366
F9.96434086779242
sS'/html/body/div/div/nav/div/div/div/div/a/span'
p367
F0.6311855174818017
sS'/html/body/div/div/article/div/div/div/div/span'
p368
F7.379378367071262
sS'/html/body/div/div/article/div/div/div/div/div/div/div/h3'
p369
F0.6289505130984935
sS'/html/body/div/div/article/div/div/div/img'
p370
F7.379378367071262
sS'/html/body/div/div/div/div/div/div/ul/li/ul/li/a'
p371
F7.642412772905057
sS'/html/body/div/div/article/div/div/div/div/blockquote/div/p/a'
p372
F9.96434086779242
sS'/html/body/div/div/article/div/div/ul/div/a/i'
p373
F8.96434086779242
sS'/html/body/div/div/div/div/div/div/div/div/div/div/a/span/strong/br'
p374
F8.96434086779242
sS'/html/body/div/div/article/div/div/div/blockquote/p/span/a'
p375
F9.96434086779242
sS'/html/body/div/div/div/div/div/div/div/h2/a/div/h2/span/a/font'
p376
F9.96434086779242
sS'/html/body/div/div/div/div/div/div/div/div/ul/li/a'
p377
F2.8145937482877366
sS'/html/body/div/div/article/div/div/section/div/div/div/div/div/center/blockquote/a'
p378
F9.96434086779242
sS'/html/body/div/div/article/div/div/div/div/div/div/blockquote/a'
p379
F7.964340867792419
sS'/html/body/div/div/div/div/div/div/div/div/span/span/span'
p380
F3.1063598726648465
sS'/html/body/div/div/article/div/div/div/p/em/strong'
p381
F4.754887502163469
sS'/html/body/div/div/div/div/div/div/div/div/h5/a/span'
p382
F9.96434086779242
sS'/html/body/div/div/article/div/div/p/em/em/a'
p383
F9.96434086779242
sS'/html/body/div/div/div/div/div/div/div/div/div/div/div/style'
p384
F8.96434086779242
sS'/html/body/div/div/div/div/div/div/div/div/ul/li/p'
p385
F8.379378367071263
sS'/html/head/link'
p386
F0.002891173394222513
sS'/html/body/div/div/article/div/div/div/blockquote/div/p'
p387
F9.96434086779242
sS'/html/body/div/div/div/div/div/div/ul/li/h3/a'
p388
F6.794415866350106
sS'/html/body/div/noscript/a/img'
p389
F9.96434086779242
sS'/html/body/div/div/article/div/div/h4'
p390
F8.379378367071263
sS'/html/body/div/div/article/div/div/h2'
p391
F9.96434086779242
sS'/html/body/div/div/div/div/div/div/div/div/div/div/div/span'
p392
F7.642412772905057
sS'/html/body/div/div/div/div/div/div/div/div/div/p/i'
p393
F8.96434086779242
sS'/html/body/div/div/article/div/div/div/div/div/div/div/em'
p394
F8.379378367071263
sS'/html/body/div/div/div/div/p/big/strong'
p395
F7.964340867792419
sS'/html/body/div/div/div/div/div/div/div/a/div/div'
p396
F2.425182056684387
sS'/html/body/div/div/div/div/div/div/div/div/div/div/div/div/div/ul/li/div/div'
p397
F9.96434086779242
sS'/html/body/div/div/div/div/div/div/div/div/div/p/a'
p398
F4.409752016114782
sS'/html/body/div/div/div/div/div/div/div/div/center/script'
p399
F8.379378367071263
sS'/html/body/div/div/article/div/div/center/div/p/img'
p400
F8.379378367071263
sS'/html/body/div/div/div/div/div/div/div/ul/li/ol/li/div/script'
p401
F4.033603530229532
sS'/html/body/div/div/article/div/div/div/div/div/section/div/form/div/input'
p402
F6.0574502721839
sS'/html/body/div/div/article/div/div/section/h1'
p403
F1.9643408677924183
sS'/html/body/div/div/article/div/div/div/blockquote/div/p/a'
p404
F5.440778911735405
sS'/html/body/div/div/div/div/div/div/div/ul/li/div/div/a/img'
p405
F7.156985945734815
sS'/html/body/div/div/div/div/div/div/div/div/center/em/a'
p406
F9.96434086779242
sS'/html/body/div/div/div/div/div/div/div/div/div/div/blockquote/div/div'
p407
F8.96434086779242
sS'/html/body/div/div/article/div/div/div/blockquote/div/div/div'
p408
F5.440778911735405
sS'/html/body/div/div/article/div/div/div/p/i/a'
p409
F7.379378367071262
sS'/html/body/div/div/div/div/div/ul/li/div/div/div/div/ul/li/div/div'
p410
F2.2848607682869724
sS'/html/body/div/div/article/div/div/section/div/div/div/div/div/div/i/a'
p411
F8.96434086779242
sS'/html/body/div/div/div/div/div/div/div/div/div/div/div/div/div/ul/li/div/div/div'
p412
F9.96434086779242
sS'/html/body/div/div/article/div/div/center/font/p/em'
p413
F9.96434086779242
sS'/html/body/div/div/div/div/div/div/div/div/div/div/div/div/div/ul/li/a/span'
p414
F8.379378367071263
sS'/html/body/div/div/article/div/div/div/p/em/a/strong'
p415
F8.379378367071263
sS'/html/body/div/div/article/div/div/div/div/div/div/a'
p416
F1.1862637382570602
sS'/html/body/div/div/div/div/div/div/div/div/div/div/div/div/div/div/script'
p417
F9.96434086779242
sS'/html/body/div/div/div/div/div/div/ul/li/a/img'
p418
F7.156985945734815
sS'/html/body/div/div/article/div/div/center/blockquote/p'
p419
F9.96434086779242
sS'/html/body/div/div/div/div/div/div/ul/li/h2/a'
p420
F7.642412772905057
sS'/html/body/div/div/article/div/div/div/p/span/span/a'
p421
F8.96434086779242
sS'/html/body/rss/channel/item/description/strong/br'
p422
F9.96434086779242
sS'/html/body/div/div/article/div/div/div/p/em/em'
p423
F8.96434086779242
sS'/html/body/div/div/article/div/div/div/blockquote/ul/li/span/a'
p424
F9.96434086779242
sS'/html/body/div/div/div/div/div/div/div/div/center/em'
p425
F6.794415866350106
sS'/html/body/div/div/article/div/div/div/p/span/em/em'
p426
F9.96434086779242
sS'/html/body/div/div/article/div/div/ul/li/div'
p427
F6.379378367071262
sS'/html/body/div/div/div/a/img'
p428
F0.6222661997932799
sS'/html/body/div/div/div/div/div/div/div/div/ul'
p429
F8.96434086779242
sS'/html/body/div/div/div/div/div/div/div/a/div/a'
p430
F2.425182056684387
sS'/html/body/div/div/article/div/div/div/blockquote/a'
p431
F4.081697818430578
sS'/html/body/div/div/article/div/div/ul/div/i'
p432
F6.504909249155122
sS'/html/body/div/div/div/div/div/div/h2/br'
p433
F6.964340867792418
sS'/html/body/div/div/div/div/div/div/div/div/div/ul/br'
p434
F8.96434086779242
sS'/html/body/div/div/div/div/div/div/div/div/div/div/div/div/div/ul/li/div/p'
p435
F9.96434086779242
sS'/html/body/div/div/div/div/div/div/div/ul/li/div/span/a'
p436
F6.0574502721839
sS'/html/body/div/div/article/div/div/section/div/div/div/div/div/div/ul/li/a'
p437
F1.7403391935943133
sS'/html/body/div/div/article/div/div/div/span/div/script'
p438
F9.96434086779242
sS'/html/body/div/div/div/div/div/div/div/span/span/span'
p439
F7.156985945734815
sS'/html/body/div/div/div/div/div/div/div/div/iframe'
p440
F9.96434086779242
sS'/html/body/div/div/article/div/div/p/strong/u'
p441
F9.96434086779242
sS'/html/body/rss/channel/item/description/p/span/a'
p442
F9.96434086779242
sS'/html/body/div/div/article/div/div/section/div/ul/div/em'
p443
F9.96434086779242
sS'/html/body/div/div/div/div/div/ul/li/div/div/div/strong'
p444
F2.2848607682869724
sS'/html/body/div/div/div/div/div/div/div/div'
p445
F1.6334239896778013
sS'/html/body/div/div/div/div/div/div/ul/li/form/input'
p446
F2.118850816848043
sS'/html/body/div/div/div/div/div/div/div/div/div/div/div/iframe/br'
p447
F9.96434086779242
sS'/html/body/div/div/div/div/div/div/div/div/div/a/span/br'
p448
F8.379378367071263
sS'/html/body/div/div/article/header/div/ul/li/a'
p449
F0.6289505130984935
sS'/html/body/div/div/article/div/div/ul/li/div/blockquote/div/div/div'
p450
F9.96434086779242
sS'/html/body/div/div/div/div/div/div/ul/li/div/div/div/div/ul/li/a/span/span/span'
p451
F7.642412772905057
sS'/html/body/div/div/article/div/div/div/div/a'
p452
F6.379378367071262
sS'/html/body/div/div/div/div/div/div/div/div/div/h2'
p453
F6.0574502721839
sS'/html/body/div/div/div/div/div/div/div/ul/li/div/a'
p454
F2.8145937482877366
sS'/html/body/div/div/article/div/div/p/a/img'
p455
F8.96434086779242
sS'/html/body/div/div/div/div/div/div/div/div/p/span/a/span'
p456
F9.96434086779242
sS'/html/body/div/div/div/div/div/div/div/div/p/em/a'
p457
F5.320484678017694
sS'/html/body/div/div/article/div/div/section/h4'
p458
F3.4886074368260207
sS'/html/body/div/div/div/div/div/div/div/div/div/div/img'
p459
F9.96434086779242
sS'/html/body/div/div/article/div/div/section/div/ul/li/meta'
p460
F7.964340867792419
sS'/html/body/div/div/div/div/div/div/div/ul/li/div/span/span/span'
p461
F6.263901149651327
sS'/html/body/div/div/article/div/div/div/div/p'
p462
F7.379378367071262
sS'/html/body/div/div/div/div/div/ul/li/div/a'
p463
F2.2848607682869724
sS'/html/body/div/div/div/div/div/div/div/div/p/a'
p464
F2.7548875021634687
sS'/html/body/div/div/article/div/div/div/div/div/div/div'
p465
F3.2500953501262955
sS'/html/body/div/div/div/div/div/div/div/div/p/a/br'
p466
F9.96434086779242
sS'/html/body/div/div/article/div/div/p'
p467
F3.306129385040624
sS'/html/body/div/div/article/header/ul/li/a'
p468
F1.480525090528162
sS'/html/body/div/div/article/header/ul/li/div/a'
p469
F1.3240959315700724
sS'/html/body/div/div/article/div/div/div/p/em/strong/span'
p470
F9.96434086779242
sS'/html/body/div/div/article/div/div/div/p/i/br'
p471
F9.96434086779242
sS'/html/body/div/div/article/div/div/div/div/ul/li/p/a'
p472
F9.96434086779242
sS'/html/body/div/div/div/div/div/div/div/div/div/div/div/div'
p473
F2.270853910293093
sS'/html/body/div/div/div/div/ul/li/strong'
p474
F2.0218263624531785
sS'/html/body/div/div/div/div/div/div/h2/a/div/h2/br'
p475
F8.96434086779242
sS'/html/body/div/div/div/div/div/div/div/div/ul/li/a/span'
p476
F1.550712938768246
sS'/html/body/div/div/article/div/div/section/div/div/div/h2'
p477
F1.7403391935943133
sS'/html/body/div/div/div/div/div/div/div/div/div/div/center/script'
p478
F9.96434086779242
sS'/html/body/div/div/div/div/div/div/div/div/p/span/strong'
p479
F7.642412772905057
sS'/html/body/div/div/p'
p480
F9.96434086779242
sS'/html/body/div/div/div/div/div/div/div/div/p/hh--236slidepollajax--464222--hh'
p481
F9.96434086779242
sS'/html/body/div/div/article/div/div/div/div/div/div/div/div/a'
p482
F8.96434086779242
sS'/html/body/div/div/div/div/div/div/div/ul/li/div/div/br'
p483
F9.96434086779242
sS'/html/body/div/div/article/div/div/div/blockquote/ul/li/span/strong'
p484
F9.96434086779242
sS'/html/body/div/div/div/div/p/a'
p485
F6.964340867792418
sS'/html/body/div/div/div/div/a'
p486
F5.504909249155121
sS'/html/body/div/div/div/div/div/div/h5/a/div/div/div/span'
p487
F8.96434086779242
sS'/html/body/div/div/article/div/div/ul/div'
p488
F5.320484678017694
sS'/html/body/div/div/div/div/div/div/div/div/div/div/ul/li/div/a/span'
p489
F9.96434086779242
sS'/html/body/div/div/div/div/div/div/ul/li/ol/li/div/span/a'
p490
F3.898251677334646
sS'/html/body/div/div/div/div/div/div/ul/li/ol/li'
p491
F8.96434086779242
sS'/html/body/div/div/div/div/p'
p492
F6.964340867792418
sS'/html/body/div/div/div/div/p/b'
p493
F8.96434086779242
sS'/html/body/div/div/div/div/div/div/form/input'
p494
F9.96434086779242
sS'/html/body/div/div/script'
p495
F0.0057881523614072925
sS'/html/body/div/div/div/div/div/ul/li/ul/li/a'
p496
F6.964340867792418
sS'/html/body/div/div/div/div/div/div/div/h3/a/i'
p497
F7.156985945734815
sS'/html/body/div/div/article/div/div/div/h3/em'
p498
F9.96434086779242
sS'/html/body/div/div/div/div/div/div/div/h4'
p499
F9.96434086779242
sS'/html/body/div/div/article/div/div/script'
p500
F0.6267189657999108
sS'/html/body/div/div/article/div/div/ol/li'
p501
F8.379378367071263
sS'/html/body/div/div/article/div/div/div/h3/span'
p502
F8.96434086779242
sS'/html/body/div/div/div/div/div/div/div/h2/a/div'
p503
F4.835057850847452
sS'/html/body/div/div/article/div/div/div/section/div/form/div/input'
p504
F0.6628446728098694
sS'/html/body/div/div/article/div/div/section/div/ul/li/div/div/span'
p505
F7.964340867792419
sS'/html/body/div/div/div/div/div/br'
p506
F3.3496310236772104
sS'/html/body/div/div/ul/ul/li/a'
p507
F8.96434086779242
sS'/html/body/div/div/div/div/div/div/div/span/span/a'
p508
F7.156985945734815
sS'/html/body/div/div/div/div/div/div/p/a'
p509
F9.96434086779242
sS'/html/body/div/div/div/div/div/div/style'
p510
F5.5720234450136585
sS'/html/body/div/div/div/div/div/div/div/ul/li/form/label'
p511
F4.033603530229532
sS'/html/body/div/div/article/div/div/div/p/big/strong'
p512
F7.379378367071262
sS'/html/body/div/div/article/div/div/p/input'
p513
F9.96434086779242
sS'/html/body/div/div/div/div/div/div/div/div/h4/a'
p514
F6.263901149651327
sS'/html/body/div/div/div/ul/li/ul/li/a'
p515
F1.6289505130984936
sS'/html/body/div/div/div/div/div/div/h5/div/div/div/a/img'
p516
F8.96434086779242
sS'/html/body/div/div/article/div/div/p/font/em/center'
p517
F9.96434086779242
sS'/html/body/div/div/article/div/div/section/div/div/div/div/div/div/strong'
p518
F5.876878026542079
sS'/html/body/div/div/div/div/div/div/div/div/p/em'
p519
F3.5720234450136576
sS'/html/body/div/div/div/div/div/div/div/div/div/p/span'
p520
F7.964340867792419
sS'/html/body/div/div/article/div/div'
p521
F9.96434086779242
sS'/html/body/div/div/div/div/div/div/div/h2/a/div/h2/span/a/br'
p522
F9.96434086779242
sS'/html/body/div/div/article/div/div/div/div/div/section/div/form/div/div/a'
p523
F6.0574502721839
sS'/html/body/div/div/article/div/div/div/p/u/strong'
p524
F9.96434086779242
sS'/html/body/div/div/div/div/div/div/div/span/script'
p525
F2.8768780265420792
sS'/html/body/div/div/div/div/h2/a'
p526
F9.96434086779242
sS'/html/body/div/div/h3'
p527
F7.642412772905057
sS'/html/body/div/div/article/div/div/ul/div/strong'
p528
F7.642412772905057
sS'/html/body/div/div/div/div/div/div/div/ul/li/form/div/label'
p529
F6.379378367071262
sS'/html/body/div/div/div/div/h1/u'
p530
F7.964340867792419
sS'/html/body/div/div/article/div/div/div/p/em/em/a'
p531
F9.96434086779242
sS'/html/body/div/div/div/div/div/div/h5/a/div/div/div/a/img'
p532
F8.96434086779242
sS'/html/body/div/div/article/header/div/ul/li/div/span/span/a'
p533
F2.941973054763964
sS'/html/body/div/div/div/div/div/div/div/div/div/div/a/span/span'
p534
F9.96434086779242
sS'/html/body/div/div/div/div/div/div'
p535
F1.5172576415827659
sS'/html/body/div/div/div/div/div/div/div/h2'
p536
F6.794415866350106
sS'/html/body/div/div/div/div/div/div/ul/li/ol/li/div/div'
p537
F2.118850816848043
sS'/html/body/div/div/article/div/div/div/p/strong/em/a'
p538
F9.96434086779242
sS'/html/body/div/div/div/div/div/div/div/div/div/a/span/span'
p539
F8.379378367071263
sS'/html/body/div/div/div/div/div/div/div/div/div/div/h2'
p540
F6.0574502721839
sS'/html/body/div/div/div/div/div/a'
p541
F1.9475325801058647
sS'/html/body/div/div/article/div/div/div/div/blockquote/div/div/div'
p542
F9.96434086779242
sS'/html/body/div/div/div/div/div/div/div/div/div/div/div/p/a/img'
p543
F6.964340867792418
sS'/html/body/div/div/article/div/div/div/ol/li/span'
p544
F9.96434086779242
sS'/html/body/div/div/div/div/div/div/div/div/div/div/div/div/div/h2/a/em'
p545
F8.96434086779242
sS'/html/body/div/div/div/div/div/h4'
p546
F2.774516308912401
sS'/html/body/div/script'
p547
F0.03360353022953211
sS'/html/body/div/div/article/div/div/ul/li/div/script'
p548
F9.96434086779242
sS'/html/body/div/div/article/div/div/ul/li/div/div/blockquote/p'
p549
F9.96434086779242
sS'/html/body/div/div/div/div/div/div/ul/li/a/span'
p550
F4.409752016114782
sS'/html/body/div/div/article/div/div/ul/li/div/div/img'
p551
F5.440778911735405
sS'/html/body/rss/channel/item/pubdate'
p552
F9.96434086779242
sS'/html/body/div/div/div/div/h3'
p553
F8.96434086779242
sS'/html/body/div/div/div/div/div/div/div/div/p/em/span'
p554
F8.379378367071263
sS'/html/body/div/div/div/div/h1'
p555
F5.964340867792418
sS'/html/body/noscript/span/a'
p556
F4.6067888631743354
sS'/html/body/rss/channel/description'
p557
F9.96434086779242
sS'/html/body/div/div/div/div/div/div/div/div/div/div/div/div/div/h2/a'
p558
F5.010144557405543
sS'/html/body/div/div/article/div/div/div/div/blockquote/div/p/time'
p559
F9.96434086779242
sS'/html/body/div/div/div/div/div/div/div/div/div/div/script'
p560
F4.209453365628949
sS'/html/body/div/div/article/div/div/ul/div/em'
p561
F9.96434086779242
sS'/html/body/div/div/div/div/div/div/div/div/div/div/div/div/div/h5/a'
p562
F8.379378367071263
sS'/html/body/div/div/article/div/div/ul/li/div/div/blockquote/a'
p563
F9.96434086779242
sS'/html/body/div/div/div/div/div/div/ul/li/a'
p564
F1.572023445013658
sS'/html/body/div/div/div/div/div/div/div/ul/li/div/span/span'
p565
F6.156985945734815
sS'/html/body/div/div/div/div/p/strong/big/u'
p566
F7.964340867792419
sS'/html/body/div/div/article/div/div/section/div/div/div/div/div/div/strong/br'
p567
F9.96434086779242
sS'/html/body/div/div/div/div/div/div/div/div/div/div/div/div/div/div/div/div/p'
p568
F9.96434086779242
sS'/html/body/div/div/div/div/div/div/div/span/br'
p569
F8.96434086779242
sS'/html/body/div/div/article/div/div/center/font/p'
p570
F9.96434086779242
sS'/html/body/style'
p571
F8.96434086779242
sS'/html/body/div/div/div/div/ul/li/a'
p572
F2.015973636207741
sS'/html/body/div/div/div/div/p/strong'
p573
F7.964340867792419
sS'/html/body/div/div/div/div/div/div/div/div/div/div/a/img'
p574
F5.1063598726648465
sS'/html/body/div/div/div/div/div/div/h3/a'
p575
F4.53807611309032
sS'/html/body/div/div/div/div/div/div/div/div/div/div/div/div/div/div/div/div/a'
p576
F9.96434086779242
sS'/html/body/div/div/div/div/div/ul/li/a/small'
p577
F9.96434086779242
sS'/html/body/div/div/div/div/div/div/div/div/strong'
p578
F2.236420413229219
sS'/html/body/div/div/article/div/div/div/p/em/wbr'
p579
F6.504909249155122
sS'/html/body/div/div/div/div/div/div/div/div/ol/br'
p580
F8.379378367071263
sS'/html/body/div/div/div/ul/li'
p581
F6.964340867792418
sS'/html/body/div/div/div/div/ul/li/a/span'
p582
F0.6244908649077937
sS'/html/body/div/div/article/div/div/blockquote/div/p/time'
p583
F9.96434086779242
sS'/html/body/div/div/div/div/a/h1/img'
p584
F7.156985945734815
sS'/html/body/div/div/div/div/div/div/div/div/div/div/div/p/em'
p585
F5.716413354348833
sS'/html/body/div/div/div/div/div/div/ul/li/br'
p586
F7.964340867792419
sS'/html/body/div/div/div/div/div/div/div/ul'
p587
F6.0574502721839
sS'/html/body/div/div/div/div/div/div/div/ul/li/strong'
p588
F8.96434086779242
sS'/html/body/div/div/article/div/div/center/p/a'
p589
F9.96434086779242
sS'/html/body/div/div/div/div/div/div/div/div/center/div'
p590
F9.96434086779242
sS'/html/body/div/div/article/div/div/div/ul/li/span'
p591
F8.96434086779242
sS'/html/body/div/div/article/div/div/section/div/div/div/div/div/div/iframe'
p592
F8.379378367071263
sS'/html/body/div/div/div/div/div/div/h5/a/div/h1/span/a'
p593
F8.96434086779242
sS'/html/body/div/div/div/div/div/div/h2/span/a/br'
p594
F8.96434086779242
sS'/html/body/div/div/article/div/p/span/strong'
p595
F9.96434086779242
sS'/html/body/div/div/div/div/div/div/div/div/div/div/div/iframe'
p596
F6.504909249155122
sS'/html/body/div/div/div/div/div/div/div/div/div/p/em'
p597
F7.379378367071262
sS'/html/body/div/div/div/div/div/div/div/div/p/br'
p598
F3.52139737194369
sS'/html/body/div/div/div/div/div/div/div/div/div/div/div/div/div/p/a/span'
p599
F9.96434086779242
sS'/html/body/div/div/article/div/div/section/div/ul/li/strong'
p600
F9.96434086779242
sS'/html/body/div/div/article/div/div/div/p/em'
p601
F1.9587163185985401
sS'/html/body/div/div/article/div/div/div/ul/li/a/span'
p602
F9.96434086779242
sS'/html/body/div/div/article/div/div/ul/li/div/div/a'
p603
F8.379378367071263
sS'/html/body/div/div/article/div/div/ul/li/div/div/iframe'
p604
F9.96434086779242
sS'/html/body/div/div/div/div/div/div/div/div/p/a/span/span'
p605
F9.96434086779242
sS'/html/body/div/div/div/div/div/div/div/ul/li/div/div/div/ul/li/span'
p606
F3.0101445574055434
sS'/html/body/div/div/div/div/div/div/div/div/div/div/blockquote/div/p/time'
p607
F8.96434086779242
sS'/html/body/div/div/div/div/div/div/div/div/h5/a/div'
p608
F9.96434086779242
sS'/html/body/div/div/div/div/div/div/div/div/div/em'
p609
F9.96434086779242
sS'/html/body/div/div/div/div/div/div/div/div/h4'
p610
F7.964340867792419
sS'/html/body/div/div/div/div/span'
p611
F8.379378367071263
sS'/html/body/div/div/article/div/div/div/p/a/span/span'
p612
F9.96434086779242
sS'/html/body/div/div/article/div/div/div/blockquote/p/br'
p613
F7.964340867792419
sS'/html/body/div/div/article/div/div/div/div/script'
p614
F0.6720192349903794
sS'/html/body/div/div/div/div/div/div/div/div/div/div/div/div/div/ul/li/span'
p615
F8.96434086779242
sS'/html/body/div/div/article/div/div/div/p/em/span/a'
p616
F9.96434086779242
sS'/html/body/div/div/div/div/div/div/div/div/h3/a/i'
p617
F7.642412772905057
sS'/html/body/div/div/article/div/div/section/div/form/div/div/a'
p618
F9.96434086779242
sS'/html/body/div/div/article/div/div/center/div/p/em/strong'
p619
F8.96434086779242
sS'/html/body/div/div/div/div/div/div/div/div/div/hh--newsplash_meta_links--hh'
p620
F6.794415866350106
sS'/html/body/rss/channel/item/description/caption'
p621
F9.96434086779242
sS'/html/body/div/div/div/div/div/div/div/div/img'
p622
F2.716413354348833
sS'/html/body/div/div/div/div/div/div/div/div/div/div/a/span'
p623
F3.774516308912401
sS'/html/body/div/div/article/div/div/div/br'
p624
F5.5720234450136585
sS'/html/body/rss/channel/item/description/em'
p625
F9.96434086779242
sS'/html/body/div/div/div/div/div/div/div/div/blockquote/p/br'
p626
F9.96434086779242
sS'/html/body/div/div/div/div/div/div/div/div/p/span/span'
p627
F6.794415866350106
sS'/html/body/div/div/div/div/div/div/div/div/p/span/strong/br'
p628
F9.96434086779242
sS'/html/body/div/div/div/div/div/div/div/div/div/div/div/div/div/div/a/img'
p629
F8.96434086779242
sS'/html/body/div/div/div/div/div/div/div/div/div/div/div/div/blockquote/p'
p630
F7.964340867792419
sS'/html/body/div/div/div/div/div/div/div/div/p/a/em'
p631
F6.964340867792418
sS'/html/body/rss/channel/item/description/h6/a/span/b'
p632
F9.96434086779242
sS'/html/body/div/div/div/div/div/div/h2/a/div/span/span/a'
p633
F8.96434086779242
sS'/html/body/div/div/article/div/div/div/ul/li/em/span'
p634
F8.96434086779242
sS'/html/body/div/div/div/div/div/div/span/span/span'
p635
F4.754887502163469
sS'/html/body/div/div/div/div/div/div/div/div/ul/li/span/a'
p636
F8.379378367071263
sS'/html/body/div/div/div/div/div/div/div/div/div/div/div'
p637
F2.236420413229219
sS'/html/body/div/div/div/div/div/div/h5/div/div/div/span'
p638
F8.96434086779242
sS'/html/body/div/div/div/div/div/div/div/div/p/em/center/strong'
p639
F9.96434086779242
sS'/html/script'
p640
F8.379378367071263
sS'/html/body/div/div/div/div/div/div/div/div/a'
p641
F2.2848607682869724
sS'/html/body/div/div/div/div/div/div/div/div/p/em/em'
p642
F9.96434086779242
sS'/html/body/div/div/div/div/div/div/div/div/div/a/img'
p643
F3.774516308912401
sS'/html/body/div/div/article/div/div/ul/li/div/div/span'
p644
F5.379378367071262
sS'/html/body/div/style'
p645
F0.008690960264044374
sS'/html/body/div/div/article/div/div/div/div/div/iframe'
p646
F5.320484678017694
sS'/html/body/div/div/div/div/div/ul/li/div/div/div/ul/li/a'
p647
F2.2848607682869724
sS'/html/body/div/div/div/div/div/ul/br'
p648
F9.96434086779242
sS'/html/body/div/div/article/div/div/section/div/div/div/div/div/div/strong/a'
p649
F6.794415866350106
sS'/html/body/div/div/div/div/div/div/h2/a'
p650
F6.156985945734815
sS'/html/body/div/div/div/div/div/div/div/h3/a'
p651
F2.176438308400987
sS'/html/body/div/div/div/div/div/div/h2/a/div/div'
p652
F6.379378367071262
sS'/html/body/div/div/div/div/div/div/ul/li/div/span/span'
p653
F8.96434086779242
sS'/html/body/div/div/div/div/div/div/div/h2/a/div/h2/br'
p654
F6.379378367071262
sS'/html/body/div/div/article/div/div/div/div/div/section/div/div/a'
p655
F6.0574502721839
sS'/html/body/div/div/article/div/div/div/ul/li/p/strong/strong/a'
p656
F9.96434086779242
sS'/html/body/div/div/article/div/div/div/p/small'
p657
F9.96434086779242
sS'/html/body/div/div/div/div/div/div/div/h5/a'
p658
F9.96434086779242
sS'/html/body/div/div/article/div/div/ul/li/div/blockquote/p/a'
p659
F9.96434086779242
sS'/html/body/div/div/article/div/p/span/br'
p660
F9.96434086779242
sS'/html/body/div/div/article/div/div/ul/li/div/blockquote/div/p/a'
p661
F9.96434086779242
sS'/html/body/div/div/div/div/div/div/div/div/a/div/a'
p662
F4.6067888631743354
sS'/html/body/div/div/div/br'
p663
F2.3132891766134898
sS'/html/body/div/div/div/div/div/div/ul/li/form/div/label/input'
p664
F2.118850816848043
sS'/html/body/div/div/article/div/div/div/a/img'
p665
F9.96434086779242
sS'/html/body/div/div/div/div/img'
p666
F2.0043389357243373
sS'/html/body/div/div/div/div/div/div/div/div/div/ul/li/strong/a/span'
p667
F9.96434086779242
sS'/html/body/div/div/div/div/div/a/div'
p668
F3.456546227593722
sS'/html/body/div/div/div/div/div/div/div/div/ul/li/div/h5/a'
p669
F7.642412772905057
sS'/html/body/div/div/article/div/div/div/h3/strong'
p670
F7.642412772905057
sS'/html/body/div/div/article/header/div'
p671
F7.964340867792419
sS'/html/body/div/div/div/div/div/ul/li/strong'
p672
F3.409752016114781
sS'/html/body/div/div/article/div/div/div/div/div/div/div/strong/a'
p673
F9.96434086779242
sS'/html/body/div/div/article/div/div/div/blockquote/p/strong/em/span/span/span'
p674
F8.379378367071263
sS'/html/body/div/div/article/div/div/div/div/strong'
p675
F9.96434086779242
sS'/html/body/div/div/div/div/div/div/label'
p676
F6.794415866350106
sS'/html/body/div/div/article/div/div/ul/li/div/img'
p677
F6.379378367071262
sS'/html/body/div/div/div/div/div/div/div/div/span/span/a'
p678
F3.1063598726648465
sS'/html/body/div/div/div/div/div/div/div/img'
p679
F8.96434086779242
sS'/html/body/div/div/article/div/div/section/div/div/div/div/div/blockquote/p/a'
p680
F8.96434086779242
sS'/html/body/div/div/article/div/div/div/div/noscript/a'
p681
F9.96434086779242
sS'/html/body/div/div/div/div/div/div/ul/li/ol/li/div/script'
p682
F2.118850816848043
sS'/html/body/div/div/div/div/div/div/div/div/h3/a/em'
p683
F7.379378367071262
sS'/html/body/div/div/div/div/div/div/div/div/div/div/div/div/div/div/a/em/span'
p684
F9.96434086779242
sS'/html/body/rss/channel/item/description/em/a'
p685
F9.96434086779242
sS'/html/body/div/div/div/div/div/div/div/div/blockquote/strong'
p686
F6.794415866350106
sS'/html/body/div/div/div/div/div/div/ul/li/div/div/div/div/ul/li/a/span/span'
p687
F7.156985945734815
sS'/html/body/div/div/div/div/div/div/div/div/p/strong/center/big'
p688
F9.96434086779242
sS'/html/body/div/div/div/div/div/div/div/div/div/div/div/div/p/em'
p689
F7.642412772905057
sS'/html/body/div/div/div/div/div/ul/li'
p690
F3.3944852594614705
sS'/html/body/div/div/div/div/div/div/div/div/div/div/span/small'
p691
F9.96434086779242
sS'/html/body/div/div/ul/li/h4/a'
p692
F7.642412772905057
sS'/html/body/div/div/article/div/div/div/div/div/div/div/form/div/input'
p693
F0.6289505130984935
sS'/html/body/div/div/article/div/div/figure/img'
p694
F2.642412772905056
sS'/html/body/div/iframe'
p695
F9.96434086779242
sS'/html/body/rss/channel/item/description/br'
p696
F9.96434086779242
sS'/html/body/div/div/div/div/div/div/div/h4/a/em'
p697
F9.96434086779242
sS'/html/body/div/div/article/div/div/div/p/strong/a/em/u'
p698
F9.96434086779242
sS'/html/body/div/div/nav/a'
p699
F0.6267189657999108
sS'/html/body/div/div/article/div/div/div/em/br'
p700
F7.642412772905057
sS'/html/body/div/div/div/form/input'
p701
F9.96434086779242
sS'/html/body/div/div/div/div/div/div/h2/span/a'
p702
F6.156985945734815
sS'/html/body/div/div/article/div/div/center/font/div/p'
p703
F9.96434086779242
sS'/html/body/div/div/div/p/br'
p704
F7.156985945734815
sS'/html/body/div/div/div/div/div/div/div/div/h4/strong'
p705
F8.96434086779242
sS'/html/body/div/div/div/div/div/div/div/ul/ul/li/a'
p706
F7.156985945734815
sS'/html/body/div/div/article/div/div/div/div/form/input'
p707
F8.379378367071263
sS'/html/body/div/div/div/div/div/div/div/div/div/div/span/center/small/em'
p708
F9.96434086779242
sS'/html/body/div/div/div/div/div/div/div/ul/li/div/ul/li/span'
p709
F7.379378367071262
sS'/html/body/div/div/article/div/div/figure/figcaption'
p710
F3.1961565430154923
sS'/html/body/div/div/div/div/div/div/div/ul/li/div/div/div/strong'
p711
F3.0101445574055434
sS'/html/body/div/div/div/div/div/div/div/ul/li/div/div/div/div/ul/li/a'
p712
F3.069523104484475
sS'/html/body/div/div/article/div/div/div/div/div/div/p'
p713
F4.236420413229219
sS'/html/body/div/div/article/div/div/div/p/wbr'
p714
F9.96434086779242
sS'/html/body/div/div/div/div/div/div/div/div/p/span'
p715
F2.7548875021634687
sS'/html/body/div/div/div/div/ul/li/ul/li/a/b'
p716
F9.96434086779242
sS'/html/body/div/div/div/div/div/div/div/h1/a'
p717
F8.96434086779242
sS'/html/body/div/div/div/div/div/div/div/div/div'
p718
F2.6697201189007917
sS'/html/body/div/div/div/div/div/div/ul/li/div/div/div/div/ul/li/div/div'
p719
F7.156985945734815
sS'/html/body/div/div/article/div/div/div/ul/li/p/strong'
p720
F8.379378367071263
sS'/html/body/div/div/div/div/div/div/div/div/ul/li/div/span/span/span'
p721
F8.96434086779242
sS'/html/body/div/div/div/div/div/div/div/div/div/div/span/br'
p722
F9.96434086779242
sS'/html/body/div/div/article/div/div/div/p/span'
p723
F3.4724877714627436
sS'/html/body/div/div/div/div/div/div/h5/div/span'
p724
F8.96434086779242
sS'/html/body/div/div/article/div/div/ul/li/div/div/div/a'
p725
F9.96434086779242
sS'/html/body/div/div/div/div/div/ul/li/div/a/span'
p726
F2.2848607682869724
sS'/html/body/div/div/div/div/div/div/div/div/ul/li/div/div'
p727
F7.642412772905057
sS'/html/body/div/div/article/div/div/div/blockquote/p/strong/em'
p728
F8.379378367071263
sS'/html/body/div/div/div/div/div/div/div/div/div/div/p/a'
p729
F6.0574502721839
sS'/html/body/div/div/article/div/div/section/div/ul/li/div/div/img'
p730
F7.964340867792419
sS'/html/body/div/div/article/div/div/div/blockquote/p/span/strong'
p731
F9.96434086779242
sS'/html/body/div/div/article/div/div/div/div/div/div/div/ul/li/a'
p732
F4.236420413229219
sS'/html/body/div/div/div/div/div/div/div/div/h4/a/div'
p733
F6.964340867792418
sS'/html/body/div/div/article/div/div/div/div/div/section/div/h3'
p734
F6.0574502721839
sS'/html/body/div/div/article/header/div/ul/li/div/span'
p735
F2.4724877714627436
sS'/html/body/div/div/div/div/div/div/h5/a/div/span/span/a'
p736
F8.96434086779242
sS'/html/body/div/div/div/div/div/div/div/div/p/span/a/em'
p737
F9.96434086779242
sS'/html/body/div/div/div/div/div/div/div/ul/li/div/div'
p738
F6.504909249155122
sS'/html/body/div/div/div/div/div/div/div/div/div/hr'
p739
F8.96434086779242
sS'/html/body/div/div/article/div/div/div/center/blockquote/p/a'
p740
F9.96434086779242
sS'/html/body/div/div/div/div/div/iframe'
p741
F8.96434086779242
sS'/html/body/div/div/div/div/div/div/div/div/div/div/div/div/p/a'
p742
F9.96434086779242
sS'/html/body/div/div/div/div/div/div/div/div/div/div/div/div/div/p'
p743
F4.919946748433965
sS'/html/body/div/div/div/div/ul/li/div/div/p/b'
p744
F9.96434086779242
sS'/html/body/div/div/div/div/div/div/div/div/p/font/strong'
p745
F9.96434086779242
sS'/html/body/div/div/div/div/div/div/div/ul/li'
p746
F5.716413354348833
sS'/html/body/div/div/div/div/div/div/div/ul/li/ol/li/span'
p747
F4.033603530229532
sS'/html/body/div/div/article/div/div/div/p/span/em'
p748
F7.379378367071262
sS'/html/body/div/div/div/div/ul/li/div/div/p/i'
p749
F9.96434086779242
sS'/html/body/div/div/ul/li/a'
p750
F0.6244908649077937
sS'/html/body/div/div/div/div/div/div/ul/li/ol/li/div/a'
p751
F2.118850816848043
sS'/html/body/div/div/div/div/div/div/div/div/div/div/p/a/span'
p752
F9.96434086779242
sS'/html/body/div/div/div/div/div/div/span/a'
p753
F4.033603530229532
sS'/html/body/noscript/div/img'
p754
F8.96434086779242
sS'/html/body/div/div/div/div/div/div/div/div/div/div/div/br'
p755
F9.96434086779242
sS'/html/body/div/div/article/div/div/section/div/ul/li/div/a'
p756
F7.642412772905057
sS'/html/body/div/div/div/div/div'
p757
F1.5131297559600894
sS'/html/body/div/div/article/div/div/div/div/h2/strong'
p758
F9.96434086779242
sS'/html/body/div/div/div/div/div/div/div/div/ul/li/strong/a'
p759
F9.96434086779242
sS'/html/body/div/div/div/div/div/ul/ul'
p760
F9.96434086779242
sS'/html/body/div/div/article/div/div/div/div/h2'
p761
F0.6674246609131291
sS'/html/body/div/div/div/div/div/div/div/div/div/br'
p762
F7.964340867792419
sS'/html/body/div/div/div/div/div/div/br'
p763
F8.379378367071263
sS'/html/body/div/div/article/div/div/blockquote/div/p/strong'
p764
F8.379378367071263
sS'/html/body/div/div/div/div/div/div/div/div/p/span/a'
p765
F5.876878026542079
sS'/html/body/div/div/div/div/div/div/div/div/hr'
p766
F7.964340867792419
sS'/html/body/div/div/div/h1/a/br'
p767
F9.96434086779242
sS'/html/body/div/div/div/div/div/div/ul/li/div/a/span'
p768
F7.156985945734815
sS'/html/body/div/div/div/div/div/div/div/ul/li/div/ul/li/a'
p769
F7.379378367071262
sS'/html/body/div/div/div/div/div/div/div/div/div/div/div/div/div/div'
p770
F2.504909249155121
sS'/html/body/div/div/article/div/div/div/div/div/div/div/div'
p771
F0.6289505130984935
sS'/html/body/div/div/div/div/div/div/div/div/div/ul/li/strong/a'
p772
F8.96434086779242
sS'/html/body/div/div/article/div/div/section/div/div/div/div/div/div/a/strong'
p773
F7.964340867792419
sS'/html/body/div/div/div/div/div/div/div/div/div/div/div/div/div/p/br'
p774
F9.96434086779242
sS'/html/body/div/div/div/div/div/div/div/div/ul/li/div/span/a'
p775
F6.794415866350106
sS'/html/body/div/div/div/div/div/div/div/div/ul/li/div/h4/a'
p776
F7.642412772905057
sS'/html/body/div/div/div/div/div/div/h2/a/div/div/div/a/img'
p777
F6.379378367071262
sS'/html/body/div/div/div/div/div/div/div/div/div/div/div/div/div/div/p/i'
p778
F7.642412772905057
sS'/html/body/div/div/noscript/div/img'
p779
F0.6289505130984935
sS'/html/body/div/div/div/div/div/div/iframe'
p780
F7.642412772905057
sS'/html/body/div/div/article/header/div/div'
p781
F2.256981735711536
sS'/html/body/div/div/article/div/div/ul/div/p'
p782
F9.96434086779242
sS'/html/body/div/div/div/div/div/div/div/div/p/strong/br'
p783
F7.156985945734815
sS'/html/body/div/div/div/div/div/div/div/div/div/div/div/div/div/div/p/a'
p784
F5.1063598726648465
sS'/html/body/div/div/div/div/div/div/div/div/div/div/div/script'
p785
F5.20945336562895
sS'/html/body/div/div/article/div/div/div/p/em/em/em'
p786
F9.96434086779242
sS'/html/body/div/div/div/div/div/div/div/div/p/em/strong'
p787
F7.156985945734815
sS'/html/body/div/div/div/div/ul/li'
p788
F2.0218263624531785
sS'/html/body/div/div/div/div/div/div/div/ul/li/div/div/div/div/ul/li/div/div'
p789
F3.069523104484475
sS'/html/body/div/div/div/div/div/div/ul/li/ol/li/a'
p790
F2.118850816848043
sS'/html/body/div/div/div/div/div/div/ul/li/div/span'
p791
F7.379378367071262
sS'/html/body/div/div/article/div/div/div/div/blockquote/p/a'
p792
F7.379378367071262
sS'/html/body/div/div/article/div/div/p/iframe'
p793
F9.96434086779242
sS'/html/body/div/div/article/div/div/div/div/p/em/a/strong'
p794
F9.96434086779242
sS'/html/body/div/div/div/div/div/div/div/div/div/div/a'
p795
F2.3061293850406237
sS'/html/body/div/div/article/div/div/div/div/br'
p796
F8.96434086779242
sS'/html/body/div/div/article/div/div/div/center/div/div/iframe'
p797
F9.96434086779242
sS'/html/body/div/div/ul/li/ul/li/h5/a'
p798
F7.642412772905057
sS'/html/body/div/div/article/div/div/div/div/blockquote/a'
p799
F7.379378367071262
sS'/html/body/div/div/div/div/div/div/div/div/div/div/div/div/p/br'
p800
F9.96434086779242
sS'/html/body/div'
p801
F1.5172576415827659
sS'/html/body/div/div/div/div/div/div/div/a/img'
p802
F3.0101445574055434
sS'/html/body/div/div/article/div/div/ul/li/a'
p803
F7.642412772905057
sS'/html/body/div/div/div/div/div/span/a'
p804
F5.794415866350105
sS'/html/body/div/div/article/div/div/div/div/form/p/label'
p805
F8.379378367071263
sS'/html/body/div/div/span'
p806
F9.96434086779242
sS'/html/body/div/div/article/div/div/div/div/blockquote/p'
p807
F9.96434086779242
sS'/html/body/div/div/article/div/div/div/blockquote/p/a'
p808
F4.131450853627676
sS'/html/body/div/div/article/div/div/div/ul/li/p/span/a'
p809
F9.96434086779242
sS'/html/body/div/div/div/div/div/div/div/div/blockquote/p/strong'
p810
F8.379378367071263
sS'/html/body/div/div/div/span/button'
p811
F1.6289505130984936
sS'/html/body/div/div/div/div/div/div/div/div/div/div/div/p/a'
p812
F7.964340867792419
sS'/html/body/div/div/div/div/div/div/div/div/p/strong/em/a'
p813
F8.379378367071263
sS'/html/body/div/div/article/header/span'
p814
F2.34963102367721
sS'/html/body/div/div/div/div/div/div/h5/div/h2/br'
p815
F8.96434086779242
sS'/html/body/div/div/div/div/div/div/ul/li/form/label'
p816
F2.118850816848043
sS'/html/body/div/div/article/div/div/div/div'
p817
F4.53807611309032
sS'/html/body/div/div/div/div/div/a/img'
p818
F6.156985945734815
sS'/html/body/div/div/nav/div/div/div/div/a'
p819
F0.6267189657999108
sS'/html/body/div/div/article/div/div/ul/li/div/div'
p820
F5.440778911735405
sS'/html/body/div/div/ul/li'
p821
F7.642412772905057
sS'/html/body/div/div/article/div/div/div/div/div/div'
p822
F0.6334239896778014
sS'/html/body/div/div/article/div/div/div/div/div/section/ul/li'
p823
F6.0574502721839
sS'/html/body/div/div/div/div/div/div/div/div/div/div/div/div/h2/a/em'
p824
F8.379378367071263
sS'/html/body/div/div/article/div/div/div/blockquote/ul/li/strong'
p825
F9.96434086779242
sS'/html/body/div/div/div/div/div/div/div/h2/a/div/span/br'
p826
F7.642412772905057
sS'/html/body/rss/channel/item/title'
p827
F9.96434086779242
sS'/html/body/div/div/article/div/div/blockquote/div/p/br'
p828
F9.96434086779242
sS'/html/body/div/div/article/div/div/div/p/b/i'
p829
F9.96434086779242
sS'/html/body/div/div/article/div/div/ul/li/div/div/script'
p830
F9.96434086779242
sS'/html/body/div/div/article/div/div/div/blockquote/p/span'
p831
F7.379378367071262
sS'/html/body/div/div/div/div/div/div/div/div/ul/li/div/h3/a'
p832
F7.964340867792419
sS'/html/body/div/div/article/div/div/section/div/div/div/div/div/div/a/em'
p833
F9.96434086779242
sS'/html/body/div/div/div/div/div/div/div/div/blockquote/a'
p834
F6.263901149651327
sS'/html/body/div/div/div/div/div/div/div/ul/li/div'
p835
F6.794415866350106
sS'/html/body/div/div/article/div/div/div/p/big/strong/br'
p836
F9.96434086779242
sS'/html/body/div/div/article/div/div/div/div/em'
p837
F8.96434086779242
sS'/html/body/div/div/div/div/div/div/div/div/div/span/a'
p838
F7.379378367071262
sS'/html/body/div/div/article/div/div/section/div/ul/div/a'
p839
F8.96434086779242
sS'/html/body/rss/channel/item/description/p/a'
p840
F9.96434086779242
sS'/html/body/div/div/article/div/div/ul/li/div/div/blockquote/p/a'
p841
F9.96434086779242
sS'/html/body/div/div/div/div/div/div/span/span/a'
p842
F4.53807611309032
sS'/html/body/div/div/article/div/div/div/ul/li/span/br'
p843
F8.96434086779242
sS'/html/body/div/div/div/div/div/div/div/div/blockquote/p'
p844
F7.379378367071262
sS'/html/body/div/div/div/div/iframe'
p845
F6.642412772905057
sS'/html/body/div/div/div/div/div/div/div/h4/a'
p846
F3.987060944292502
sS'/html/body/rss/channel/title'
p847
F9.96434086779242
sS'/html/body/div/div/div/div/div/div/div/div/hh--newsplash_meta_links--hh'
p848
F6.794415866350106
sS'/html/body/div/div/div/div/div/div/div/div/div/div/s'
p849
F4.263901149651326
sS'/html/body/div/div/div/div/div/div/h5/div/a'
p850
F8.96434086779242
sS'/html/body/div/div/div/div/div/div/div/div/div/s'
p851
F5.964340867792418
sS'/html/body/div/div/div/div/div/div/ul/li/div/div/div/strong'
p852
F7.156985945734815
sS'/html/body/div/div/div/h3'
p853
F9.96434086779242
sS'/html/body/div/div/article/div/div/section/div/form/div/input'
p854
F9.96434086779242
sS'/html/body/div/div/article/div/div/center/div/div/script'
p855
F9.96434086779242
sS'/html/body/div/div/article/div/div/section/div/div/script'
p856
F4.794415866350106
sS'/html/body/rss/channel/item/description/a/img'
p857
F9.96434086779242
sS'/html/body/div/div/nav/div/div/div/div'
p858
F0.6267189657999108
sS'/html/body/div/div/div/div/div/div/div/h2/span'
p859
F8.96434086779242
sS'/html/body/div/div/div/div/div/div/div/div/p/embed'
p860
F9.96434086779242
sS'/html/body/div/div/div/div/div/div/div/div/div/div/div/a'
p861
F3.642412772905056
sS'/html/body/div/div/article/div/div/center/div/div/a'
p862
F9.96434086779242
sS'/html/body/div/div/article/div/div/section/div/div/a'
p863
F9.96434086779242
sS'/html/body/div/div/article/div/div/div/iframe'
p864
F1.1994692770563276
sS'/html/body/div/div/div/div/div/div/div/div/p/strong/span'
p865
F8.379378367071263
sS'/html/body/div/div/article/div/div/figure/figcaption/a'
p866
F9.96434086779242
sS'/html/body/div/div/article/div/div/div/h2/strong'
p867
F9.96434086779242
sS'/html/body/div/div/div/h2'
p868
F9.96434086779242
sS'/html/body/div/div/div/div/div/div/div/div/div/div/div/p'
p869
F4.156985945734815
sS'/html/body/div/div/article/div/div/div/div/div/p/a'
p870
F8.379378367071263
sS'/html/body/div/div/article/div/div/figure/figcaption/i'
p871
F8.96434086779242
sS'/html/body/div/div/article/div/div/p/script'
p872
F7.156985945734815
sS'/html/body/div/div/div/div/div/div/div/h2/a/div/div/div/span'
p873
F5.504909249155121
sS'/html/body/div/div/div/div/div/div/div/div/p'
p874
F2.716413354348833
sS'/html/body/div/div/div/div/div/div/div/div/div/div/h2/a'
p875
F4.6789386489301705
sS'/html/body/div/div/div/div/div/div/div/a/span/strong'
p876
F9.96434086779242
sS'/html/body/div/div/div/div/div/div/div/div/a/div/div/a/img'
p877
F4.6067888631743354
sS'/html/body/div/div/article/div/div/div/p/span/a/span'
p878
F8.379378367071263
sS'/html/body/div/div/article/div/div/ul/li/div/blockquote/div/p/time'
p879
F9.96434086779242
sS'/html/body/div/div/div/div/div/div/h1/span/a'
p880
F8.379378367071263
sS'/html/body/div/div/article/div/div/div/section/div/form/input'
p881
F0.6628446728098694
sS'/html/body/div/div/div/form/label'
p882
F9.96434086779242
sS'/html/body/div/div/article/div/div/div/div/div/div/script'
p883
F6.0574502721839
sS'/html/body/div/div/div'
p884
F0.004338935724337443
sS'/html/body/div/div/article/div/p/span'
p885
F9.96434086779242
sS'/html/body/div/div/div/div/div/div/div/div/a/em/span'
p886
F9.96434086779242
sS'/html/body/div/div/div/span'
p887
F9.96434086779242
sS'/html/body/div/div/div/div/div/div/div/ul/li/div/div/div/ul/li/a/span/span'
p888
F9.96434086779242
sS'/html/body/div/div/article/div/div/div/div/small/a'
p889
F9.96434086779242
sS'/html/body/div/div/article/div/div/div/div/div/p/span'
p890
F8.379378367071263
sS'/html/body/div/div/div/div/div/div/span/script'
p891
F7.156985945734815
sS'/html/body/div/div/div/div/div/div/table/tr/td/div'
p892
F2.2919155258209227
sS'/html/body/div/div/div/div/div/div/div/div/ul/li/div/div/span'
p893
F7.156985945734815
sS'/html/body/div/div/article/div/div/section/div/div/div/div/div'
p894
F1.7403391935943133
sS'/html/body/div/div/div/div/div/div/ul/li/ul/li'
p895
F7.642412772905057
sS'/html/body/div/div/div/div/div/div/div/div/center'
p896
F8.379378367071263
sS'/html/body/div/div/article/div/div/center/div/p/em'
p897
F7.642412772905057
sS'/html/body/div/div/article/div/div/div/p/a/br'
p898
F9.96434086779242
sS'/html/body/div/div/div/div/a/h1'
p899
F9.96434086779242
sS'/html/body/div/div/article/div/div/section/div/form/input'
p900
F9.96434086779242
sS'/html/body/div/div/div/div/div/script'
p901
F1.5172576415827659
sS'/html/body/div/div/div/div/div/div/div/div/div/div/iframe'
p902
F6.964340867792418
sS'/html/body/div/div/article/div/div/div/p/em/b'
p903
F9.96434086779242
sS'/html/body/div/div/div/div/div/div/div/div/p/strong'
p904
F4.263901149651326
sS'/html/body/div/div/article/div/div/div/div/div/div/iframe'
p905
F9.96434086779242
sS'/html/body/div/div/article/div/div/center/blockquote/div/p/a'
p906
F9.96434086779242
sS'/html/body/div/div/article/div/div/div/section/div/ul/li/div/a'
p907
F0.6628446728098694
sS'/html/body/div/div/article/div/div/section/div/div/div/div/div/ul/li/a'
p908
F1.7403391935943133
sS'/html/body/div/div/div/div/div/div/div/div/span/a'
p909
F6.964340867792418
sS'/html/body/div/div/div/div/div/div/div/div/h3/a'
p910
F4.6067888631743354
sS'/html/body/div/div/article/div/div/div/p/style'
p911
F7.642412772905057
sS'/html/body/div/div/article/div/div/div/h4/em/span'
p912
F9.96434086779242
sS'/html/body/div/div/div/div/div/div/div/div/center/strong'
p913
F8.96434086779242
sS'/html/body/div/div/div/div/div/div/div/div/div/div/div/div/blockquote/a'
p914
F7.964340867792419
sS'/html/body/div/div/article/div/div/div/center/script'
p915
F9.96434086779242
sS'/html/body/div/div/div/div/div/div/div/div/ul/li/div/a'
p916
F6.642412772905057
sS'/html/body/div/div/div/div/div/div/div/div/h1/a'
p917
F7.156985945734815
sS'/html/body/div/div/article/div/div/div/p/a/i'
p918
F8.96434086779242
sS'/html/body/div/div/div/div/div/div/div/div/div/div/br'
p919
F9.96434086779242
sS'/html/body/div/div/a/img'
p920
F9.96434086779242
sS'/html/body/div/div/div/div/div/div/div/ul/li/form/p/a'
p921
F4.379378367071262
sS'/html/body/div/div/div/div/div/div/div/div/h2/a'
p922
F4.440778911735405
sS'/html/body/div/div/article/div/div/div/p/a/s'
p923
F8.96434086779242
sS'/html/body/rss/channel/item/description/center/img'
p924
F9.96434086779242
sS'/html/body/div/div/div/div/div/div/div/div/ul/li/div/p'
p925
F7.642412772905057
sS'/html/body/div/div/article/div/div/div/p/strong/em'
p926
F4.835057850847452
sS'/html/body/div/div/div/div/div/div/div/div/p/img'
p927
F6.156985945734815
sS'/html/body/div/div/article/div/div/div/p/strong/span'
p928
F8.379378367071263
sS'/html/body/div/div/div/div/div/ul/li/a/em'
p929
F6.379378367071262
sS'/html/body/div/div/article/div/div/div/p/a/strong'
p930
F7.642412772905057
sS'/html/body/div/div/div/div/div/div/table/tr/td/script'
p931
F2.2919155258209227
sS'/html/body/div/div/article/div/div/div/div/div/section/div/ul/li/div/div'
p932
F6.0574502721839
sS'/html/body/div/div/div/style'
p933
F3.0939761482090136
sS'/html/body/div/div/div/div/div/div/div/div/div/p/a/img'
p934
F8.379378367071263
sS'/html/body/div/div/div/div/div/div/div/div/div/ul/li/a'
p935
F7.964340867792419
sS'/html/body/div/div/div/div/div/div/div/div/ul/li/b'
p936
F7.379378367071262
sS'/html/body/div/div/article/div/div/div/p/span/em/br'
p937
F9.96434086779242
sS'/html/body/div/div/div/div/div/div/div/div/div/a/div'
p938
F8.96434086779242
sS'/html/body/div/div/ul/li/div'
p939
F0.6267189657999108
sS'/html/body/div/div/article/div/div/div/div/div/script'
p940
F0.6311855174818017
sS'/html/body/div/div/div/div/div/div/div/div/div/h3/a'
p941
F7.964340867792419
sS'/html/body/rss/channel/item/description/h6/b'
p942
F9.96434086779242
sS'/html/body/div/div/div/div/div/div/h5/a/div'
p943
F8.96434086779242
sS'/html/body/div/div/nav/div/div/div/div/span'
p944
F0.6311855174818017
sS'/html/body/div/div/div/div/div/div/ul/li/div/div/div/div/ul/li/a'
p945
F7.156985945734815
sS'/html/body/div/div/article/div/div/div/div/div/a/img'
p946
F4.236420413229219
sS'/html/body/div/div/div/div/div/ul/li/div/div/div/ul/li/span'
p947
F2.2848607682869724
sS'/html/body/div/div/div/div/p/br'
p948
F7.379378367071262
sS'/html/body/div/div/div/div/div/div/div/div/div/div/div/a/span'
p949
F2.9756561810202524
sS'/html/body/div/div/div/div/div/div/div/div/p/em/em/strong/a'
p950
F9.96434086779242
sS'/html/body/div/img'
p951
F8.96434086779242
sS'/html/body/div/div/div/div/div/div/div/a/image'
p952
F9.96434086779242
sS'/html/body/div/div/noscript/img'
p953
F0.6244908649077937
sS'/html/body/div/div/div/ul/li/div'
p954
F1.6289505130984936
sS'/html/body/div/div/div/div/ul/li/ul/li/em'
p955
F7.964340867792419
sS'/html/body/div/div/article/div/div/div/p/a'
p956
F0.933673731545477
sS'/html/body/div/div/div/div/div/h1/a/div'
p957
F2.5297126401556937
sS'/html/body/div/div/div/div/div/ul/li/div/div/div/div/ul/li/a/span/span'
p958
F2.2848607682869724
sS'/html/body/div/div/div/div/div/div/div/div/p/hh--236slideexpand--483984--hh'
p959
F8.96434086779242
sS'/html/body/div/div/div/div/div/div/div/div/p/a/strong'
p960
F8.379378367071263
sS'/html/body/div/div/div/div/strong/big'
p961
F7.964340867792419
sS'/html/body/div/div/div/div/div/div/div/div/ul/li/p/strong/span'
p962
F9.96434086779242
sS'/html/body/div/div/article/div/div/div/section/div/h3'
p963
F0.6628446728098694
sS'/html/body/div/div/article/div/div/div/p/u'
p964
F7.964340867792419
sS'/html/body/div/div/div/div/div/div/div/div/a/div'
p965
F8.379378367071263
sS'/html/body/div/div/div/div/div/div/div/div/blockquote/ul/li/em'
p966
F9.96434086779242
sS'/html/body/div/div/article/div/div/h3/img'
p967
F9.96434086779242
sS'/html/body/div/div/article/div/div/center/p'
p968
F4.1063598726648465
sS'/html/body/div/div/article/div/div/h2/img'
p969
F9.96434086779242
sS'/html/body/rss/channel/item/description/center/iframe'
p970
F9.96434086779242
sS'/html/body/div/div/div/div/div/div/div/div/blockquote'
p971
F6.794415866350106
sS'/html/body/div/div/article/div/div/ul/div/a'
p972
F6.0574502721839
sS'/html/body/div/div/div/div/div/div/div/div/div/div/blockquote/div/p/a'
p973
F8.96434086779242
sS'/html/body/div/div/div/div/div/div/div/ul/li/div/h3/a'
p974
F8.379378367071263
sS'/html/body/div/div/div/div/div/ul/li/div/div/div/div'
p975
F8.96434086779242
sS'/html/body/div/div/article/div/div/h4/span'
p976
F9.96434086779242
sS'/html/body/div/div/article/div/div/section/div/ul/div/a/strong'
p977
F9.96434086779242
sS'/html/body/div/div/div/div/div/div/div/div/div/div/div/div/div/a/img'
p978
F5.1063598726648465
sS'/html/body/div/div/div/div/div/div/div/div/div/div/div/div/div/div/div'
p979
F3.0454776305178233
sS'/html/body/div/div/div/div/p/i/b'
p980
F8.96434086779242
sS'/html/body/div/div/div/h1/div'
p981
F9.96434086779242
sS'/html/body/div/div/article/div/div/div/section/div/form/div/label'
p982
F0.6628446728098694
sS'/html/body/div/div/article/div/p/strong/br'
p983
F9.96434086779242
sS'/html/body/div/div/div/div/div/div/h2/a/div'
p984
F6.379378367071262
sS'/html/body/div/div/div/div/div/div/div/ul/li/div/h5/a'
p985
F7.642412772905057
sS'/html/body/div/div/div/div/div/div/div/div/div/div/div/div/div/h3/a'
p986
F9.96434086779242
sS'/html/body/div/div/div/div/div/div/a/img'
p987
F6.642412772905057
sS'/html/body/div/div/article/div/div/div/blockquote/p/strong'
p988
F6.794415866350106
sS'/html/body/div/div/div/ul/li/strong'
p989
F9.96434086779242
sS'/html/body/div/div/article/div/p/span/span/strong/em'
p990
F9.96434086779242
sS'/html/body/rss/channel/item/description/p'
p991
F9.96434086779242
sS'/html/body/div/div/div/div/style'
p992
F5.1063598726648465
sS'/html/body/div/div/article/div/div/div/span/div/a'
p993
F9.96434086779242
sS'/html/body/div/div/article/div/div/blockquote/div/p'
p994
F5.440778911735405
sS'/html/body/div/div/div/div/div/link'
p995
F8.379378367071263
sS'/html/body/div/div/article/div/div/center/div/p/br'
p996
F7.964340867792419
sS'/html/body/div/div/div/div/div/div/div/div/blockquote/p/a'
p997
F8.96434086779242
sS'/html/body/div/div/div/div/div/h3/a'
p998
F8.96434086779242
sS'/html/body/div/div/article/div/div/div/div/p/em'
p999
F8.379378367071263
sS'/html/body/div/div/div/div/div/div/div/div/div/div/center/iframe'
p1000
F7.964340867792419
sS'/html/body/div/div/div/div/div/div/div/div/div/div/div/div/div/script'
p1001
F7.642412772905057
sS'/html/body/div/a/img'
p1002
F1.745172347330257
sS'/html/body/div/div/article/div/div/div/p/sup'
p1003
F8.96434086779242
sS'/html/body/div/div/div/div/div/div/div/a/span'
p1004
F9.96434086779242
sS'/html/body/div/div/article/div/div/div/blockquote/p/a/em'
p1005
F9.96434086779242
sS'/html/body/rss/channel/item/description/a'
p1006
F9.96434086779242
sS'/html/body/div/div/div/div/div/div/div/div/p/iframe/a'
p1007
F9.96434086779242
sS'/html/body/div/div/article/div/div/section/div/div/div/div/div/center/blockquote/p/br'
p1008
F9.96434086779242
sS'/html/body/rss/channel/item/description/iframe'
p1009
F9.96434086779242
sS'/html/body/div/div/article/header/ul/li/div/span'
p1010
F4.53807611309032
sS'/html/body/div/div/article/div/div/section/div/div/div'
p1011
F7.379378367071262
sS'/html/body/div/div/article/div/div/div/p/a/span'
p1012
F4.754887502163469
sS'/html/body/div/div/div/div/div/div/div/div/p/em/wbr'
p1013
F8.379378367071263
sS'/html/body/div/div/div/div/div/div/div/ul/li/form/p'
p1014
F6.156985945734815
sS'/html/body/div/div/div/div/div/div/div/div/div/div/a/span/strong/span'
p1015
F8.96434086779242
sS'/html/body/rss/channel/item/description/blockquote/a'
p1016
F9.96434086779242
sS'/html/body/div/div/div/div/div/div/div/div/div/div/div/div/div/ul/li/a'
p1017
F8.96434086779242
sS'/html/body/div/div/div/div/div/div/div/ul/span'
p1018
F9.96434086779242
sS'/html/body/div/div/div/div/div/div/div/div/div/div/div/div/div/div/a/span'
p1019
F5.1063598726648465
sS'/html/body/div/div/div/div/div/div/ul/li/ul/li/a/span'
p1020
F7.156985945734815
sS'/html/body/div/div/div/div/div/div/div/div/div/a/em/span'
p1021
F8.96434086779242
sS'/html/body/rss/channel/item/description/blockquote/br'
p1022
F9.96434086779242
sS'/html/body/div/div/div/div/div/div/div/div/p/strong/em/br'
p1023
F9.96434086779242
sS'/html/body/div/div/article/div/div/div/section/div/div'
p1024
F0.6628446728098694
sS'/html/body/div/div/article/div/div/ul/li/div/blockquote/a'
p1025
F9.96434086779242
sS'/html/body/div/div/article/div/div/ul/li/meta'
p1026
F5.379378367071262
sS'/html/body/div/div/div/div/div/div/h3'
p1027
F1.871583726872566
sS'/html/body/div/div/div/div/ul/li/div/div/a/b'
p1028
F9.96434086779242
sS'/html/body/div/div/div/div/div/div/div/span/a'
p1029
F2.8768780265420792
sS'/html/body/div/div/article/div/div/div/section/div/div/a'
p1030
F0.6628446728098694
sS'/html/body/div/div/div/div/div/div/div/ul/li/div/a/img'
p1031
F5.5720234450136585
sS'/html/body/div/div/div/div/div/div/div/div/a/strong'
p1032
F9.96434086779242
sS'/html/body/div/div/div/div/div/div/div/ul/li/p'
p1033
F9.96434086779242
sS'/html/body/div/div/div/div/div/div/div/div/div/div/div/div/div/div/h5/a'
p1034
F8.96434086779242
sS'/html/body/div/div/div/div/div/ul/li/a/br'
p1035
F9.96434086779242
sS'/html/body/div/div/article/div/div/div/div/div/div/div/b/a'
p1036
F9.96434086779242
sS'/html/body/div/div/article/div/div/div/div/div/section/div/ul/li/div/a'
p1037
F6.0574502721839
sS'/html/body/div/div/article/div/div/div/p/span/span/em/em'
p1038
F9.96434086779242
sS'/html/body/div/div/div/div/div/div/div/div/a/span'
p1039
F4.964340867792418
sS'/html/body/div/div/article/div/div/ul/li/div/div/div/blockquote/p'
p1040
F9.96434086779242
sS'/html/body/div/div/div/div/div/div/div/div/ul/li/h3/a'
p1041
F7.156985945734815
sS'/html/body/div/div/article/div/p/span/span'
p1042
F9.96434086779242
sS'/html/body/div/div/div/div/div/div/div/a/div/div/span/a'
p1043
F7.642412772905057
sS'/html/body/div/div/div/div/div/div/div/div/center/a/img'
p1044
F5.964340867792418
sS'/html/body/div/div/article/div/div/div/blockquote/ul/li/span'
p1045
F9.96434086779242
sS'/html/body/div/div/article/div/div/em'
p1046
F9.96434086779242
sS'/html/body/div/div/div/div/div/div/h2/a/div/h2/span/a'
p1047
F6.504909249155122
sS'/html/body/div/div/article/div/p'
p1048
F9.96434086779242
sS'/html/body/div/div/article/div/div/ul/li/div/div/div/blockquote/a'
p1049
F9.96434086779242
sS'/html/body/div/div/article/div/div/div/ul/li/strong'
p1050
F8.96434086779242
sS'/html/body/div/div/div/div/div/div/div/div/a/div/div/span'
p1051
F4.6067888631743354
sS'/html/body/div/div'
p1052
F1.4486410295083758
sS'/html/body/div/div/div/div/div/div/div/div/div/div/div/h1/a'
p1053
F2.774516308912401
sS'/html/body/div/div/article/div/div/div/div/strong/a'
p1054
F9.96434086779242
sS'/html/body/div/div/a'
p1055
F9.96434086779242
sS'/html/body/div/div/article/div/div/div/ul/li/p/a'
p1056
F9.96434086779242
sS'/html/body/div/div/div/div/div/div/div/div/center/img'
p1057
F6.964340867792418
sS'/html/body/div/div/article/div/div/div/p/em/a/br'
p1058
F9.96434086779242
sS'/html/body/div/div/div/div/script'
p1059
F1.5213973719436902
sS'/html/body/div/div/article/div/div/div/ul/li/p/strong/a'
p1060
F8.379378367071263
sS'/html/body/div/div/div/div/div/div/div/div/em'
p1061
F6.794415866350106
sS'/html/body/div/div/article/div/div/div'
p1062
F0.6628446728098694
sS'/html/body/div/div/div/div/div/h2/a'
p1063
F9.96434086779242
sS'/html/body/div/div/article/div/div/div/em/a'
p1064
F7.642412772905057
sS'/html/body/div/div/div/div/div/div/div/div/ul/li/div/a/img'
p1065
F6.504909249155122
sS'/html/body/div/div/div/div/div/div/div/ul/li/form/input'
p1066
F4.033603530229532
sS'/html/body/div/div/article/div/div/h3'
p1067
F8.96434086779242
sS'/html/body/div/div/div/div/div/div/div/div/div/div/div/div/a/span'
p1068
F7.642412772905057
sS'/html/body/div/div/article/div/div/figure/span/a'
p1069
F7.964340867792419
sS'/html/body/div/div/article/div/div/div/section/div/ul/li/div/div'
p1070
F0.6628446728098694
sS'/html/body/noscript/img'
p1071
F1.5297126401556937
sS'/html/body/div/div/article/div/div/div/p/span/a'
p1072
F4.1063598726648465
sS'/html/body/div/div/article/div/div/center/p/script'
p1073
F8.379378367071263
sS'/html/body/div/div/div/div/div/div/b'
p1074
F8.96434086779242
sS'/html/body/div/div/article/div/p/strong/strong'
p1075
F9.96434086779242
sS'/html/body/div/div/div/div/div/div/div/div/div/div/div/div/div/div/div/s'
p1076
F3.081697818430577
sS'/html/body/div/div/div/div/div/div/div/div/div/div/div/div/div/div/div/p'
p1077
F7.964340867792419
sS'/html/body/rss/channel/item/description/img'
p1078
F9.96434086779242
sS'/html/body/div/div/article/div/div/blockquote/div/p/em'
p1079
F8.379378367071263
sS'/html/body/div/div/article/div/div/div/div/div/section/div/ul/li/strong'
p1080
F6.0574502721839
sS'/html/body/div/div/div/div/div/div/div/div/div/div/p/span'
p1081
F7.379378367071262
sS'/html/body/div/div/div/div/div/div/ul/li/div/div/div/div/strong'
p1082
F7.156985945734815
sS'/html/body/div/div/div/div/div/div/div/div/div/div/div/div/div/div/div/i'
p1083
F3.081697818430577
sS'/html/body/div/div/div/div/div/div/div/h3'
p1084
F4.010144557405543
sS'/html/body/div/div/div/div/div/div/div/div/ul/li/div/span'
p1085
F7.156985945734815
sS'/html/body/div/div/article/div/div/ul/li/strong/a'
p1086
F9.96434086779242
sS'/html/body/div/div/div/div/div/div/div/div/ul/li/a/img'
p1087
F7.379378367071262
sS'/html/body/div/div/div/div/div/div/div/div/div/div/style'
p1088
F9.96434086779242
sS'/html/body/div/div/div/div/div/div/div/div/ul/li/span'
p1089
F9.96434086779242
sS'/html/body/div/div/div/div/div/div/div/div/div/div/div/div/div/div/div/a'
p1090
F7.964340867792419
sS'/html/body/div/div/div/div/div/div/div/div/p/a/span'
p1091
F7.379378367071262
sS'/html/body/script'
p1092
F1.5172576415827659
sS'/html/body/div/div/div/div/div/div/div/div/div/div'
p1093
F1.8505987017432302
sS'/html/body/div/div/div/div/div/div/div/div/blockquote/p/span/em'
p1094
F9.96434086779242
sS'/html/body/div/div/article/div/div/div/blockquote/p/a/span/span'
p1095
F8.379378367071263
sS'/html/body/div/div/div/div/div/ul/li/a'
p1096
F0.06649541178690692
sS'/html/body/div/div/div/div/div/div/div/ul/li/div/span'
p1097
F8.96434086779242
sS'/html/body/div/div/article/div/div/div/p/sub'
p1098
F9.96434086779242
sS'/html/body/div/div/img'
p1099
F1.925421878500116
sS'/html/body/div/div/div/div/div/ul/li/ul/li/a/b'
p1100
F9.96434086779242
sS'/html/body/div/div/article/div/div/div/p/iframe'
p1101
F7.156985945734815
sS'/html/body/div/div/div/p/strong'
p1102
F7.156985945734815
sS'/html/body/div/div/div/div/div/div/div/div/div/div/div/div/ul/li/span'
p1103
F8.379378367071263
sS'/html/body/div/div/div/div/span/button'
p1104
F5.876878026542079
sS'/html/body/div/div/p/a'
p1105
F9.96434086779242
sS'/html/body/div/div/article/div/div/div/p/b'
p1106
F8.96434086779242
sS'/html/body/div/div/div/div/div/div/div/ul/li/a/img'
p1107
F6.794415866350106
sS'/html/body/div/div/div/div/div/div/div/div/p/em/em/a'
p1108
F8.96434086779242
sS'/html/body/div/div/div/div/div/div/div/div/p/em/br'
p1109
F6.642412772905057
sS'/html/body/div/div/div/div/div/div/div/div/div/div/div/div/div/div/div/div/a/span'
p1110
F2.8145937482877366
sS'/html/body/div/div/div/div/div/ul/li/div/div/div/div/div/ul/li/a'
p1111
F2.2848607682869724
sS'/html/body/div/div/div/div/div/div/div/div/p/a/img'
p1112
F5.440778911735405
sS'/html/body/div/div/div/div/div/div/div/p'
p1113
F4.572023445013658
sS'/html/body/div/div/div/div/div/ul/ul/li/strong'
p1114
F9.96434086779242
sS'/html/body/div/div/div/div/div/div/div/div/p/span/em/strong/a'
p1115
F9.96434086779242
sS'/html/body/div/div/div/div/div/div/div/h2/a/div/div'
p1116
F4.835057850847452
sS'/html/body/div/div/article/div/div/div/h4'
p1117
F5.156985945734815
sS'/html/body/div/div/article/div/p/span/span/strong/em/br'
p1118
F9.96434086779242
sS'/html/body/div/div/article/header/div/h2/span'
p1119
F7.642412772905057
sS'/html/body/noscript/h1/a'
p1120
F7.156985945734815
sS'/html/body/div/div/article/div/p/br'
p1121
F9.96434086779242
sS'/html/body/div/div/div/div/div/div/div/div/div/ul/li'
p1122
F8.96434086779242
sS'/html/body/div/div/div/div/div/div/div/div/div/ul/li/a/span'
p1123
F7.964340867792419
sS'/html/body/div/div/div/div/div/div/div/div/div/div/h3/a'
p1124
F9.96434086779242
sS'/html/body/div/div/article/div/div/p/a'
p1125
F6.156985945734815
sS'/html/body/div/div/div/div/div/div/div/a/div/div/a/img'
p1126
F2.425182056684387
sS'/html/body/div/div/article/div/div/div/div/div/div/div/form/div/label'
p1127
F0.6289505130984935
sS'/html/body/div/div/div/div/div/div/div/div/ul/br'
p1128
F9.96434086779242
sS'/html/body/div/div/div/div/div/div/div/div/ul/li/div/span/span'
p1129
F8.96434086779242
sS'/html/body/div/div/div/div/div/ul/li/div/div/div/div/ul/li/a'
p1130
F2.2848607682869724
sS'/html/body/div/div/article/div/div/div/div/p/a'
p1131
F8.96434086779242
sS'/html/body/div/div/div/div/div/div/div/div/p/wbr'
p1132
F9.96434086779242
sS'/html/body/div/div/div/div/div/div/div/div/div/div/div/div/div'
p1133
F2.1063598726648465
sS'/html/body/div/div/div/div/div/div/div/div/div/div/div/div/iframe'
p1134
F5.964340867792418
sS'/html/body/div/div/div/div/div/div/ul/li/div/a'
p1135
F7.156985945734815
sS'/html/body/div/div/div/div/div/div/div/div/center/p/br'
p1136
F9.96434086779242
sS'/html/body/div/div/div/div/div/div/div/h4/a/br'
p1137
F9.96434086779242
sS'/html/body/div/div/article/div/div/div/p/a/em/wbr'
p1138
F9.96434086779242
sS'/html/body/div/div/div/div/div/div/div/div/div/div/blockquote/p'
p1139
F7.964340867792419
sS'/html/body/div/div/article/div/div/div/p/i'
p1140
F6.263901149651327
sS'/html/body/div/div/article/div/div/div/h4/span'
p1141
F9.96434086779242
sS'/html/body/div/div/div/div/div/div/div/div/ul/li/strong'
p1142
F8.96434086779242
sS'/html/body/div/div/article/div/div/div/p/em/b/a'
p1143
F9.96434086779242
sS'/html/body/noscript/h2/a'
p1144
F3.4251820566843874
sS'/html/body/div/div/div/div/div/div/div/div/div/div/div/div/div/div/p/em'
p1145
F9.96434086779242
sS'/html/body/div/div/div/div/div/div/div/div/blockquote/span'
p1146
F8.96434086779242
sS'/html/body/div/div/div/div/div/p'
p1147
F9.96434086779242
sS'/html/body/div/div/div/div/div/div/div/div/div/div/div/p/strong'
p1148
F9.96434086779242
sS'/html/body/div/div/div/div/div/div/table/tr/td/span/script'
p1149
F2.2919155258209227
sS'/html/body/rss/channel/item/enclosure'
p1150
F9.96434086779242
sS'/html/body/div/div/div/div/div/div/div/div/div/div/div/div/div/div/p'
p1151
F4.1063598726648465
sS'/html/body/div/div/div/div/div/div/div/div/div/div/div/h2/a'
p1152
F7.642412772905057
sS'/html/head/title'
p1153
F0.002891173394222513
sS'/html/body/div/div/div/div/div/div/div/div/div/div/div/div/script'
p1154
F5.010144557405543
sS'/html/body/div/div/div/div/div/div/div/div/div/div/blockquote/p/br'
p1155
F9.96434086779242
sS'/html/body/div/div/article/div/div/div/div/div/a'
p1156
F7.964340867792419
sS'/html/body/div/div/div/p/a/span'
p1157
F9.96434086779242
sS'/html/body/div/div/div/div/div/div/span/br'
p1158
F9.96434086779242
sS'/html/body/div/div/div/div/div/div/div/ul/li/ol/li/a/span'
p1159
F9.96434086779242
sS'/html/body/div/div/div/div/div/div/div/div/p/span/em/strong'
p1160
F9.96434086779242
sS'/html/body/div/div/div/div/div/div/div/div/h3/span'
p1161
F9.96434086779242
sS'/html/body/div/div/article/div/div/div/p/span/strong'
p1162
F7.964340867792419
sS'/html/body/div/div/div/div/div/div/ul/li/h5/a'
p1163
F8.96434086779242
sS'/html/body/div/div/article/div/div/ul/p'
p1164
F9.96434086779242
sS'/html/body/div/div/div/div/div/div/div/div/div/div/div/div/div/div/a'
p1165
F4.964340867792418
sS'/html/body/rss/channel/item/description/em/br'
p1166
F9.96434086779242
sS'/html/body/div/div/div/div/div/div/div/ul/li/div/h4/a'
p1167
F7.642412772905057
sS'/html/body/div/div/div/div/div/div/div/div/center/div/div/blockquote'
p1168
F9.96434086779242
sS'/html/body/div/div/div/div/div/div/div/div/p/a/div/a/img'
p1169
F9.96434086779242
sS'/html/body/div/div/article/div/div/div/p/span/span/a/span'
p1170
F9.96434086779242
sS'/html/body/div/div/div/div/div/div/div/div/div/div/div/div/div/span'
p1171
F5.320484678017694
sS'/html/body/div/div/article/div/div/div/h2'
p1172
F0.6379113806701152
sS'/html/body/div/div/article/div/div/div/div/div/p'
p1173
F8.96434086779242
sS'/html/body/div/div/div/div/div/div/div/div/p/strong/a/br'
p1174
F9.96434086779242
sS'/html/body/div/div/div/div/div/div/a/b'
p1175
F7.642412772905057
sS'/html/body/div/div/div/script'
p1176
F0.021826362453178313
sS'/html/body/div/div/div/div/div/div/div/ul/ul/ul/li/a'
p1177
F9.96434086779242
sS'/html/body/div/div/div/div/div/div/div/p/a'
p1178
F8.379378367071263
sS'/html/body/div/div/div/div/div/div/ul'
p1179
F9.96434086779242
sS'/html/body/div/div/div/div/div/img'
p1180
F2.015973636207741
sS'/html/body/div/div/article/div/div/div/p/span/span'
p1181
F6.964340867792418
sS'/html/body/div/div/article/div/div/center/div/p/a/img'
p1182
F5.1063598726648465
sS'/html/body/div/div/div/div/div/span/button'
p1183
F7.156985945734815
sS'/html/body/div/div/div/div/div/div/div/p/i'
p1184
F9.96434086779242
sS'/html/body/div/div/div/div/div/div/div/div/div/div/div/div/div/div/div/a/span'
p1185
F9.96434086779242
sS'/html/body/div/div/div/div/div/div/div/ul/li/div/div/div/div/ul/li/a/span/span/span'
p1186
F4.379378367071262
sS'/html/body/div/div/div/div/div/div/div/div/script'
p1187
F5.642412772905057
sS'/html/body/div/div/div/div/div/div/div/ul/li/ol/li/div/span/a'
p1188
F4.182981154267759
s.