(dp0
S'/html/body/div/div/div/div/div/noscript/img'
p1
F4.442222328605075
sS'/html/body/div/div/div/div/div/fieldset/div/div/div/span/span'
p2
F7.643856189774724
sS'/html/body/div/div/div/div/div/dd/div/div/div/div/ul/li/img'
p3
F7.965784284662087
sS'/html/body/div/div/div/div/div/div/div/div/div/div/div/div/div/ul/li/img'
p4
F8.965784284662087
sS'/html/body/div/div/div/div/div/div/div/div/div/div/div/div/div/div/div/fieldset/div/fieldset/ul/div/li/input'
p5
F7.965784284662087
sS'/html/body/div/div/div/div/div/div/div/div/div/var'
p6
F9.965784284662087
sS'/html/body/div/div/div/div/div/div/div/div/div/div/div/div/div/div/div/p/span'
p7
F9.965784284662087
sS'/html/body/div/div/div/div/div/div/div/dl/dd/div/div/div/div/div/div/div'
p8
F5.321928094887363
sS'/html/body/div/div/div/div/div/div/div/div/div/table/tr/td/div/a/span/div/div/div/img'
p9
F5.573466861883327
sS'/html/body/div/div/div/div/div/div/div/div/div/div/div/form/div/div/div/div/div/em'
p10
F9.965784284662087
sS'/html/body/div/div/div/div/div/form/fieldset/div/span/b'
p11
F7.158429362604482
sS'/html/body/div/div/div/div/div/dd/div/div/div/div/div/div'
p12
F2.766111939825723
sS'/html/body/div/div/div/div/div/div/div/div/div/form/ul/li/div/label'
p13
F6.965784284662088
sS'/html/body/div/div/div/div/div/div/div/dl/dd/div/div/div/span/div/div'
p14
F2.1015981400078068
sS'/html/body/div/div/div/div/div/div/form/fieldset/div/div/div/div/div/span'
p15
F1.7908586021614084
sS'/html/body/div/div/div/div/div/div/div/div/div/div/form/ul/li/span/input'
p16
F2.265344566520995
sS'/html/body/div/div/div/div/div/div/div/div/div/div/div/div/div/div/div/div/div/div/div/span/span/img'
p17
F6.380821783940931
sS'/html/body/div/div/div/div/div/div/div/div/form/label/div'
p18
F7.965784284662087
sS'/html/body/div/div/div/div/div/div/div/div/div/form/fieldset/div/script'
p19
F9.965784284662087
sS'/html/body/div/div/div/div/div/div/div/ul/div/li/div/em'
p20
F7.158429362604482
sS'/html/body/div/div/div/div/div/div/div/div/div/ul/li/div/a/div/span/img'
p21
F6.265344566520995
sS'/html/body/main/div/div/section/ul/li/span'
p22
F9.965784284662087
sS'/html/body/div/div/div/div/div/div/div/div/div/div/div/div/input'
p23
F5.573466861883327
sS'/html/body/div/div/div/div/div/div/div/div/div/div/div/div/div/div/div/div/div/div/div/div/div'
p24
F2.766111939825723
sS'/html/body/div/div/div/div/div/dd/div/div/div/div/div/div/div/img'
p25
F2.766111939825723
sS'/html/body/div/div/div/div/div/div/div/div/div/div/div/div/div/div/div/div/div/ul'
p26
F6.058893689053569
sS'/html/body/div/div/div/div/div/div/div/form/input'
p27
F5.795859283219775
sS'/html/body/div/div/div/div/p/a'
p28
F0.5994620704162712
sS'/html/body/div/div/div/div/div/div/div/div/div/div/div/div/div/div/div/div/div/div/div/div/div/img'
p29
F6.380821783940931
sS'/html/body/div/div/div/div/p/b'
p30
F6.795859283219775
sS'/html/body/div/div/div/div/div/div/div/div/div/dl/dd/a'
p31
F7.158429362604482
sS'/html/body/div/div/div/div/p/i'
p32
F9.965784284662087
sS'/html/body/div/div/div/div/div/div/div/div/address/span/span'
p33
F1.894321922105463
sS'/html/body/div/div/div/div/div/div/div/div/div/div/div/span/i'
p34
F3.279283757478869
sS'/html/head/script'
p35
F0.0
sS'/html/body/div/div/div/div/div/form/div/input'
p36
F0.005782352594006179
sS'/html/body/div/div/div/div/div/div/div/div/div/div/form/fieldset/span/div'
p37
F3.279283757478869
sS'/html/body/div/div/div/div/div/div/div/div/div/div/div/span/a'
p38
F6.158429362604484
sS'/html/body/div/div/div/div/div/ul/li/div/div/ul/li/span'
p39
F8.965784284662087
sS'/html/body/div/div/div/div/div/div/div/div/div/table/tr/td/div/span'
p40
F1.894321922105463
sS'/html/body/div/div/div/div/div/div/div/dl/dd/div/div/div/div/div/div/div/div/div/div'
p41
F1.3364276645824773
sS'/html/body/div/div/div/div/div/ul/a/li/div/div'
p42
F9.965784284662087
sS'/html/body/div/div/div/div/div/div/div/div/div/div/div/div/div/div/a/div/div/div/img'
p43
F9.965784284662087
sS'/html/body/div/div/div/div/div/div/div/div/div/div/div/div/b'
p44
F2.7563309190331373
sS'/html/body/div/div/div/div/div/div/ul/li/div/span/span'
p45
F3.2515387669959646
sS'/html/body/div/div/div/div/div/div/div/div/div/div/div/div/a'
p46
F0.4860040206329873
sS'/html/body/div/div/div/div/div/form/fieldset/div/span/span/i'
p47
F7.158429362604482
sS'/html/body/div/div/div/div/div/div/div/div/div/div/ul/div/li/div/div/a/div/div/div/img'
p48
F6.643856189774725
sS'/html/body/div/div/div/div/div/div/div/div/div/div/div/div/div/div/div/div/div/div/a/div/div/div/img'
p49
F5.50635266602479
sS'/html/body/div/div/div/div/div/div/div/div/div/div/div/div/p'
p50
F1.0144995696951153
sS'/html/body/div/div/div/div/div/div/div/form/fieldset/div/div/div/div/span/span'
p51
F1.965784284662087
sS'/html/body/div/div/div/div/div/div/div/div/div/div/b'
p52
F0.7490384264667813
sS'/html/body/div/div/div/div/div/div/div/br'
p53
F8.965784284662087
sS'/html/body/div/div/div/div/div/div/div/div/div/ul/li/span'
p54
F1.6259342817774622
sS'/html/body/div/div/div/div/div/div/div/h3/div/img'
p55
F6.265344566520995
sS'/html/body/div/div/div/div/div/div/div/div/div/div/p'
p56
F9.965784284662087
sS'/html/body/div/div/div/div/div/div/div/div/div/div/div/div/div/div/span/img'
p57
F0.7661119398257227
sS'/html/body/div/div/div/div/div/div/div/div/div/div/div/div/div/div/div/span/span'
p58
F3.197599959885161
sS'/html/body/div/div/div/div/div/div/div/div/div/div/div/div/div/a/div/img'
p59
F6.795859283219775
sS'/html/body/div/div/div/div/div/div/div/div/div/div/form/div/ul/li/a'
p60
F2.265344566520995
sS'/html/body/div/div/div/div/div/div/form/fieldset/div/div/div/div/div/div/div/span/img'
p61
F1.7908586021614084
sS'/html/body/div/div/div/div/div/div/div/div/div/form/div/div/div/div/div/div'
p62
F7.158429362604482
sS'/html/body/div/div/div/div/div/div/div/div/div/span/strong'
p63
F2.321928094887362
sS'/html/body/div/div/div/div/div/form/fieldset/p'
p64
F7.158429362604482
sS'/html/body/div/div/div/div/div/div/div/div/div/div/div/div/div/div/div/fieldset/div/p'
p65
F7.965784284662087
sS'/html/body/div/div/div/div/div/div/div/div/address/div/div/div/div'
p66
F2.077041035763828
sS'/html/body/div/div/div/div/div/div/div/div/div/div/div/div/div/div/div/a/img'
p67
F3.1584293626044833
sS'/html/body/div/div/div/div/div/div/div/dl/dd/div'
p68
F4.473931188332412
sS'/html/body/div/div/div/div/div/div/div/div/div/div/div/dl/dt/span'
p69
F6.965784284662088
sS'/html/body/div/div/div/div/div/div/div/div/div/div/div/div/div/div/div/form/fieldset/label'
p70
F6.058893689053569
sS'/html/body/div/div/div/div/div/div/div/div/div/div/div/div/div/div/div/form/div/div/input'
p71
F6.50635266602479
sS'/html/body/div/div/div/div/div/div/div/div/div/div/div/div/div/div/div/div/div/table/tbody/tr/td/div/span'
p72
F8.965784284662087
sS'/html/body/div/div/div/div/div/div/dl/dd/div/div/div/div/div/div/div/img'
p73
F1.8996950942043145
sS'/html/body/footer/div/ul/li/span/a'
p74
F9.965784284662087
sS'/html/body/div/div/div/div/div/div/div/div/form/fieldset/div/div'
p75
F6.265344566520995
sS'/html/body/div/div/div/div/div/div/div/div/div/dl/dd/p/span'
p76
F8.380821783940931
sS'/html/body/div/div/div/div/div/div/form/fieldset/div/div/label/input'
p77
F7.158429362604482
sS'/html/body/div/div/div/div/div/div/dl/dd/div/div/div/div/div/div/img'
p78
F1.8996950942043145
sS'/html/body/div/div/div/div/div/fieldset/div/div/div/div/div/div/div/div/div/div/img'
p79
F7.643856189774724
sS'/html/body/div/div/div/div/div/div/img'
p80
F0.7883647466728504
sS'/html/body/div/div/div/div/div/div/div/div/div/div/div/div/span/div/span'
p81
F7.965784284662087
sS'/html/body/div/div/div/div/div/table/tr/td/br'
p82
F9.965784284662087
sS'/html/body/div/div/div/div/div/div/div/div/div/div/div/div/span/input'
p83
F6.965784284662088
sS'/html/body/div/div/div/div/div/div/div/div/div/div/div/div/div/div/form/div/div/div/div/span'
p84
F6.058893689053569
sS'/html/body/div/div/div/div/div/div/div/dl/dd/div/div/div/div/div/div/div/div'
p85
F1.3364276645824773
sS'/html/body/div/div/div/div/div/div/div/div/div/div/div/div/div/div/div/span/img'
p86
F5.210896782498619
sS'/html/body/div/div/div/div/div/div/div/div/div/div/div/div/form/img'
p87
F5.795859283219775
sS'/html/body/div/div/div/div/div/div/div/div/div/div/div/div/div/div/div/ul/li/div/div/span'
p88
F9.965784284662087
sS'/html/body/div/div/div/div/div/div/div/div/form/div/input'
p89
F6.50635266602479
sS'/html/body/div/div/div/div/ul/li/div/div/div/img'
p90
F0.14401030269151943
sS'/html/body/div/div/div/div/div/div/dl/dt/a/img'
p91
F8.965784284662087
sS'/html/body/div/div/div/div/div/div/div/div/div/div/div/label/img'
p92
F2.816037165157405
sS'/html/body/div/nav/ul/li/a'
p93
F9.965784284662087
sS'/html/body/div/div/div/div/div/div/h1/div/span/img'
p94
F1.894321922105463
sS'/html/body/div/div/div/div/div/table/tr/td/table/tr/td/img'
p95
F9.965784284662087
sS'/html/body/main/div/header/h1'
p96
F9.965784284662087
sS'/html/body/div/div/div/div/div/div/form/fieldset/div/div/b'
p97
F5.643856189774724
sS'/html/body/div/div/div/div/div/div/div/div/div/div/div/form/div/ul/li/label'
p98
F1.7710274302398394
sS'/html/body/div/div/div/div/div/div/dl/dd/div/a'
p99
F1.8996950942043145
sS'/html/body/div/div/div/div/div/div/ul/li'
p100
F6.265344566520995
sS'/html/body/div/div/div/div/div/div/div/div/div/div/div/div/div/div/div/div/span/i'
p101
F9.965784284662087
sS'/html/body/div/div/div/div/div/div/div/div/div/div/div/div/div/div/div/div/div/div/div/ul/br'
p102
F3.2243172982609405
sS'/html/body/div/div/div/div/div/div/div'
p103
F0.19264507794239583
sS'/html/body/div/div/div/div/div/div/div/div/div/div/div/img'
p104
F0.929610672108602
sS'/html/body/div/div/div/div/div/div/div/div/br'
p105
F0.2567004721117434
sS'/html/body/div/div/div/div/div/fieldset/script'
p106
F7.643856189774724
sS'/html/body/div/div/div/div/div/div/div/div/div/div/div/div/div/div/div/div/div/a/img'
p107
F7.158429362604482
sS'/html/body/div/div/div/div/div/dd/div/div/div/div/label/input'
p108
F2.766111939825723
sS'/html/body/div/div/div/div/div/div/div/div/div/div/div/div/div/div/div/div/div/div/div/ul/li'
p109
F7.965784284662087
sS'/html/body/div/div/div/div/div/div/ul/li/img'
p110
F9.965784284662087
sS'/html/body/div/div/div/div/ul/script'
p111
F3.1713684183119812
sS'/html/body/div/div/div/div/div/span'
p112
F2.6082322800440036
sS'/html/body/div/div/div/div/div/div/div/div/div/div/div/dl/dt'
p113
F5.878321443411747
sS'/html/body/div/div/div/div/div/div/div/div/div/div/div/div/div/ul/li'
p114
F1.7369655941662063
sS'/html/body/div/div/div/div/div/div/div/div/div/div/form/div/div/div/div/div/div'
p115
F1.7661119398257226
sS'/html/body/div/div/div/div/div/div/div/div/div/div/div/form/div'
p116
F2.293358942690592
sS'/html/body/div/div/div/div/div/div/div/div/div/div/ul/div/li/div/div/div/div'
p117
F1.894321922105463
sS'/html/body/div/div/div/div/div/div/div/div/form/label/div/input'
p118
F7.965784284662087
sS'/html/body/div/div/div/div/p/script'
p119
F9.965784284662087
sS'/html/body/div/div/div/div/div/div/span/div/div/div/span'
p120
F2.8262329322632938
sS'/html/body/div/div/div/div/div/div/div/div/div/div/div/div/div/form/div/label'
p121
F8.965784284662087
sS'/html/body/div/div/div/div/div/div/div/div/div/ul/li/div/a/span'
p122
F6.265344566520995
sS'/html/body/div/div/div/div/div/div/div/div/div/div/div/form/div/ul/li/a'
p123
F2.3075728019102923
sS'/html/body/div/div/div/div/div/div/div/a/div/img'
p124
F8.965784284662087
sS'/html/body/div/div/div/div/div/div/div/form/fieldset/div/div/div/div/span/span/span'
p125
F1.965784284662087
sS'/html/body/div/div/div/div/div/div/div/div/div/div/div/form/div/ul/li/span'
p126
F2.3075728019102923
sS'/html/body/footer/div/h4'
p127
F9.965784284662087
sS'/html/body/div/div/div/div/div/div/div/div/div/div/div/div/div/div/div/div/div/dt'
p128
F6.380821783940931
sS'/html/body/div/div/div/div/div/div/div/div/ul/ul/li'
p129
F7.158429362604482
sS'/html/body/div/div/div/div/div/style'
p130
F2.899695094204315
sS'/html/body/div/div/div/div/div/div/div/div/ul/li/div/div/div/div'
p131
F6.643856189774725
sS'/html/body/div/div/div/div/div/div/div/div/div/div/div/div/div/div/img'
p132
F1.207561069935362
sS'/html/body/div/div/div/div/div/form/h3'
p133
F9.965784284662087
sS'/html/body/footer/div/div/div/a'
p134
F9.965784284662087
sS'/html/body/div/div/div/div/div/div/div/dl/dd/div/div/div/div'
p135
F1.3364276645824773
sS'/html/body/div/div/div/div/div/div/div/table/tr'
p136
F9.965784284662087
sS'/html/body/div/div/div/div/div/div/div/a/div/div'
p137
F8.965784284662087
sS'/html/body/div/div/div/div/div/div/div/div/div/div/ul/div/li/div/div/div/span'
p138
F1.8996950942043145
sS'/html/body/header/div/div/h2'
p139
F9.965784284662087
sS'/html/body/div/div/div/div/div/div/div/ul/li/div/div/a/img'
p140
F1.894321922105463
sS'/html/body/div/div/div/div/div/div/div/div/div/div/div/div/div/div/span/div/span/img'
p141
F8.965784284662087
sS'/html/body/div/div/div/div/div/div/div/div/div/form/div/div/div/div/div/div/div/div/select/option'
p142
F7.158429362604482
sS'/html/body/img'
p143
F9.965784284662087
sS'/html/body/div/div/div/div/div/div/div/div/div/div/div/div/div/div/a/span'
p144
F1.7661119398257226
sS'/html/body/div/div/div/div/div/div/div/div/dl/dd/div/dl/dt/a'
p145
F9.965784284662087
sS'/html/body/div/div/div/div/div/div/div/div/div/div/div/div/div/div/div'
p146
F1.5777669993169523
sS'/html/body/div/div/div/div/div/div/div/div/div/div/div/a/div/div/img'
p147
F8.380821783940931
sS'/html/body/div/div/div/div/div/div/div/div/div/ul/div'
p148
F9.965784284662087
sS'/html/body/div/div/div/div/div/div/div/span/span/span'
p149
F3.899695094204315
sS'/html/body/div/div/div/div/div/a/div/div/div/div'
p150
F9.965784284662087
sS'/html/body/div/div/div/div/div/div/div/div/table/tr/td/div/div'
p151
F1.7958592832197748
sS'/html/body/div/div/div/div/div/div/div/div/div/div/form/div/ul/li/label'
p152
F1.894321922105463
sS'/html/body/div/div/div/div/div/div/div/dl/dd/div/div/div/span/div/img'
p153
F2.1015981400078068
sS'/html/body/div/div/div/div/div/dd/div/div/div/div'
p154
F2.766111939825723
sS'/html/body/div/div/div/div/div/div/div/form/fieldset/div/div/div/span/span'
p155
F2.0350469470992008
sS'/html/body/div/div/div/div/div/div/div/div/div/div/div/div/div/div/div/div/div/div/div/div/div/span/img'
p156
F3.184424571137428
sS'/html/body/div/div/div/div/ul/li/span/span'
p157
F0.011587974275211823
sS'/html/body/div/div/div/div/div/div/div/div/div/div/form/div/ul/li/label/div'
p158
F1.894321922105463
sS'/html/body/div/div/div/div/div/table/tr/td/table/tr/td/form/table/tr/td/b'
p159
F9.965784284662087
sS'/html/body/div/div/div/div/div/ul/a/li/div/h2'
p160
F9.965784284662087
sS'/html/body/div/div/div/div/div/div/div/form/fieldset/div/span'
p161
F2.0057823525940064
sS'/html/body/div/div/div/div/div/fieldset/div/div/div/div/script'
p162
F7.643856189774724
sS'/html/body/div/div/div/div/div/div/div/dl/dd/div/div/div/div/ul/li/img'
p163
F6.265344566520995
sS'/html/body/div/div/div/div/div/div/ul/li/span'
p164
F6.795859283219775
sS'/html/body/div/div/div/div/div/div/div/div/div/div/div/span/strong'
p165
F4.442222328605075
sS'/html/body/div/div/div/div/div/div/div/div/div/div/div/div/div/div/div/div/div/div/a/span'
p166
F6.058893689053569
sS'/html/body/div/div/div/div/div/div/p/b'
p167
F9.965784284662087
sS'/html/body/div/div/div/div/div/div/div/div/div/div/div/form/div/span/a'
p168
F8.965784284662087
sS'/html/body/div/div/div/div/div/div/div/div/div/div/div/div/div/div/div/span/div/div'
p169
F6.380821783940931
sS'/html/body/div/div/nav/span'
p170
F9.965784284662087
sS'/html/body/div/div/div/div/div/div/div/div/div/div/div/a/script'
p171
F9.965784284662087
sS'/html/body/div/div/div/div/div/div/div/form/fieldset/div/div/div/div/span/img'
p172
F1.965784284662087
sS'/html/body/div/div/h3'
p173
F9.965784284662087
sS'/html/body/div/div/h2'
p174
F9.965784284662087
sS'/html/body/div/div/h1'
p175
F9.965784284662087
sS'/html/body/div/div/div/div/div/div/div/div/div/div/div/div/a/span'
p176
F1.8836352433082157
sS'/html/body/div/div/div/div/div/div/div/div/div/div/div/form/div/div/div/div/span'
p177
F9.965784284662087
sS'/html/body/div/div/div/div/div/div/div/form/div/div/span/input'
p178
F7.158429362604482
sS'/html/body/div/div/div/div/div/div/form/fieldset/label/img'
p179
F7.158429362604482
sS'/html/body/div/div/div/div/div/div/div/dl/dd/div/a'
p180
F1.4819685073978306
sS'/html/body/div/div/div/div/div/div/div/div/address/div/span'
p181
F3.7958592832197753
sS'/html/body/div/div/div/div/div/div/div/div/div/div/div/div/div/form/div/div/div/div/div/div'
p182
F8.965784284662087
sS'/html/body/div/div/div/div/div/div/div/div/div/div/div/div/div/h3/a'
p183
F7.965784284662087
sS'/html/body/div/div/div/div/div/div/div/div/form/div/div/dl/dd/label/div'
p184
F9.965784284662087
sS'/html/body/div/div/div/div/div/div/div/div/div/form/ul/li/div/div/select/option'
p185
F6.965784284662088
sS'/html/body/div/div/div/div/div/div/div/div/div/div/fieldset/ul/li/span/span'
p186
F7.965784284662087
sS'/html/body/div/div/div/div/div/div/div/div/div/div/div/div/div/div/div/form/div/ul/li/label/span/span'
p187
F6.058893689053569
sS'/html/body/div/div/div/div/div/div/div/div/div/div/a/img'
p188
F1.6170561304310098
sS'/html/body/div/div/div/div/div/div/div/div/div/div/div/div/div/div/div/div/a'
p189
F4.132894270497346
sS'/html/body/div/div/div/div/div/div/form/fieldset/div/span'
p190
F1.8624964762500653
sS'/html/body/div/div/span/span'
p191
F0.0028882793248263526
sS'/html/body/div/div/div/div/div/div/div/div/div/div/div/div/div/a/div/div/span'
p192
F9.965784284662087
sS'/html/body/div/div/div/p/a'
p193
F8.965784284662087
sS'/html/body/div/div/div/div/div/div/div/div/div/div/h4'
p194
F8.965784284662087
sS'/html/body/div/div/div/div/div/div/div/div/div/div/h3'
p195
F2.643856189774725
sS'/html/body/div/div/div/div/div/div/div/div/div/div/h2'
p196
F1.8836352433082157
sS'/html/body/div/div/div/div/div/div/div/div/div/ul/li/img'
p197
F8.965784284662087
sS'/html/body/div/div/div/div/div/div/div/div/div/div/div/div/a/div/img'
p198
F0.8287931725818575
sS'/html/body/div/div/div/div/div/div/div/div/div/div/div/div/ul/li/ul'
p199
F3.4111954329844494
sS'/html/body/div/div/div/div/div/form/fieldset/div/div/div/input'
p200
F7.158429362604482
sS'/html/body/div/div/div/div/div/div/div/div/div/div/div/form/div/div/label/div/div'
p201
F8.965784284662087
sS'/html/body/div/div/div/div/div/div/div/div/div/div/div/div/div/div/div/div/div/div/script'
p202
F9.965784284662087
sS'/html/body/div/div/div/div/div/div/div/div/div/div/div/div/div/form/fieldset/div'
p203
F8.965784284662087
sS'/html/body/div/div/div/div/div/div/div/div/div/div/div/div/div/div/div/div/div/div/div/div/div/div/img'
p204
F7.158429362604482
sS'/html/body/div/div/div/div/div/div/form/fieldset/div/div/span/span'
p205
F1.7661119398257226
sS'/html/body/div/div/div/div/span'
p206
F0.6060347243397574
sS'/html/body/div/div/div/div/div/div/div/div/div/div/div/div/div/div/div/form/div/ul/li/span'
p207
F6.50635266602479
sS'/html/body/div/div/div/div/div/div/div/div/div/dl/dt'
p208
F7.158429362604482
sS'/html/body/div/div/div/div/div/fieldset/div/div/a'
p209
F7.643856189774724
sS'/html/body/div/div/div/div/div/div/div/div/table/tr/td/div/span'
p210
F1.7958592832197748
sS'/html/body/div/div/div/div/div/fieldset/div/div/div/div/div/div/div/div/div/div/div/span'
p211
F7.643856189774724
sS'/html/body/div/div/div/div/div/div/div/div/div/dl/dd'
p212
F7.158429362604482
sS'/html/body/div/div/div/div/div/strong'
p213
F7.965784284662087
sS'/html/body/div/div/div/div/a'
p214
F1.6896598793878495
sS'/html/body/div/div/div/div/div/div/form/fieldset/div/div'
p215
F5.210896782498619
sS'/html/body/div/div/div/div/div/div/a/div/div/ul/li'
p216
F9.965784284662087
sS'/html/body/div/div/div/div/div/div/div/div/div/div/div/form/fieldset/span/div'
p217
F6.965784284662088
sS'/html/body/div/div/div/div/div/div/div/div/div/div/div/div/div/div/div/div/div/ul/li/span/img'
p218
F9.965784284662087
sS'/html/body/div/div/div/div/div/div/div/div/div/script'
p219
F3.857259827883918
sS'/html/body/div/div/div/div/div/div/div/div/dl/dd/span/img'
p220
F2.3147325934831584
sS'/html/body/div/div/div/div/div/div/div/div/div/div/span/i'
p221
F7.158429362604482
sS'/html/body/span'
p222
F9.965784284662087
sS'/html/body/div/div/div/div/div/div/div/div/div/div/div/div/div/div/div/div/div/div/div/div'
p223
F3.3075728019102923
sS'/html/body/div/div/div/div/div/div/div/div/div/div/span/div/img'
p224
F6.965784284662088
sS'/html/body/div/div/div/div/div/div/div/div/div/form/div/div/div/div/div/div/div/div/div'
p225
F7.158429362604482
sS'/html/body/div/div/div/div/div/div/div/div/div/div/a/div/img'
p226
F5.717856771218502
sS'/html/body/div/div/div/div/div/div/div/div/div/form/div/div/div/div/div/div/div/div'
p227
F7.158429362604482
sS'/html/body/div/div/div/div/div/form/fieldset/div/input'
p228
F7.158429362604482
sS'/html/body/div/div/div/div/div/div/div/div/form/fieldset/div/div/span/span/span'
p229
F6.265344566520995
sS'/html/body/div/div/div/div/div/div/div/div/div/div/div/div/div/div/div/form/div'
p230
F6.50635266602479
sS'/html/body/div/div/div/div/div/div/div/div/div/div/div/div/div/div/div/div/div/div/div/ul/li/span'
p231
F3.2243172982609405
sS'/html/body/div/div/div/div/div/div/div/table/tr/td/div/a/span/span'
p232
F9.965784284662087
sS'/html/body/div/div/div/div/div/div/div/div/div/div/div/div/div/div/div/div/div/div/div/div/div/div/div'
p233
F4.035046947099201
sS'/html/body/div/div/div/div/ul/li/div/a/div/img'
p234
F5.442222328605075
sS'/html/body/div/div/div/div/div/div/div/div/div/div/div/ul/li/div/div'
p235
F8.965784284662087
sS'/html/body/div/div/div/div/div/div/div/div/div/div/div/div/div/strong'
p236
F8.380821783940931
sS'/html/body/div/div/div/div/div/div/div/div/div/div/div/div/div/div/div/div/div/span'
p237
F4.158429362604483
sS'/html/body/div/div/div/div/div/div/div/div/div/div/div/form/div/div/span/label/input'
p238
F8.965784284662087
sS'/html/body/div/div/div/div/div/div/div/img'
p239
F1.7369655941662063
sS'/html/body/div/div/div/div/div/div/div/form/fieldset/div/div/span/div/span'
p240
F9.965784284662087
sS'/html/body/div/div/div/div/div/div/div/div/div/div/ul/li/div/span'
p241
F7.965784284662087
sS'/html/body/div/div/div/div/div/div/div/div/form/label/textarea'
p242
F7.965784284662087
sS'/html/body/div/div/div/div/div/div/div/div/ul/li/div/div/div/a'
p243
F6.643856189774725
sS'/html/body/div/div/div/div/table/tr/td/a'
p244
F7.965784284662087
sS'/html/body/div/div/div/div/div/fieldset/div/div/div/div/div/div/div/div/div/img'
p245
F7.643856189774724
sS'/html/body/div/div/div/div/ul/li/div/div/a'
p246
F5.442222328605075
sS'/html/body/div/div/div/div/div/div/div/div/div/div/div/div/div/div/div/fieldset/div/fieldset/ul/li/input'
p247
F7.965784284662087
sS'/html/body/div/div/div/div/div/div/div/span/span/br'
p248
F8.965784284662087
sS'/html/body/div/div/div/div/div/div/div/div/div/form/input'
p249
F1.816037165157405
sS'/html/body/div/div/div/div/div/div/div/div/div/div/div/div/ul/li/div/span'
p250
F4.035046947099201
sS'/html/body/div/div/div/div/div/div/div/div/span/span'
p251
F2.7858751946471525
sS'/html/body/div/div/div/div/ul/li/div/div/div/a'
p252
F8.380821783940931
sS'/html/body/div/div/div/div/div/table/tr/td/table/tr/td/a/br'
p253
F9.965784284662087
sS'/html/body/div/div/div/div/div/div/div/div/div/h4/span'
p254
F1.8624964762500653
sS'/html/body/div/div/div/div/div/div/div/div/div/div/div/div/div/div/div/div'
p255
F2.3147325934831584
sS'/html/body/div/div/div/div/div/div/span/div'
p256
F9.965784284662087
sS'/html/body/div/div/div/div/div/div/div/div/div/div/div/dd/div/div/div/div/div/form/input'
p257
F8.380821783940931
sS'/html/body/div/div/div/div/div/div/div/div/div/div/div/div/a/div/div/div/img'
p258
F3.857259827883918
sS'/html/body/div/div/div/div/div/div/div/dl/dd/div/div/div/div/div/span/label'
p259
F1.7710274302398394
sS'/html/body/div/div/div/div/div/div/div/div/div/div/div/div/div/div/div/form/div/ul/li/a'
p260
F6.50635266602479
sS'/html/body/div/div/div/div/div/div/div/div/div/div/div/div/div/div/div/div/div/span/span/a'
p261
F3.0588936890535687
sS'/html/body/div/div/div/div/div/div/div/div/div/div/div/div/div/var/b'
p262
F7.158429362604482
sS'/html/body/div/div/div/div/div/div/div/div/div/ul/li/a/div/img'
p263
F6.50635266602479
sS'/html/body/div/div/div/div/div/div/div/ul/li/div/div'
p264
F1.894321922105463
sS'/html/body/div/div/div/div/style'
p265
F0.5187010584524349
sS'/html/body/div/div/div/div/div/div/div/div/address/div/div/div/div/span/div/div'
p266
F5.442222328605075
sS'/html/body/main/div/div/section/a'
p267
F9.965784284662087
sS'/html/body/div/div/div/div/div/div/span/a'
p268
F3.3959286763311396
sS'/html/body/div/div/div/div/div/div/span/div/div/div'
p269
F2.8262329322632938
sS'/html/body/div/div/div/div/div/div/div/div/div/div/a/div/div/p'
p270
F9.965784284662087
sS'/html/body/div/div/div/div/div/div/div/div/div/div/div/br'
p271
F5.717856771218502
sS'/html/body/div/div/div/div/div/div/div/div/div/div/div/ul/li/b'
p272
F8.965784284662087
sS'/html/body/div/div/div/div/div/div/div/div/div/div/div/ul/li/a'
p273
F6.795859283219775
sS'/html/body/div/div/div/div/div/div/div/div/div/div/div/ul/li/i'
p274
F7.158429362604482
sS'/html/body/div/div/div/div/div/div/div/div/div/div/form/div/div/div/div/div/em'
p275
F1.7661119398257226
sS'/html/body/div/div/div/div/div/div/div/div/div/div/div/div/div/form/div/div/div'
p276
F7.965784284662087
sS'/html/body/footer/div/ul/li'
p277
F9.965784284662087
sS'/html/body/div/div/div/div/div/div/div/div/div/div/div/form/fieldset/label'
p278
F9.965784284662087
sS'/html/body/div/div/div/div/div/div/div/div/div/ul/li/a/div/div'
p279
F6.265344566520995
sS'/html/body/div/div/div/div/div/div/div/div/div/div/div/div/div/div/div/div/div/div/div/div/span/img'
p280
F3.6082322800440036
sS'/html/body/div/div/div/div/div/div/div/div/div/div/a'
p281
F0.6850135145314844
sS'/html/body/div/div/div/div/div/div/div/div/div/div/div/div/div/div/div/div/div/div/p/span/img'
p282
F6.058893689053569
sS'/html/body/div/div/div/div/div/span/a'
p283
F7.380821783940932
sS'/html/body/div/div/span'
p284
F2.8677522017015606
sS'/html/body/div/div/div/div/div/div/div/div/div/div/div/form/div/div/div/div'
p285
F9.965784284662087
sS'/html/body/div/div/div/div/div/div/form/fieldset/div/div/div'
p286
F1.7563309190331373
sS'/html/body/div/div/div/div/div/div/div/div/div/div/div/div/form/div/ul/li/label/span'
p287
F9.965784284662087
sS'/html/body/div/div/div/div/div/form/fieldset/div/div/span'
p288
F7.158429362604482
sS'/html/body/div/div/div/div/div/div/div/div/div/div/div/div/div/div/div/div/img'
p289
F1.6438561897747248
sS'/html/body/main/div/header/p'
p290
F9.965784284662087
sS'/html/body/div/div/div/div/table/tr/td'
p291
F7.965784284662087
sS'/html/body/div/div/div/div/div/div/div/form/fieldset/span/label'
p292
F7.158429362604482
sS'/html/body/div/div/div/div/div/div/div/div/div/a/div/div/p'
p293
F9.965784284662087
sS'/html/body/div/div/div/div/div/div/div/div/div/div/fieldset/span'
p294
F7.965784284662087
sS'/html/body/div/div/div/div/div/form/label/div'
p295
F9.965784284662087
sS'/html/body/div/div/div/div/div/div/div/div/div/div/div/div/div/ul/li/span/a'
p296
F6.50635266602479
sS'/html/body/div/div/div/div/div/ul/li/div/div/div/div/div/span'
p297
F3.6989977439671855
sS'/html/body/div/div/span/br'
p298
F0.0028882793248263526
sS'/html/body/div/nav/ul/li/ul/li/a'
p299
F9.965784284662087
sS'/html/body/div/div/div/div/div/div/form/fieldset/div/span/span/span'
p300
F1.9434164716336328
sS'/html/head/style'
p301
F0.0028882793248263526
sS'/html/body/div/div/div/div/div/div/div/div/div/div/div/div/div/div/div/div/a/img'
p302
F1.9545570292388328
sS'/html/body/div/div/div/div/div/div/div/div/div/div/div/b'
p303
F6.158429362604484
sS'/html/body/div/div/div/div/div/div/div/div/div/div/div/a'
p304
F0.5885737542735351
sS'/html/body/div/div/div/div/div/form/fieldset/div/div/div/div/input'
p305
F7.158429362604482
sS'/html/body/div/div/div/div/div/div/div/div/div/div/div/form/fieldset/button'
p306
F9.965784284662087
sS'/html/body/div/div/div/div/div/div/div/div/div/div/div/p'
p307
F7.158429362604482
sS'/html/body/div/div/div/div/div/dd/div/div/div/div/div/div/div'
p308
F3.1713684183119812
sS'/html/body/div/div/div/div/div/div/div/div/form/script'
p309
F8.965784284662087
sS'/html/body/div/div/div/div/div/div/div/div/div/div/span/div/span/img'
p310
F1.7514651638613215
sS'/html/body/div/div/div/div/div/div/div/div/div/div/div/div/form/fieldset/label'
p311
F1.6943212567577126
sS'/html/body/div/div/div/div/div/div/div/div/div/div/div/div/div/div/div/div/div/div/div/div/a/div/img'
p312
F5.965784284662088
sS'/html/body/div/div/div/div/div/div/div/div/table/col'
p313
F6.965784284662088
sS'/html/body/div/div/div/div/div/div/div/div/div/div/div/div/div/address/span/span'
p314
F1.6943212567577126
sS'/html/body/div/div/fieldset/div/div/span'
p315
F2.766111939825723
sS'/html/body/div/div/div/div/div/div/div/div/div/div/div/div/div/div/div/div/div/div/div/div/a'
p316
F5.158429362604483
sS'/html/body/div/div/div/div/div/div/div/div/span/div/span'
p317
F8.380821783940931
sS'/html/body/div/div/div/div/div/div/div/div/form/div/div/div/span'
p318
F9.965784284662087
sS'/html/body/div/div/div/div/div/div/div/div/ul/li/div/div/span'
p319
F1.7661119398257226
sS'/html/body/div/div/div/div/div/script'
p320
F2.3883554566263383
sS'/html/body/div/div/div/div/div/div/div/div/div/div/ul/div/li/div/div/div/div/div/div/span/img'
p321
F1.894321922105463
sS'/html/body/div/div/div/div/div/div/div/div/div/div/div/div/form/fieldset/span/div'
p322
F7.380821783940932
sS'/html/body/div/div/div/div/div/div/div/div/ul/li/span'
p323
F2.5228407888133586
sS'/html/body/div/div/div/div/div/div/div/div/div/div/div/a/div/div/div/img'
p324
F7.643856189774724
sS'/html/body/div/div/div/div/div/div/div/div/div/div/div/div/div/dl/dd'
p325
F1.7563309190331373
sS'/html/body/div/div/div/div/div/div/div/div/div/div/div/div/div/span/p'
p326
F7.158429362604482
sS'/html/body/div/div/div/div/div/ul/a/li/div/div/img'
p327
F9.965784284662087
sS'/html/body/div/div/div/div/div/div/div/dl/dd'
p328
F2.662003536484984
sS'/html/body/div'
p329
F0.0028882793248263526
sS'/html/body/div/div/div/div/div/div/div/div/div/div/div/div/div/span/b'
p330
F7.158429362604482
sS'/html/body/div/div/div/div/div/div/div/div/div/div/div/div/div/dl/dt'
p331
F1.7563309190331373
sS'/html/body/div/div/div/div/div/div/div/div/div/div/div/div/ul/li/div/div/div/a/span/span'
p332
F9.965784284662087
sS'/html/body/div/div/div/div/div/div/dl/dd/div/span'
p333
F1.8996950942043145
sS'/html/body/div/div/div/div/div/div/div/div/div/div/div/div/div/span/i'
p334
F6.50635266602479
sS'/html/body/div/div/div/div/div/div/div/div/div/div/div/div/div/div/div/div/address/span/span'
p335
F6.058893689053569
sS'/html/body/div/div/div/div/div/div/div/div/div/div/div/ul/div/li/div/div/a/div/div/div/img'
p336
F6.50635266602479
sS'/html/body/div/div/div/div/div/div/dl/dd/div/div/div/div/ul/li/img'
p337
F6.965784284662088
sS'/html/body/div/div/div/div/div/div/div/dl/dd/div/div/div/div/br'
p338
F1.3364276645824773
sS'/html/body/div/div/div/div/div/div/ul/li/a/dl/dd/script'
p339
F6.965784284662088
sS'/html/body/div/div/div/div/div/div/div/div/div/div/div/div/div/div/div/fieldset/div/fieldset/ul/li/span/span'
p340
F7.965784284662087
sS'/html/body/div/div/div/div/div/div/div/div/div/fieldset/div/span'
p341
F7.965784284662087
sS'/html/body/div/div/div/div/div/div/div/div/div/div/div/div/div/div/div/div/ul/li/span'
p342
F6.058893689053569
sS'/html/body/div/div/div/div/table/tr/td/div/table/tr/td/form/table/tr/td/b'
p343
F8.965784284662087
sS'/html/body/div/div/div/div/div/div/div/div/div/div/div/div/div/span/a'
p344
F6.50635266602479
sS'/html/body/div/div/div/div/div/div/div/div/div/div/div/dl/dd/dl/dt/a'
p345
F9.965784284662087
sS'/html/body/div/div/div/div/div/div/div/div/div/div/div/div/div/div/div/div/ul/li'
p346
F6.158429362604484
sS'/html/body/div/div/div/div/div/div/div/div/address/div/span/span'
p347
F3.8365012677171206
sS'/html/body/div/div/div/div/div/div/div/div/div/div/div/div/div/div/div/div/div/h3'
p348
F9.965784284662087
sS'/html/body/div/div/div/div/div/div/div/div/div/div/div/div/div/div/div/span/div/img'
p349
F6.380821783940931
sS'/html/body/div/div/div/div/div/div/div/div/div/div/div/div/div/script'
p350
F6.380821783940931
sS'/html/body/div/div/div/div/div/div/div/div/div/div/div/a/div/div/div/div'
p351
F8.380821783940931
sS'/html/body/div/div/div/div/div/div/div/div/div/div/div/div/div/span/label'
p352
F5.965784284662088
sS'/html/body/div/div/div/div/div/div/div/div/form/label/div/div'
p353
F7.965784284662087
sS'/html/body/div/div/div/div/div/form/label/select/option'
p354
F9.965784284662087
sS'/html/body/div/div/div/div/div/div/div/div/ul/div/li/div/div'
p355
F9.965784284662087
sS'/html/body/div/div/div/div/div/div/div/div/div/div/div/div/div/div/div/div/div/div/div/div/div/div'
p356
F3.7178567712185013
sS'/html/body/div/div/div/div/div/div/div/form/fieldset/div/div/span'
p357
F2.0115879742752116
sS'/html/body/div/div/div/div/div/div/div/div/div/span/span/span'
p358
F2.3075728019102923
sS'/html/body/div/div/div/div/div/div/div/div/div/div/div/form/fieldset/span/label'
p359
F6.965784284662088
sS'/html/body/div/div/div/div/div/div/div/div/div/div/div/div/div/div/div/div/div/div/div/ul/li/span/a'
p360
F3.2243172982609405
sS'/html/body/div/div/div/div/div/div/div/div/h1/div'
p361
F1.680382065799839
sS'/html/body/div/div/div/div/div/div/div/dl/dd/div/div/div/span/img'
p362
F1.3364276645824773
sS'/html/body/div/div/div/div/div/div/div/div/div/div/div/div/ul/li/ul/li/div'
p363
F1.9105018491608974
sS'/html/body/div/div/div/div/script'
p364
F3.7369655941662066
sS'/html/body/div/div/div/div/div/div/div/div/div/div/div/div/div/div/div/form/ul'
p365
F6.058893689053569
sS'/html/body/div/div/div/div/div/div/div/div/div/a/div/img'
p366
F8.380821783940931
sS'/html/body/div/div/div/div/div/div/div/form/div/span/select/option'
p367
F7.158429362604482
sS'/html/body/div/div/div/div/div/div/div/div/div/div/div/div/span/a'
p368
F2.7273795453370084
sS'/html/body/div/div/div/div/div/div/div/div/div/div/div/form/div/div/div/div/div/div/img'
p369
F9.965784284662087
sS'/html/body/div/div/div/div/div/form/fieldset/input'
p370
F8.965784284662087
sS'/html/body/div/div/div/div/div/div/div/div/div/div/div/div/div/div/form/div/ul/li/label/span'
p371
F8.965784284662087
sS'/html/body/div/div/div/div/div/div/div/div/div/div/div/div/div/div/div/form/fieldset/input'
p372
F6.058893689053569
sS'/html/body/div/div/div/div/div/div/div/div/div/div/p/span'
p373
F2.0232697793228476
sS'/html/body/div/div/div/div/div/dl/dt/img'
p374
F8.965784284662087
sS'/html/body/footer/div/div/p'
p375
F9.965784284662087
sS'/html/body/div/div/div/div/div/dd/div/div/div/div/div/span'
p376
F3.1713684183119812
sS'/html/body/div/div/div/div/div/div/div/div/div/div/div/div/div/ul/li/br'
p377
F7.965784284662087
sS'/html/body/div/div/div/div/ul/li/span'
p378
F5.965784284662088
sS'/html/body/div/div/div/div/div/div/div/div/div/div/div/div/div/div/p/span/span'
p379
F1.7710274302398394
sS'/html/body/div/div/div/div/div/div/dl/dd/div/div/div/div/div/div/div/div'
p380
F1.8996950942043145
sS'/html/body/div/div/div/div/div/div/div/div/div/div/div/div/div/div/div/div/div/div/div/div/a/img'
p381
F3.2243172982609405
sS'/html/body/div/div/div/div/div/div/div/div/div/div/div/form/fieldset/input'
p382
F9.965784284662087
sS'/html/body/div/div/div/div/div/fieldset/div/div/div/span/span/span'
p383
F7.643856189774724
sS'/html/body/div/div/div/div/div/div/div/div/div/dd/div/b'
p384
F2.3075728019102923
sS'/html/body/div/div/div/div/div/div/div/div/div/div/div/div/div/div/div/form/fieldset/button'
p385
F6.058893689053569
sS'/html/body/div/div/div/div/div/div/div/dl/dd/div/div/div/div/div/div/div/span'
p386
F1.3364276645824773
sS'/html/body/div/div/div/div/div/div/div/div/div/a/div/div'
p387
F8.965784284662087
sS'/html/body/div/div/div/div/div/div/div/div/div/div/form/div/ul/li/label/span'
p388
F1.894321922105463
sS'/html/body/div/div/div/div/div/div/div/div/div/div/div/div/ul/li/div/div/div/div/a'
p389
F9.965784284662087
sS'/html/body/div/div/div/div/div/div/div/span/div/span/img'
p390
F2.954557029238833
sS'/html/body/div/div/div/div/div/div/div/div/div/div/div/div/div/form/div/div/div/div/div/span'
p391
F8.965784284662087
sS'/html/body/div/div/div/div/div/div/div/div/ul/li/a/img'
p392
F6.265344566520995
sS'/html/body/div/div/div/div/div/div/div/div/div/div/div/div/div/div/div/div/div/img'
p393
F4.265344566520995
sS'/html/body/div/div/div/div/div/div/ul/li/div/a/div'
p394
F6.795859283219775
sS'/html/body/div/div/div/div/div/div/div/div/div/div'
p395
F0.29335894269059154
sS'/html/body/div/div/div/div/div/div/div/div/div/div/a/div'
p396
F5.210896782498619
sS'/html/body/div/div/div/div/div/div/div/div/div/div/div/div/div/div/div/div/div/input'
p397
F7.965784284662087
sS'/html/body/div/div/div/div/div/div/div/div/ul/li/div/a/div/img'
p398
F2.954557029238833
sS'/html/body/div/div/div/div/div/div/div/div/div/form/div/input'
p399
F6.50635266602479
sS'/html/body/div/div/div/div/div/div/div/div/div/div/div/div/div/div/ul/li/img'
p400
F9.965784284662087
sS'/html/body/div/div/div/div/div/div/div/div/div/table/tr/td/div/span/img'
p401
F1.894321922105463
sS'/html/body/div/div/div/div/div/div/div/div/div/div/div/input'
p402
F2.698997743967186
sS'/html/body/div/div/div/div/div/div/div/div/ul/div/li/div/span'
p403
F9.965784284662087
sS'/html/body/div/div/div/div/div/div/div/div/a/img'
p404
F6.50635266602479
sS'/html/body/div/div/div/div/div/div/div/ul/div/li/a'
p405
F7.158429362604482
sS'/html/body/div/div/div/div/div/div/div/div/div/div/div/div/div/div/span/span/strong'
p406
F8.965784284662087
sS'/html/body/div/div/div/div/div/div/table/tr/td/br'
p407
F6.643856189774725
sS'/html/body/div/div/div/div/div/dd/div/div/div/div/div/ul'
p408
F2.766111939825723
sS'/html/body/div/div/div/div/div/p/a'
p409
F2.988504361162171
sS'/html/body/div/div/div/div/div/div/div/div/div/div/div/h3'
p410
F8.965784284662087
sS'/html/body/div/div/div/div/div/p/b'
p411
F8.965784284662087
sS'/html/body/div/div/div/div/div/div/div/div/div/div/div/ul/div/li/div/div/div/div'
p412
F1.7661119398257226
sS'/html/body/div/div/div/div/div/div/div/div/a/div/div'
p413
F6.50635266602479
sS'/html/body/div/div/div/div/div/div/h2/div/div/b'
p414
F7.158429362604482
sS'/html/body/div/div/div/div/div/div/div/div/div/span/span/div/div'
p415
F1.8677522017015604
sS'/html/body/div/div/div/div/div/div/div/div/ul/li/div/div/a/img'
p416
F1.7661119398257226
sS'/html/body/div/div/div/div/div/div/div/div/div/div/ul/li/a/span'
p417
F9.965784284662087
sS'/html/body/div/div/div/div/div/div/div/div/div/div/div/div/span/span'
p418
F1.8365012677171209
sS'/html/body/div/div/div/div/ul/li/ul/li/ul/li/a'
p419
F0.06793882865657559
sS'/html/body/div/div/div/div/div/div/div/div/div/div/div/div/div/div/div/span/div/span'
p420
F6.380821783940931
sS'/html/body/div/div/div/div/div/table/tr/td/img'
p421
F9.965784284662087
sS'/html/body/div/div/div/div/div/div/div/div/div/div/div/form/div/span/br'
p422
F8.965784284662087
sS'/html/body/div/div/div/div/div/div/div/div/div/div/div/script'
p423
F7.643856189774724
sS'/html/body/div/div/div/div/div/div/div/div/div/span'
p424
F0.3566055465201076
sS'/html/body/div/div/div/div/div/div/div/div/div/div/div/a/div/div/div/span'
p425
F8.965784284662087
sS'/html/body/div/div/div/div/div/div/div/div/div/div/div/a/img'
p426
F3.7958592832197753
sS'/html/body/div/div/div/div/div/div/dl/dd/div/div/div/div/div/form/input'
p427
F1.8996950942043145
sS'/html/body/div/div/div/div/div/div/div/div/div/ul'
p428
F7.965784284662087
sS'/html/body/div/div/div/div/table/tr/td/br'
p429
F9.965784284662087
sS'/html/body/div/div/div/div/div/div/div/div/div/div/div/ul/li/img'
p430
F9.965784284662087
sS'/html/body/div/div/div/div/div/div/div/form/fieldset/div/label'
p431
F7.158429362604482
sS'/html/body/div/div/div/div/div/div/div/ul/li/div/div/div/div'
p432
F6.50635266602479
sS'/html/body/div/div/div/div/div/div/div/div/div/form/ul/li/div/div/div/label'
p433
F6.965784284662088
sS'/html/body/div/div/div/div/div/div/a/img'
p434
F8.380821783940931
sS'/html/body/div/div/div/div/div/form/fieldset/div/span'
p435
F7.158429362604482
sS'/html/body/div/div/div/div/div/div/div/div/div/div/div/div/form/fieldset/span/input'
p436
F4.265344566520995
sS'/html/body/div/div/div/div/div/div/div/div/ul/li/div/div/a'
p437
F1.573466861883327
sS'/html/body/div/div/div/div/div/div/div/div/div/dl/dd/div/span/a'
p438
F9.965784284662087
sS'/html/body/div/div/div/div/div/fieldset/div/div/span/span'
p439
F8.380821783940931
sS'/html/body/div/div/div/div/div/div/div/div/div/div/ul/li/div/div'
p440
F7.965784284662087
sS'/html/body/div/div/div/div/div/dd/div/div/div/div/div/div/span/span/span'
p441
F2.766111939825723
sS'/html/body/div/div/div/div/div/div/div/div/div/div/div/p/span'
p442
F3.293358942690592
sS'/html/body/div/div/div/div/div/div/div/div/div/form/div/script'
p443
F7.158429362604482
sS'/html/body/div/div/div/div/div/div/div/div/div/span/div/b/span'
p444
F8.380821783940931
sS'/html/body/div/div/div/div/div/div/div/div/div/div/div/form/button'
p445
F8.965784284662087
sS'/html/body/div/div/div/div/div/div/div/a/div/div/img'
p446
F7.965784284662087
sS'/html/body/div/div/div/div/div/dd/div/div/div/div/div/div/img'
p447
F2.766111939825723
sS'/html/body/div/div/div/div/div/div/div/dl/dd/div/div/div/div/div/div/span/span/span'
p448
F1.7710274302398394
sS'/html/body/div/div/div/div/div/div/div/div/div/div/div/select/option'
p449
F7.965784284662087
sS'/html/body/div/div/div/div/div/a/div/div/div'
p450
F9.965784284662087
sS'/html/body/div/div/div/div/div/div/div/div/div/div/div/div/ul/li/img'
p451
F1.8211260418302047
sS'/html/body/div/div/div/div/div/div/div/div/a/div/div/div/span'
p452
F7.158429362604482
sS'/html/body/div/div/div/div/div/div/div/div/div/div/div/div/span/img'
p453
F0.4639470997597903
sS'/html/body/div/div/div/ul'
p454
F9.965784284662087
sS'/html/body/div/div/div/div/div/div/div/div/div/span/span/span/div/span'
p455
F7.965784284662087
sS'/html/body/div/div/div/div/div/div/form/fieldset/div/div/div/div/div/div'
p456
F1.7908586021614084
sS'/html/body/div/div/div/div/div/div/div/div/div/form/fieldset/input'
p457
F9.965784284662087
sS'/html/body/div/div/div/div/div/div/div/div/div/div/div/div/form/div/ul/li/label/div'
p458
F9.965784284662087
sS'/html/body/div/div/div/div/div/div/form/fieldset/input'
p459
F7.158429362604482
sS'/html/body/div/div/div/div/div/div/div/div/div/form/ul/li/div'
p460
F6.965784284662088
sS'/html/body/div/div/div/div/div/div/div/div/span/i'
p461
F6.643856189774725
sS'/html/body/div/div/div/div/div/div/div/div/div/div/div/ul/div/li/div/div/div/span'
p462
F1.7710274302398394
sS'/html/body/div/div/div/div/div/div/div/div/span/a'
p463
F1.2276920250415966
sS'/html/body/div/div/div/div/div/div/div/div/div/div/div/ul/div/li/div/div/div/div/div/div/span/img'
p464
F1.7661119398257226
sS'/html/body/div/div/div/div/div/div/div/div/div/div/div/div/div/div/div/div/div/ul/li/span'
p465
F2.7858751946471525
sS'/html/body/div/div/div/div/div/div/form/div/div/label/select/option'
p466
F8.380821783940931
sS'/html/body/div/div/div/div/div/div/div/div/table/tr/td/div/div/span'
p467
F1.7958592832197748
sS'/html/body/div/div/div/div/br'
p468
F6.643856189774725
sS'/html/body/div/div/div/div/div/div/div/a/span'
p469
F5.717856771218502
sS'/html/body/div/div/div/div/div/div/div/div/ul/li'
p470
F2.698997743967186
sS'/html/body/div/div/div/div/div/div/div/h3/span'
p471
F1.7958592832197748
sS'/html/body/div/div/div/div/div/div/div/div/div/div/div/div/div/div/div/div/div'
p472
F2.2378638300988882
sS'/html/body/div/div/div/div/div/div/div/div/div/div/div/dd/div/div/div/div/div/div'
p473
F8.380821783940931
sS'/html/body/div/div/div/ol/li/a/span'
p474
F7.643856189774724
sS'/html/body/div/div/div/div/div/div/div/div/div/div/div/dd/div/div/div/div/div/span/label'
p475
F9.965784284662087
sS'/html/body/div/div/div/div/div/div/div/dl/dd/div/div/div/div/div/span/img'
p476
F1.7710274302398394
sS'/html/body/div/div/div/div/div/div/div/div/a/div/div/div/div'
p477
F7.158429362604482
sS'/html/body/div/div/div/div/div/div/div/div/div/div/div/dl/dd/dl/dd/br'
p478
F9.965784284662087
sS'/html/body/div/div/div/div/div/div/div/div/div/form/div/div/label'
p479
F6.965784284662088
sS'/html/body/div/div/div/div/div/div/div/div/div/div/form/fieldset/span/label'
p480
F3.279283757478869
sS'/html/body/div/div/div/div/div/div/div/div/div/div/span/span'
p481
F0.45600928033515004
sS'/html/body/div/div/div/div/div/div/div/div/div/div/div/div/div/div/div/div/div/div/ul/li/div/span'
p482
F7.965784284662087
sS'/html/body/div/div/div/div/div/div/div/div/form/label/select/option'
p483
F7.965784284662087
sS'/html/body/div/div/div/div/div/div/div/div/form/fieldset/div'
p484
F6.265344566520995
sS'/html/body/div/div/div/div/div/div/div/dl/dd/div/div/div/div/div/div/img'
p485
F1.3364276645824773
sS'/html/body/div/div/div/div/div/div/div/div/ul/li/div/div/div/ul/li/a'
p486
F6.643856189774725
sS'/html/body/div/div/div/div/div/div/div/div/div/div/div/div/div/div/div/div/div/div/a/div/img'
p487
F3.590744853315162
sS'/html/body/div/div/div/div/div/div/div/span/span/strong'
p488
F2.954557029238833
sS'/html/body/div/div/div/div/table/tr/td/img'
p489
F8.965784284662087
sS'/html/body/div/div/div/div/div/div/div/span/div'
p490
F8.380821783940931
sS'/html/body/div/div/div/div/div/div/div/p'
p491
F8.965784284662087
sS'/html/body/div/div/nav/span/a'
p492
F9.965784284662087
sS'/html/body/div/div/div/div/div/a/div/div/div/div/div'
p493
F9.965784284662087
sS'/html/body/div/div/div/div/div/div/div/div/div/ul/li/div/div/div/div/span/img'
p494
F8.380821783940931
sS'/html/body/div/div/div/div/div/fieldset/div'
p495
F7.643856189774724
sS'/html/body/div/div/div/div/div/div/div/b'
p496
F6.795859283219775
sS'/html/body/div/div/div/div/div/div/div/a'
p497
F0.6038405109268457
sS'/html/body/div/div/div/div/div/ul/a/li/div/img'
p498
F9.965784284662087
sS'/html/body/div/div/div/div/div/div/div/div/div/ul/li/div/span/img'
p499
F6.265344566520995
sS'/html/body/div/div/div/div/div/div/div/div/div/div/form/div/div/div/div/span'
p500
F1.7661119398257226
sS'/html/body/div/div/div/div/div/div/div/div/label/input'
p501
F7.965784284662087
sS'/html/body/div/div/div/div/div/div/div/dl/dd/div/div/div/div/div/ul'
p502
F1.7710274302398394
sS'/html/body/div/div/div/div/div/div/div/div/div/div/div/ul/li/div/div/a/img'
p503
F8.965784284662087
sS'/html/body/div/div/div/div/div/div/div/div/div/div/div/form/ul/li/label'
p504
F2.3075728019102923
sS'/html/body/div/div/div/div/div/div/ul/li/a/dl/dd/img'
p505
F6.795859283219775
sS'/html/body/div/div/div/div/div/div/div/div/form/div/div/img'
p506
F9.965784284662087
sS'/html/body/div/div/div/div/div/form/div/label/span'
p507
F7.965784284662087
sS'/html/body/div/div/div/div/div/div/div/div/div/div/div/div/div/p/span'
p508
F3.0350469470992008
sS'/html/body/div/div/div/div/div/div/div/div/div/div/table/tbody/tr/td/div/span'
p509
F3.4111954329844494
sS'/html/body/div/div/div/div/div/div/div/div/dl/dd/div/dl/dd/div'
p510
F9.965784284662087
sS'/html/body/div/div/div/div/div/form/label/span'
p511
F7.965784284662087
sS'/html/body/div/div/div/div/div/div/p'
p512
F8.965784284662087
sS'/html/body/div/div/div/div/div/dd/div/div/div/div/div/div/div/span'
p513
F2.766111939825723
sS'/html/body/div/div/div/div/div/div/div/div/div/div/span'
p514
F0.4150374992788437
sS'/html/body/div/div/div/div/div/div/div/div/div/div/div/div/a/img'
p515
F6.158429362604484
sS'/html/body/div/div/div/div/div/div/a'
p516
F6.158429362604484
sS'/html/body/div/ul/li'
p517
F9.965784284662087
sS'/html/body/div/div/div/div/div/div/div/div/a/span'
p518
F7.965784284662087
sS'/html/body/div/div/div/div/div/div/div/div/div/div/div/div/div/div/div/div/div/div/div/a/span/p'
p519
F6.380821783940931
sS'/html/body/div/div/div/div/div/form/fieldset/div/span/span/em'
p520
F7.158429362604482
sS'/html/body/div/div/div/div/div/div/div/div/div/dt'
p521
F1.894321922105463
sS'/html/body/div/div/div/div/div/div/div/div/div/ul/li/a/div'
p522
F6.380821783940931
sS'/html/body/div/div/div/div/div/div/div/span'
p523
F0.816037165157405
sS'/html/body/div/div/div/div/div/div/div/ul/li/a'
p524
F5.210896782498619
sS'/html/body/div/div/div/div/div/div/div/div/address/div/div/div/span/span/span'
p525
F2.077041035763828
sS'/html/body/div/div/div/div/div/form/div'
p526
F0.011587974275211823
sS'/html/body/div/img'
p527
F0.001443416869668845
sS'/html/body/div/div/div/div/div/div/div/div/div/div/div/div/div/div/div/div/div/div/div/div/a/div/b'
p528
F5.965784284662088
sS'/html/body/div/div/div/div/div/div/div/div/div/div/div/form/div/div/div/div/input'
p529
F9.965784284662087
sS'/html/body/div/div/div/div/div/div/div/div/div/div/div/div/div/h3'
p530
F6.50635266602479
sS'/html/body/div/div/div/div/div/div/div/div/div/div/div/div/div/h2'
p531
F7.158429362604482
sS'/html/body/div/div/div/div/div/div/div/div/div/div/div/div/div/div/div/div/div/div/div/div/a/div/div/div/img'
p532
F7.643856189774724
sS'/html/body/div/div/div/div/div/div/div/form/fieldset/span/input'
p533
F7.158429362604482
sS'/html/body/footer/div/ul/li/div/a'
p534
F9.965784284662087
sS'/html/body/div/div/div/div/div/div/div/div/ul/li/span/img'
p535
F9.965784284662087
sS'/html/body/div/div/div/div/div/div/div/input'
p536
F8.380821783940931
sS'/html/body/div/div/div/div/div/div/div/div/div/div/div/div/div/ul/li/div'
p537
F9.965784284662087
sS'/html/head/link'
p538
F0.0
sS'/html/body/div/div/div/div/div/div/div/div/div/div/div/div/div/div/address/span/span/span'
p539
F8.380821783940931
sS'/html/body/div/div/div/div/div/div/div/div/div/div/div/ul/div/li/div/div/div/div/span/span'
p540
F1.7661119398257226
sS'/html/body/div/div/div/div/div/div/div/div/div/div/div/a/div/div/b'
p541
F7.965784284662087
sS'/html/body/div/div/div/div/div/div/div/div/div/div/div/div/ul/li/div/div/div/div/span/img'
p542
F9.965784284662087
sS'/html/body/div/div/div/div/div/div/div/div/div/div/div/div/div/div/div/div/div/p/span/img'
p543
F8.965784284662087
sS'/html/body/div/div/div/div/div/fieldset/div/div/div/div/div/div/div/div/div/div/span/a'
p544
F7.643856189774724
sS'/html/body/div/div/div/div/div/div/div/div/div/div/div/div/div/span/p/em'
p545
F7.158429362604482
sS'/html/body/div/div/div/div/div/div/div/div/div/form/div/label'
p546
F1.894321922105463
sS'/html/body/div/div/div/div/div/div/div/div/dl/dd/div'
p547
F9.965784284662087
sS'/html/body/div/div/div/div/div/div/div/div/div/div/div/div/div/div/div/div/div/span/span'
p548
F5.573466861883327
sS'/html/body/div/div/div/div/div/div/div/span/span/span/img'
p549
F8.965784284662087
sS'/html/body/div/div/div/div/div/div/div/div/div/div/div/div/div/a/div/div/div/img'
p550
F7.965784284662087
sS'/html/body/div/div/div/div/div/div/div/form/span/input'
p551
F7.158429362604482
sS'/html/body/div/div/div/div/div/div/div/div/div/div/div/div/div/div/div/div/div/div/span/a'
p552
F2.7858751946471525
sS'/html/body/div/div/div/div/div/div/div/div'
p553
F0.08008791132269183
sS'/html/body/div/div/div/div/div/div/div/div/div/div/div/div/div/input'
p554
F2.698997743967186
sS'/html/body/div/div/div/div/div/div/div/div/div/div/div/div/a/div'
p555
F7.965784284662087
sS'/html/body/div/div/div/div/div/dl/dd/form/fieldset/div/input'
p556
F5.878321443411747
sS'/html/body/div/div/div/div/div/div/div/div/div/address/span/span/img'
p557
F1.9885043611621704
sS'/html/body/div/div/div/div/div/div/div/div/div/div/div/span/img'
p558
F5.442222328605075
sS'/html/body/div/div/div/div/div/div/div/div/div/ul/li/div/div/a'
p559
F6.158429362604484
sS'/html/body/div/div/div/div/div/div/div/div/div/div/div/div/div/a/img'
p560
F1.7369655941662063
sS'/html/body/div/div/div/div/div/div/div/div/div/div/div/div/div/span/span/span'
p561
F3.279283757478869
sS'/html/body/div/div/div/div/div/div/div/div/div/div/div/div/label/input'
p562
F5.965784284662088
sS'/html/body/div/div/div/div/div/div/div/div/div/div/div/div'
p563
F0.0954195650786825
sS'/html/body/footer/div/ul/li/ul/li/a'
p564
F9.965784284662087
sS'/html/body/div/div/div/div/div/div/div/div/div/address/span'
p565
F1.894321922105463
sS'/html/body/div/div/div/div/div/div/a/div/div'
p566
F8.965784284662087
sS'/html/body/div/div/p'
p567
F9.965784284662087
sS'/html/body/div/div/div/div/div/fieldset/div/div/div/img'
p568
F7.643856189774724
sS'/html/body/div/div/div/div/div/div/a/div/div/div/img'
p569
F9.965784284662087
sS'/html/body/div/div/div/div/div/div/dl/dd/div/div/div/div/br'
p570
F1.8996950942043145
sS'/html/body/div/div/div/div/div/div/div/div/div/div/div/div/div/ul/li/a/img'
p571
F9.965784284662087
sS'/html/body/div/div/div/div/div/form/fieldset/div/div/input'
p572
F7.158429362604482
sS'/html/body/div/div/div/div/div/div/div/div/fieldset/div/div/div/img'
p573
F2.9434164716336326
sS'/html/body/div/div/div/div/div/div/div/div/div/div/label/span/strong'
p574
F7.158429362604482
sS'/html/body/div/div/div/div/div/div/div/div/div/div/div/div/div/div/div/div/span/a'
p575
F3.279283757478869
sS'/html/body/div/div/div/div/div/div/div/div/div/div/div/div/ul/li/div/span/img'
p576
F4.035046947099201
sS'/html/body/div/div/div/div/div/div/style'
p577
F6.795859283219775
sS'/html/body/div/div/div/div/div/div/div/div/div/div/div/div/div/div/form/input'
p578
F5.878321443411747
sS'/html/body/div/div/div/div/div/div/form/fieldset/div/div/span/div/div/div/span'
p579
F1.7661119398257226
sS'/html/body/div/div/div/div/div/div/div/div/div/div/div/div/div/div/form/div/label'
p580
F6.058893689053569
sS'/html/body/div/div/div/div/div/div/div/div/div/div/div/div/div/div/div/div/input'
p581
F7.965784284662087
sS'/html/body/div/div/div/div/div/div/div/div/div/div/div/div/div/div/div/div/div/div/div/ul/li/span/img'
p582
F9.965784284662087
sS'/html/body/div/div/div/div/div/div/div/div/div/div/div/div/div/var/sup'
p583
F7.158429362604482
sS'/html/body/div/div/div/div/div/a/h1'
p584
F6.50635266602479
sS'/html/body/div/div/div/div/div/div/div/ul/li/ul'
p585
F8.380821783940931
sS'/html/body/div/div/div/div/div/div/div/div/div/div/div/div/div/div/div/div/div/div/a/div/div/span'
p586
F5.50635266602479
sS'/html/body/div/div/div/div/div/dd/div/div/div/div/ul'
p587
F2.766111939825723
sS'/html/body/div/div/div/div/div/div/div/div/div/div/div/div/div/div/div/div/ul'
p588
F6.058893689053569
sS'/html/body/div/div/div/div/div/div/div/div/div/div/div/a/div/img'
p589
F7.380821783940932
sS'/html/body/div/div/div/div/div/div/div/div/ul/li/div/em'
p590
F2.7273795453370084
sS'/html/body/div/div/div/div/div/div/div/h4'
p591
F7.380821783940932
sS'/html/body/div/div/div/div/ul/li/ul/li/ul/li/span/a'
p592
F1.9378782880922025
sS'/html/body/div/div/div/div/div/dd/div/div/div/div/div/span/input'
p593
F2.766111939825723
sS'/html/body/div/div/div/div/div/div/div/h2'
p594
F1.7612131404128835
sS'/html/body/div/div/div/div/div/div/div/div/div/div/var'
p595
F3.293358942690592
sS'/html/body/div/div/div/div/div/div/div/div/div/div/div/div/div/div/div/div/span/span/img'
p596
F2.0232697793228476
sS'/html/body/div/div/div/div/ul/li/div/div/div'
p597
F5.442222328605075
sS'/html/body/div/div/div/div/div/div/div/span/a/img'
p598
F7.965784284662087
sS'/html/body/div/div/div/div/div/div/div/div/div/div/ul/ul/li/a'
p599
F6.50635266602479
sS'/html/body/div/div/div/div/div/div/div/div/div/div/img'
p600
F0.39782820924662077
sS'/html/body/div/div/div/div/div/div/div/div/div/div/div/ul/li/span'
p601
F6.50635266602479
sS'/html/body/div/div/div/div/div/div/div/div/div/div/div/div/div/div/div/div/div/div/div/span'
p602
F4.573466861883327
sS'/html/body/div/div/div/div/div/div/div/ul/li/span/span/span'
p603
F8.965784284662087
sS'/html/body/div/div/div/div/div/div/div/div/div/div/input'
p604
F6.380821783940931
sS'/html/body/div/div/div/div/div/div/div/div/div/div/div/div/div/div/div/div/div/dd/div/b'
p605
F6.380821783940931
sS'/html/body/div/div/div/div/table/tr/td/div/table/tr/td/form/table/tr/td/select/option'
p606
F8.965784284662087
sS'/html/body/div/div/div/div/div/div/div/div/div/div/span/img'
p607
F1.0528949484321257
sS'/html/body/header/div/div/form/button'
p608
F9.965784284662087
sS'/html/body/div/div/div/div/div/div/div/div/div/div/ul/div/li/div/div/div/div/span/span'
p609
F1.894321922105463
sS'/html/body/div/div/div/div/div/div/div/div/div/div/div/div/h3'
p610
F1.6943212567577126
sS'/html/body/div/div/div/div/div/div/div/div/div/ul/li/a/div/div/div/img'
p611
F6.265344566520995
sS'/html/body/div/div/div/div/ul/li/span/img'
p612
F0.011587974275211823
sS'/html/body/div/div/div/div/div/table/tr/td/div/table/tbody/tr/td/img'
p613
F9.965784284662087
sS'/html/body/div/div/div/div/div/div/div/div/div/div/div/dl/dd/a'
p614
F5.878321443411747
sS'/html/body/div/div/div/div/div/div/dl/dd/div/div/div/span/div/div'
p615
F2.217591435072627
sS'/html/body/div/div/div/div/div/table/tr/td/div/h3'
p616
F9.965784284662087
sS'/html/body/div/div/div/div/div/div/ul/div'
p617
F8.965784284662087
sS'/html/body/div/div/div/div/div/div/div/ul/li/div/div/div/div/a'
p618
F6.50635266602479
sS'/html/body/div/div/div/div/div/div/div/div/div/div/div/div/div/div/div/form/div/ul/li/label/span'
p619
F6.058893689053569
sS'/html/body/div/div/div/div/div/span/span'
p620
F9.965784284662087
sS'/html/body/div/div/div/div/div/div/div/div/table/tr'
p621
F8.965784284662087
sS'/html/body/div/div/div/div/div/div/div/div/div/dl/dd/p/span/span'
p622
F8.380821783940931
sS'/html/body/div/div/div/div/div/div/div/div/div/div/div/dd/div/div/div/div/div/div/span'
p623
F9.965784284662087
sS'/html/body/div/div/div/div/div/div/div/div/fieldset/div/div/div/span'
p624
F2.766111939825723
sS'/html/body/div/div/div/div/ul/li/ul/li/span'
p625
F0.066427361738976
sS'/html/body/div/div/div/div/div/div/div/div/label/span'
p626
F7.965784284662087
sS'/html/body/div/div/div/div/div/div/div/div/div/a/div/div/div/span'
p627
F9.965784284662087
sS'/html/body/div/div/div/ol/li/span'
p628
F8.380821783940931
sS'/html/body/div/div/div/div/div/div/div/div/div/div/form/div/div/div/div/span/img'
p629
F1.7661119398257226
sS'/html/body/div/div/div/div/div/div/div/div/div/ul/li/a/dl/dt'
p630
F6.265344566520995
sS'/html/body/div/div/div/div/div/ul/li'
p631
F0.010134377133713133
sS'/html/body/div/div/div/div/div/div/div/div/div/div/div/div/div/div/div/div/div/div/p/span/span'
p632
F6.058893689053569
sS'/html/body/div/div/div/div/div/div/div/div/div/a/span'
p633
F7.643856189774724
sS'/html/body/div/div/div/div/a/img'
p634
F8.965784284662087
sS'/html/body/div/div/div/div/div/div/div/div/div/div/ul/li/div/em'
p635
F7.965784284662087
sS'/html/body/div/div/div/div/div/div/div/div/div/div/div/div/div/a/div/div/b'
p636
F7.965784284662087
sS'/html/body/div/div/div/div/div/div/div/form/fieldset/span'
p637
F5.573466861883327
sS'/html/body/div/div/div/div/div/div/div/div/div/div/div/dd/div/div/div/div/div/span/span'
p638
F9.965784284662087
sS'/html/body/div/div/div/div/div/div/div/ul/li/a/img'
p639
F1.9434164716336328
sS'/html/body/div/div/div/div/div/div/div/div/div/div/div/div/div/div/div/div/a/div/img'
p640
F8.380821783940931
sS'/html/body/div/div/div/div/div/div/div/div/div/div/div/div/div/div/div/div/div/div/div/p/strong'
p641
F6.50635266602479
sS'/html/body/div/div/div/div/div/div/div/div/div/div/div/div/div/div/div/div/div/form/input'
p642
F6.058893689053569
sS'/html/body/div/div/div/div/div/div/div/div/div/div/div/form/div/label/div'
p643
F8.965784284662087
sS'/html/body/div/div/div/div/div/form/fieldset/span'
p644
F7.158429362604482
sS'/html/body/div/div/div/div/div/div/div/div/div/div/div/form/fieldset/div'
p645
F9.965784284662087
sS'/html/body/div/div/div/style'
p646
F9.965784284662087
sS'/html/body/div/div/div/div/div/div/div/div/div/div/div/span/a/img'
p647
F8.380821783940931
sS'/html/body/div/div/div/div/div/div/div/div/div/div/div/div/div/div/div/div/div/div/div/span/span/a'
p648
F3.6082322800440036
sS'/html/body/div/div/div/div/div/div/div/div/div/div/div/div/div/div/div/div/div/div/ul/li/div/span/img'
p649
F7.965784284662087
sS'/html/body/div/div/div/div/div/a/div/div/div/img'
p650
F9.965784284662087
sS'/html/body/div/div/div/div/div/div/ul/li/div/div/a'
p651
F3.083141235300246
sS'/html/body/div/div/fieldset/div/div/a'
p652
F2.766111939825723
sS'/html/body/div/div/div/div/div/div/div/div/div/div/div/div/div/div/div/div/span'
p653
F1.1877071551267289
sS'/html/body/div/div/div/div/div/div/div/div/div/div/div/div/div/div/ul/li/a'
p654
F9.965784284662087
sS'/html/body/div/div/div/div/div/div/div/div/form/select/option'
p655
F9.965784284662087
sS'/html/body/div/div/div/div/div/div/div/div/div/div/div/div/div/div/div/div/label/span'
p656
F6.058893689053569
sS'/html/body/div/div/div/div/div/fieldset/div/div/div/div/div/div'
p657
F7.643856189774724
sS'/html/body/div/div/div/div/div/div/div/div/div/div/div/div/div/div/div/div/div/p/span/span'
p658
F8.965784284662087
sS'/html/body/div/div/div/div/div/div/div/div/div/div/div/ul/li/div/div/a'
p659
F8.965784284662087
sS'/html/body/div/div/div/div/div/div/div/div/div/div/div/div/span/span/span/span'
p660
F1.7612131404128835
sS'/html/body/div/div/div/div/div/div/div/div/div/form/div/span'
p661
F1.926865295369785
sS'/html/body/div/div/div/div/div/div/div/div/div/div/div/div/div/div/form/div/div/div/div/div/div'
p662
F6.058893689053569
sS'/html/body/div/div/div/div/div/div/div/div/div/div/div/dd/div/div/div/div/div'
p663
F8.380821783940931
sS'/html/body/div/div/div/div/div/div/div/div/div/dl/dt/h2'
p664
F9.965784284662087
sS'/html/body/div/div/div/div/div/div/div/div/div/iframe'
p665
F9.965784284662087
sS'/html/body/div/div/div/div/div/div/div/div/div/div/div/div/div/div/fieldset/fieldset/ul/li/input'
p666
F7.965784284662087
sS'/html/body/div/div/div/div/ul/li/div/a/div/p/br'
p667
F5.442222328605075
sS'/html/body/div/div/div/div/div/div/div/div/div/div/div/div/div/div/div/div/div/div/div/div/span'
p668
F3.0350469470992008
sS'/html/body/div/div/div/div/div/div/form/fieldset/div/label/input'
p669
F7.158429362604482
sS'/html/body/div/div/div/div/div/div/div/div/ul/li/span/span'
p670
F9.965784284662087
sS'/html/body/div/div/div/div/div/div/div/div/div/div/div/div/div/div/ul/li/div/span'
p671
F3.6989977439671855
sS'/html/body/div/div/div/div/div/div/div/div/div/div/span/span/a'
p672
F6.643856189774725
sS'/html/body/div/div/div/div/div/div/div/div/form/div/br'
p673
F9.965784284662087
sS'/html/body/div/div/div/div/div/div/div/form/fieldset/input'
p674
F6.265344566520995
sS'/html/body/div/div/div/div/div/div/div/div/div/div/div/dd/div/div/div/div/img'
p675
F9.965784284662087
sS'/html/body/div/div/div/div/div/div/div/div/div/div/div/div/div/div/div/p/span/span'
p676
F9.965784284662087
sS'/html/body/div/div/div/div/div/div/div/div/div/div/div/div/div/div/div/div/div/div/div/a/img'
p677
F6.380821783940931
sS'/html/body/div/div/div/div/div/div/div/div/div/div/div/div/div/div/div/div/div/div/ul/li/div/a'
p678
F7.965784284662087
sS'/html/body/div/div/div/div/div/div/div/table/tr/td/div/img'
p679
F9.965784284662087
sS'/html/body/div/div/div/div/div/div/div/ul/li/div'
p680
F7.965784284662087
sS'/html/body/div/div/div/div/div/div/div/div/div/div/div/div/div/div/div/div/div/div/img'
p681
F6.058893689053569
sS'/html/body/div/div/div/div/div/div/div/div/form/input'
p682
F6.380821783940931
sS'/html/body/div/div/div/div/div/img'
p683
F0.839079811818897
sS'/html/body/div/div/div/div/div/div/div/div/div/div/div/div/div/div/span/a'
p684
F1.994240730711315
sS'/html/body/div/div/div/div/ul/li/div/div/div/div/div/span'
p685
F0.14401030269151943
sS'/html/body/div/div/div/div/div/div/div/div/div/div/div/ul/div/li/div/div/a/div/img'
p686
F1.7661119398257226
sS'/html/body/div/div/div/div/div/div/div/div/div/div/label/span/script'
p687
F7.158429362604482
sS'/html/body/div/div/div/div/div/div/div/div/div/div/div/div/div/div/div/div/div/b'
p688
F6.643856189774725
sS'/html/body/div/div/div/div/div/div/div/div/div/div/div/div/div/div/div/div/div/a'
p689
F2.473931188332412
sS'/html/body/div/div/div/div/div/div/div/dl/dd/div/span/a'
p690
F1.894321922105463
sS'/html/body/div/div/div/div/div/div/div/div/div/ul/li/div/a/div/img'
p691
F8.380821783940931
sS'/html/body/div/div/div/div/div/div/div/div/div/div/div/div/div/div/div/div/div/p'
p692
F8.965784284662087
sS'/html/body/div/div/div/div/div/table/tr/td/table/tr/td/a'
p693
F9.965784284662087
sS'/html/body/div/div/div/div/div/div/div/div/ul/li/div'
p694
F7.643856189774724
sS'/html/body/div/div/div/div/div/div/div/div/div/div/div/div/img'
p695
F0.6551715030025589
sS'/html/body/div/div/div/div/div/div/h1/span/a'
p696
F1.894321922105463
sS'/html/body/div/div/div/div/div/div/div/iframe'
p697
F9.965784284662087
sS'/html/body/div/div/div/div/div/form/fieldset/script'
p698
F7.158429362604482
sS'/html/body/div/div/div/div/div/div/div/div/div/span/div'
p699
F2.7563309190331373
sS'/html/body/div/div/div/div/div/div/div/div/div/div/div/div/div/div/div/span/br'
p700
F7.965784284662087
sS'/html/body/div/div/div'
p701
F0.0028882793248263526
sS'/html/body/div/div/div/div/div/div/div/div/div/div/div/div/div/div/div/form/div/span/input'
p702
F7.965784284662087
sS'/html/body/div/div/div/div/div/div/div/dl/dd/div/div/div/div/label/span'
p703
F1.7710274302398394
sS'/html/body/div/div/div/span'
p704
F0.0028882793248263526
sS'/html/body/div/div/div/div/div/div/div/form/fieldset/div/div/div/span/div/div/div'
p705
F2.0350469470992008
sS'/html/body/div/div/div/div/div/div/div/div/div/div/div/dd/div/div/div/div/div/div/div/div/div/div'
p706
F8.380821783940931
sS'/html/body/div/div/div/div/div/div/div/div/div/ul/li/div/div/span'
p707
F9.965784284662087
sS'/html/body/div/div/div/div/div/div/div/div/div/div/div/form/div/div/div/div/div/div'
p708
F9.965784284662087
sS'/html/body/div/div/div/div/div/div/div/div/form/div/dl/dd/div/label/img'
p709
F9.965784284662087
sS'/html/body/div/div/div/div/div/dd/div/div/div/div/div/form/input'
p710
F2.766111939825723
sS'/html/body/div/div/div/div/div/div/div/dl/dd/div/div/div/div/img'
p711
F1.3364276645824773
sS'/html/body/footer/div/div/br'
p712
F9.965784284662087
sS'/html/body/div/div/div/div/div/div/div/div/div/div/table/tbody/tr/td/img'
p713
F3.4111954329844494
sS'/html/body/div/div/div/div/div/div/div/div/input'
p714
F8.380821783940931
sS'/html/body/div/div/div/div/div/div/dl/dd/div/div/div/span/img'
p715
F1.8996950942043145
sS'/html/body/div/div/div/div/div/div/div/form/fieldset/div/div/div/div/div'
p716
F2.0350469470992008
sS'/html/body/div/div/div/div/div/div/div/div/div/form/ul/li/div/div/label'
p717
F6.965784284662088
sS'/html/body/div/div/div/div/div/div/div/div/div/div/div/dd/div/div/div/div/div/div/div/span'
p718
F8.380821783940931
sS'/html/body/div/div/div/div/div/div/div/div/div/a/div'
p719
F6.158429362604484
sS'/html/body/div/noscript/img'
p720
F3.2108967824986188
sS'/html/body/div/div/div/div/ul/li/ul/ul/li/a'
p721
F8.965784284662087
sS'/html/body/div/div/div/div/div/div/div/div/div/div/div/div/div/ul/li/span/span'
p722
F6.058893689053569
sS'/html/body/div/div/div/div/div/div/div/form/fieldset/div'
p723
F1.9545570292388328
sS'/html/body/div/div/div/div/div/a/div/div/div/span'
p724
F9.965784284662087
sS'/html/body/div/div/div/div/div/form/fieldset/div/div'
p725
F7.158429362604482
sS'/html/body/div/div/div/div/div/div/div/div/div/div/div/dl/dd/dl/dd/a'
p726
F9.965784284662087
sS'/html/body/div/div/div/div/ul/li/a/span/div'
p727
F0.14401030269151943
sS'/html/body/div/div/div/div/div/div/table/tr/td/img'
p728
F6.795859283219775
sS'/html/body/div/div/div/div/div/div/div/div/div/ul/li/a/div/span'
p729
F6.265344566520995
sS'/html/body/div/div/div/div/div/div/div/div/div/div/div/div/div'
p730
F0.26881675842780006
sS'/html/body/div/div/div/div/div/div/div/div/div/div/div/dd/div/div/div/span/div/img'
p731
F8.380821783940931
sS'/html/body/div/div/div/div/div/div/div/div/div/div/div/div/span/label'
p732
F6.965784284662088
sS'/html/body/div/div/div/div/div/table/tr/td/table/tr/td/form/table/tr/td/input'
p733
F9.965784284662087
sS'/html/body/div/div/div/div/div/div/div/div/div/div/div/div/div/div/address/span/span/span/span'
p734
F8.380821783940931
sS'/html/body/div/div/div/div/div/div/div/div/div/div/div/div/div/div/form/div/div/div/div'
p735
F6.058893689053569
sS'/html/body/div/div/div/div/div/div/div/div/div/div/div/div/div/div/div/div/div/div/span/span'
p736
F6.795859283219775
sS'/html/body/div/div/div/div/div/div/div/div/fieldset/div/div/div/a/b'
p737
F2.766111939825723
sS'/html/body/div/div/div/div/div/div/div/div/div/div/div/div/div/div/div/div/div/div/span'
p738
F2.5649048483799026
sS'/html/body/div/div/div/div/span/a'
p739
F9.965784284662087
sS'/html/body/div/div/div/div/div/div/form/fieldset/span'
p740
F1.6943212567577126
sS'/html/body/div/div/div/div/div/dd/div/div/div/div/label/span'
p741
F2.766111939825723
sS'/html/body/div/div/div/div/ul/li/a'
p742
F0.011587974275211823
sS'/html/body/div/div/div/div/div/div/div/span/a'
p743
F0.2636115992965393
sS'/html/body/div/div/div/div/div/div/div/ul/li/a/span/img'
p744
F9.965784284662087
sS'/html/body/div/div/div/div/div/div/div/div/address/div/span/span/span'
p745
F3.7958592832197753
sS'/html/body/div/div/div/div/div/div/div/div/div/div/div/div/div/div/div/form/div/div'
p746
F6.058893689053569
sS'/html/body/div/div/div/div/div/div/div/div/div/div/div/div/form/div/input'
p747
F9.965784284662087
sS'/html/body/div/div/div/div/div/div/div/div/ul/a/li'
p748
F8.380821783940931
sS'/html/body/div/div/div/div/div/div/div/form/fieldset/div/div/div'
p749
F1.965784284662087
sS'/html/body/div/div/div/div/div/div/div/div/div/fieldset/div/img'
p750
F7.965784284662087
sS'/html/body/div/div/div/div/div/div/div/div/div/div/div/div/div/a'
p751
F0.436353730515936
sS'/html/body/div/div/div/div/div/div/div/div/div/div/table/tbody/tr/td/div'
p752
F3.4111954329844494
sS'/html/body/div/div/div/div/div/div/div/div/div/div/div/form/div/div/label/span/div'
p753
F8.965784284662087
sS'/html/body/div/div/div/div/div/div/div/div/ul/li/div/span'
p754
F2.7273795453370084
sS'/html/body/div/div/div/div/div/dl/dd/p'
p755
F8.965784284662087
sS'/html/body/div/div/div/div/div/div/div/form/fieldset/div/div/div/div/span'
p756
F1.960159735468209
sS'/html/body/div/div/div/div/div/div/div/div/div/div/div/div/div/form/div'
p757
F8.965784284662087
sS'/html/body/div/div/div/div/div'
p758
F0.05439229681862768
sS'/html/body/div/div/div/div/table/tr/td/div/table/tr/td/form/table/tr/td/input'
p759
F8.965784284662087
sS'/html/body/div/div/div/div/div/div/div/div/div/div/div/ul/li/div/div/div/div/a'
p760
F9.965784284662087
sS'/html/body/div/div/p/a'
p761
F9.965784284662087
sS'/html/body/div/div/div/div/div/div/div/div/div/div/form/div/span'
p762
F1.8365012677171209
sS'/html/body/div/div/div/div/div/div/div/ul/li/span'
p763
F5.795859283219775
sS'/html/body/div/div/div/div/div/div/div/div/div/div/div/em/a'
p764
F8.380821783940931
sS'/html/body/div/div/div/div/div/div/ul/li/div/div'
p765
F2.977099597889921
sS'/html/body/div/div/div/div/div/div/div/div/div/form/ul/li/div/div/span/input'
p766
F6.965784284662088
sS'/html/body/div/div/div/div/div/div/div/div/div/div/div/div/div/span/strong'
p767
F6.50635266602479
sS'/html/body/div/div/div/div/div/div/div/div/div/ul/li/div/a'
p768
F5.965784284662088
sS'/html/body/div/div/div/div/div/div/form/fieldset/div'
p769
F1.6620035364849841
sS'/html/body/div/div/div/div/div/div/div/div/div/div/div/div/div/div/div/div/div/div/p/span'
p770
F6.965784284662088
sS'/html/body/div/div/div/div/div/div/div/div/div/ul/div/li/div/em'
p771
F6.265344566520995
sS'/html/body/div/div/div/div/div/div/div/div/div/div/div'
p772
F0.1456053222468993
sS'/html/body/div/div/div/div/div/div/div/div/div/div/div/label'
p773
F2.9213901653036336
sS'/html/body/div/div/div/div/div/div/ul/ul/li/a'
p774
F2.888968687611256
sS'/html/body/div/div/div/div/div/div/form/fieldset/div/img'
p775
F1.8416629728328995
sS'/html/body/div/div/div/div/div/div/h3'
p776
F2.0528949484321255
sS'/html/body/div/div/div/div/div/div/h2'
p777
F2.6082322800440036
sS'/html/body/div/div/div/div/div/div/div/div/address/div/div/div/div/div/span'
p778
F2.083141235300246
sS'/html/body/div/div/div/div/div/div/div/div/div/div/div/form/div/ul/li/label/div'
p779
F1.7710274302398394
sS'/html/body/div/div/div/div/div/form/fieldset/select/option'
p780
F7.158429362604482
sS'/html/body/div/div/div/div/div/div/div/ul/li/div/div/a'
p781
F1.894321922105463
sS'/html/body/div/div/div/div/div/div/div/div/div/div/div/div/div/div/div/form/div/input'
p782
F5.717856771218502
sS'/html/body/div/div/div/div/div/form/span/label'
p783
F0.011587974275211823
sS'/html/body/div/div/div/div/div/div/div/div/div/div/div/div/div/div/form/div/div'
p784
F8.965784284662087
sS'/html/body/div/div/div/div/div/div/div/div/div/div/div/div/div/span/span'
p785
F1.158429362604483
sS'/html/body/div/div/div/div/div/div/div/div/div/div/div/form/div/div/label/div'
p786
F8.965784284662087
sS'/html/body/div/div/div/div/div/div/div/div/div/span/span/span/span'
p787
F7.965784284662087
sS'/html/body/div/div/div/div/div/div/div/div/div/b'
p788
F2.5145731728297585
sS'/html/body/div/div/div/div/div/div/div/div/div/a'
p789
F0.4699292577749162
sS'/html/body/div/div/div/span/b'
p790
F1.2933589426905916
sS'/html/body/div/div/div/div/ul/li/ul/li/a'
p791
F0.011587974275211823
sS'/html/body/div/div/div/div/div/div/ul/li/div/span/img'
p792
F6.795859283219775
sS'/html/body/div/div/div/div/div/div/div/div/div/form/div/div/div/div'
p793
F1.857259827883918
sS'/html/body/div/div/div/div/div/div/div/div/div/p'
p794
F6.158429362604484
sS'/html/body/div/div/div/div/div/div/div/div/ul/li/div/div/div/div/span/img'
p795
F8.380821783940931
sS'/html/body/div/div/div/div/div/div/div/ul/li/div/div/div/ul/li/a'
p796
F6.50635266602479
sS'/html/body/div/div/div/div/div/div/div/div/div/div/div/dd/div/div/div/span/img'
p797
F8.380821783940931
sS'/html/body/div/div/div/div/div/div/table/tr/td/a'
p798
F6.643856189774725
sS'/html/body/div/div/div/div/div/div/div/div/div/ul/li/a/div/div/img'
p799
F6.380821783940931
sS'/html/body/div/div/div/div/div/div/form/div'
p800
F1.680382065799839
sS'/html/body/div/div/div/div/div/form/input'
p801
F0.005782352594006179
sS'/html/body/div/div/div/div/div/div/div/span/img'
p802
F0.2636115992965393
sS'/html/body/div/div/div/div/div/div/dl/dd/div/div/div/div/img'
p803
F1.8996950942043145
sS'/html/body/div/div/div/div/div/div/div/div/div/div/div/div/span/span/span'
p804
F0.6393547975397839
sS'/html/body/div/div/div/div/div/div/div/div/div/form/div/div/span/input'
p805
F6.965784284662088
sS'/html/body/div/div/div/div/div/div/div/div/div/div/div/div/div/div/div/div/div/table/tbody/tr/td/div'
p806
F8.965784284662087
sS'/html/body/div/div/div/div/div/div/div/div/table/tr/td'
p807
F6.965784284662088
sS'/html/body/div/div/div/div/div/div/div/div/div/div/div/div/div/div/div/div/div/span/div/span/img'
p808
F6.058893689053569
sS'/html/body/div/div/div/div/div/div/div/ul/div/li/div/span'
p809
F7.158429362604482
sS'/html/body/div/div/div/div/div/div/form/fieldset/div/div/span/span/span'
p810
F4.351074440546879
sS'/html/body/div/div/div/div/ul/li/div/div/div/strong'
p811
F8.965784284662087
sS'/html/body/div/div/div/div/div/div/ul/li/ul/li/a'
p812
F8.965784284662087
sS'/html/body/div/div/div/div/div/div/div/div/select/option'
p813
F8.965784284662087
sS'/html/body/div/div/div/div/div/div/ul/li/a/dl/dt'
p814
F6.795859283219775
sS'/html/body/div/div/div/div/div/div/div/div/div/div/div/div/div/ul/li/div/span'
p815
F8.965784284662087
sS'/html/body/div/div/div/div/div/dl/dd'
p816
F8.965784284662087
sS'/html/body/div/div/div/div/div/div/div/div/div/div/div/div/label/span'
p817
F5.965784284662088
sS'/html/body/div/div/div/div/div/div/div/div/iframe'
p818
F9.965784284662087
sS'/html/body/header/div/h1/span'
p819
F9.965784284662087
sS'/html/body/div/div/div/div/div/div/div/div/form/div/i'
p820
F9.965784284662087
sS'/html/body/div/div/div/div/div/div/div/div/div/div/div/form/div/div/div/div/span/img'
p821
F9.965784284662087
sS'/html/body/div/div/div/div/div/form/fieldset/div/div/div/div/label/span'
p822
F7.158429362604482
sS'/html/body/div/div/div/div/div/div/div/div/div/span/div/a'
p823
F8.380821783940931
sS'/html/body/div/div/div/div/div/dl/dt'
p824
F5.878321443411747
sS'/html/body/div/div/div/div/div/div/div/div/div/div/div/div/div/div/fieldset/p'
p825
F7.965784284662087
sS'/html/body/div/div/a/span'
p826
F9.965784284662087
sS'/html/body/div/div/div/div/div/div/div/div/div/div/div/form/div/div/label/div/select/option'
p827
F8.965784284662087
sS'/html/body/div/div/div/div/div/div/div/div/div/div/div/div/div/form/fieldset/input'
p828
F8.965784284662087
sS'/html/body/div/div/div/div/div/fieldset/div/div/span'
p829
F7.643856189774724
sS'/html/body/div/div/div/div/div/table/tr/td/table/tr/td/a/img'
p830
F9.965784284662087
sS'/html/body/div/div/div/div/div/form/div/div/div'
p831
F7.965784284662087
sS'/html/body/div/div/div/div/div/div/ul/li/a/div/img'
p832
F5.380821783940931
sS'/html/body/div/div/div/div/div/div/div/div/div/div/div/dl/dt/h2'
p833
F8.965784284662087
sS'/html/body/div/div/div/div/div/div/dl/dd/div/div/div/div/div/div/div/span'
p834
F1.8996950942043145
sS'/html/body/main/span'
p835
F9.965784284662087
sS'/html/body/div/div/div/div/div/div/div/div/div/div/div/div/form/fieldset/div/textarea'
p836
F1.6943212567577126
sS'/html/body/div/div/div/div/div/div/div/div/address/div/div/div/div/div/script'
p837
F2.2515387669959646
sS'/html/body/div/div/div/div/div/div/div/div/div/div/div/form/fieldset/div/textarea'
p838
F9.965784284662087
sS'/html/body/div/div/div/div/div/div/div/div/div/div/p/a'
p839
F2.0174170530774096
sS'/html/body/div/div/div/div/div/div/div/div/div/div/div/div/div/div/div/form/fieldset/div'
p840
F6.058893689053569
sS'/html/body/div/div/div/div/div/div/div/div/div/div/div/div/div/div/ul/li/div/span/img'
p841
F3.6989977439671855
sS'/html/body/div/div/div/div/div/div/div/div/div/div/div/div/form/ul'
p842
F1.6943212567577126
sS'/html/body/div/div/div/div/div/div/div/div/a/div/div/span/span'
p843
F7.643856189774724
sS'/html/body/div/div/div/div/div/div/div/div/form/fieldset/div/div/span/span'
p844
F6.265344566520995
sS'/html/body/div/div/div/div/div/div/div/div/div/ul/li/span/a'
p845
F7.965784284662087
sS'/html/body/div/div/div/div/div/div/div/div/div/div/div/div/div/div/div/div/div/div/span/span/span'
p846
F6.058893689053569
sS'/html/body/div/div/div/div/div/div/div/div/div/div/div/div/div/div/div/div/div/div'
p847
F4.573466861883327
sS'/html/body/div/div/div/div/div/div/div/div/div/div/div/div/div/div/div/div/div/div/a/img'
p848
F2.6259342817774622
sS'/html/body/div/div/div/div/div/div/div/div/div/div/div/div/form/div/ul/li/span/input'
p849
F9.965784284662087
sS'/html/body/div/div/div/div/div/div/div/div/div/div/div/div/div/div/div/fieldset/div/fieldset/ul/div/li/span/span'
p850
F7.965784284662087
sS'/html/body/div/div/div/div/div/div/div/div/div/div/div/div/div/div/form/div/ul/li/label/div'
p851
F8.965784284662087
sS'/html/body/div/div/div/div/div/div/div/div/div/span/span/span/img'
p852
F1.8262329322632935
sS'/html/body/div/div/div/div/div/div/div/div/div/div/div/div/div/ul/li/div/span/span/span'
p853
F8.965784284662087
sS'/html/body/div/div/div/div/table/tr/td/div/table/tr/td/form/input'
p854
F8.965784284662087
sS'/html/body/div/div/div/div/div/div/div/div/dl/dd/div/dl/dt/span/img'
p855
F9.965784284662087
sS'/html/body/div/div/div/div/div/div/div/div/div/div/div/div/div/div/div/form/div/ul/li/label/div'
p856
F6.058893689053569
sS'/html/body/div/div/div/ul/li/a'
p857
F5.058893689053569
sS'/html/body/div/div/div/div/div/div/h2/div/div/span'
p858
F7.158429362604482
sS'/html/body/div/div/div/div/div/div/div/div/div/div/div/div/div/div/div/div/div/div/div'
p859
F2.6529013293777317
sS'/html/body/div/div/div/div/div/div/span'
p860
F3.0709665213541437
sS'/html/body/div/div/div/div/div/div/div/div/form/fieldset/div/input'
p861
F7.158429362604482
sS'/html/body/div/div/div/div/div/div/div/div/div/div/div/form/div/button'
p862
F8.965784284662087
sS'/html/body/div/div/div/div/div/div/div/div/table/tr/td/div/a/span/div/img'
p863
F1.7958592832197748
sS'/html/body/div/div/div/div/div/div/div/div/div/ul/li/a/dl/dd/img'
p864
F6.265344566520995
sS'/html/body/div/div/div/div/div/div/div/div/div/div/div/dd/div/div/div/div/div/div/div/div/div'
p865
F8.380821783940931
sS'/html/body/div/div/div/div/div/div/ul/li/a/div/div/img'
p866
F5.321928094887363
sS'/html/body/div/div/div/div/div/ul/li/a/img'
p867
F3.6989977439671855
sS'/html/body/div/div/div/div/div/fieldset/div/div/a/span/b'
p868
F8.380821783940931
sS'/html/body/div/div/div/div/ul/li/a/img'
p869
F0.017417053077409393
sS'/html/body/div/div/div/div/div/div/div/div/div/div/div/div/div/div/div/fieldset/div/fieldset/span'
p870
F7.965784284662087
sS'/html/body/div/div/div/div/div/div/div/div/div/div/fieldset/ul/div/li/span/span'
p871
F7.965784284662087
sS'/html/body/div/div/div/div/div/div/div/div/div/div/div/div/span/script'
p872
F4.184424571137428
sS'/html/body/div/div/div/div/div/div/div/div/div/div/span/span/img'
p873
F3.1456053222468996
sS'/html/body/div/div/div/div/div/div/div/div/div/div/small'
p874
F9.965784284662087
sS'/html/body/div/div/div/div/div/ul/li/ul/li/span'
p875
F8.965784284662087
sS'/html/body/div/div/div/div/div/div/div/div/div/div/div/form/div/div/label/span/input'
p876
F8.965784284662087
sS'/html/body/div/div/div/div/div/form/div/label'
p877
F0.011587974275211823
sS'/html/body/div/div/div/img'
p878
F0.06190243892590693
sS'/html/body/div/div/div/div/div/div/div/div/div/div/div/ul/li/div/div/div/a/span/span'
p879
F9.965784284662087
sS'/html/body/div/div/div/div/div/div/div/div/div/div/div/ul/li/div/div/div/div/span/img'
p880
F9.965784284662087
sS'/html/body/div/div/div/div/div/div/div/div/div/div/div/div/div/div/div/div/div/span/a'
p881
F6.380821783940931
sS'/html/body/div/div/div/div/table/tr/td/div'
p882
F8.965784284662087
sS'/html/body/div/div/div/div/div/div/div/div/div/style'
p883
F3.6620035364849843
sS'/html/body/div/div/div/div/div/div/div/div/div/div/div/div/div/div/span/div'
p884
F7.965784284662087
sS'/html/body/div/div/div/div/div/div/div/div/div/form/div/div/div/div/div/input'
p885
F7.158429362604482
sS'/html/body/div/div/div/div/div/div/div/dl/dd/div/div/div/div/ul'
p886
F1.7710274302398394
sS'/html/body/div/div/div/div'
p887
F1.6214883767462702
sS'/html/body/div/div/div/div/div/div/div/div/div/div/div/div/div/p/a'
p888
F6.380821783940931
sS'/html/body/div/div/div/div/div/div/div/div/div/div/a/div/div'
p889
F6.380821783940931
sS'/html/body/div/div/div/div/div/div/div/div/table/tr/td/div'
p890
F6.965784284662088
sS'/html/body/div/div/div/div/noscript/img'
p891
F3.857259827883918
sS'/html/body/div/div/div/div/div/div/script'
p892
F1.9159357352115256
sS'/html/body/div/div/div/div/div/div/div/div/div/div/div/div/div/div/div/div/br'
p893
F6.058893689053569
sS'/html/body/div/div/div/div/div/div/div/div/div/input'
p894
F6.158429362604484
sS'/html/body/div/div/div/div/div/dd/div/div/div/div/div/span/img'
p895
F2.766111939825723
sS'/html/body/div/div/div/div/div/div/div/div/dl/dd/div/div/div/b'
p896
F9.965784284662087
sS'/html/body/div/div/div/div/div/div/div/div/dl/dd/div/div/div/span'
p897
F9.965784284662087
sS'/html/body/div/div/div/div/div/div/div/div/div/div/form/div/div/div'
p898
F1.857259827883918
sS'/html/body/div/div/div/div/div/table/tr/td/div/table/tbody/tr/td/a'
p899
F9.965784284662087
sS'/html/body/div/div/div/div/div/form/div/span'
p900
F9.965784284662087
sS'/html/body/div/div/div/div/div/div/div/div/div/form/div/div/div/div/label'
p901
F7.158429362604482
sS'/html/body/div/div/div/div/div/p/strong'
p902
F2.988504361162171
sS'/html/body/div/div/div/div/div/div/div/div/div/sup'
p903
F7.380821783940932
sS'/html/body/div/div/div/div/div/div/div/div/div/div/div/div/div/div/a/img'
p904
F1.7178567712185013
sS'/html/body/div/div/div/div/div/dd/div/div/div/div/div/div/div/span/span/span'
p905
F3.1713684183119812
sS'/html/body/div/div/div/div/div/div/div/div/div/ul/span/span'
p906
F9.965784284662087
sS'/html/body/div/div/div/div/div/div/div/div/div/div/div/div/div/div/div/h4/span'
p907
F6.058893689053569
sS'/html/body/div/div/div/div/div/div/div/div/div/div/form/div/ul/li/span/input'
p908
F1.894321922105463
sS'/html/body/div/div/div/div/div/h3'
p909
F5.717856771218502
sS'/html/body/div/div/div/div/div/h2'
p910
F2.766111939825723
sS'/html/body/div/div/div/div/div/h1'
p911
F0.004334590263891124
sS'/html/body/div/div/div/div/div/dd/div/div/div/div/div/div/div/div/div'
p912
F2.766111939825723
sS'/html/body/div/div/div/div/div/div/div/div/div/div/div/ul/div/li'
p913
F1.7661119398257226
sS'/html/body/div/div/div/div/div/div/div/div/div/div/div/dl/dd/div/span/a'
p914
F8.965784284662087
sS'/html/body/div/div/div/div/div/div/div/div/div/a/div/div/div'
p915
F9.965784284662087
sS'/html/body/div/div/div/div/div/div/div/div/div/div/div/div/div/div/div/div/div/div/div/p'
p916
F6.50635266602479
sS'/html/body/main/div/div/section/h3/a'
p917
F9.965784284662087
sS'/html/body/div/div/div/div/div/div/div/div/ul/li/a'
p918
F0.8339273240532943
sS'/html/body/div/div/div/div/div/table/tr/td/table/tr/td/form/table/tr/td'
p919
F9.965784284662087
sS'/html/body/div/div/div/div/div/div/div/dl/dd/div/div/div/div/div/span/span'
p920
F1.7710274302398394
sS'/html/body/div/div/div/div/div/div/div/div/div/div/ul/div/li/div/div/a/div/img'
p921
F1.894321922105463
sS'/html/body/div/div/div/div/div/form/fieldset/div/label/span/img'
p922
F7.158429362604482
sS'/html/body/div/div/div/div/div/div/div/div/div/div/div/div/form/div/ul/li/label'
p923
F9.965784284662087
sS'/html/body/div/div/div/div/div/div/div/div/div/div/div/div/div/div/div/div/div/a/span'
p924
F7.380821783940932
sS'/html/body/div/div/div/div/div/div/div/div/div/div/form/div/div/div/a'
p925
F1.857259827883918
sS'/html/body/div/div/div/div/div/div/div/div/div/div/div/form/div/div/input'
p926
F2.293358942690592
sS'/html/body/div/div/div/div/div/div/div/form/div/div'
p927
F6.643856189774725
sS'/html/body/div/div/div/div/div/div/div/div/div/div/div/div/div/div/span/span/span'
p928
F5.643856189774724
sS'/html/body/div/div/div/div/div/div/div/div/div/ul/li/div/div'
p929
F1.905088352974533
sS'/html/body/div/div/div/div/div/div/div/form/span/span/input'
p930
F7.158429362604482
sS'/html/body/div/div/div/div/div/div/div/div/div/div/fieldset/ul/li/input'
p931
F7.965784284662087
sS'/html/body/div/div/div/div/div/div/span/span'
p932
F2.5907448533151625
sS'/html/body/div/div/div/div/div/div/div/div/div/div/div/div/div/div/div/div/div/div/div/a'
p933
F3.083141235300246
sS'/html/body/div/div/div/div/div/ul/li/div/div/div/img'
p934
F3.6989977439671855
sS'/html/body/div/div/div/div/div/div/div/div/div/div/div/div/div/div/form/div/ul/li/label/span/span'
p935
F8.965784284662087
sS'/html/body/div/div/div/div/div/div/div/div/div/div/form/div/div/input'
p936
F2.265344566520995
sS'/html/body/div/div/div/div/div/div/div/div/ul/li/ul/li/a'
p937
F1.894321922105463
sS'/html/body/div/div/div/div/div/div/dl/dd/div/div/div/div/div/div/div/div/div/div'
p938
F1.8996950942043145
sS'/html/body/div/div/div/div/div/div/div/div/div/div/div/div/p/br'
p939
F2.11403524324603
sS'/html/body/div/div/div/div/div/div/div/div/div/h3'
p940
F1.6896598793878495
sS'/html/body/div/div/div/div/div/div/div/div/div/h2'
p941
F3.3219280948873626
sS'/html/body/div/div/div/div/div/div/div/div/div/div/div/div/div/div/div/div/div/span/img'
p942
F4.9213901653036345
sS'/html/body/div/div/div/div/div/div/div/div/div/div/div/div/div/div/form/div/div/div/div/span/img'
p943
F6.058893689053569
sS'/html/body/div/div/div/div/div/div/div/div/div/div/div/div/div/div/div/form/ul/li/label'
p944
F6.50635266602479
sS'/html/body/div/div/div/div/div/div/div/div/div/div/div/dd/div/div/div/div/div/span/input'
p945
F9.965784284662087
sS'/html/body/div/div/div/div/div/div/div/div/form/fieldset/div/label'
p946
F7.380821783940932
sS'/html/body/div/div/div/div/ul/li/div/div/div/div/div/div/img'
p947
F0.14401030269151943
sS'/html/body/div/div/div/div/div/div/div/div/div/div/div/div/div/div/div/div/ul/li/span/img'
p948
F2.8262329322632938
sS'/html/body/div/div/div/div/div/div/div/div/div/ul/li/div/div/div/div/a'
p949
F8.380821783940931
sS'/html/body/div/div/div/div/div/fieldset/div/div/div/div/span/div'
p950
F7.643856189774724
sS'/html/body/div/div/div/p/strong'
p951
F9.965784284662087
sS'/html/body/div/div/div/div/div/div/div/div/div/div/div/div/div/div/div/div/div/div/div/span/span'
p952
F8.965784284662087
sS'/html/body/div/div/div/div/table/tr/td/div/a'
p953
F6.965784284662088
sS'/html/body/div/div/script'
p954
F7.643856189774724
sS'/html/body/div/div/div/div/div/div/table/tr/td/b/a'
p955
F6.643856189774725
sS'/html/body/div/div/div/div/div/form/div/div/input'
p956
F9.965784284662087
sS'/html/body/div/div/div/div/div/div/div/div/div/div/form/div/div/div/div'
p957
F1.7710274302398394
sS'/html/body/div/div/div/div/div/div/div/div/form/div/div/dl/dd/label/div/span'
p958
F9.965784284662087
sS'/html/body/div/div/div/div/div/div/ul/li/div/em'
p959
F6.795859283219775
sS'/html/body/div/div/div/div/form/input'
p960
F7.965784284662087
sS'/html/body/div/div/div/div/div/div/div/div/div/div/div/div/div/div/ul/li/span'
p961
F3.2515387669959646
sS'/html/body/div/div/div/h4'
p962
F9.965784284662087
sS'/html/body/div/div/div/div/div/ul/li/span'
p963
F0.011587974275211823
sS'/html/body/div/div/div/div/div/div/div/div/div/div/div/div/div/div/form/div/input'
p964
F8.965784284662087
sS'/html/body/div/div/div/div/div/div/div/div/div/div/div/div/div/div/div/form/div/ul/li/span/input'
p965
F6.058893689053569
sS'/html/body/div/div/div/div/div/div/div/form/fieldset/span/select/option'
p966
F7.158429362604482
sS'/html/body/div/div/div/div/div/div/div/form/fieldset/div/div/input'
p967
F6.265344566520995
sS'/html/body/div/div/div/div/div/div'
p968
F0.17788172527065543
sS'/html/body/div/div/div/div/div/table/tr/td/div/p'
p969
F9.965784284662087
sS'/html/body/div/div/div/ul/li/span'
p970
F0.3075728019102923
sS'/html/body/div/div/div/div/div/div/div/div/div/div/div/form/div/div/label/input'
p971
F8.965784284662087
sS'/html/body/div/div/div/div/div/div/div/div/div/div/div/div/ul'
p972
F5.965784284662088
sS'/html/body/div/div/div/div/div/a/div/div/div/ul/li'
p973
F9.965784284662087
sS'/html/body/div/div/div/div/div/div/ul/li/b'
p974
F8.965784284662087
sS'/html/body/div/div/div/div/div/div/ul/li/a'
p975
F2.7563309190331373
sS'/html/body/div/div/div/div/div/div/div/ul/li/div/a'
p976
F7.965784284662087
sS'/html/body/div/div/div/div/div/div/div/div/div/div/div/div/div/form/div/div/div/div'
p977
F8.965784284662087
sS'/html/body/div/div/div/div/div/fieldset/div/div/div/div/div/div/div/div/div/div/a'
p978
F7.643856189774724
sS'/html/body/div/div/div/div/div/fieldset/div/div'
p979
F7.643856189774724
sS'/html/body/div/div/div/div/div/a/div/img'
p980
F9.965784284662087
sS'/html/body/div/div/div/div/div/div/div/div/div/div/div/div/form/fieldset/span/label'
p981
F4.265344566520995
sS'/html/body/div/div/div/div/div/div/div/div/div/dd/div/div/b'
p982
F3.899695094204315
sS'/html/body/div/div/div/div/div/div/div/div/div/dl/dd/h3/a'
p983
F8.380821783940931
sS'/html/body/div/div/div/div/div/div/div/div/div/ul/div/li/div/br'
p984
F6.265344566520995
sS'/html/body/div/div/div/div/ul/li/a/span'
p985
F0.04692104738749238
sS'/html/body/div/div/div/div/div/div/div/div/div/div/div/div/div/div/form/div/div/div/a'
p986
F6.058893689053569
sS'/html/body/div/div/div/div/div/div/div/div/dl/dd/br'
p987
F7.158429362604482
sS'/html/body/div/div/div/div/div/div/div/div/div/form/div/div/select/option'
p988
F7.158429362604482
sS'/html/body/div/div/div/div/div/div/div/div/div/div/div/div/ul/li'
p989
F6.265344566520995
sS'/html/body/div/div/div/div/div/div/div/div/div/div/div/div/div/div/form/div/div/div/div/div/span'
p990
F6.058893689053569
sS'/html/body/div/div/div/div/div/div/span/img'
p991
F8.965784284662087
sS'/html/body/div/div/div/div/div/div/div/script'
p992
F1.5228407888133588
sS'/html/body/div/div/div/div/div/div/dl/dd/div/div/div/div'
p993
F1.8996950942043145
sS'/html/body/div/div/div/div/p/br'
p994
F8.965784284662087
sS'/html/body/div/div/div/div/div/dd/div/div/div/div/ul/li/span'
p995
F2.766111939825723
sS'/html/body/div/div/div/div/div/div/div/div/div/div/span/span/span/span'
p996
F1.9323612831246368
sS'/html/body/div/div/div/div/div/div/div/div/div/form/ul/li/div/div/div'
p997
F6.965784284662088
sS'/html/body/div/div/div/div/div/div/div/div/h3'
p998
F1.5907448533151625
sS'/html/body/div/div/div/div/div/div/div/div/h2'
p999
F0.7858751946471525
sS'/html/body/div/div/div/div/div/div/div/div/h1'
p1000
F2.4035418604410146
sS'/html/body/div/div/div/div/div/div/div/div/div/div/div/div/div/div/div/div/div/div/div/div/div/span'
p1001
F5.380821783940931
sS'/html/body/div/div/div/div/div/div/div/div/img'
p1002
F1.5907448533151625
sS'/html/body/div/div/div/div/div/div/div/div/div/div/div/div/div/div/div/div/div/div/div/div/a/div/div/b'
p1003
F7.643856189774724
sS'/html/body/div/div/div/div/div/table/tr/td/h3'
p1004
F9.965784284662087
sS'/html/body/div/div/div/div/div/div/ul/li/div/a/span'
p1005
F6.795859283219775
sS'/html/body/div/div/div/div/div/div/div/div/div/div/div/div/div/div/p/span/img'
p1006
F1.7710274302398394
sS'/html/body/div/div/div/div/div/div/div/div/div/ul/div/li/a'
p1007
F6.265344566520995
sS'/html/body/div/div/div/div/div/div/div/div/div/form/fieldset/div'
p1008
F9.965784284662087
sS'/html/body/div/div/div/div/div/div/div/div/div/div/div/form/div/div/div/span/span/span'
p1009
F8.965784284662087
sS'/html/body/div/div/div/div/div/div/dl/dd'
p1010
F0.2636115992965393
sS'/html/body/div/div/div/div/div/div/div/div/a'
p1011
F0.18442457113742755
sS'/html/body/div/div/div/div/div/div/div/div/div/a/img'
p1012
F6.965784284662088
sS'/html/body/div/div/div/div/div/div/div/div/div/div/span/script'
p1013
F2.3883554566263383
sS'/html/body/div/div/div/div/div/div/div/div/div/div/div/div/form/input'
p1014
F5.058893689053569
sS'/html/body/div/div/div/div/div/div/div/div/div/div/div/div/div/div/div/div/div/div/div/span/span/span'
p1015
F3.0588936890535687
sS'/html/body/div/div/div/div/div/div/div/a/div'
p1016
F8.380821783940931
sS'/html/body/div/div/div/div/div/div/div/div/div/div/div/dl/dd/div/label'
p1017
F6.965784284662088
sS'/html/body/div/div/div/div/div/div/div/dl/dd/div/div/div/div/div'
p1018
F1.3364276645824773
sS'/html/body/div/div/div/div/div/div/div/div/div/div/div/label/span'
p1019
F6.058893689053569
sS'/html/body/div/div/div/div/div/div/div/div/form/div/div'
p1020
F6.965784284662088
sS'/html/body/div/div/div/div/div/div/div/div/div/div/div/div/div/form/fieldset/label'
p1021
F8.965784284662087
sS'/html/body/div/div/div/div/div/div/div/div/div/div/div/dd/div/div/div/div/br'
p1022
F9.965784284662087
sS'/html/body/div/div/div/div/div/div/form/fieldset/div/div/label/img'
p1023
F7.158429362604482
sS'/html/body/div/div/div/div/div/div/div/div/div/address/span/span/span/span'
p1024
F1.894321922105463
sS'/html/body/div/div/div/div/div/form/div/div/span/span/span'
p1025
F9.965784284662087
sS'/html/body/div/div/div/div/div/ul/a/li/div/div/span'
p1026
F9.965784284662087
sS'/html/body/div/div/div/div/div/div/div/div/div/div/form/div/div'
p1027
F1.894321922105463
sS'/html/body/div/div/div/div/div/div/div/dl/dd/div/div/div/div/div/div/div/div/div'
p1028
F1.3364276645824773
sS'/html/body/div/div/div/div/div/div/div/div/div/div/div/div/div/div/div/div/div/ul/br'
p1029
F2.795859283219775
sS'/html/body/div/div/div/div/div/div/div/div/form/fieldset/input'
p1030
F9.965784284662087
sS'/html/body/div/div/div/div/div/div/div/div/div/div/div/div/div/div/div/div/div/span/input'
p1031
F6.058893689053569
sS'/html/body/div/div/div/div/div/div/ul/li/a/span'
p1032
F6.643856189774725
sS'/html/body/div/div/div/div/div/div/div/div/div/div/div/div/div/div/div/ul'
p1033
F3.878321443411748
sS'/html/body/div/div/div/div/div/div/div/div/p/span'
p1034
F9.965784284662087
sS'/html/body/div/div/div/div/div/dl/dd/ul/li/a'
p1035
F8.965784284662087
sS'/html/body/div/div/div/div/div/div/div/div/div/div/span/br'
p1036
F8.965784284662087
sS'/html/body/div/div/div/div/div/div/div/div/div/div/div/div/div/div/div/div/div/span/label'
p1037
F6.058893689053569
sS'/html/body/div/div/div/div/div/div/ul/li/div/div/span/img'
p1038
F3.083141235300246
sS'/html/body/div/div/div/div/div/div/table/tr/td'
p1039
F6.158429362604484
sS'/html/body/div/div/div/div/div/div/div/div/div/div/div/div/div/div/ul/li/div/a'
p1040
F3.6989977439671855
sS'/html/body/div/div/div/div/div/div/div/div/address/div/span/span/span/span'
p1041
F8.965784284662087
sS'/html/body/div/div/div/div/div/div/div/dl/dt/h2'
p1042
F1.894321922105463
sS'/html/body/div/div/div/div/div/dd/div/div/div/div/div/div/span'
p1043
F2.766111939825723
sS'/html/body/div/div/div/div/div/div/div/div/table/tr/td/div/a'
p1044
F1.7958592832197748
sS'/html/body/div/div/div/div/div/div/div/div/form/div/span'
p1045
F9.965784284662087
sS'/html/body/div/div/div/div/div/div/div/link'
p1046
F9.965784284662087
sS'/html/body/div/div/div/div/div/div/div/dl/dd/div/div/div/span/div/span'
p1047
F2.1015981400078068
sS'/html/body/div/div/div/div/div/form/div/span/span'
p1048
F7.965784284662087
sS'/html/body/div/div/div/div/div/div/div/div/address/div/div/div/div/span/span/img'
p1049
F5.442222328605075
sS'/html/body/div/div/div/div/div/div/div/div/div/div/div/form/ul/li/span/input'
p1050
F2.3075728019102923
sS'/html/body/div/div/div/div/div/ul/li/a'
p1051
F5.380821783940931
sS'/html/body/div/div/div/div/h1/div'
p1052
F9.965784284662087
sS'/html/body/div/div/div/div/div/div/div/div/div/ul/li/div/span'
p1053
F1.905088352974533
sS'/html/body/div/div/div/div/div/div/div/div/div/div/table/tbody/tr/td/div/div/p'
p1054
F3.4111954329844494
sS'/html/body/div/div/div/div/div/div/div/div/div/form/div/a'
p1055
F7.158429362604482
sS'/html/body/div/div/div/div/div/div/div/div/div/div/div/form/div/ul/li/span/input'
p1056
F1.7710274302398394
sS'/html/body/div/div/div/div/div/div/div/ul/div/li/div/div'
p1057
F7.158429362604482
sS'/html/body/div/div/div/div/div/div/div/div/div/form/div/div/div/div/select/option'
p1058
F9.965784284662087
sS'/html/body/div/div/div/div/div/div/ul/li/div/span'
p1059
F3.083141235300246
sS'/html/body/div/div/div/div/div/div/div/div/div/div/form/div/label'
p1060
F1.7710274302398394
sS'/html/body/div/div/div/div/div/div/div/div/div/div/div/div/div/div/span'
p1061
F0.7154858667557547
sS'/html/body/div/div/div/div/div/div/div/div/div/div/span/div/div'
p1062
F6.965784284662088
sS'/html/body/div/div/div/div/div/div/div/div/div/div/form/ul/li/label'
p1063
F2.265344566520995
sS'/html/body/div/div/div/div/div/dd/div/div/div/div/div/span/span'
p1064
F2.766111939825723
sS'/html/body/div/div/div/div/div/a/img'
p1065
F6.50635266602479
sS'/html/body/div/div/div/div/div/div/div/div/a/div/div/div'
p1066
F7.158429362604482
sS'/html/body/div/div/div/div/div/div/div/div/form/div/div/dl/dd/textarea'
p1067
F9.965784284662087
sS'/html/body/div/div/div/div/div/div/div/div/div/form/div/div/div/div/div/div/div/div/input'
p1068
F7.158429362604482
sS'/html/body/div/div/div/div/div/fieldset/div/div/div/div/div/div/div/div/div/div'
p1069
F7.643856189774724
sS'/html/body/div/div/div/div/div/div/div/div/div/div/div/span/span'
p1070
F1.7661119398257226
sS'/html/body/div/div/div/h2'
p1071
F8.965784284662087
sS'/html/body/div/div/div/div/div/div/div/div/div/div/div/div/form/fieldset/input'
p1072
F1.6943212567577126
sS'/html/body/div/div/div/div/div/div/div/div/div/div/div/div/div/span/div/div/span'
p1073
F6.158429362604484
sS'/html/body/div/div/div/div/div/div/div/div/dl/dd/div/dl/dd/div/a'
p1074
F9.965784284662087
sS'/html/body/div/div/div/div/div/div/div/form/fieldset/div/div'
p1075
F2.0
sS'/html/body/div/div/div/div/div/div/div/div/address/div/div/div/div/span'
p1076
F2.343732465205711
sS'/html/body/div/div/div/div/div/div/div/div/div/div/div/div/div/div/div/div/div/div/a'
p1077
F4.184424571137428
sS'/html/body/div/div/div/div/div/div/div/div/table/tr/td/div/a/span/div/div/div/img'
p1078
F5.380821783940931
sS'/html/body/div/div/div/div/div/div/div/div/div/div/div/div/div/div/div/div/div/div/p'
p1079
F6.058893689053569
sS'/html/body/div/div/div/div/div/div/dl/dd/div/div/div/span/div/img'
p1080
F2.217591435072627
sS'/html/body/div/div/div/div/div/div/div/div/div/div/div/dl/dd/div/span/span'
p1081
F8.965784284662087
sS'/html/body/div/div/div/div/div/form/fieldset/div/div/div/div'
p1082
F7.158429362604482
sS'/html/body/div/div/div/div/div/dd/div/div/div/div/br'
p1083
F2.766111939825723
sS'/html/body/div/div/div/div/div/div/ul/li/a/dl/dd/span'
p1084
F6.795859283219775
sS'/html/body/div/div/div/div/div/div/div/div/div/div/div/div/div/div/form/div/div/div'
p1085
F5.717856771218502
sS'/html/body/div/div/div/div/div/div/div/div/div/div/div/div/ul/li/div/a/div/img'
p1086
F9.965784284662087
sS'/html/body/div/div/a/img'
p1087
F9.965784284662087
sS'/html/body/div/div/div/div/div/div/div/div/div/div/div/ul/div/li/div/div/div/div/div/a'
p1088
F1.7661119398257226
sS'/html/body/div/div/div/div/div/div/div/div/div/div/div/form/div/div'
p1089
F1.7710274302398394
sS'/html/body/div/div/div/div/div/div/div/div/div/table/tr/td/div/a'
p1090
F1.894321922105463
sS'/html/body/div/div/div/div/div/div/div/div/div/div/div/div/div/div/div/div/div/table/tbody/tr/td/img'
p1091
F8.965784284662087
sS'/html/body/div/div/div/div/div/div/div/div/div/div/div/div/div/div/div/div/a/div/input'
p1092
F7.965784284662087
sS'/html/body/div/div/div/div/div/div/div/div/div/div/form/fieldset/span/input'
p1093
F3.279283757478869
sS'/html/body/div/div/div/div/div/div/div/div/div/div/span/div/span'
p1094
F6.380821783940931
sS'/html/body/div/div/div/div/div/div/div/div/div/div/div/div/form/div/ul/li/label/span/span'
p1095
F9.965784284662087
sS'/html/body/div/div/div/div/div/div/div/div/div/form/div/div/div/div/div'
p1096
F6.965784284662088
sS'/html/body/div/div/div/div/div/div/div/div/div/div/div/div/div/div/div/div/span/img'
p1097
F1.286304185156641
sS'/html/body/div/div/div/div/div/div/div/div/dl/dd/span'
p1098
F2.3075728019102923
sS'/html/body/div/div/div/div/div/div/div/div/div/div/form/fieldset/label/img'
p1099
F7.158429362604482
sS'/html/body/div/div/div/div/div/div/div/div/div/div/div/a/span'
p1100
F7.643856189774724
sS'/html/body/div/div/div/div/div/div/div/div/div/div/div/div/div/div/div/span'
p1101
F1.158429362604483
sS'/html/body/div/div/div/div/div/div/div/div/div/form/ul/li/div/div/span/span'
p1102
F7.158429362604482
sS'/html/body/div/div/div/div/div/fieldset/noscript/img'
p1103
F7.643856189774724
sS'/html/body/div/div/div/span/img'
p1104
F0.3695945285176767
sS'/html/body/div/div/div/div/div/fieldset/div/div/div'
p1105
F7.643856189774724
sS'/html/body/div/div/div/div/div/div/div/div/a/div'
p1106
F6.795859283219775
sS'/html/body/div/script'
p1107
F2.6529013293777317
sS'/html/body/div/div/div/div/div/div/ul'
p1108
F8.965784284662087
sS'/html/body/div/div/div/div/div/div/div/div/div/div/div/div/div/div/div/div/dl/dd'
p1109
F6.265344566520995
sS'/html/body/div/div/div/ul/li/a/span'
p1110
F0.3584539709124765
sS'/html/body/div/div/div/div/div/div/div/div/div/p/span'
p1111
F6.50635266602479
sS'/html/body/div/div/div/div/div/div/div/div/div/div/div/div/div/div/div/div/div/div/div/div/a/div/div/span'
p1112
F7.643856189774724
sS'/html/body/div/div/div/div/div/div/div/div/div/div/div/div/div/div/div/div/dl/dt'
p1113
F6.265344566520995
sS'/html/body/div/div/div/div/div/div/div/div/ul/li/div/br'
p1114
F2.766111939825723
sS'/html/body/div/div/div/div/div/div/div/div/form/div/dl/dd/div/input'
p1115
F9.965784284662087
sS'/html/body/div/div/div/div/div/div/div/div/div/div/div/div/div/div/div/div/div/div/a/div/div/b'
p1116
F5.50635266602479
sS'/html/body/div/div/div/div/div/div/div/div/div/span/span/div/img'
p1117
F9.965784284662087
sS'/html/body/div/div/div/div/div/div/div/div/form/div/div/div/div/a'
p1118
F9.965784284662087
sS'/html/body/div/div/div/div/div/div/div/div/div/div/div/div/div/ul/li/a'
p1119
F7.380821783940932
sS'/html/body/div/div/div/div/div/div/div/form/fieldset/div/div/div/div/div/div'
p1120
F2.0350469470992008
sS'/html/body/div/div/div/div/div/div/div/div/div/div/div/div/div/div/div/div/a/span/p'
p1121
F2.0232697793228476
sS'/html/body/div/div/div/div/div/div/div/div/ul/li/img'
p1122
F9.965784284662087
sS'/html/body/header/div/div/form/div/input'
p1123
F9.965784284662087
sS'/html/head/title'
p1124
F0.0
sS'/html/body/div/div/div/div/div/div/div/div/dl/dd/div/dl/dd/div/span/img'
p1125
F9.965784284662087
sS'/html/body/div/div/div/div/div/div/div/div/div/div/div/dd/div/div/div/span/div'
p1126
F8.380821783940931
sS'/html/body/div/div/div/div/div/form/fieldset/div/div/div/label/span'
p1127
F7.158429362604482
sS'/html/body/div/div/div/div/ul/li'
p1128
F8.965784284662087
sS'/html/body/div/div/div/div/div/div/dl/dd/div/div/div/div/div/div'
p1129
F1.8996950942043145
sS'/html/body/div/div/div/div/div/div/ul/li/div/a/div/span/img'
p1130
F6.795859283219775
sS'/html/body/div/div/div/div/div/div/div/form/fieldset/div/div/div/span/div/div/div/span'
p1131
F2.0350469470992008
sS'/html/body/div/div/div/div/ul/li/ul/li/ul/li/span'
p1132
F0.8703872618695306
sS'/html/body/div/div/div/div/div/div/strong/b'
p1133
F6.965784284662088
sS'/html/body/div/div/div/div/div/div/div/div/form/div/div/div/input'
p1134
F9.965784284662087
sS'/html/body/div/div/div/div/div/div/div/div/div/div/div/div/div/div/div/div/div/span/span/span'
p1135
F2.766111939825723
sS'/html/body/div/div/div/div/div/fieldset/div/div/div/div/ul/li'
p1136
F7.643856189774724
sS'/html/body/div/div/div/div/div/div/div/div/a/div/img'
p1137
F6.158429362604484
sS'/html/body/div/div/div/div/div/div/div/dl/dd/div/div/div/div/ul/li/span'
p1138
F1.7710274302398394
sS'/html/body/div/div/div/div/div/div/div/div/a/div/div/span'
p1139
F7.643856189774724
sS'/html/body/div/div/div/div/div/div/div/div/form/label/input'
p1140
F7.965784284662087
sS'/html/body/div/div/div/div/div/div/div/div/div/ul/div/li/div/div'
p1141
F6.265344566520995
sS'/html/body/div/div/div/div/div/div/div/div/div/div/div/dd/div/div/div/div'
p1142
F8.380821783940931
sS'/html/body/div/div/div/div/div/div/div/div/div/div/div/div/div/img'
p1143
F0.22938235334379692
sS'/html/body/div/div/div/div/div/div/dl/dd/div/div/div/div/div/div/span'
p1144
F1.8996950942043145
sS'/html/body/div/div/div/div/div/div/div/div/div/div/div/div/div/div/div/a/span'
p1145
F9.965784284662087
sS'/html/body/div/div/div/div/div/div/div/div/form/div/div/div/div/input'
p1146
F9.965784284662087
sS'/html/body/div/div/div/div/div/div/div/div/div/div/div/div/div/div/fieldset/fieldset/ul/li/span/span'
p1147
F7.965784284662087
sS'/html/body/div/div/div/div/div/div/div/span/span'
p1148
F3.857259827883918
sS'/html/body/div/div/div/div/div/div/div/div/div/div/div/div/div/div/div/div/div/p/span'
p1149
F7.965784284662087
sS'/html/body/div/div/div/div/div/div/div/h5'
p1150
F9.965784284662087
sS'/html/body/div/div/div/div/div/div/div/div/div/div/div/div/div/div/div/i'
p1151
F7.965784284662087
sS'/html/body/div/div/div/div/div/div/div/h3'
p1152
F0.7345631039509016
sS'/html/body/div/div/div/ul/li'
p1153
F2.380821783940931
sS'/html/body/div/div/div/div/div/div/div/h1'
p1154
F8.380821783940931
sS'/html/body/div/div/div/div/div/div/div/div/div/div/div/div/div/div/div/a'
p1155
F3.197599959885161
sS'/html/body/div/div/div/div/div/div/div/div/div/div/div/form/div/ul/li/label/span'
p1156
F1.7710274302398394
sS'/html/body/div/div/div/div/div/div/div/form/fieldset/div/div/span/span'
p1157
F6.380821783940931
sS'/html/body/div/div/div/div/div/table/tr/td/p'
p1158
F9.965784284662087
sS'/html/body/div/div/div/div/div/div/span/span/span'
p1159
F5.321928094887363
sS'/html/body/div/div/div/div/div/div/div/div/div/div/div/div/ul/li/span'
p1160
F1.8211260418302047
sS'/html/body/div/div/div/div/div/div/div/div/span/span/span'
p1161
F1.332789087519129
sS'/html/body/div/div/div/div/div/a/div/div'
p1162
F9.965784284662087
sS'/html/body/div/div/div/div/div/div/div/div/div/ul/li/div/br'
p1163
F2.0
sS'/html/body/div/div/div/div/div/div/div/div/div/div/div/span/span/span'
p1164
F1.214240225572989
sS'/html/body/div/div/div/div/div/div/div/div/div/table/tr/td/div/div/img'
p1165
F1.894321922105463
sS'/html/body/div/div/div/div/div/div/form/fieldset/div/div/div/div/div/img'
p1166
F1.7908586021614084
sS'/html/body/div/div/div/div/div/div/dl/dt/img'
p1167
F0.2670796178917426
sS'/html/body/div/div/div/div/div/div/a/div'
p1168
F9.965784284662087
sS'/html/body/div/div/div/div/div/div/div/div/div/div/div/div/div/div/ul/li/span/a'
p1169
F3.279283757478869
sS'/html/body/div/div/div/div/div/div/div/div/a/div/div/div/img'
p1170
F6.965784284662088
sS'/html/body/div/div/div/div/div/div/div/div/div/form/ul/li/div/div/div/input'
p1171
F6.965784284662088
sS'/html/body/div/div/div/div/div/div/div/form/label'
p1172
F7.158429362604482
sS'/html/body/div/div/div/div/div/div/div/div/div'
p1173
F0.08467032398699051
sS'/html/body/div/div/div/div/div/div/ul/li/a/div'
p1174
F6.795859283219775
sS'/html/body/div/div/div/div/div/div/div/div/div/div/form/fieldset/label/span'
p1175
F7.158429362604482
sS'/html/body/div/div/div/div/div/div/div/div/div/div/div/div/div/label'
p1176
F2.9213901653036336
sS'/html/body/div/div/div/div/div/div/div/div/div/div/div/div/form/fieldset/button'
p1177
F1.6943212567577126
sS'/html/body/div/div/div/div/div/div/div/dl/dd/div/div/div/div/div/div'
p1178
F1.3364276645824773
sS'/html/body/div/div/div/div/div/dd/div/div/div/div/div/img'
p1179
F3.1713684183119812
sS'/html/body/div/div/div/div/div/div/div/div/div/div/div/div/div/span'
p1180
F0.2951280355436472
sS'/html/body/div/div/div/div/div/div/div/div/div/div/form/div/div/div/div/div/span'
p1181
F1.7661119398257226
sS'/html/body/div/div/div/script'
p1182
F3.0469210473874924
sS'/html/body/div/div/div/div/div/div/div/div/div/form/ul/li/span'
p1183
F6.965784284662088
sS'/html/body/div/div/div/div/div/div/ul/li/a/div/div/div/div/img'
p1184
F9.965784284662087
sS'/html/body/div/div/div/div/div/div/div/div/div/div/div/div/div/div/div/div/div/div/div/div/div/div/div/img'
p1185
F7.380821783940932
sS'/html/body/div/div/div/div/div/div/h1/div/span'
p1186
F1.894321922105463
sS'/html/body/div/div/div/div/div/div/div/div/script'
p1187
F7.380821783940932
sS'/html/body/div/div/div/div/div/div/div/div/div/div/div/div/p/strong'
p1188
F2.145605322246899
sS'/html/body/div/div/div/div/div/div/div/div/address/div/div/div/span/span'
p1189
F2.107803289534515
sS'/html/body/div/div/div/div/div/div/div/div/span/strong'
p1190
F9.965784284662087
sS'/html/body/div/div/div/div/div/div/div/div/div/div/div/div/ul/li/a'
p1191
F8.965784284662087
sS'/html/body/div/div/div/div/div/div/div/div/div/div/div/div/div/div/div/div/label/input'
p1192
F6.058893689053569
sS'/html/body/div/div/div/div/div/div/div/div/div/dl/dd/p/a'
p1193
F8.380821783940931
sS'/html/body/div/div/div/div/div/a/div/div/div/div/div/div'
p1194
F9.965784284662087
sS'/html/body/div/div/div/div/div/div/div/div/div/div/ul/li/span'
p1195
F9.965784284662087
sS'/html/body/div/div/div/span/span'
p1196
F1.2933589426905916
sS'/html/body/div/div/div/div/div/div/div/div/div/div/div/div/ul/li/div/div'
p1197
F9.965784284662087
sS'/html/body/div/div/div/div/div/div/div/div/div/div/div/div/div/div/div/map/area'
p1198
F9.965784284662087
sS'/html/body/div/div/div/div/div/div/div/div/div/form/div/div'
p1199
F5.795859283219775
sS'/html/body/div/div/div/a'
p1200
F9.965784284662087
sS'/html/body/div/div/div/div/div/div/div/dl/dd/div/div/div/div/label/input'
p1201
F1.7710274302398394
sS'/html/body/div/div/div/div/div/div/dl/dd/div/div/div/div/div'
p1202
F1.8996950942043145
sS'/html/body/div/div/div/p'
p1203
F8.965784284662087
sS'/html/head/meta'
p1204
F0.0
sS'/html/body/div/div/div/div/div/div/div/div/div/div/div/div/div/style'
p1205
F9.965784284662087
sS'/html/body/div/div/div/div/div/div/div/dl/dd/div/div/div/div/div/form/input'
p1206
F1.3364276645824773
sS'/html/body/div/div/div/div/div/ul/li/div/div/div/div/div/div'
p1207
F4.158429362604483
sS'/html/body/div/div/div/div/div/div/div/div/div/div/form/div/input'
p1208
F1.8730271437422346
sS'/html/body/div/div/div/div/div/div/div/div/address/div/div/div/div/div'
p1209
F2.077041035763828
sS'/html/body/div/div/div/div/div/div/div/ul/li/span/a'
p1210
F8.965784284662087
sS'/html/body/div/div/div/div/div/div/div/div/a/div/div/a/span'
p1211
F9.965784284662087
sS'/html/body/div/div/div/div/div/div/div/div/div/div/div/div/div/div/div/form/div/ul/li/label'
p1212
F6.058893689053569
sS'/html/body/div/div/div/div/div/div/div/div/div/div/div/div/span'
p1213
F0.20922796213800016
sS'/html/body/div/div/div/div/div/div/div/div/div/div/span/span/span'
p1214
F4.756330919033137
sS'/html/body/div/div/div/div/div/div/div/div/div/div/div/div/div/div/div/div/div/div/span/img'
p1215
F2.698997743967186
sS'/html/body/div/div/div/div/div/div/div/div/div/div/div/div/div/div/div/p/span/img'
p1216
F9.965784284662087
sS'/html/body/div/div/div/div/div/div/div/div/div/div/fieldset/ul/div/li/input'
p1217
F7.965784284662087
sS'/html/body/div/div/div/div/div/div/div/div/div/div/a/span/span/span'
p1218
F1.7273795453370082
sS'/html/body/div/div/div/div/div/div/div/div/div/div/div/div/ul/li/ul/li/span/img'
p1219
F1.9105018491608974
sS'/html/body/div/div/div/div/div/div/form/fieldset/div/div/span/div/div/div'
p1220
F1.7661119398257226
sS'/html/body/div/div/div/div/div/div/div/div/form/div/div/div'
p1221
F7.158429362604482
sS'/html/body/div/div/div/div/div/div/div/div/div/div/div/div/div/div/div/ul/li/img'
p1222
F3.107803289534515
sS'/html/body/div/div/div/div/div/div/div/div/span'
p1223
F0.020340448284175576
sS'/html/body/div/div/div/div/div/div/div/div/div/div/div/div/div/form/input'
p1224
F5.50635266602479
sS'/html/body/div/div/div/div/div/div/div/div/div/ul/li/span/span/span'
p1225
F8.380821783940931
sS'/html/body/div/div/div/div/div/div/div/div/div/div/div/div/div/div/div/div/a/div/div/input'
p1226
F7.965784284662087
sS'/html/body/div/div/div/div/div/div/div/div/div/div/div/div/div/div/span/span'
p1227
F1.965784284662087
sS'/html/body/div/div/div/div/div/dd/div/div/div/div/div'
p1228
F2.766111939825723
sS'/html/body/div/div/div/div/div/div/div/div/div/span/img'
p1229
F0.6734626518600482
sS'/html/body/div/div/div/div/div/div/dl/h2'
p1230
F1.8996950942043145
sS'/html/body/div/div/div/div/div/div/ul/li/div'
p1231
F6.965784284662088
sS'/html/body/div/div/div/div/div/div/div/div/div/div/div/dl/dd/br'
p1232
F5.878321443411747
sS'/html/body/div/div/div/div/div/div/div/div/div/table/tr/td/div/a/span/div/img'
p1233
F1.894321922105463
sS'/html/body/div/div/div/div/div/div/div/div/div/div/div/div/div/div/div/div/div/div/a/div/b'
p1234
F3.590744853315162
sS'/html/body/div/div/div/div/div/div/div/div/address/div/div/div/div/div/span/script'
p1235
F4.321928094887363
sS'/html/body/div/div/div/div/div/div/div/dl/dd/div/span/span'
p1236
F1.894321922105463
sS'/html/body/div/div/div/div/div/div/div/div/div/div/div/form/div/input'
p1237
F1.7710274302398394
sS'/html/body/div/div/div/div/div/div/div/div/div/div/div/div/div/div/div/form/fieldset/div/textarea'
p1238
F6.058893689053569
sS'/html/body/div/div/div/div/div/div/div/ul/li/div/div/div/a'
p1239
F6.50635266602479
sS'/html/body/div/div/div/div/div/div/div/div/div/div/div/div/div/h3/span'
p1240
F6.058893689053569
sS'/html/body/div/div/div/div/div/div/div/div/div/form/fieldset/div/span'
p1241
F9.965784284662087
sS'/html/body/div/div/div/div/div/div/div/div/form/fieldset/div/b'
p1242
F6.265344566520995
sS'/html/body/div/div/div/div/div/div/div/div/dl/dd'
p1243
F1.926865295369785
sS'/html/body/div/div/div/div/div/div/table/tr/td/div/a'
p1244
F6.643856189774725
sS'/html/body/header/div/div/form/input'
p1245
F9.965784284662087
sS'/html/body/div/div/div/div/div/div/div/div/div/div/div/div/div/div/div/map'
p1246
F8.965784284662087
sS'/html/body/div/div/div/div/div/div/div/div/div/ul/li/a/img'
p1247
F6.643856189774725
sS'/html/body/div/div/div/div/div/div/div/div/dl/dt'
p1248
F1.8783214434117477
sS'/html/body/div/div/div/div/div/ul/li/div/script'
p1249
F2.4900508536956893
sS'/html/body/div/div/div/div/div/div/a/div/div/div/div/div/span'
p1250
F9.965784284662087
sS'/html/body/div/div/div/div/div/div/div/div/div/div/div/div/div/div/div/form/input'
p1251
F6.058893689053569
sS'/html/body/div/div/div/div/ul/li/div/div/ul/li/a'
p1252
F8.380821783940931
sS'/html/body/div/div/div/div/div/div/div/ul/li/div/div/span'
p1253
F1.894321922105463
sS'/html/body/div/div/div/div/div/div/h1/span'
p1254
F1.857259827883918
sS'/html/body/div/div/div/div/div/div/div/div/div/div/div/div/div/div/dt'
p1255
F2.0954195650786827
sS'/html/body/div/div/div/div/div/div/div/div/div/div/div/div/div/div/form/div/div/div/div/div/em'
p1256
F6.058893689053569
sS'/html/body/div/div/div/div/div/div/div/div/div/dl/dd/div/span/span'
p1257
F9.965784284662087
sS'/html/body/div/div/div/div/div/form/fieldset/div/label/span'
p1258
F7.158429362604482
sS'/html/body/div/div/div/div/div/div/div/div/form/div'
p1259
F7.158429362604482
sS'/html/body/div/div/div/div/div/div/div/div/div/div/div/div/div/div/div/div/div/div/div/ul'
p1260
F8.965784284662087
sS'/html/body/div/div/div/div/div/div/a/div/img'
p1261
F8.965784284662087
sS'/html/body/div/div/div/div/div/div/div/div/div/div/div/div/br'
p1262
F7.380821783940932
sS'/html/body/div/div/div/div/div/div/div/div/div/div/ul/li/div/strong'
p1263
F4.442222328605075
sS'/html/body/div/div/div/div/div/div/ul/li/div/span/span/span/span'
p1264
F3.2515387669959646
sS'/html/body/div/div/div/div/ol/li'
p1265
F9.965784284662087
sS'/html/body/div/div/div/div/div/div/div/div/div/span/span'
p1266
F0.8703872618695306
sS'/html/body/div/div/div/div/ul/li/div/a/div/p/span'
p1267
F5.442222328605075
sS'/html/body/div/div/nav/div/a'
p1268
F9.965784284662087
sS'/html/body/div/div/div/div/div/div/div/div/p/a'
p1269
F6.795859283219775
sS'/html/body/div/div/div/div/div/div/div/dl/dd/div/div/div/div/div/span/input'
p1270
F1.7710274302398394
sS'/html/body/div/div/div/div/div/div/div/div/div/div/div/div/div/form/div/div/div/div/div/em'
p1271
F8.965784284662087
sS'/html/body/div/div/div/div/div/div/div/div/div/div/div/div/div/form/fieldset/div/textarea'
p1272
F8.965784284662087
sS'/html/body/div/div/div/div/div/div/div/div/div/div/div/div/div/form/fieldset/button'
p1273
F8.965784284662087
sS'/html/body/div/div/div/div/div/div/dl/dd/div/div/div/span/div/span'
p1274
F2.217591435072627
sS'/html/body/div/div/div/div/div/div/div/div/div/div/div/form/div/label/input'
p1275
F8.965784284662087
sS'/html/body/div/div/div/div/div/div/div/div/div/div/div/ul/li/span/a'
p1276
F7.965784284662087
sS'/html/body/div/div/div/div/div/div/div/div/div/div/div/div/div/h3/div/span/span/script'
p1277
F8.965784284662087
sS'/html/body/div/div/div/div/div/div/div/div/div/form/div/div/div/select/option'
p1278
F7.158429362604482
sS'/html/body/div/div/div/div/div/div/div/dl/dd/div/div/div/div/div/div/div/img'
p1279
F1.3364276645824773
sS'/html/body/div/div/div/div/div/div/div/div/div/div/div/div/div/div/div/div/div/ul/div/a'
p1280
F4.795859283219775
sS'/html/body/div/div/div/div/div/div/div/div/div/div/div/div/form/div/div'
p1281
F9.965784284662087
sS'/html/body/div/div/div/div/div/div/div/div/div/div/div/div/div/div/form/div/ul/li/span/input'
p1282
F8.965784284662087
sS'/html/body/div/div/div/div/div/div/div/div/div/div/div/form/div/div/div/div/div/span'
p1283
F9.965784284662087
sS'/html/body/div/div/div/div/div/dd/div/div/div/div/div/div/div/div/div/div'
p1284
F2.766111939825723
sS'/html/body/div/div/div/div/div/div/div/div/div/div/div/div/div/br'
p1285
F3.0350469470992008
sS'/html/body/div/div/div/div/div/div/div/form/div/input'
p1286
F6.643856189774725
sS'/html/body/div/div/div/div/div/div/div/div/div/div/div/form/div/div/span/img'
p1287
F8.965784284662087
sS'/html/body/div/div/div/div/div/div/form/fieldset/label/span'
p1288
F7.158429362604482
sS'/html/body/div/div/div/div/div/div/div/div/span/img'
p1289
F2.5311560570253624
sS'/html/body/div/div/div/div/div/div/div/div/div/form/div/div/div'
p1290
F1.857259827883918
sS'/html/body/div/div/div/div/div/fieldset/div/div/a/b'
p1291
F7.643856189774724
sS'/html/body/div/div/div/div/div/div/div/dl/dt/a'
p1292
F7.158429362604482
sS'/html/body/div/div/div/div/div/div/div/div/div/div/div/div/div/div/dd/div/b'
p1293
F2.0954195650786827
sS'/html/body/div/div/div/div/div/div/div/div/div/div/div/div/div/span/span/script'
p1294
F9.965784284662087
sS'/html/body/div/h2'
p1295
F9.965784284662087
sS'/html/body/div/h1'
p1296
F9.965784284662087
sS'/html/body/div/div/div/div/div/div/div/div/div/div/ul/div/li/div/div/div/div/div/a'
p1297
F1.894321922105463
sS'/html/body/div/div/div/div/div/div/div/div/div/div/div/div/div/div/div/div/div/div/div/div/div/a'
p1298
F6.380821783940931
sS'/html/body/div/div/div/div/div/div/div/div/div/div/div/dl/dd/div/input'
p1299
F6.965784284662088
sS'/html/body/div/div/div/div/div/div/form/fieldset/div/div/div/span'
p1300
F1.7908586021614084
sS'/html/body/div/div/div/div/div/div/div/dl/dt/img'
p1301
F2.662003536484984
sS'/html/body/div/div/div/div/div/div/form/fieldset/div/div/div/div/span/span/span'
p1302
F1.7908586021614084
sS'/html/body/div/div/div/div/div/table/tr/td/ul/li/b'
p1303
F9.965784284662087
sS'/html/body/div/div/div/div/div/table/tr/td/ul/li/a'
p1304
F9.965784284662087
sS'/html/body/div/div/div/div/div/div/div/div/div/div/div/div/span/div'
p1305
F6.50635266602479
sS'/html/body/div/div/div/div/div/div/div/div/div/div/div/span'
p1306
F0.11091590140185055
sS'/html/body/div/div/div/div/table/tr/td/h3'
p1307
F8.965784284662087
sS'/html/body/div/div/div/div/div/div/div/div/div/form/div/div/span/span'
p1308
F6.965784284662088
sS'/html/body/div/div/div/div/div/div/ul/li/a/img'
p1309
F6.158429362604484
sS'/html/body/div/div/div/div/div/div/dl/dd/div/div/div/div/div/div/div/div/div'
p1310
F1.8996950942043145
sS'/html/body/div/div/div/div/div/div/div/div/div/div/div/div/div/div/fieldset/fieldset/span'
p1311
F7.965784284662087
sS'/html/body/div/div/div/div/div/div/div/div/div/ul/li/a/dl/dd/span'
p1312
F6.265344566520995
sS'/html/body/div/div/div/div/div/div/div/div/ul'
p1313
F7.965784284662087
sS'/html/body/div/div/div/div/div/div/strong'
p1314
F7.965784284662087
sS'/html/body/div/div/div/div/div/div/form/div/div/label/input'
p1315
F8.380821783940931
sS'/html/body/div/div/div/div/div/ul/li/a/span/div'
p1316
F3.6989977439671855
sS'/html/body/div/div/div/div/div/div/div/div/div/div/div/div/div/div/div/div/div/div/div/img'
p1317
F5.442222328605075
sS'/html/body/div/div/div/div/link'
p1318
F8.965784284662087
sS'/html/body/div/div/div/div/div/div/div/div/div/div/div/div/div/ul/li/div/div/div'
p1319
F9.965784284662087
sS'/html/body/div/div/div/div/div/ul/a/li/div/div/ul/li'
p1320
F9.965784284662087
sS'/html/body/div/div/div/div/div/div/div/div/ul/span'
p1321
F6.643856189774725
sS'/html/body/div/div/div/div/div/div/dl/dd/div/div/div/div/div/span/span'
p1322
F1.8996950942043145
sS'/html/body/div/div/div/div/div/div/div/div/address/div/div/div/span/span/span/span'
p1323
F7.643856189774724
sS'/html/body/div/div/div/div/div/div/div/div/div/div/div/dd/div/div/div/div/div/div/div/div'
p1324
F8.380821783940931
sS'/html/body/div/div/div/div/div/div/form/div/input'
p1325
F7.158429362604482
sS'/html/body/div/div/div/div/div/div/div/div/div/form/div/div/input'
p1326
F6.965784284662088
sS'/html/body/div/div/div/div/div/div/div/div/div/form/div/div/div/input'
p1327
F7.158429362604482
sS'/html/body/div/div/div/div/div/div/div/div/ul/li/a/span'
p1328
F2.643856189774725
sS'/html/body/div/div/div/div/div/div/em'
p1329
F5.011587974275212
sS'/html/body/div/div/div/div/div/div/div/div/div/div/a/span'
p1330
F8.380821783940931
sS'/html/body/div/div/div/div/p'
p1331
F0.6016496296540353
sS'/html/body/div/div/div/div/div/div/a/div/div/div/div/div'
p1332
F9.965784284662087
sS'/html/body/div/div/div/div/div/div/div/div/div/form/div/div/div/div/input'
p1333
F1.857259827883918
sS'/html/body/div/div/div/div/div/div/div/div/div/form/ul/li/div/div/input'
p1334
F6.965784284662088
sS'/html/body/div/div/div/div/div/br'
p1335
F6.965784284662088
sS'/html/body/div/div/div/div/div/table/tr/td/p/a/br'
p1336
F9.965784284662087
sS'/html/body/div/div/div/div/div/div/div/div/div/div/div/div/div/span/input'
p1337
F5.965784284662088
sS'/html/body/div/div/div/div/div/div/div/div/div/div/form/fieldset/legend'
p1338
F3.279283757478869
sS'/html/body/div/div/div/div/div/div/div/form/fieldset/div/div/span/span/span'
p1339
F6.380821783940931
sS'/html/body/div/div/div/div/div/div/div/div/div/div/div/div/div/ul/div'
p1340
F8.965784284662087
sS'/html/body/div/div/div/div/div/div/div/div/dl/dd/div/a/img'
p1341
F9.965784284662087
sS'/html/body/div/div/div/div/div/div/div/div/div/div/div/div/div/div/form/div/span'
p1342
F6.058893689053569
sS'/html/body/div/div/div/div/div/div/div/div/address/div/div'
p1343
F3.7958592832197753
sS'/html/body/div/div/div/div/div/dd/div/div/div/div/img'
p1344
F2.766111939825723
sS'/html/body/div/div/div/div/h1/a'
p1345
F6.965784284662088
sS'/html/body/div/div/span/b'
p1346
F0.0028882793248263526
sS'/html/body/div/div/div/div/div/div/div/div/div/div/div/ul/li/div/div/span'
p1347
F8.965784284662087
sS'/html/body/div/div/div/div/div/div/form/fieldset/div/div/label/script'
p1348
F7.158429362604482
sS'/html/body/div/div/div/div/div/div/div/div/ul/li/div/div/img'
p1349
F2.766111939825723
sS'/html/body/div/div/div/div/h2'
p1350
F0.584241333477502
sS'/html/body/div/div/div/div/h1'
p1351
F8.380821783940931
sS'/html/body/div/div/div/div/div/div/div/div/div/ul/li/a/span'
p1352
F5.795859283219775
sS'/html/body/div/div/div/div/div/div/div/div/div/div/ul/li/div'
p1353
F5.107803289534515
sS'/html/body/div/div/div/div/div/div/div/div/div/div/script'
p1354
F5.380821783940931
sS'/html/body/div/div/div/div/div/div/div/div/div/ul/li/div/img'
p1355
F8.965784284662087
sS'/html/body/div/div/div/div/p/strong'
p1356
F0.6060347243397574
sS'/html/body/div/div/div/div/div/div/div/div/div/div/div/form/ul'
p1357
F9.965784284662087
sS'/html/body/div/div/div/div/div/ul/li/div/div/div/div/div/div/img'
p1358
F3.6989977439671855
sS'/html/body/div/div/div/div/div/div/div/div/div/form/div'
p1359
F4.965784284662088
sS'/html/body/div/div/div/div/div/div/div/select/option'
p1360
F8.965784284662087
sS'/html/body/div/div/div/div/div/div/div/div/div/fieldset/div/input'
p1361
F7.965784284662087
sS'/html/body/div/div/div/div/div/div/div/div/div/div/div/h4'
p1362
F5.965784284662088
sS'/html/body/div/div/div/div/div/div/div/div/form/div/div/input'
p1363
F8.965784284662087
sS'/html/body/div/div/div/div/div/div/div/div/div/div/div/h2'
p1364
F1.7514651638613215
sS'/html/body/div/div/div/div/div/div/div/div/div/div/div/ul/li/div/a/div/img'
p1365
F8.965784284662087
sS'/html/body/main/div/ol/li'
p1366
F9.965784284662087
sS'/html/body/div/div/div/div/div/div/ul/li/br'
p1367
F6.795859283219775
sS'/html/body/div/div/div/div/div/div/form/input'
p1368
F8.380821783940931
sS'/html/body/div/div/div/div/div/div/div/div/div/div/div/span/span/span/span'
p1369
F5.965784284662088
sS'/html/body/div/div/div/div/div/div/div/div/div/div/ul/li/div/a'
p1370
F4.442222328605075
sS'/html/body/div/div/div/div/div/ul/script'
p1371
F3.0469210473874924
sS'/html/body/div/div/div/div/div/div/div/div/div/div/div/div/div/span/span/a'
p1372
F9.965784284662087
sS'/html/body/div/div/div/div/div/div/div/div/div/li/ul'
p1373
F6.058893689053569
sS'/html/body/div/div/div/div/div/div/div/div/div/div/div/form/div/label'
p1374
F9.965784284662087
sS'/html/body/div/div/div/div/div/div/div/div/div/div/form/div/div/div/div/div/div/img'
p1375
F1.7661119398257226
sS'/html/body/main/div/div/section/ul/li/a'
p1376
F9.965784284662087
sS'/html/body/div/div/div/div/div/div/div/div/div/div/div/div/div/ul/li/span'
p1377
F1.6438561897747248
sS'/html/body/div/div/div/div/div/dd/div/div/div/div/div/span/label'
p1378
F2.766111939825723
sS'/html/body/div/div/div/div/div/div/div/div/div/div/div/div/form/fieldset/span/script'
p1379
F4.442222328605075
sS'/html/body/div/div/div/div/div/div/div/div/form/fieldset/span'
p1380
F5.717856771218502
sS'/html/body/div/div/div/div/div/div/div/div/div/ul/li/div/div/a/img'
p1381
F9.965784284662087
sS'/html/body/div/div/div/div/div/fieldset/div/div/div/div/div/div/div/div/div/span'
p1382
F7.643856189774724
sS'/html/body/div/div/div/div/div/div/div/div/div/div/div/div/div/div/div/div/span/span'
p1383
F1.6896598793878495
sS'/html/body/div/div/nav/div/span/a'
p1384
F9.965784284662087
sS'/html/body/div/div/div/div/ul/li/div/div/div/div/div/div'
p1385
F0.7612131404128833
sS'/html/body/footer/div/img'
p1386
F9.965784284662087
sS'/html/body/div/div/div/div/img'
p1387
F2.662003536484984
sS'/html/body/div/div/div/div/div/dl/dd/form/fieldset/input'
p1388
F5.878321443411747
sS'/html/body/div/div/div/div/div/div/div/div/div/div/div/div/div/label/span'
p1389
F6.058893689053569
sS'/html/body/div/div/div/div/div/div/div/ul/li/div/a/div/img'
p1390
F3.0954195650786827
sS'/html/body/div/div/div/div/div/div/div/div/div/div/div/dl/dd/dl/dt/br'
p1391
F9.965784284662087
sS'/html/body/div/div/div/div/div/div/div/div/dl/dd/div/div/div/b/span'
p1392
F9.965784284662087
sS'/html/body/div/div/div/div/div/div/div/div/div/div/form/fieldset/input'
p1393
F7.158429362604482
sS'/html/body/div/div/div/div/div/div/div/div/form/div/dl/dd/div/label'
p1394
F9.965784284662087
sS'/html/body/div/ul/li/a'
p1395
F9.965784284662087
sS'/html/body/div/div/div/div/div/div/div/div/div/div/div/div/div/div/fieldset/fieldset/ul/div/li/span/span'
p1396
F7.965784284662087
sS'/html/body/div/div/div/div/div/div/dl/dd/div/div/div/div/div/span/label'
p1397
F1.8996950942043145
sS'/html/body/div/div/div/div/div/div/div/div/div/br'
p1398
F2.63486740654747
sS'/html/body/div/div/div/div/div/div/div/div/div/div/div/div/div/div/p/span'
p1399
F2.465938397578882
sS'/html/body/div/div/div/div/div/div/div/form/fieldset/div/input'
p1400
F6.380821783940931
sS'/html/body/div/div/div/div/div/div/div/div/div/div/div/div/div/form/div/div/div/div/span'
p1401
F8.965784284662087
sS'/html/body/div/div/div/div/div/div/div/div/div/div/ul/li/div/a/strong'
p1402
F5.265344566520995
sS'/html/body/div/div/div/div/div/div/div/div/div/table/tr/td/div/div/span'
p1403
F1.894321922105463
sS'/html/body/div/div/div/div/div/div/div/div/div/div/div/a/div/div/div'
p1404
F8.965784284662087
sS'/html/body/div/div/div/div/div/div/div/div/div/div/div/div/div/div/form/div/div/div/div/input'
p1405
F6.058893689053569
sS'/html/body/footer/div/div'
p1406
F9.965784284662087
sS'/html/body/div/div/div/div/div/div/div/dl/h2'
p1407
F1.3364276645824773
sS'/html/body/div/div/div/div/div/div/div/div/ul/li/div/div'
p1408
F1.0291463456595165
sS'/html/body/div/div/div/div/div/div/div/div/div/div/div/form/fieldset/span/input'
p1409
F6.965784284662088
sS'/html/body/div/div/div/div/div/div/div/div/div/div/div/div/div/div/div/div/div/ul/li/span/a'
p1410
F2.7858751946471525
sS'/html/body/div/div/div/div/div/fieldset/div/div/div/div/span/span/span'
p1411
F7.643856189774724
sS'/html/body/div/div/div/div/div/div/div/div/div/div/div/div/div/p'
p1412
F7.158429362604482
sS'/html/body/div/div/div/div/div/div/div/div/div/div/div/div/div/b'
p1413
F1.6620035364849841
sS'/html/body/div/div/div/div/div/div/a/span'
p1414
F7.965784284662087
sS'/html/body/div/div/div/div/div/div/div/div/div/div/div/div/div/form/ul'
p1415
F8.965784284662087
sS'/html/body/div/div/div/div/div/div/div/div/div/div/div/form/input'
p1416
F1.7369655941662063
sS'/html/body/div/div/div/div/div/div/div/div/div/div/div/div/div/div/div/div/div/div/div/div/ul/li/span/img'
p1417
F6.795859283219775
sS'/html/body/div/div/div/div/div/div/div/div/div/span/a'
p1418
F4.380821783940931
sS'/html/body/div/div/div/div/div/dd/div/div/div/div/div/div/div/div'
p1419
F2.766111939825723
sS'/html/body/div/div/div/div/div/div/br'
p1420
F9.965784284662087
sS'/html/body/div/div/div/div/div/div/table/tr/td/span'
p1421
F7.965784284662087
sS'/html/body/div/div/div/div/div/div/div/div/div/div/div/div/form/fieldset/div'
p1422
F1.6943212567577126
sS'/html/body/footer/div/div/div/span'
p1423
F9.965784284662087
sS'/html/body/div/div/div/div/div/div/div/div/div/div/span/div'
p1424
F8.380821783940931
sS'/html/body/div/div/div/div/div/div/div/div/div/div/div/div/div/div'
p1425
F0.22938235334379692
sS'/html/body/div/div/div/div/div/div/div/div/div/div/div/div/div/div/div/ul/li/div/div/span/img'
p1426
F9.965784284662087
sS'/html/body/div/div/div/div/div/table/tr/td/p/a/img'
p1427
F9.965784284662087
sS'/html/body/div/div/div/div/div/dl/dd/p/b'
p1428
F5.878321443411747
sS'/html/body/div/div/div/div/div/ul/a/li/div/div/div'
p1429
F9.965784284662087
sS'/html/body/div/div/div/div/div/div/div/div/div/li/div/span'
p1430
F6.058893689053569
sS'/html/body/main/div/ol/li/a'
p1431
F9.965784284662087
sS'/html/body/div/div/div/div/div/div/div/a/img'
p1432
F6.265344566520995
sS'/html/body/div/div/div/div/div/div/div/div/div/div/div/div/div/form/div/div/div/div/span/img'
p1433
F8.965784284662087
sS'/html/body/div/div/div/div/div/div/div/div/div/div/form/input'
p1434
F0.8262329322632935
sS'/html/body/div/div/div/div/div/div/div/div/div/div/div/div/div/h3/div/span/span/a'
p1435
F8.965784284662087
sS'/html/body/div/div/div/div/div/div/div/form/fieldset/div/div/div/div/div/div/span'
p1436
F2.0350469470992008
sS'/html/body/div/div/div/div/div/div/div/div/div/ul/li/div/em'
p1437
F2.0
sS'/html/body/div/div/div/div/div/span/a/img'
p1438
F0.004334590263891124
sS'/html/body/div/div/div/div/div/div/div/div/div/div/ul/div/li'
p1439
F1.894321922105463
sS'/html/body/div/div/div/div/div/div/div/div/div/div/div/div/div/div/div/div/a/div/div'
p1440
F7.965784284662087
sS'/html/body/div/div/div/div/div/div/div/div/form/fieldset/div/div/div'
p1441
F9.965784284662087
sS'/html/body/div/div/div/div/div/div/div/div/div/div/div/div/div/div/div/div/div/div/div/div/span/span'
p1442
F6.058893689053569
sS'/html/body/div/div/div/div/div/div/div/div/div/div/div/div/div/div/br'
p1443
F7.380821783940932
sS'/html/body/div/div/div/div/div/div/div/div/div/div/div/div/ul/li/div/a'
p1444
F4.035046947099201
sS'/html/body/div/div/div/div/div/div/div/div/div/img'
p1445
F0.5500425163719966
sS'/html/body/div/div/div/div/div/div/div/div/p'
p1446
F1.7908586021614084
sS'/html/body/div/div/div/div/div/div/div/div/b'
p1447
F0.2636115992965393
sS'/html/body/div/div/div/div/div/div/form/fieldset/div/span/span/img'
p1448
F1.8624964762500653
sS'/html/body/div/div/div/div/div/div/div/div/div/form/div/div/div/a'
p1449
F1.965784284662087
sS'/html/body/div/div/div/div/div/div/div/div/div/div/div/form/div/ul/li/label/span/span'
p1450
F1.7710274302398394
sS'/html/body/div/div/div/div/div/div/div/div/div/table/tr/td/div/div'
p1451
F1.894321922105463
sS'/html/body/div/div/div/div/div/div/div/div/table/tr/td/div/span/img'
p1452
F1.7958592832197748
sS'/html/body/div/div/div/div/ul/li/div/div/div/div/a'
p1453
F5.442222328605075
sS'/html/body/div/div/div/div/div/div/div/div/div/ul/li/div'
p1454
F6.50635266602479
sS'/html/body/div/div/div/div/ul/li/span/a'
p1455
F5.158429362604483
sS'/html/body/div/div'
p1456
F0.0028882793248263526
sS'/html/body/div/div/div/div/div/div/div/div/div/div/div/div/div/div/div/span/div'
p1457
F8.965784284662087
sS'/html/body/div/div/div/div/div/div/form/div/span'
p1458
F7.965784284662087
sS'/html/body/div/div/div/div/div/div/div/div/div/div/div/div/div/div/div/img'
p1459
F4.442222328605075
sS'/html/body/div/div/div/div/div/form/label/input'
p1460
F9.965784284662087
sS'/html/body/div/div/div/div/div/div/div/div/div/div/div/div/div/div/div/div/div/table/tbody/tr/td/div/div'
p1461
F8.965784284662087
sS'/html/body/div/div/div/div/div/div/div/div/form/fieldset/div/span/span/span'
p1462
F7.380821783940932
sS'/html/body/div/div/div/div/div/div/div/div/div/ul/li/a'
p1463
F0.8185793597198581
sS'/html/body/div/div/div/div/div/div/div/div/div/ul/li/div/div/img'
p1464
F2.766111939825723
sS'/html/body/div/div/div/div/div/div/div/div/div/div/div/dd/div/div/div/div/div/div/div/img'
p1465
F8.380821783940931
sS'/html/body/div/div/div/div/div/div/div/a/div/div/div/div'
p1466
F7.965784284662087
sS'/html/body/div/div/fieldset/div/div/a/b'
p1467
F2.766111939825723
sS'/html/body/div/div/div/div/div/div/div/div/div/div/ul/li/a'
p1468
F5.50635266602479
sS'/html/body/div/div/div/div/div/div/div/div/div/div/div/div/div/div/div/div/a/div/div/span'
p1469
F7.965784284662087
sS'/html/body/div/div/div/div/div/div/div/div/div/div/div/div/div/div/fieldset/fieldset/ul/div/li/input'
p1470
F7.965784284662087
sS'/html/body/div/div/div/div/div/div/div/div/div/div/div/div/div/form/div/div/div/div/input'
p1471
F8.965784284662087
sS'/html/body/div/div/div/div/div/div/div/div/form/div/label'
p1472
F9.965784284662087
sS'/html/body/div/div/div/div/div/form/span/input'
p1473
F0.011587974275211823
sS'/html/body/div/div/div/div/div/div/div/div/div/div/div/div/span/div/a/img'
p1474
F8.380821783940931
sS'/html/body/div/div/div/div/div/div/div/div/div/ul/div/li/div/span'
p1475
F6.265344566520995
sS'/html/body/div/div/div/div/div/div/div/form/fieldset/div/div/span/div/div'
p1476
F9.965784284662087
sS'/html/body/div/a/img'
p1477
F9.965784284662087
sS'/html/body/div/div/div/div/div/div/div/div/dl/dd/a'
p1478
F7.158429362604482
sS'/html/body/div/div/div/div/div/div/div/div/div/div/div/div/div/span/img'
p1479
F1.0831412353002459
sS'/html/body/footer/div/div/span/a'
p1480
F9.965784284662087
sS'/html/body/div/div/div/div/div/div/div/div/div/div/div/div/div/div/div/form/ul/li/span/input'
p1481
F6.50635266602479
sS'/html/body/div/div/div/div/div/div/div/dl/dd/div/span'
p1482
F1.4819685073978306
sS'/html/body/noscript/img'
p1483
F0.3883554566263383
sS'/html/body/div/div/div/div/div/div/div/div/div/div/table/tbody/tr/td/div/div'
p1484
F3.4111954329844494
sS'/html/body/div/div/div/div/div/div/h1'
p1485
F3.7563309190331378
sS'/html/body/div/div/div/div/div/div/div/div/div/div/form/div/ul/li/span'
p1486
F2.265344566520995
sS'/html/body/div/div/div/div/div/div/div/div/div/div/div/div/div/div/div/div/div/table/tbody/tr/td/div/div/p'
p1487
F8.965784284662087
sS'/html/body/div/div/div/div/div/div/div/form/div/span/div'
p1488
F7.158429362604482
sS'/html/body/div/div/div/div/div/table/tr/td/ul/li/br'
p1489
F9.965784284662087
sS'/html/body/div/div/div/div/div/div/dl/dd/div/div/div/div/div/span/input'
p1490
F1.8996950942043145
sS'/html/body/div/div/div/div/div/div/div/div/table/tr/td/div/a/span'
p1491
F8.965784284662087
sS'/html/body/div/div/div/div/div/div/div/div/div/div/div/div/div/div/div/span/a'
p1492
F6.965784284662088
sS'/html/body/div/div/div/div/div/div/div/div/div/span/br'
p1493
F7.158429362604482
sS'/html/body/div/div/div/div/div/div/div/form/fieldset/div/div/span/input'
p1494
F7.643856189774724
sS'/html/body/div/div/div/div/div/div/div/div/div/ul/li/div/div/div/a/span/span'
p1495
F8.380821783940931
sS'/html/body/div/div/img'
p1496
F0.001443416869668845
sS'/html/body/div/div/div/div/div/div/div/div/div/ul/li/ul'
p1497
F1.7131188522118383
sS'/html/body/div/div/div/div/div/div/div/div/div/div/div/div/div/div/a/div/img'
p1498
F3.3510744405468786
sS'/html/body/div/div/div/div/div/div/div/div/table/tr/td/div/div/img'
p1499
F1.7858751946471525
sS'/html/body/div/div/div/div/div/div/div/div/div/form/fieldset/span'
p1500
F9.965784284662087
sS'/html/body/div/div/div/div/div/ul/li/b'
p1501
F8.965784284662087
sS'/html/body/div/div/div/div/div/div/div/div/div/div/div/a/div/div/span'
p1502
F9.965784284662087
sS'/html/body/div/div/div/div/div/div/div/div/div/div/form/div/div/div/div/input'
p1503
F1.7710274302398394
sS'/html/body/div/div/div/div/div/div/div/div/div/div/div/div/div/div/input'
p1504
F7.965784284662087
sS'/html/body/div/div/div/div/div/div/div/div/div/div/div/a/div'
p1505
F8.965784284662087
sS'/html/body/script'
p1506
F0.16326791954086411
sS'/html/body/div/div/div/div/div/div/div/div/div/div/form/div'
p1507
F2.15200309344505
sS'/html/body/div/div/div/div/div/form/button/div'
p1508
F0.011587974275211823
sS'/html/body/div/div/div/div/div/div/div/div/div/address/span/span/span'
p1509
F1.894321922105463
sS'/html/body/div/div/div/div/div/div/div/div/ul/li/div/div/div/div/a'
p1510
F6.265344566520995
sS'/html/body/div/div/div/div/div/div/div/form/fieldset/div/div/div/div'
p1511
F1.9885043611621704
sS'/html/body/div/div/div/div/div/div/div/div/div/div/div/div/div/div/form/div/ul/li/label'
p1512
F8.965784284662087
sS'/html/body/div/div/div/div/div/div/div/div/ul/div/li/a'
p1513
F9.965784284662087
sS'/html/body/div/div/div/div/div/div/ul/li/div/div/div/img'
p1514
F3.083141235300246
sS'/html/body/div/div/div/div/div/div/div/div/div/div/div/div/div/div/a/div'
p1515
F7.965784284662087
sS'/html/body/div/div/div/div/div/div/div/div/div/div/div/div/div/div/div/div/span/span/span'
p1516
F2.0174170530774096
sS'/html/body/div/div/div/div/div/div/div/div/div/div/div/div/div/div/div/div/div/div/div/div/span/a'
p1517
F3.2243172982609405
sS'/html/body/div/div/div/div/div/div/div/div/div/ul/li'
p1518
F6.965784284662088
sS'/html/body/div/div/div/div/div/div/div/div/ul/li/div/div/div/a/span/span'
p1519
F8.380821783940931
sS'/html/body/div/div/div/div/div/div/div/div/div/div/div/form/select/option'
p1520
F8.380821783940931
sS'/html/body/div/div/div/div/div/div/div/div/div/div/div/div/div/div/ul/li/span/img'
p1521
F3.237863830098888
sS'/html/body/div/div/div/div/div/div/div/div/div/form/fieldset/div/div/span/span/span'
p1522
F9.965784284662087
sS'/html/body/div/div/div/div/div/div/div/div/ul/div/li/div/em'
p1523
F9.965784284662087
sS'/html/body/div/div/div/div/div/div/div/a/div/div/div'
p1524
F7.965784284662087
sS'/html/body/div/div/div/div/div/div/div/div/div/div/div/div/div/div/div/h3'
p1525
F6.058893689053569
sS'/html/body/div/div/div/div/div/div/div/div/div/div/div/dd/div/div/div/div/div/div/img'
p1526
F8.380821783940931
sS'/html/body/div/div/div/div/div/ul/li/a/div'
p1527
F3.6989977439671855
sS'/html/body/div/div/div/div/div/p'
p1528
F2.932361283124637
sS'/html/body/div/div/div/div/div/ul/li/div/div/ul/li/a'
p1529
F8.965784284662087
sS'/html/body/div/div/div/div/div/div/div/div/div/div/div/div/div/div/p'
p1530
F1.7908586021614084
sS'/html/body/div/div/div/div/div/div/div/div/div/div/div/div/script'
p1531
F2.293358942690592
sS'/html/body/div/div/div/div/div/div/div/div/div/div/div/div/div/div/form/div/div/div/div/div/div/img'
p1532
F6.058893689053569
sS'/html/body/div/div/div/div/div/b'
p1533
F6.380821783940931
sS'/html/body/div/div/div/div/div/div/div/ul/span'
p1534
F6.50635266602479
sS'/html/body/div/div/div/div/div/a'
p1535
F6.643856189774725
sS'/html/body/div/div/div/div/div/ul/li/span/img'
p1536
F0.010134377133713133
sS'/html/body/div/div/div/div/div/div/div/div/div/div/div/div/div/form/div/div/div/div/div/div/img'
p1537
F8.965784284662087
sS'/html/body/div/div/div/div/div/div/div/div/div/div/div/div/div/ul'
p1538
F5.965784284662088
sS'/html/body/div/div/div/div/div/div/div/div/div/div/div/div/div/div/a'
p1539
F1.3584539709124765
sS'/html/body/div/div/div/div/div/div/div/div/div/div/div/div/div/div/div/div/div/div/div/span/img'
p1540
F2.766111939825723
sS'/html/body/div/div/div/div/div/div/div/div/div/div/div/div/div/div/div/div/div/div/div/div/img'
p1541
F5.210896782498619
sS'/html/body/div/div/div/div/div/div/div/dl/dd/div/div/div/div/div/div/span'
p1542
F1.7710274302398394
sS'/html/body/div/div/div/div/div/div/div/div/div/div/form/div/ul/li/label/span/span'
p1543
F1.894321922105463
sS'/html/body/div/div/div/div/div/div/div/p/a'
p1544
F9.965784284662087
sS'/html/body/div/ul/li/a/img'
p1545
F9.965784284662087
sS'/html/body/div/div/div/div/div/div/div/div/div/div/div/ul/li/div/i'
p1546
F6.643856189774725
s.