(dp0
S'/html/body/div/div/div/div/div/div/div/div/div/div/div/ol/li/ol/li/ul/li/span/div/div/div/div'
p1
F7.965784284662087
sS'/html/body/div/div/div/div/div/div/div/div/div/div/button/span/span/span/span'
p2
F4.717856771218502
sS'/html/body/div/div/div/div/div/div/div/div/div/div/ul/li/div/div/div/section/div/div/div/div/div'
p3
F5.50635266602479
sS'/html/body/div/div/div/div/div/div/div/div/div/div/div/button/span/span'
p4
F0.01449956969511517
sS'/html/body/div/div/div/div/div/div/div/div/div/div/div/span/button/span'
p5
F1.0
sS'/html/body/div/div/div/div/div/div/div/div/div/div/div/div/div/div/span/span/span/img'
p6
F8.965784284662087
sS'/html/body/div/div/div/div/div/div/div/div/div/p'
p7
F4.795859283219775
sS'/html/body/div/div/div/div/div/div/div/div/div/div/div/div/ul/li/a'
p8
F3.6082322800440036
sS'/html/body/div/div/div/div/div/div/div/div/div/div/h3'
p9
F0.01449956969511517
sS'/html/body/div/div/div/div/div/div/div/div/div/div/ul/li/div/table/tbody/tr/td/span/button'
p10
F3.6082322800440036
sS'/html/body/div/div/div/div/div/div/div/div/div/div/div/h1/span/span/span/a'
p11
F1.077041035763828
sS'/html/body/div/div/div/div/div/div/div/div/div/div/ul/li/div/div/div/div/div/wbr/wbr/wbr/br'
p12
F8.965784284662087
sS'/html/body/iframe'
p13
F4.265344566520995
sS'/html/body/div/div/div/div/div/div/div/div/div/div/ul/li/div/div/div/div/div/br'
p14
F2.77595972578207
sS'/html/body/div/div/div/div/div/div/div/div/div/div/div/div/div/div/div/p/span'
p15
F7.965784284662087
sS'/html/body/div/div/div/div/form/div/div/div/span'
p16
F8.965784284662087
sS'/html/body/div/div/div/div/div/div/div/div/div/div/ul/li/span'
p17
F4.965784284662088
sS'/html/body/div/div/div/div/div/div/div/div/div/span/button/span/span'
p18
F4.878321443411748
sS'/html/body/div/div/div/div/div/div/div/div/div/div/ul/li/div/div/div/div/div/div/div/ul/li/div/div/div/span/a/span/span/span/span'
p19
F2.1202942337177118
sS'/html/body/div/div/div/div/div/div/div/div/ul/li/div/form/span/input'
p20
F1.4900508536956893
sS'/html/body/div/div/div/div/div/div/div/div/div/div/div/div/div/div/h2'
p21
F8.965784284662087
sS'/html/body/div/div/div/p/span'
p22
F0.01449956969511517
sS'/html/body/div/div/div/div/div/div/div/div/div/div/ul/li/div/div/div/div/div/div/div/ul/li/div/div/div/h3/a'
p23
F2.0232697793228476
sS'/html/body/div/div/div/div/div/div/div/div/div/div/ul/li/a/span/span'
p24
F3.3510744405468786
sS'/html/body/div/div/div/div/div/div/div/div/div/div/div/div/ol/li/ol/li/div/div/div/div/h2/span'
p25
F8.965784284662087
sS'/html/body/div/div/div/div/div/div/div/div/div/div/div/div/span/span'
p26
F1.077041035763828
sS'/html/body/div/div/div/div/div/div/div/div/div/div/ul/li/div/div/div/div/div/div/a'
p27
F5.795859283219775
sS'/html/body/div/div/div/div/div/div/div/div/div/div/div/div/div/div/div/div/span/button'
p28
F7.965784284662087
sS'/html/body/div/div/div/img'
p29
F8.965784284662087
sS'/html/body/div/div/div/div/div/div/div/div/div/div/ul/li/div/div/div/div/div/ul/li/div/div/div/a/span/span/span/span/span'
p30
F4.795859283219775
sS'/html/body/div/div/div/div/div/div/div/div/div/div/div/script'
p31
F1.8783214434117477
sS'/html/body/div/div/div/a/span/img'
p32
F8.965784284662087
sS'/html/body/div/div/div/div/div/div/div/div/div/div/div/div/ol/li/ol/li/div/div/div/div/div/a/span'
p33
F8.965784284662087
sS'/html/body/div/div/div/div/div/div/div/div/div/div/div/div/h3/span/span'
p34
F7.380821783940932
sS'/html/body/div/div/div/div/div/div/div/div/div/div/ul/li/ul/li/div/div/div/a/span/span/span/span/span'
p35
F6.158429362604484
sS'/html/body/div/div/div/div/div/div/div/div/div/div/div/div/div/div/div/div/div/div/div/span/span/button/span'
p36
F8.965784284662087
sS'/html/body/div/div/div/div/form/div/div/div/div/div/input'
p37
F8.965784284662087
sS'/html/body/div/div/div/div/div/div/div/div/div/div/ul/li/ul/li/div/div/div/span/span'
p38
F8.965784284662087
sS'/html/body/div/div/div/div/div/div/div/div/div/div/div/div/ol/li/ol/li/div/div/div/div/ul/li/div/div/div/span/button/span'
p39
F8.965784284662087
sS'/html/head/meta'
p40
F0.0
sS'/html/body/div/div/div/div/form/div/div/div/div/div/label'
p41
F8.965784284662087
sS'/html/body/div/div/div/div/div/div/div/div/div/div/ul/li/ul/li/div/div/span/button/span/span'
p42
F5.50635266602479
sS'/html/body/div/div/div/div/div/div/div/div/div/div/div/ol/li/ol/li/ul/li/span/div/div/div/div/div/div/p/span'
p43
F7.965784284662087
sS'/html/body/div/div/div/div/div/div/div/div/div/div/ul/li/div/div/div/div/div/wbr/a'
p44
F6.380821783940931
sS'/html/body/div/div/div/div/div/div/div/div/h1/img'
p45
F8.965784284662087
sS'/html/body/div/div/div/div/div/div/div/div/div/div/ul/li/div/div/div/div/div/div/button/span/span'
p46
F1.9770995978899213
sS'/html/body/div/div/div/div/div/div/div/div/div/ul/li/span/div/h3/a/span/span'
p47
F2.1584293626044833
sS'/html/body/div/div/div/div/div/div/div/div/div/div/div/div/ul/li/a/span/span/span/button/ul/li/span'
p48
F2.5734668618833267
sS'/html/body/div/div/div/div/div/div/div/div/div/div/div/div/div/div/div/div/span/button/span/span'
p49
F7.965784284662087
sS'/html/body/div/div/div/div/div/div/div/div/div/div/div/div/div/ul/li/div/span'
p50
F1.6082322800440034
sS'/html/body/div/div/div/div/div/div/div/div/div/strong'
p51
F8.965784284662087
sS'/html/body/div/div/div/div/div/div/div/div/div/div/div/div/ol/li/ol/li/div/div/div/div/div/div/span/button/span/span'
p52
F8.965784284662087
sS'/html/body/div/div/div/button/span'
p53
F0.005782352594006179
sS'/html/body/div/div/div/div/div/div/div/div/div/div/ul/li/div/div/div/div/div/ul/li/div/div/h3/span'
p54
F8.965784284662087
sS'/html/body/div/div/div/div/div/div/div/div/div/div/ul/li/div/div'
p55
F1.7958592832197748
sS'/html/body/div/div/div/div/div/div/div/div/div/div/ul/li/div/div/div/div/div/div/br'
p56
F5.380821783940931
sS'/html/body/div/div/div/div/div/div/div/div/div/div/div/p/span'
p57
F1.0
sS'/html/body/div/div/div/div/div/div/div/div/div/div/ul/li/div/table/tbody/tr/td/span/span/button/span'
p58
F3.6082322800440036
sS'/html/body/div/div/div/div/div/div/div/div/div/div/div/div/span'
p59
F0.01449956969511517
sS'/html/body/div/div/div/div/div/div/div/div/div/div/div/div/ol/li/ol/li/div/div/div/div/div/div/a/span'
p60
F8.965784284662087
sS'/html/body/div/div/div/div/div/div/div/div/div/div/span/span/span'
p61
F1.0232697793228474
sS'/html/body/div/div/div/nav/nav/div/button'
p62
F8.965784284662087
sS'/html/head/script'
p63
F0.0028882793248263526
sS'/html/body/div/div/div/div/div/form/div/input'
p64
F0.01449956969511517
sS'/html/body/div/div/div/div/div/div/div/div/div/div/div/div/ol/li/ol/li/div/div/div/div/ul/li/div/div/div/h3/a'
p65
F8.965784284662087
sS'/html/body/div/div/div/div/div/div/div/div/div/div/div/div/a/span/span/span/span'
p66
F7.965784284662087
sS'/html/body/div/div/div/div/div/div/div/div/div/div/div/div/ol/li/ol/li/div/div/div/div/ul/li/div/div/div/span/button/ul/li/span'
p67
F8.965784284662087
sS'/html/body/div/div/div/div/div/div/div/div/div/ol/li/a/div/h4'
p68
F2.6259342817774622
sS'/html/body/div/div/div/div/div/div/div/div/div/div/ul/li/div/table/tbody/tr/td/div/a'
p69
F3.680382065799839
sS'/html/body/div/div/div/div/div/div/div/div/div/div/span/span/div/div/div/div/div/div/div/p/span'
p70
F1.0
sS'/html/body/div/div/div/div/div/div/div/div/div/div/ul/li/ul/li/div/div/a/span/span/span/img'
p71
F5.50635266602479
sS'/html/body/div/div/div/div/div/div/div/div/div/div/span/span/div/div/div/div/div/div/div'
p72
F1.0
sS'/html/body/div/div/div/div/div/button/span/span'
p73
F0.01449956969511517
sS'/html/body/div/div/div/div/div/div/div/div/div/ol/li/span'
p74
F2.6259342817774622
sS'/html/body/div/div/div/div/div/div/div/div/div/div/ul/li/ul/li/div/div/div/div/ul/li'
p75
F4.380821783940931
sS'/html/body/div/div/div/div/div/div/div/div/div/div/ul/li/div/div/div/section/div/div/div/div/button'
p76
F5.795859283219775
sS'/html/body/div/div/div/div/div/div/div/div/div/div/div/div/span/button/span/span'
p77
F1.077041035763828
sS'/html/body/div/div/div/div/div/div/div/div/div/div/div/div/p'
p78
F7.380821783940932
sS'/html/body/div/div/div/div/div/div/div/div/div/div/ul/li/div/div/div/section/div/div/div/button'
p79
F5.380821783940931
sS'/html/body/div/div/div/div/div/div/div/div/div/div/div/div/ol/li/ol/li/div/div/div/div/div/button/span'
p80
F8.965784284662087
sS'/html/body/div/div/div/div/div/div/div/div/div/div/div/div/div/div/div/div/div/div/div/span/button'
p81
F8.965784284662087
sS'/html/body/div/div/div/div/div/div/div/div/div/a'
p82
F8.965784284662087
sS'/html/body/div/div/div/div/div/div/div/div/div/div/ul/li/div/div/div/section/div/div/div/div/b'
p83
F7.380821783940932
sS'/html/body/div/div/div/div/div/div/div/div/div/div/ul/li/div/div/div/div/div/ul/li/div/div/div/ul/li/span/span'
p84
F7.965784284662087
sS'/html/body/div/div/div/div/div/div/div/div/div/div/div/div/ul/li/a/span'
p85
F2.145605322246899
sS'/html/body/div/div/div/div/div/div/div/div/div/div/div/div/div/div/span/span/span/span'
p86
F8.965784284662087
sS'/html/body/div/div/div/div/div/div/div/div/div/div/ul/li/div/div/div/div/div/h2/a/span/span/span/span'
p87
F3.7958592832197753
sS'/html/body/div/div/div/div/div/div/div/div/div/div/ul/li/div/div/div/div/div/div/div/ul/li/div/div/div/a/span/span/span/button/ul/li/span'
p88
F3.7958592832197753
sS'/html/body/div/div/div/div/div/div/div/div/div/div/ul/li/div/div/div/div/div/ul/li/div/div/div/span/a/span/span/span/span'
p89
F4.573466861883327
sS'/html/body/div/div/div/div/div/div/div/div/div/div/div/div/ol/li/ol/li/div/div/div/div/div/div/span/span'
p90
F8.965784284662087
sS'/html/body/div/div/div/div/div/div/div/div/div/div/ul/li/div/div/div'
p91
F2.3364276645824775
sS'/html/body/div/div/div/div/div/div/div/div/style'
p92
F1.077041035763828
sS'/html/body/div/div/div/div/div/div/div/div/div/div/ul/li/div/div/div/section/div/div/div/div/span/a'
p93
F5.795859283219775
sS'/html/body/div/div/div/div/div/div/div/div/div/div/img'
p94
F2.3075728019102923
sS'/html/body/div/div/div/div/div/div/div/div/div/div/ul/li/div/div/h3'
p95
F8.965784284662087
sS'/html/body/div/div/div/div/div/div/div/div/div/div/div/div/ol/li/ol/li/div/div/div/div/ul/li/div/div/div/h3/span'
p96
F8.965784284662087
sS'/html/body/div/div/div/div/div/div/div/div/div/div/div/div/form/div/span/input'
p97
F7.380821783940932
sS'/html/body/div/div/div/div/div/div/div/div/div/div/div/div/div/div/div/div/div/div'
p98
F8.965784284662087
sS'/html/body/div/div/div/div/div/div/div/div/div/div/ul/li/div/table/tbody/tr/td/span/a/span/span/span/img'
p99
F3.6082322800440036
sS'/html/body/div/div/div/div/div/div/div/div/span/a'
p100
F8.965784284662087
sS'/html/body/div/div/div/div/div/div/div/div/div/div/ul/li/div/table/tbody/tr/td/span/a/span/span/span/span'
p101
F3.6082322800440036
sS'/html/body/div/div/div/div/div/div/div/div/div/div/ul/li/div/div/div/div/div/ul/li/div/div/div/a/span/span/span/span'
p102
F4.795859283219775
sS'/html/body/div/div/div/div/div/div/div/div/div/div/ul/li/div/div/div/div/div/ul/li/div/div/div/ul/li/h4/a'
p103
F5.50635266602479
sS'/html/body/div/div/div/div/div/div/div/div/div/div/ul/li/div/div/div/div/div/div/div/ul/li/div/div/div/div/a'
p104
F2.2378638300988882
sS'/html/body/div/div/div/div/div/div/div/div/div/div/ul/li/div/div/div/section/div/div/div'
p105
F5.795859283219775
sS'/html/body/div/div/div/div/div/div/div/div/div/ul/li/span/div/h3/a'
p106
F2.3075728019102923
sS'/html/body/div/div/div/div/div/div/div/div/div/div/div/div/ol/li/ol/li/div/div/div/div/div/div/a'
p107
F8.965784284662087
sS'/html/body/div/div/div/div/div/div/div/div/div/div/ul/li/div/div/div/section/div/div/div/div/div/div/button'
p108
F5.643856189774724
sS'/html/body/div/div/div/div/div/div/div/div/div/div/ul/li/div/div/h2/span'
p109
F5.380821783940931
sS'/html/body/div/div/div/div/div/div/div/div/div/div/ul/li/ul/li/div/div/div/h3/span'
p110
F4.265344566520995
sS'/html/body/div/div/div/div/div/div/div/div/div/div/ul/li/div/div/div/div/div/div/div/ul/li/div/div/a/span/button/span'
p111
F8.965784284662087
sS'/html/body/div/div/div/div/div/div/div/div/div/div/div/div/div/div/div/div/div'
p112
F7.380821783940932
sS'/html/body/div/div/div/div/div/span/link'
p113
F8.965784284662087
sS'/html/body/div/div/div/div/div/div/div/div/div/button/span'
p114
F0.994240730711315
sS'/html/body/div/div/div/div/div/div/div/div/div/div/ul/li/div/div/div/section/div/div/div/div/div/button/span'
p115
F5.380821783940931
sS'/html/body/div/div/div/div/div/div/div/div/div/div/div/div/ol/li/ol/li/div/div/div/div/div/div/h3/span'
p116
F8.965784284662087
sS'/html/body/div/div/div/div/div/div/div/div/div/div/ul/li/div/div/button/span/span/span/span'
p117
F5.380821783940931
sS'/html/body/div/div/div/div/div/div/div/div/div/div/ul/li/div/div/span/button/span'
p118
F7.380821783940932
sS'/html/body/div/div/div/a/span/span'
p119
F0.005782352594006179
sS'/html/body/div/div/div/div/div/div/div/div/div/div/ul/li/div/table/tbody/tr/td/span/button/span'
p120
F3.6082322800440036
sS'/html/body/div/div/div/div/div/div/div/div/div/div/ul/li/ul/li/div/div/div/a/span/span/span/span/img'
p121
F6.158429362604484
sS'/html/body/div/div/div/div/div/div/div/div/div/div/span/span/div/div/div/span'
p122
F1.0
sS'/html/body/div/div/div/div/div/div/div/ul/li/div/ul/li/a/span/span/span/span/span/img'
p123
F1.0350469470992008
sS'/html/body/div/div/div/div/div/div/div/ul/li/div/ul/li/a/span/span/span'
p124
F1.0350469470992008
sS'/html/body/div/div/div/div/div/div/div/div/div/div/div/div/div/div/div/div/div/div/div'
p125
F8.965784284662087
sS'/html/body/div/div/div/div/div/div/div/div/div/div/div/div/div/div/div/div/div/h1/span/span/span/a'
p126
F8.965784284662087
sS'/html/body/div/div/div/div/div/div/div/div/div/div/ul/li/div/div/div/div/div/wbr/wbr/a'
p127
F7.380821783940932
sS'/html/body/div/div/div/div/div/div/div/div/div/div/div/div/div/ul/li/span/div/h3'
p128
F1.0
sS'/html/body/div/div/div/div/div/div/div/div/div/div/ul/li/a/span'
p129
F1.5994620704162712
sS'/html/body/div/div/div/div/form/button/span'
p130
F6.965784284662088
sS'/html/body/div/div/div/div/div/div/div/div/div/div/div/ol/li/ol/li/div/div/div/ul/li/div/div/div/div/button'
p131
F8.965784284662087
sS'/html/body/div/div/div/div/div/div/div/div/div/div/ul/li/div/div/div/button/span'
p132
F4.380821783940931
sS'/html/body/div/div/div/div/div/a/span'
p133
F0.017417053077409393
sS'/html/body/div/div/div/div/div/div/div/div/div/div/ul/li/div/div/div/div/div/div/div/ul/li/div/div/div/div/span'
p134
F2.4266254735540556
sS'/html/body/div/div/div/div/div/div/div/div/div/div/ul/li/div/div/div/div/div/ul/li/div/div/div/h3/span'
p135
F3.7563309190331378
sS'/html/body/div/div/div/div/div/div/img'
p136
F1.0
sS'/html/body/div/div/div/div/div/div/div/div/div/div/ul/li/div/div/div/div/div/div/div/ul/li/div/div/h3/a'
p137
F4.795859283219775
sS'/html/body/div/div/div/div/div/div/div/div/div/div/div/strong'
p138
F1.0
sS'/html/body/div/div/div/div/div/div/div/div/div/div/div/div/div/span/button/span/span'
p139
F7.965784284662087
sS'/html/body/div/div/div/div/div/div/div/div/div/div/div/div/ol/li/ol/li/div/div/div/div/ul/li/div/div/div/div/ul/li'
p140
F8.965784284662087
sS'/html/body/div/div/div/div/div/div/div/div/div/div/ul/li/div/div/div/div/div/div/div/ul/li/div/div/div/a/span/span/span/span/span/img'
p141
F8.965784284662087
sS'/html/body/div/span/meta'
p142
F1.3510744405468789
sS'/html/body/div/div/div/div/div/div/div/div/div/div/div/div/ol/li/ol/li/div/div/div/div/div/div/button/span'
p143
F8.965784284662087
sS'/html/body/div/div/div/div/div/div/div/div/div/div/ul/li/div/div/div/section/div/div/div/div/a/span/span/span/img'
p144
F5.643856189774724
sS'/html/body/div/div/div/div/div/div/div/div/div/div/div/div/div/a/span'
p145
F3.6082322800440036
sS'/html/body/div/div/div/div/div/div/div/div/div/div/ul/li/div/div/div/div/div/button/span'
p146
F3.9657842846620874
sS'/html/body/div/div/div/div/div/div/div/div/div/div/ul/li/div/div/div/section/div/div/div/div'
p147
F5.380821783940931
sS'/html/body/span/link'
p148
F1.3510744405468789
sS'/html/body/div/div/div/div/div/div/div/div/div/div/span/button/ul/li/span'
p149
F0.01449956969511517
sS'/html/body/div/div/div/div/div/div/div/div/div/div/ul/li/div/div/div/div/div/ul/li/div/div/div/span/span'
p150
F7.380821783940932
sS'/html/body/div/div/div/div/div/div/div/div/div/div/ul/li/ul/li/div/div/div/a/span/span/button'
p151
F6.158429362604484
sS'/html/body/div/div/div/div/div/div/div/div/span/meta'
p152
F1.0
sS'/html/body/div/div/div/div/div/div/div/div/div/div/div/div/div/div/div/div/div/div/span/a/span/span/span/img'
p153
F8.965784284662087
sS'/html/body/div/div/div/div/div/div/div/div/div/div/ul/li/div/div/div/div/div/wbr/wbr/br'
p154
F7.380821783940932
sS'/html/body/div/div/div/div/div/div/div/div/div/div/ul/li/span/div/h3/span'
p155
F7.380821783940932
sS'/html/body/div/div/div/div/div/div/div/div/div/div/ul/li/div/div/div/div/div/ul/li/div/div'
p156
F3.7178567712185013
sS'/html/body/div/div/div/div/div/div/div/div/div/div/ul/li/div/div/div/div/div/div/div/ul/li/div/div/div/span/span/span'
p157
F2.1202942337177118
sS'/html/body/div/div/div/div/div/div/div/div/div/div/span/span/button/span/span'
p158
F1.0
sS'/html/body/div/div/div/div/div/div/div/div/div/div/ul/li/div/div/div/div/div/ul/li/div/div/div/h3/a'
p159
F3.7178567712185013
sS'/html/body/div/div/div/div/div/div/div/div/div/div/ul/li/div/div/div/div/div/ul/li/div/div/div/div/ul/li'
p160
F4.011587974275212
sS'/html/body/div/div/div/div/div/div/div/div/div/div/div/span/span/div/div'
p161
F1.0
sS'/html/body/div/div/div/div/div/div/div/div/div/div/div/div/ol/li/ol/li/div/div/div/div/div/div/button'
p162
F8.965784284662087
sS'/html/body/div/div/div/div/div/div/div/div/div/button'
p163
F1.0
sS'/html/body/div/div/div/div/div/div/div/div/p/a'
p164
F7.380821783940932
sS'/html/body/div/div/div/div/div/div/div'
p165
F0.9714308478032291
sS'/html/body/div/div/div/div/div/div/div/div/div/div/div/img'
p166
F7.965784284662087
sS'/html/body/div/div/div/nav/nav/div/a'
p167
F8.965784284662087
sS'/html/body/div/div/div/div'
p168
F0.011587974275211823
sS'/html/body/div/div/div/div/div/div/ul/li/h3'
p169
F8.965784284662087
sS'/html/body/div/div/div/div/div/div/ul/li/h2'
p170
F1.3584539709124765
sS'/html/body/div/div/div/div/div/div/div/div/div/div/ul/li/div/div/div/div/button/span'
p171
F5.380821783940931
sS'/html/body/div/div/div/div/div/div/div/div/div/div/ul/li/ul/li/div/div/div/span/button'
p172
F4.717856771218502
sS'/html/body/div/div/div/div/div/div/div/div/div/div/div/div/div/p/a'
p173
F1.1328942704973455
sS'/html/body/div/div/div/div/div/div/div/div/div/ol/li/ul/li'
p174
F8.965784284662087
sS'/html/body/div/div/div/div/div/div/div/div/div/div/ul/li/ul/li/div/div'
p175
F4.265344566520995
sS'/html/body/div/div/div/div/div/div/div/div/div/div/div/div/div/p/span'
p176
F8.965784284662087
sS'/html/body/div/div/div/div/div/div/div/div/div/div/ul/li/button/span'
p177
F3.4111954329844494
sS'/html/body/div/div/div/div/div/div/div/div/div/div/ul/li/div/div/div/div/div/div/div/ul/li/div/div/div/span/span'
p178
F6.380821783940931
sS'/html/body/div/div/div/div/div/div/div/div/div/div/div/div/ol/li/ol/li/div/div/div/div/ul/li/div/div/div/a/div/span/img'
p179
F8.965784284662087
sS'/html/body/div/div/div/div/div/div/div/div/div/div/div/div/div/div/div/div/span/span'
p180
F7.965784284662087
sS'/html/body/div/div/div/div/div/div/div/div/div/div/ul/li/ul/li/div/div/h3/a/span/span'
p181
F5.795859283219775
sS'/html/body/div/div/div/div/div/div/div/ul/li/div/ul/li/a/span/span'
p182
F1.0350469470992008
sS'/html/body/div/div/div/div/div/div/ul/li/img'
p183
F8.965784284662087
sS'/html/body/div/div/div/div/div/div/div/div/div/div/ul/li/div/button/span/span'
p184
F5.265344566520995
sS'/html/body/div/div/div/div/div/div/div/div/div/ol/li/a/span/span/span/img'
p185
F2.6259342817774622
sS'/html/body/div/div/div/div/div/div/div/div/div/div/div/div/script'
p186
F8.965784284662087
sS'/html/body/div/div/div/div/div/div/p'
p187
F8.965784284662087
sS'/html/body/div/div/div/div/div/div/div/div/div/div/div/div/p/a'
p188
F8.965784284662087
sS'/html/body/div/div/div/div/div/div/div/div/div/div/ul/li/div/div/div/section/div/div/div/span/span'
p189
F6.965784284662088
sS'/html/body/div/div/div/div/div/div/div/div/div/div/div/ol/li/ol/li/ul/li/span/div/div/div/div/div/div/button/span'
p190
F7.965784284662087
sS'/html/body/div/div/div/div/div/div/div/div/div/div/span'
p191
F0.01449956969511517
sS'/html/body/div/div/div/div/div/div/div/div/div/div/ul/li/div/div/div/div/div/div/div/ul/li/div/div/div/span/span/button/span'
p192
F2.1202942337177118
sS'/html/body/div/div/div/div/div/div/div/button/span/span'
p193
F1.0
sS'/html/body/div/div/div/div/div/div/div/div/div/div/ul/li/div/div/div/div/div/ul/li/div/div/div/span/button/span'
p194
F4.573466861883327
sS'/html/body/div/div/div/div/div/div/div/div/div/div/div/div/div/div/div/div/span/span/button/ul/li/span'
p195
F7.965784284662087
sS'/html/body/div/div/div/div/div/div/div/ul/li/div/a/span'
p196
F1.0350469470992008
sS'/html/body/div/div/div/div/div/div/div/div/div/div/ul/li/div/div/button/span/span'
p197
F5.380821783940931
sS'/html/body/div/div/div/div/div/div/div/div/div/ul/li/span/div/a/span/span/span/span'
p198
F2.107803289534515
sS'/html/body/div/div/div/div/div/div/div/div/div/ol/li/a'
p199
F8.965784284662087
sS'/html/body/div/div/div/div/div/div/div/div/div/div/ul/li/div/div/div/div/div/ul/li/div/div/div/div/br'
p200
F4.878321443411748
sS'/html/body/div/div/div/div/div/div/div/div/div/div/div/div/button/span/span/span/span'
p201
F8.965784284662087
sS'/html/body/div/div/div/div/div/div/div/div/div/div/ul/li/div/div/div/div/div/div/div/ul/li/a/h4/span'
p202
F2.083141235300246
sS'/html/body/div/div/div/div/div/div/div/div/div/div/div/div/div/div/div/div/div/div/span/button/span'
p203
F8.965784284662087
sS'/html/body/div/div/div/div/div/div/div/div/div/div/ul/li/div/div/ul/li/b'
p204
F8.965784284662087
sS'/html/body/div/div/div/div/div/div/div/div/div/div/ul/li/div/div/ul/li/a/span'
p205
F5.380821783940931
sS'/html/body/div/div/div/div/div/div/div/span'
p206
F1.0
sS'/html/body/div/div/div/div/div/div/div/div/div/div/ul/li/div/div/div/div/div/div/div/ul/li/div/div/div/a/span/span/button'
p207
F3.7958592832197753
sS'/html/body/div/div/div/div/div/div/div/div/div/div/ul/li/div/div/div/div/div/div/div/ul/li/div/div/a/button/span'
p208
F8.965784284662087
sS'/html/body/div/div/div/div/div/div/div/div/div/div/div/div/ol/li/ol/li/div/div/div/div/div/div/div/ul/li'
p209
F8.965784284662087
sS'/html/body/div/div/div/div/div/div/div/div/div/div/div/div/div/span/span/button/span'
p210
F3.6082322800440036
sS'/html/body/div/div/div/div/div/div/div/div/div/div/div/div/ol/li/ol/li/div/div/div/div/div/a/div/span/img'
p211
F8.965784284662087
sS'/html/body/div/div/div/div/div/div/div/div/div/div/div/div/button/span/span'
p212
F8.965784284662087
sS'/html/body/div/div/div/div/div/div/div/div/div/div/ul/li/div/div/div/div/div/div/div/ul/li/div/div/h3/a/span/span'
p213
F4.50635266602479
sS'/html/body/div/div/div/div/div/div/div/div/div/div/ul/li/div/div/div/div/div/ul/li/div/div/div/div'
p214
F5.158429362604483
sS'/html/body/div/div/div/div/span/span'
p215
F8.965784284662087
sS'/html/body/div/div/div/div/div/div/div/div/div/div/ul/li/div/div/div/div/div/ul/li/div/div/h3/a'
p216
F8.965784284662087
sS'/html/body/div/div/div/div/div/div/div/div/ul/li/a'
p217
F8.965784284662087
sS'/html/body/div/div/div/div/div/div/div/div/ul/li'
p218
F8.965784284662087
sS'/html/body/div/div/div/div/div/div/div/div/div/div/div/div/ol/li/ol/li/div/div/div/div/ul/li/div/div/div/a/span'
p219
F8.965784284662087
sS'/html/body/div/div/div/div/div/div/div/div/div/div/a/span/span/span/img'
p220
F1.0
sS'/html/body/div/div/div/div/div/div/div/div/div/div/div/h1/span/span'
p221
F8.965784284662087
sS'/html/body/div/div/div/div/div/div/div/div/div/div/ul/li/div/div/div/div/div/div/div/ul/li/div/div/a/button'
p222
F8.965784284662087
sS'/html/body/div/div/div/div/div/div/div/div/ul/li/p'
p223
F8.965784284662087
sS'/html/head/link'
p224
F0.0028882793248263526
sS'/html/body/div/div/div/div/div/div/div/div/div/div/ul/li/ul/li/div/div/h3/span'
p225
F5.50635266602479
sS'/html/body/div/div/div/div/div/div/div/div/div/div/div/div/ol/li/ol/li/div/div/div/div/ul/li/div/div/div/button'
p226
F8.965784284662087
sS'/html/body/div/div/div/div/div/div/div/div/ul/li/div/button/span'
p227
F1.4900508536956893
sS'/html/body/div/div/div/div/div/div/div/div/div/div/div/span'
p228
F0.01449956969511517
sS'/html/body/div/div/div/div/div/div/div/div/div/div/ul/li/div/div/ul/li/a/img'
p229
F5.380821783940931
sS'/html/body/div/div/div/div/div/div/div/div/div/div/div/h1/span/a/span'
p230
F1.9770995978899213
sS'/html/body/div/div/div/div/div/div/div/ul/li/hr'
p231
F1.0350469470992008
sS'/html/body/div/div/div/div/div/div/div/div/div/div/ul/li/div/div/div/div/div/div'
p232
F2.7563309190331373
sS'/html/body/div/div/div/div/div/div/div/div/div/p/a'
p233
F4.50635266602479
sS'/html/body/div/div/div/div/div/div/div/div/div/div/ul/li/div/div/div/div/div/div/div/ul/li/div/div/a/span/span/span/span'
p234
F4.158429362604483
sS'/html/body/div/div/div/div/div/div/div/div/div/div/div/div/div/div/div/div/a/span/span/span/span'
p235
F8.965784284662087
sS'/html/body/div/div/div/div/label'
p236
F8.965784284662087
sS'/html/body/div/div/div/div/div/div/div/div/div/div/ul/li/div/div/div/div/div/h2/a/span'
p237
F2.0350469470992008
sS'/html/body/div/div/div/div/div/div/div/div/div/div/ul/li/div/div/div/div/div/ul/li/div/div/a/span/span/span/span'
p238
F8.965784284662087
sS'/html/body/div/div/div/div/div/div/div/div/div/div/ul/li/div/div/div/div/div/div/div/ul/li/div/div/div/div/ul'
p239
F3.5734668618833267
sS'/html/body/div/div/div/div/div/div/div/div/div/div/div/div/ul/li/a/span/span/span/span/span/b'
p240
F2.1713684183119812
sS'/html/body/div/div/div/div/div/div/div/div/div/div/div/div/ul/li/div/a/span/img'
p241
F1.0
sS'/html/body/div/div/div/div/div/div/div/div/div/div/ul/li/div/div/div/div/div/div/div/ul/li/div/div/span/button/span/span'
p242
F4.210896782498619
sS'/html/body/div/div/div/div/div/div/div/div/div/div/div/span/span/button/span'
p243
F1.0
sS'/html/body/div/div/div/div/div/div/div/div/div/div/ul/li/div/div/div/section/div/div/div/div/button/span'
p244
F5.795859283219775
sS'/html/body/div/div/div/div/div/div/div/div/div/div/div/div/div/div/div'
p245
F6.965784284662088
sS'/html/body/div/div/div/div/div/div/div/div/div/div/div/div/ul/button/span'
p246
F1.0350469470992008
sS'/html/body/div/div/div/div/div/div/div/div/div/div/div/div/ol/li/ol/li/div/div/div/div/div/div/a/div/span/img'
p247
F8.965784284662087
sS'/html/body/div/div/div/div/link'
p248
F8.965784284662087
sS'/html/body/div/div/div/div/div/div/div/div/div/div/ul/li/ul/li/div/div/div/span/button/span'
p249
F4.717856771218502
sS'/html/body/div/div/div/div/div/div/div/div/div/div/div/h1/span/span/span'
p250
F3.237863830098888
sS'/html/body/div/div/div/div/div/div/div/div/div/div/ul/li/ul/li/div/div/div/div/a'
p251
F8.965784284662087
sS'/html/body/div/div/div/div/div/div/div/div/div/div/ul/li/div/table/tbody/tr/td'
p252
F3.6082322800440036
sS'/html/body/div/div/div/div/div/div/div/div/div/div/ul/li/ul/li/div/div/div/span/a/span/span/span/span'
p253
F4.717856771218502
sS'/html/body/div/div/div/div/div/div/div/div'
p254
F0.9885043611621707
sS'/html/body/div/div/div/div/div/div/div/div/div/div/div/div/ol/li/ol/li/div/div/div/div/ul/li/div/div/div/div/a'
p255
F8.965784284662087
sS'/html/body/div/div/div/div/div/div/div/div/div/h3'
p256
F4.795859283219775
sS'/html/body/div/div/div/div/div/div/div/div/div/h2'
p257
F2.107803289534515
sS'/html/body/div/div/div/div/div/div/div/div/div/div/ul/li/button/ul/li/span'
p258
F3.4111954329844494
sS'/html/body/div/div/div/div/div/div/div/div/div/div/ul/li/div/div/div/div/div/div/div/ul/li/div/div/div/span/a/span/span/span/img'
p259
F2.1202942337177118
sS'/html/body/div/div/div/div/div/div/div/div/div/div/div/div/div/div/div/div/div/div/div/span/a/span/span/span/img'
p260
F8.965784284662087
sS'/html/body/div/div/div/div/div/div/div/div/div/div/div/div/div/div/div/div/div/h1/span/a/span'
p261
F8.965784284662087
sS'/html/body/div/div/div/div/div/div/div/div/div/ul/li/span/div/div/span/span'
p262
F2.107803289534515
sS'/html/body/div/div/div/div/div/div/div/div/div/div/div/div/div/div/div/div/span/a/span/span/span/img'
p263
F7.965784284662087
sS'/html/body/div/span/link'
p264
F1.3510744405468789
sS'/html/body/div/meta'
p265
F1.3510744405468789
sS'/html/body/div/div/div/div/div/div/div/div/div/div/div/ol/li/ol/li/ul/li/span/div/div/div/div/div/div'
p266
F7.965784284662087
sS'/html/body/div/div/div/div/div/div/div/div/div/div/div/ol/li/ol/li/ul/li/span/div/div/div/div/div/p'
p267
F7.965784284662087
sS'/html/body/div/div/a'
p268
F0.005782352594006179
sS'/html/body/div/div/div/div/div/div/div/div/div/div/div/div'
p269
F0.3695945285176767
sS'/html/body/style'
p270
F1.8783214434117477
sS'/html/body/div/div/div/div/div/div/div/div/ul/li/a/span'
p271
F1.1140352432460294
sS'/html/body/div/div/div/div/div/div/div/div/div/div/div/div/ul/li/div/a/span/span'
p272
F1.0
sS'/html/body/div/div/div/div/div/div/div/div/div/div/div/div/div/a/span/span/span/img'
p273
F7.965784284662087
sS'/html/body/div/div/div/div/div/div/div/div/div/div/ul/li/div/div/div/div/div/wbr/wbr/wbr/wbr/wbr/wbr/br'
p274
F8.965784284662087
sS'/html/body/div/div/div/div/div/div/div/div/div/ol/li/a/div/span'
p275
F6.643856189774725
sS'/html/body/div/div/div/div/div/a/span/span'
p276
F8.965784284662087
sS'/html/body/div/div/div/div/div/div/div/div/div/div/div/div/div/div/div/div/div/div/div/span/span'
p277
F8.965784284662087
sS'/html/body/div/div/div/div/div/div/div/div/div/div/ul/li/div/table/tbody/tr/td/div/span'
p278
F8.965784284662087
sS'/html/body/div/div/div/div/div/div/div/div/div/div/ul/li/ul/li/div/div/div/a/span/span/span/span/span/b'
p279
F6.158429362604484
sS'/html/body/div/div/div/div/div/div/ul/li/span'
p280
F8.965784284662087
sS'/html/body/div/div/div/div/div/div/div/div/div/div/ul/li/div/div/div/div/div/ul/li/div/div/div/div/ul'
p281
F6.380821783940931
sS'/html/body/div/div/div/div/div/div/div/div/div/div/div/div/div/div/div/a/span/span/span/img'
p282
F8.965784284662087
sS'/html/body/div/div/div/div/div/div/div/div/div/div/div/div/ul/li/div/a/span'
p283
F1.0
sS'/html/body/div/div/div/div/div/div/div/div/div/div/ul/li/div/div/div/div/div/ul/li/div/div/div/ul/li'
p284
F8.965784284662087
sS'/html/body/div/div/div/div/div/div/div/div/div/ol/li/a/span/span/span/span'
p285
F2.6259342817774622
sS'/html/body/div/div/div/div/div/div/div/div/div/div/div/div/div/span/input'
p286
F1.5994620704162712
sS'/html/body/div/div/div/div/div/form/button/span'
p287
F0.017417053077409393
sS'/html/body/div/div/div/button'
p288
F0.01449956969511517
sS'/html/body/div/div/div/div/div/div/div/div/div/div/div/div/ol/li/ol/li/div/div/div/div/ul/li/div/div/div/button/span'
p289
F8.965784284662087
sS'/html/body/div/div/div/div/div/div/div/div/div/div/ul/li/span/div/div/span/button/span/span'
p290
F7.380821783940932
sS'/html/body/div/div/div/div/form/input'
p291
F8.965784284662087
sS'/html/body/div/div/div/div/div/div/div/div/div/div/ul/li/div/div/div/div/div/ul/li/div/div/div/span/span/button/ul/li/span'
p292
F4.573466861883327
sS'/html/body/div/div/div/h3'
p293
F0.01449956969511517
sS'/html/body/div/div/div/div/div/div/div/div/div/div/ul/script'
p294
F1.3510744405468789
sS'/html/body/div/div/div/h1'
p295
F8.965784284662087
sS'/html/body/div/div/div/div/div/div/div/div/div/div/div/div/ol/li/ol/li/div/div/div/div/div/h3/span'
p296
F8.965784284662087
sS'/html/body/div/div/div/div/div/div/div/div/div/div/ul/li/div/div/div/div/div/div/div/ul/li/div/div/a/span'
p297
F8.965784284662087
sS'/html/body/div/div/div/div/div/div/div/div/div/div/div/ol/li/ol/li/div/div/div/ul/li/div/div/div/div/div/br'
p298
F8.965784284662087
sS'/html/body/div/div/div/div/div/div'
p299
F0.011587974275211823
sS'/html/body/div/div/div/ul/li'
p300
F0.008682243099800773
sS'/html/body/div/div/div/div/div/div/div/div/div/div/ul/li/div/div/div/div/div/div/div/ul/li/div/div/div/span/span/button/ul/li/span'
p301
F2.1202942337177118
sS'/html/body/div/div/div/div/div/div/div/div/div/div/ul/li/ul/li/div/div/a/span/span/span/span'
p302
F5.50635266602479
sS'/html/body/div/div/div/div/div/div/div/div/div/div/div/div/div/div/div/div/span/button/span'
p303
F7.965784284662087
sS'/html/body/div/div/div/div/div/div/div/div/div/div/ul/li/div/div/div/section/div/div/div/div/div/div/div/div/button/span'
p304
F5.643856189774724
sS'/html/body/div/div/div/div/div/div/div/div/div/div/ul/li/ul/li/div/div/div/a/span/span/span/span'
p305
F6.158429362604484
sS'/html/body/div/script'
p306
F8.965784284662087
sS'/html/body/div/div/div/div/div/div/div/div/div/div/div/div/ul/li/a/span/span/span/span/img'
p307
F2.1713684183119812
sS'/html/body/div/div/div/div/div/div/div/div/div/ol/li/a/div/span/span'
p308
F2.6259342817774622
sS'/html/body/div/div/div/div/div/div/div/div/div/div/ul/li/div/div/div/div/div/ul/li/div/div/a/span/span/span/img'
p309
F8.965784284662087
sS'/html/body/div/div/div/div/div/div/div/div/div/div/h4/strong'
p310
F8.965784284662087
sS'/html/body/div/div/div/ul/li/span'
p311
F8.965784284662087
sS'/html/body/div/div/div/div/div/div/div/div/div/div/div/div/ol/li/ol/li/div/div/div/button/span/span'
p312
F8.965784284662087
sS'/html/body/div/div/div/div/div/div/div/div/div/div/ul/li/div/div/div/div/div/div/div/ul/li/div/div/div/ul'
p313
F8.965784284662087
sS'/html/body/div/div/div/div/div/div/div/div/div/div/div/ol/li/ol/li/div/div/div/ul/li/div/div/div/div/h3/span'
p314
F8.965784284662087
sS'/html/body/div/div/div/div/div/div/div/div/div/div/ul/li/div/div/div/section/div/div/div/button/span'
p315
F5.380821783940931
sS'/html/body/div/div/div/div/div/div/div/div/div/div/ul/li/div/div/div/div/div/div/div/ul/li/div/div/a/span/button/ul/li/span'
p316
F8.965784284662087
sS'/html/body/div/div/div/div/div/div/div/div/div/div/div/ol/li/ol/li/ul/li/button/span'
p317
F7.965784284662087
sS'/html/body/div/div/div/div/div/div/div/div/div/div/div/div/div/div/div/div/div/p/span'
p318
F7.380821783940932
sS'/html/body/div/div/div/div/div/div/div/div/div/div/div/div/div/div/div/div/p'
p319
F8.965784284662087
sS'/html/body/div/div/div/ul/li/a'
p320
F0.0
sS'/html/body/div/div/div/button/span/span'
p321
F0.005782352594006179
sS'/html/body/div/div/div/div/div/div/div/div/div/div/ul/li/div/div/div/div/div/ul/li/div/div/div/a/span/span/span/span/span/b'
p322
F4.795859283219775
sS'/html/body/div/div/div/div/div/div/div/div/div/div/ul/li/div/div/div/div/div/ul/li/div/div/div/span/a/span/span/span/img'
p323
F4.573466861883327
sS'/html/body/div/div/div/div/div/div/div/div/div/div/ul/li/div/div/div/section/div/div/div/div/div/div/button/span'
p324
F5.50635266602479
sS'/html/body/div/div/div/div/div/div/div/div/link'
p325
F1.0
sS'/html/body/div/div/div/div/div/div/div/div/div/div/ul/li/div/div/div/div/div/ul/li/div/div/div'
p326
F8.965784284662087
sS'/html/body/div/div/div/div/div/div/p/span'
p327
F0.01449956969511517
sS'/html/body/div/div/div/div/div/div/div/div/div/div/div/h3'
p328
F5.265344566520995
sS'/html/body/div/div/div/div/div/div/div/div/div/div/h2'
p329
F7.380821783940932
sS'/html/body/div/div/div/div/div/div/div/div/div/div/ul/li/span/div/h3/a'
p330
F7.380821783940932
sS'/html/body/div/div/div/div/div/div/div/div/div/div/ul/li/span/div/a/span/span/span/span'
p331
F7.380821783940932
sS'/html/body/div/div/div/div/div/span/a/span'
p332
F0.7083964419694353
sS'/html/body/div/div/div/div/div/div/div/div/meta'
p333
F1.0
sS'/html/body/div/div/div/div/div/div/div/div/div/div/div/div/div/div/div/div/a/span/span/span/img'
p334
F8.965784284662087
sS'/html/body/div/div/div/div/div/div/div/div/div/div/div/div/ul/li'
p335
F3.6082322800440036
sS'/html/body/span/meta'
p336
F1.3510744405468789
sS'/html/body/div/div/div/div/div/div/div/div/div/div/ul/li/div/div/div/div/div/ul/li/div/div/div/a/span/span/button'
p337
F4.795859283219775
sS'/html/body/div/div/div/div/div/div/div/div/div/div/div/div/div/span/div/a/span'
p338
F3.6082322800440036
sS'/html/body/div/div/div/div/div/div/div/div/div/div/ul/li/div/div/div/div/span'
p339
F2.41119543298445
sS'/html/body/div/div/div/div/div/div/div/div/div/div/ul/li/button/span/span'
p340
F4.643856189774724
sS'/html/body/div/div/div/div/div/div/div/div/div/div/span/span/div/div/div/div/div'
p341
F1.0
sS'/html/body/div/div/div/div/div/div/div/div/div/div/div/span/div/h3'
p342
F1.0
sS'/html/body/div/div/div/div/div/div/div/div/div/div/div/ul/li/span'
p343
F2.8572598278839183
sS'/html/body/div/div/div/div/div/div/div/div/div/div/div/ol/li/ol/li/div/div/div/ul/li/div/div/div/div/div/span'
p344
F8.965784284662087
sS'/html/body/div/div/div/div/div/div/div/div/div/div/ul/li/div/div/div/div/div/ul/li/div/div/div/div/a'
p345
F4.158429362604483
sS'/html/body/script'
p346
F0.0
sS'/html/body/div/div/div/div/div/div/div/div/div/div/div/ol/li/ol/li/div/div'
p347
F8.965784284662087
sS'/html/body/div/div/div/div/div/div/div/div/h2'
p348
F7.965784284662087
sS'/html/body/div/div/div/div/div/div/div/div/div/div/ul/li/div/div/div/section/div/div/div/button/span/span'
p349
F5.643856189774724
sS'/html/body/div/form/input'
p350
F0.005782352594006179
sS'/html/body/div/div/div/div/div/div/div/div/div/div/div/hr'
p351
F1.5820799921880349
sS'/html/body/div/div/div/div/div/div/div/div/div/div/div/ol/li/ol/li/ul/li/span/div/div/div/div/div/div/div/p/span'
p352
F7.965784284662087
sS'/html/body/div/div/div/div/div/div/div/div/div/div/div/div/div/ul/li/span/div/div'
p353
F1.0
sS'/html/body/div/div/div/div/div/div/div/div/div/div/div/div/ol/li/ol/li/div/div/div/div/div/span/button/ul/li/span'
p354
F8.965784284662087
sS'/html/body/div/div/div/div/div/div/div/div/div/div/div/div/ul/li/a/span/span'
p355
F3.2108967824986188
sS'/html/body/div/div/div/div/div/div/div/div/div/div/ul/li/div/div/div/div/div/div/div/ul/li/div/div/div/span'
p356
F7.965784284662087
sS'/html/body/div/div/div/div/div/div/div/img'
p357
F1.0709665213541435
sS'/html/body/div/div/div/div/div/div/div/div/ul/li/div/p/a'
p358
F8.965784284662087
sS'/html/body/div/div/div/div/div/div/div/div/div/div/div/div/ol/li/ol/li/div/div/div/div/div'
p359
F8.965784284662087
sS'/html/body/div/div/div/div/div/div/div/button/span'
p360
F1.0
sS'/html/body/div/div/div/div/div/div/div/div/div/div/ul/li/div/div/div/div/div/div/div/ul/li/div/div'
p361
F2.0232697793228476
sS'/html/body/div/div/div/div/div/div/div/div/div/ol/li'
p362
F8.965784284662087
sS'/html/body/div/div/div/ul/li/button/span'
p363
F0.005782352594006179
sS'/html/body/div/div/div/div/div/div/div/div/div/div/ul/li/div/div/div/section/div/div/a/span/span/span/span'
p364
F5.795859283219775
sS'/html/body/div/div/div/div/div/div/div/div/div/div/ul/li/div/div/div/div/div'
p365
F1.7958592832197748
sS'/html/body/div/div/div/div/div/div/div/div/div/script'
p366
F2.6259342817774622
sS'/html/body/div/div/div/div/div/div/div/div/div/div/div/ol/li/ol/li/div/div/div/ul/li/div/div/div/div/div/a'
p367
F8.965784284662087
sS'/html/body/div/div/div/div/div/div/div/div/div/div/div/div/h4'
p368
F1.5994620704162712
sS'/html/body/div/div/div/div/div/div/div/div/div/div/div/div/h3'
p369
F8.965784284662087
sS'/html/body/div/div/div/div/div/div/div/div/div/div/div/div/h1'
p370
F3.6082322800440036
sS'/html/body/div/div/div/div/div/div/div/div/div/div/ul/li/div/div/div/div'
p371
F2.2108967824986188
sS'/html/body/div/div/div/div/div/div/div/div/div/div/ul/li/div/div/div/div/div/ul/li/div/div/div/span/span/span'
p372
F4.643856189774724
sS'/html/body/div/div/div/div/form/label/input'
p373
F8.965784284662087
sS'/html/body/div/div/div/div/div/span/meta'
p374
F8.965784284662087
sS'/html/body/div/div/div/div/div/div/div/div/div/a/img'
p375
F1.077041035763828
sS'/html/body/div/div/div/div/div/div/div/div/div/div/div/h2'
p376
F2.395928676331139
sS'/html/body/div/div/div/div/div/div/div/div/div/div/div/div/ol/li/ol/li/div/div/div/div/h2/span/b/a'
p377
F8.965784284662087
sS'/html/body/div/div/button'
p378
F7.380821783940932
sS'/html/body/div/div/div/div/div/div/div/div/div/div/ul/li/div/div/div/section/div/a/span/span/span/img'
p379
F5.380821783940931
sS'/html/body/div/div/div/div/div/div/div/div/div/div/div/div/a'
p380
F3.6082322800440036
sS'/html/body/div/div/div/div/div/div/div/div/div/div/div/ol/li/ol/li/div/div/div/ul/li/div/div/div/div/span/button/ul/li/span'
p381
F8.965784284662087
sS'/html/body/div/div/div/div/div/div/div/div/div/div/ul/li/ul/li/div/div/div/a/span/span/span/button/ul/li/span'
p382
F6.158429362604484
sS'/html/body/div/div/div/div/div/div/div/div/div/div/div/div/ul/li/a/span/span/span/span'
p383
F2.1713684183119812
sS'/html/body/div/div/div/div/div/div/div/div/div/div/ul/li/div/div/div/section/div/div/div/span'
p384
F5.380821783940931
sS'/html/body/div/div/div/div/img'
p385
F8.965784284662087
sS'/html/body/div/div/div/div/div/div/div/div/div/div/ul/li/div/button/span/span/span/span'
p386
F5.265344566520995
sS'/html/body/div/div/div/div/div/div/div/div/div/div/div/span/span/div/a/span'
p387
F1.0
sS'/html/body/div/div/div/div/p/span'
p388
F0.005782352594006179
sS'/html/body/div/div/div/div/div/div/div/div/div/div/div/ol/li/ol/li/div/div/div/div/h2/span'
p389
F8.965784284662087
sS'/html/body/div/div/div/div/div/div/div/div/div/div/div/div/div/div/div/div/div/div/div/span/button/span'
p390
F8.965784284662087
sS'/html/body/div/div/div/div/div/div/div/div/div/div/div/div/div/div/p'
p391
F7.965784284662087
sS'/html/body/div/div/div/div/div/div/div/div/div/div/div/div/ol/li/ol/li/div/div/div/div/div/div/ul/li'
p392
F8.965784284662087
sS'/html/body/div/div/div/div/div/div/div/div/div/div/div/div/div/strong'
p393
F1.0
sS'/html/body/div/div/div/div/div/div/div/div/div/div/ul/li/div/div/div/section/div/div/div/button/span/span/span/span'
p394
F5.643856189774724
sS'/html/body/div/div/div/div/div/div/div/div/div/div/div/div/div/ul/li/ul/li'
p395
F1.0
sS'/html/body/div/div/div/div/div/div/div/div/div/div/span/span/div/div/div/div/div/div/div/div'
p396
F1.0
sS'/html/body/div/div/div/div/div/div/div/div/div/div/ul/li/div/div/div/div/div/ul/li/a/h4/span'
p397
F4.107803289534515
sS'/html/body/div/div/div/div/div/div/div/div/div/div/ul/li/div/div/div/section/div/div/div/div/div/a'
p398
F8.965784284662087
sS'/html/body/div/div/div/div/div/div/div/div/div/div/div/div/div/span/div/h3'
p399
F3.6082322800440036
sS'/html/body/div/div/div/div/div/div/div/div/div/div/div/div/span/div/div/div/span'
p400
F1.4422223286050742
sS'/html/body/div/div/div/div/div/div/div/div/span'
p401
F6.965784284662088
sS'/html/body/div/div/div/div/div/div/div/div/div/div/div/div/div/div/div/div/span/span/button/span'
p402
F7.965784284662087
sS'/html/body/div/div/div/div/div/div/div/div/div/div/ul/li/div/div/div/section/div/div/div/div/div/div/span/a'
p403
F5.643856189774724
sS'/html/body/div/div/div/div/div/div/div/div/div/div/div/div/span/div/div/div/div/div/div/div'
p404
F1.4422223286050742
sS'/html/body/div/div/div/div/div/div/div/div/div/div/div/div/h3/span/a/span'
p405
F8.965784284662087
sS'/html/body/div/div/div/div/div/div/div/div/div/div/ul/li/button/span/span/span/span'
p406
F4.643856189774724
sS'/html/body/div/div/div/div/div/div/div/ol/li/a'
p407
F7.965784284662087
sS'/html/body/div/div/div/div/div/div/div/div/div/ul/li/span/div/h3/span'
p408
F2.107803289534515
sS'/html/body/div/div/div/div/div/div/div/div/div/div/div/div/div/ul/li/span/a/img'
p409
F6.380821783940931
sS'/html/body/div/div/div/div/div/div/div/div/div/div/div/div/div/div/div/div/div/div/span/button'
p410
F8.965784284662087
sS'/html/body/div/div/div/span/a/img'
p411
F8.965784284662087
sS'/html/body/div/div/div/div/div/div/div/div/div/div/div/div/span/div/div/div/div/div/div/div/p/span'
p412
F1.4422223286050742
sS'/html/body/div/div/div/div/div/div/div/div/div/div/ul/li/div/div/span'
p413
F4.380821783940931
sS'/html/body/div/div/div/div/div/div/div/div/p/span'
p414
F7.380821783940932
sS'/html/body/div/div/div/div/div/div/div/div/div/div/div/div/div/div/button/span'
p415
F8.965784284662087
sS'/html/body/div/div/div/div/div/div/div/div/div/div/div/div/div/div/div/div'
p416
F7.965784284662087
sS'/html/body/div/div/div/div/div/div/div/div/div/div/div/div/div/div/div/a/span/span/span/span'
p417
F8.965784284662087
sS'/html/body/div/div/div/div/div/div/div/div/div/div/ul/li/ul/li/div/div/div/div/ul/li/span'
p418
F7.380821783940932
sS'/html/body/div/div/div/div/a/img'
p419
F8.965784284662087
sS'/html/body/div/div/div/div/div/div/div/div/div/div/ul/li/div/div/div/div/div/div/div/ul/li/div/div/div/div/ul/li/span'
p420
F3.011587974275212
sS'/html/body/div/div/div/div/div/div/div/div/div/div/ul/li/ul/li/div/div/div/span/a/span/span/span/img'
p421
F4.717856771218502
sS'/html/body/div/div/div/div/div/div/div/div/div/div/div/div/p/strong'
p422
F7.965784284662087
sS'/html/body/div/div/div/div/div/div/div/div/div/div/ul/li/div/div/div/div/div/div/div/ul/li/div/div/div/a/span/span/span/span/span/span'
p423
F8.965784284662087
sS'/html/body/div/div/div/div/div/div/div/div/div/div/div/div/div/div/div/div/p/span'
p424
F8.965784284662087
sS'/html/body/div/div/div/div/div/div/div/div/div/div/ul/li/div/div/div/div/div/ul/li/div/div/div/div/span'
p425
F5.265344566520995
sS'/html/body/div/div/div/div/div/div/div/div/div/div/div/ol/li/ol/li/ul/li/span/div/div/div/div/div/h2'
p426
F7.965784284662087
sS'/html/body/div/div/div/div/div/div/div/div/div/div/div/div/div/span/div/div/p/span'
p427
F3.6082322800440036
sS'/html/body/div/div/div/div/div/div/div/div/div/div/div/div/div/p'
p428
F4.965784284662088
sS'/html/body/div/div/div/div/div/div/div/div/div/div/div/div/div/div/div/div/div/div/div/span/a/span/span/span/span'
p429
F8.965784284662087
sS'/html/body/div/div/div/div/div/div/div/div/div/div/div/div/button/span'
p430
F0.982790709967777
sS'/html/body/div/div/div/div/div/div/div/div/div/div/ul/li/ul/li/div/div/span/span'
p431
F5.50635266602479
sS'/html/body/div/div/div/div/div/div/div/div/div/div/ul/li/div/div/div/section/div/div/div/span/a'
p432
F5.380821783940931
sS'/html/body/div/div/div/div/div/div/div/div/div/div/div/div/ol/li/ol/li/div/div/div/div/div/h3/a'
p433
F8.965784284662087
sS'/html/body/div/div/div/div/div'
p434
F0.005782352594006179
sS'/html/body/div/div/div/div/div/div/div/div/div/div/ul/li/div/div/div/div/div/ul/li/div/div/div/div/ul/li/span'
p435
F6.380821783940931
sS'/html/body/div/div/div/div/div/div/div/div/div/div/div/ul/li/a'
p436
F2.8572598278839183
sS'/html/body/div/div/div/div/div/div/div/div/div/div/div/ol/li/ol/li/div/div/div/ul/li/div/div/div/div/button/span'
p437
F8.965784284662087
sS'/html/body/div/div/div/div/div/div/div/div/div/div/div/div/p/span'
p438
F1.0
sS'/html/body/div/div/div/div/div/div/div/div/div/div/ul/li/div/div/div/div/div/wbr/wbr/wbr/wbr/wbr/wbr/a'
p439
F8.965784284662087
sS'/html/body/div/div/div/div/div/div/div/div/div/div/div/div/ol/li/ol/li/div/div/div/div/div/div/span/button/span'
p440
F8.965784284662087
sS'/html/body/div/div/div/ul/li/button/span/span'
p441
F0.005782352594006179
sS'/html/body/div/div/div/div/div/div/div/div/div/div/div/div/div/div'
p442
F0.994240730711315
sS'/html/body/div/div/div/div/div/div/div/div/div/div/div/div/div/p/br'
p443
F1.1202942337177118
sS'/html/body/div/div/div/div/div/div/div/div/div/div/ul/li/div/div/div/section/div/div/div/a'
p444
F5.380821783940931
sS'/html/body/div/div/div/div/div/div/div/div/div/div/div/div/ul/li/div/span'
p445
F1.0
sS'/html/body/div/div/div/div/div/div/div/div/div/div/ul/li/div/div/div/div/ul/li/button/span'
p446
F5.380821783940931
sS'/html/body/div/div/div/div/div/div/div/div/ul/li/div/ul/li'
p447
F8.965784284662087
sS'/html/body/div/div/div/div/div/div/div/div/div/div/div/div/div/div/p/a'
p448
F8.965784284662087
sS'/html/body/div/div/div/div/div/div/div/div/div/div/ul/li/div/div/div/div/div/ul/li/div/div/div/a/span/span/span/button/span'
p449
F4.795859283219775
sS'/html/body/div/div/div/div/div/div/div/div/div/div/div/span/span/button'
p450
F2.680382065799839
sS'/html/body/div/div/div/div/div/div/div/div/div/div/ul/li/div/div/div/div/div/wbr/wbr/wbr/a'
p451
F8.965784284662087
sS'/html/body/div/div/div/div/div/div/div/div/div/div/div/ol/li/ol/li/ul/li/span/div/div/div/div/div/button/span'
p452
F7.965784284662087
sS'/html/body/div/div/div/div/div/div/div/div/div/div/div/ol/li/ol/li/div/div/div/ul/li/div/div/div/div/a/span'
p453
F8.965784284662087
sS'/html/body/div/div/div/div/div/div/div/div/div/div/ul/li/div/div/div/div/div/div/div/ul/li/div/div/div/div/ul/li'
p454
F2.1202942337177118
sS'/html/body/div/div/div/div/div/div/ul/li/a/span'
p455
F1.0831412353002459
sS'/html/body/div/div/div/div/div/div/div/div/div/div/div/span/div/a/span'
p456
F1.0
sS'/html/body/div/div/div/div/div/div/div/div/div/div/ul/li/div/div/div/div/button'
p457
F5.380821783940931
sS'/html/body/div/div/span'
p458
F0.01449956969511517
sS'/html/body/div/div/div/div/div/div/div/div/div/div/div/div/ol/li/ol/li/div/div/div/div/div/div/div/a'
p459
F8.965784284662087
sS'/html/body/div/div/div/div/div/div/div/div/div/div/ul/li/ul/li/div/div/div/a/span/span/span/button/span'
p460
F6.158429362604484
sS'/html/body/div/div/div/div/div/div/div/div/div/div/div/div/div/span/div/div'
p461
F3.6082322800440036
sS'/html/body/div/div/div/div/div/div/div/div/div/ul/li/span/div/div/span/button/span/span'
p462
F2.107803289534515
sS'/html/body/div/div/div/div/div/div/div/div/div/div/div/div/ol/li/ol/li/div/div/div/div/ul/li/div/div/div/div/span'
p463
F8.965784284662087
sS'/html/body/div/div/div/div/div/div/div/div/div/div/div/div/ol/li/ol/li/div/div/div/div/div/span/button/span'
p464
F8.965784284662087
sS'/html/body/div/div/div/div/div/div/div/div/div/div/ul/li/div/div/div/span/b'
p465
F5.380821783940931
sS'/html/body/div/div/div/div/div/a/img'
p466
F8.965784284662087
sS'/html/body/div/div/div/div/div/div/div/div/div/div/ul/li/div/table/tbody/tr/td/span/span/button/ul/li/span'
p467
F3.6082322800440036
sS'/html/body/div/div/div/div/div/div/div/div/div/div/div/div/ol/li/ol/li/div/div/div/div/h2/a/div/div/span/img'
p468
F8.965784284662087
sS'/html/body/div/div/div/div/div/div/div/div/div/div/div/ul/li'
p469
F5.380821783940931
sS'/html/body/div/div/div/div/div/div/div/div/div/div/span/button/span'
p470
F0.01449956969511517
sS'/html/body/div/div/div/div/div/div/div/div/ul/li/h2'
p471
F1.3959286763311394
sS'/html/body/div/div/div/div/div/div/div/div/div/div/ul/li/div/div/div/section/div/div/div/div/div/div/a'
p472
F5.643856189774724
sS'/html/body/div/div/div/div/div/div/div/div/div/div/div/div/ol/li/ol/li/div/div/div/div/div/div/h3/a'
p473
F8.965784284662087
sS'/html/body/div/div/div/div/div/div/div/div/div/div/ul/li/div/div/div/div/div/ul/li/div/div/div/a/span/span/span/span/img'
p474
F4.795859283219775
sS'/html/body/div/div/div/h2'
p475
F8.965784284662087
sS'/html/head/style'
p476
F0.0028882793248263526
sS'/html/body/div/div/div/div/div/div/div/ul/li/div/h3'
p477
F1.0350469470992008
sS'/html/body/div/div/div/div/div/div/div/div/div/div/div/a'
p478
F1.0
sS'/html/body/div/div/div/div/div/div/div/div/div/div/ul/li/div/div/div/section/div/div/div/div/div/div/div'
p479
F5.643856189774724
sS'/html/body/div/div/div/div/div/div/div/div/div/div/div/div/ol/li/ol/li/div/div/div/div/div/button'
p480
F8.965784284662087
sS'/html/body/div/div/div/div/div/div/div/div/div/div/div/ol/li/ol/li/div/div/div/ul/li/div/div/div/div/div'
p481
F8.965784284662087
sS'/html/body/div/div/div/div/div/div/div/div/div/div/div/div/div/div/div/div/div/p'
p482
F8.965784284662087
sS'/html/body/div/div/div/div/div/div/div/div/div/div/ul/li/div/div/div/div/div/h2/a/span/span'
p483
F1.9213901653036336
sS'/html/body/div/div/div/div/div/div/div/div/div/div/ul/li/ul/li/div/div/div/div/ul'
p484
F6.965784284662088
sS'/html/body/div/div/div/div/div/div/div/div/div/div/button/span/span'
p485
F4.717856771218502
sS'/html/body/div/div/div/div/div/div/div/div/div/div/ul/li/div/div/div/div/div/div/div/ul/li/div/div/div/a/span/span/span/span/span/b'
p486
F3.7958592832197753
sS'/html/body/div/div/div/div/div/div/div/div/div/div/div/div/ul/li/a/span/span/span/button/span'
p487
F2.5734668618833267
sS'/html/body/div/div/div/div/div/div/div/div/div/div/div/div/img'
p488
F3.6082322800440036
sS'/html/body/div/div/div/div/div/div/div/div/p'
p489
F7.380821783940932
sS'/html/body/div/div/div/div/div/div/div/div/div/div/ul/li/div/div/div/a/span/span/span/span'
p490
F5.380821783940931
sS'/html/body/div/div/div/div/div/div/div/div/div/div/ul/li/span/div/a/span/span/span/img'
p491
F7.380821783940932
sS'/html/body/div/div/div/div/div/div/div/div/div/div/ul/li/div/div/div/br'
p492
F5.380821783940931
sS'/html/body/div/div/div/div/div/div/div/div/a'
p493
F8.965784284662087
sS'/html/body/div/div/div'
p494
F0.011587974275211823
sS'/html/body/div/div/div/div/div/div/div/ol/li/ol/li/a'
p495
F7.965784284662087
sS'/html/body/div/div/div/div/div/div/div/div/div/div/div/h1/span'
p496
F1.0
sS'/html/body/div/div/div/div/div/div/div/div/div/div/div/div/div/ul/li/ul/li/a'
p497
F1.0
sS'/html/body/div/div/div/span'
p498
F7.380821783940932
sS'/html/body/div/div/div/div/div/div/div/div/div/div/div/ol/li/ol/li/div/div/div/ul/li/div/div/div/div/div/ul/li'
p499
F8.965784284662087
sS'/html/body/div/div/div/div/div/div/div/div/div/div/div/div/div/div/div/div/div/div/div/span/span/button/ul/li/span'
p500
F8.965784284662087
sS'/html/body/div/div/div/a/span'
p501
F0.0028882793248263526
sS'/html/body/div/div/div/div/div/div/div/div/div/div/ul/li/div/div/div/div/div/div/div/ul/li/div/div/div/a/span/span/span/button/span'
p502
F3.7958592832197753
sS'/html/body/div/div/div/div/div/div/div/div/div/div/ul/li/div/div/div/div/div/div/div/ul/li/div/div/a/span/span/span/img'
p503
F4.158429362604483
sS'/html/body/div/div/div/div/div/script'
p504
F0.02914634565951651
sS'/html/body/div/div/div/div/div/div/div/div/div/div/ul/li/a/img'
p505
F1.5228407888133588
sS'/html/body/div/div/div/div/div/div/div/div/div/div/div/ol/li/ol/li/ul/li/span/span/button/span'
p506
F7.965784284662087
sS'/html/body/div/div/div/div/div/div/div/div/div/div/ul/li/div/div/div/div/div/ul/li/div/div/div/span/span/button/span'
p507
F4.573466861883327
sS'/html/body/div/div/div/div/form/div/div/a'
p508
F8.965784284662087
sS'/html/body/div/div/div/div/div/div/div/div/div/div/div/ol/li/ol/li/div/div/div/div/div'
p509
F8.965784284662087
sS'/html/body/div/div'
p510
F0.0028882793248263526
sS'/html/body/div/div/div/div/div/div/div/div/div/div/div/ol/li/ol/li/div'
p511
F8.965784284662087
sS'/html/body/div/div/div/div/div/div/div/div/div/div/ul/li/span/div/div/span/span'
p512
F7.380821783940932
sS'/html/body/div/div/div/div/div/div/div/div/div/div/ul/li/ul/li/div/div/div/span/span/button/ul/li/span'
p513
F4.717856771218502
sS'/html/body/div/div/div/div/div/div/div/div/div/div/ul/li/div/div/div/a/span/span/span/img'
p514
F5.380821783940931
sS'/html/body/div/div/div/div/div/div/div/div/div/div/div/div/div/div/div/div/div/h1/span/span/span'
p515
F8.965784284662087
sS'/html/body/div/div/div/div/div/div/div/div/ul/li/div/p'
p516
F8.965784284662087
sS'/html/body/div/div/div/div/div/div/div/div/div/div/div/div/div/div/div/div/div/div/h1/span/span/span/a'
p517
F8.965784284662087
sS'/html/body/div/div/div/div/div/div/div/div/div/div/ul/li/div/div/div/span'
p518
F4.265344566520995
sS'/html/body/div/div/div/div/div/div/div/div/div/div/div/div/div/div/div/div/div/div/h1/span/a/span'
p519
F8.965784284662087
sS'/html/body/div/div/div/div/div/div/div/div/div/div/div/div/div/div/div/div/div/div/span/a/span/span/span/span'
p520
F8.965784284662087
sS'/html/body/div/div/div/div/div/div/div/div/div/div/div/div/div/div/div/div/div/div/div/span/button/span/span'
p521
F8.965784284662087
sS'/html/body/div'
p522
F0.017417053077409393
sS'/html/body/div/div/div/div/div/div/div/div/div/div/ul/li/div/div/div/section/div/div/div/div/span'
p523
F5.795859283219775
sS'/html/body/div/div/div/div/div/div/div/div/div/div/div/div/div/ul/li/div/a/span/img'
p524
F1.5994620704162712
sS'/html/body/div/div/div/div/div/div/div/div/div/div/ul/li/div/div/div/div/div/div/div/ul/li/div/div/div/div'
p525
F7.965784284662087
sS'/html/body/div/div/div/div/div/div/div/div/div/div/ul/li/div/table/tbody/tr/td/div'
p526
F3.6082322800440036
sS'/html/body/div/div/div/div/div/div/div/div/div/div/div/div/span/div/div/div/div/div'
p527
F1.4422223286050742
sS'/html/body/div/div/div/div/div/div/div/div/div/div/ul/li/div/div/div/div/div/ul/li/div/div/div/ul/li/span'
p528
F5.643856189774724
sS'/html/body/div/div/div/div/div/div/div/div/div/div/span/span/div/div/div/div/div/div/div/div/p/span'
p529
F1.0
sS'/html/body/div/div/div/div/div/div/div/div/div/div/div/button/span'
p530
F1.0
sS'/html/body/div/div/div/div/div/div/div/div/div/div/ul/li/div/div/div/div/div/div/div/ul/li/div/div/div/span/button/span'
p531
F2.1202942337177118
sS'/html/body/div/div/div/div/div/div/div/div/div/div/ul/li/div/div/div/div/div/wbr/br'
p532
F6.643856189774725
sS'/html/body/div/div/div/div/div/div/div/div/div/div/div/a/span'
p533
F1.0
sS'/html/body/div/div/div/div/div/div/div/div/div/div/ul/li/div/div/div/div/div/a'
p534
F2.643856189774725
sS'/html/body/div/div/div/div/div/div/div/div/div/div/ul/li/p'
p535
F7.380821783940932
sS'/html/body/div/div/div/div/div/div/div/ul/li/div/ul/li/a/span/span/span/span/span/span'
p536
F1.0350469470992008
sS'/html/body/div/div/div/div/div/div/div/div/div/div/div/div/div'
p537
F0.7858751946471525
sS'/html/body/div/div/div/div/div/div/div/div/div/div/ul/li/div/div/div/div/div/ul/li/div/div/div/span/button'
p538
F4.573466861883327
sS'/html/body/div/div/div/div/div/div/div/div/p/strong'
p539
F8.965784284662087
sS'/html/body/div/div/div/div/div/div/div/div/button/span'
p540
F7.380821783940932
sS'/html/body/div/div/div/div/a/span'
p541
F0.005782352594006179
sS'/html/body/div/div/div/div/div/div/div/div/div/div/ul/li/ul/li/div/div/div/h3/a'
p542
F4.265344566520995
sS'/html/body/div/div/div/div/div/div/div/div/div/div/div/ol/li/ol/li/ul/li/span/div/div/span'
p543
F7.965784284662087
sS'/html/body/div/div/div/div/div/div/div/div/div/div/ul/li/div/table/tbody/tr/td/div/div'
p544
F3.6082322800440036
sS'/html/body/div/div/div/div/div/div/div/div/div/div/ul/li/div/div/div/section/div/div/a/span/span/span/img'
p545
F5.795859283219775
sS'/html/body/div/div/div/div/div/div/div/div/div/div/div/span/span/div/h3'
p546
F1.0
sS'/html/body/div/div/div/div/div/meta'
p547
F8.965784284662087
sS'/html/body/div/div/div/div/div/div/div/div/div/div/div/div/div/div/div/div/div/div/span/span'
p548
F8.965784284662087
sS'/html/body/div/div/div/div/div/div/div/div/div/div/ul/li/div/div/div/div/a'
p549
F2.5907448533151625
sS'/html/body/div/link'
p550
F1.3510744405468789
sS'/html/body/div/div/div/div/div/div/div/div/div/div/div/div/div/span/label/span'
p551
F1.5994620704162712
sS'/html/body/div/div/div/div/div/div/a/img'
p552
F1.1140352432460294
sS'/html/body/div/div/div/div/div/div/div/div/div/div/ul/li/div/div/div/div/div/ul/li/div/div/div/a/span/span/span/button/ul/li/span'
p553
F4.795859283219775
sS'/html/body/div/div/div/div/div/div/div/div/div/div/div/div/div/ul/li/button/span'
p554
F1.2933589426905916
sS'/html/body/div/div/div/div/div/div/div/div/div/div/ul/li/div/div/div/div/div/ul/li/div/div/div/span/button/span/span'
p555
F8.965784284662087
sS'/html/body/div/div/div/div/div/link'
p556
F8.965784284662087
sS'/html/body/div/div/div/div/div/div/div/div/div/div/ul/li/div/div/div/div/div/div/div/ul/li/div/div/div/a/span/span/span/span/img'
p557
F3.7958592832197753
sS'/html/body/div/div/div/div/div/div/div/div/div/div/div/div/div/div/div/div/div/div/h1/span/span/span'
p558
F8.965784284662087
sS'/html/body/div/div/div/div/div/div/div/div/div/div/ul/li/div/div/div/section/div/div/div/div/a'
p559
F5.50635266602479
sS'/html/body/div/div/div/div/form/div/div/input'
p560
F8.965784284662087
sS'/html/body/div/div/div/div/div/div/div/div/div/div/div/div/ul/div/li'
p561
F1.0350469470992008
sS'/html/body/div/div/div/div/div/div/div/div/div/div/ul/li/div/div/div/div/div/div/div/ul/li/div/div/div/div/span/button/span'
p562
F6.643856189774725
sS'/html/body/div/div/div/div/div/div/div/div/div/div/ul/li/div/div/div/section/div/div/div/div/a/span/span/span/span'
p563
F5.643856189774724
sS'/html/body/div/div/div/div/div/div/div/div/div/div/div/div/div/ul/li/span/div/a/span'
p564
F1.0
sS'/html/body/div/div/div/div/div/div/div/div/div/div/div/div/div/div/div/div/div/div/span/span/button/ul/li/span'
p565
F8.965784284662087
sS'/html/head/title'
p566
F0.0
sS'/html/body/div/div/div/div/div/div/div/div/div/div/ul/li/div/div/div/div/div/div/div/ul/li/div/div/div/span/button'
p567
F2.1202942337177118
sS'/html/body/div/div/div/div/form/div/input'
p568
F7.380821783940932
sS'/html/body/div/div/div/div/div/div/div/div/div/div/ul/li/div/div/div/div/div/div/div/ul/li/div/div/div/a/span/span/span/span/span'
p569
F3.7958592832197753
sS'/html/body/div/div/div/div/div/div/p/span/a'
p570
F8.965784284662087
sS'/html/body/div/div/div/div/div/div/div/div/span/link'
p571
F1.0
sS'/html/body/div/div/div/div/div/div/div/ul/li/p'
p572
F1.0350469470992008
sS'/html/body/div/div/ul/li/a'
p573
F7.380821783940932
sS'/html/body/div/div/div/div/div/div/div/div/div/div/ul/li/div/div/div/div/div/div/div/ul/li/div/div/span/span'
p574
F4.158429362604483
sS'/html/body/div/div/div/div/div/div/div/div/div/div/ul/li/div/div/div/section/div/div'
p575
F5.380821783940931
sS'/html/body/div/div/div/div/div/div/div/div/a/span'
p576
F7.965784284662087
sS'/html/body/div/div/div/div/div/div/div/div/div/div/ul/li/div/div/div/h3/a'
p577
F2.5734668618833267
sS'/html/body/div/div/div/div/div/div/ul/li/span/a'
p578
F8.965784284662087
sS'/html/body/div/div/div/div/div/div/div/div/div/div/ul/li/div/div/div/section/div/div/div/div/div/div/span'
p579
F5.643856189774724
sS'/html/body/div/div/div/div/div/button/span'
p580
F7.380821783940932
sS'/html/body/div/div/div/div/div/div/div/div/div/div/div/ol/li/ol/li/div/a'
p581
F8.965784284662087
sS'/html/body/div/div/div/div/div/div/div/div/div/div/ul/li/ul/li/div/div/div/span/span/button/span'
p582
F4.717856771218502
sS'/html/body/div/div/div/div/div/div/div/div/div/div/div/div/ol/li/ol/li/div/div/div/div/h2/a/span'
p583
F8.965784284662087
sS'/html/body/div/div/div/div/div/div/div/div/div/div/div/div/div/a'
p584
F7.380821783940932
sS'/html/body/div/div/div/div/div/div/div/div/div/div/ul/li/div/div/pre'
p585
F5.380821783940931
sS'/html/body/div/div/div/div/div/div/div/div/div/div/ul/li/div/div/div/section/div/a/span/span/span/span'
p586
F5.380821783940931
sS'/html/body/div/div/div/div/div/div/div/div/div/div/div/div/div/ul/li/div/a/span/ul/li/span'
p587
F5.643856189774724
sS'/html/body/div/div/div/div/div/div/div/div/div/div/div/div/div/div/div/div/span/a/span/span/span/span'
p588
F7.965784284662087
sS'/html/body/div/div/div/div/div/div/div/div/div/div/ul/li/div/div/div/div/div/div/div/ul/li/div/div/div/ul/li/span'
p589
F8.965784284662087
sS'/html/body/div/div/div/div/div/div/div/div/div/div/ul/li/ul/li/div/div/div/span/span/span'
p590
F4.717856771218502
sS'/html/body/div/div/div/div/div/div/div/div/div/div/div/div/div/ul/li/div/a/span/span'
p591
F1.5994620704162712
sS'/html/body/div/div/div/div/div/div/div/div/div/div/div/div/div/div/div/h1/span/span/span/a'
p592
F7.965784284662087
sS'/html/body/div/div/div/div/div/div/div/div/div/div/p/span'
p593
F8.965784284662087
sS'/html/body/div/div/div/div/div/div/div/div/div/div/div/div/ul/li/a/span/span/button'
p594
F2.5734668618833267
sS'/html/body/div/div/div/div/div/div/div/div/div/div/div/div/ul/li/a/span/span/span/span/span'
p595
F2.1713684183119812
sS'/html/body/div/div/div/div/div/div/div/div/div/div/div/div/h3/a/span'
p596
F7.965784284662087
sS'/html/body/div/div/div/div/div/div/div/h2'
p597
F8.965784284662087
sS'/html/body/div/div/div/div/div/div/div/h1'
p598
F0.9885043611621707
sS'/html/body/div/div/div/div/div/div/div/div/div/div/div/div/span/div/div/div/div/div/div/div/div/p/span'
p599
F1.4422223286050742
sS'/html/body/div/div/div/div/div/div/div/div/div/div/div/div/ul/li/button'
p600
F8.965784284662087
sS'/html/body/link'
p601
F1.3510744405468789
sS'/html/body/div/div/div/div/div/div/div/div/div/div/ul/li/div/div/div/div/div/div/div/ul/li/div/div/div/h3/span'
p602
F2.0232697793228476
sS'/html/body/div/div/div/div/div/div/div/div/div/div'
p603
F0.6850135145314844
sS'/html/body/div/div/div/div/div/div/div/div/div/div/div/div/div/ul/li/div/a/span'
p604
F1.5994620704162712
sS'/html/body/div/div/div/div/div/div/div/div/div/div/div/a/span/span'
p605
F2.6259342817774622
sS'/html/body/div/div/div/div/div/div/div/div/div/div/ul/li/div/div/div/div/div/div/div/ul/li/div/div/h3/span'
p606
F4.158429362604483
sS'/html/body/div/div/div/div/div/div/div/div/div/div/ul/li/div/table/tbody/tr/td/div/div/span'
p607
F3.6082322800440036
sS'/html/body/div/div/div/div/div/div/div/div/div/div/div/div/h3/img'
p608
F7.965784284662087
sS'/html/body/div/div/div/div/div/div/div/div/div/div/div/div/div/button'
p609
F8.965784284662087
sS'/html/body/div/div/div/div/div/div/div/div/div/div/ul/li/ul/li/div/div/h3/a'
p610
F6.158429362604484
sS'/html/body/div/div/div/div/div/div/div/div/div/div/div/ol/li/ol/li/div/div/div/ul/li/div/div/div/div/span/button/span'
p611
F8.965784284662087
sS'/html/body/div/div/div/div/div/div/div/div/div/div/ul/li/div/div/div/section/div'
p612
F5.380821783940931
sS'/html/body/div/div/div/div/div/div/div/div/div/div/div/div/div/ul/li/span/button/span'
p613
F1.0
sS'/html/body/div/div/div/div/div/div/div/div/div/div/div/div/ul/li/h2'
p614
F7.965784284662087
sS'/html/body/div/div/div/div/div/div/div/div/div/div/ul/li/div/div/div/div/div/div/div/ul/li/div/div/div/a/span/span/span/span'
p615
F3.7958592832197753
sS'/html/body/div/div/div/div/div/div/div/div/div/div/div/div/div/button/span'
p616
F8.965784284662087
sS'/html/body/div/div/div/div/div/div/div/div/div/div/div/div/div/ul/li/ul/li/span/a'
p617
F7.965784284662087
sS'/html/body/div/div/div/div/div/div/div/div/div/div/div/ol/li/ol/li/div/div/div/ul/li/div/div/div/div/h3/a'
p618
F8.965784284662087
sS'/html/body/div/div/div/div/div/div/div/div/div/div/div/div/div/div/div/h1/span/a/span'
p619
F7.965784284662087
sS'/html/body/div/div/div/div/div/div/div/div/div/div/a/span/span/span/span'
p620
F1.0
sS'/html/body/div/div/div/div/div/div/div/div/ul/li/button/span'
p621
F8.965784284662087
sS'/html/body/div/div/div/div/div/div/div/div/div/ol/p/span'
p622
F0.01449956969511517
sS'/html/body/div/div/div/div/div/div/div/div/div/div/ul/li/div/div/div/section/div/div/div/div/div/div/div/a'
p623
F6.380821783940931
sS'/html/body/meta'
p624
F1.3510744405468789
sS'/html/body/div/div/div/div/div/div/div/div/div/div/div/div/ul/li/div/a/span/ul/li/span'
p625
F3.0350469470992008
sS'/html/body/div/div/div/div/div/div/div/div/div/div/div/div/div/div/div/div/div/div/p/span'
p626
F7.380821783940932
sS'/html/body/div/div/div/div/div/div/div/div/div/div/div'
p627
F0.03800632257974474
sS'/html/body/div/div/div/div/div/div/div/div/div/ul/li/span/div/a/span/span/span/img'
p628
F2.107803289534515
sS'/html/body/div/div/div/div/div/div/div/div/div/div/div/div/span/div/div/div/div/div/div/div/div'
p629
F1.4422223286050742
sS'/html/body/div/div/div/div/div/div/div/div/div/div/div/div/div/div/div/div/div/div/span/span/button/span'
p630
F8.965784284662087
sS'/html/body/div/div/div/div/div/div/div/div/div/h2/a'
p631
F4.643856189774724
sS'/html/body/div/div/div/div/div/div/div/div/div/div/div/div/a/span/span/span/img'
p632
F7.965784284662087
sS'/html/body/div/div/div/div/div/div/div/div/div/div/div/span/div/div'
p633
F1.0
sS'/html/body/div/div/div/div/div/div/div/p/span'
p634
F0.005782352594006179
sS'/html/body/div/div/div/div/span/select/option'
p635
F8.965784284662087
sS'/html/body/div/div/div/div/div/div/div/div/div/div/div/div/ol/li/ol/li/div/div/div/div/div/div/span/button/ul/li/span'
p636
F8.965784284662087
sS'/html/body/div/div/div/div/div/div/div/div/div'
p637
F0.011587974275211823
sS'/html/body/div/div/div/div/div/div/div/div/div/div/div/div/div/ul/li/h4'
p638
F1.0
sS'/html/body/div/div/div/div/div/div/div/div/div/div/div/h3/a'
p639
F2.8783214434117474
sS'/html/body/div/div/div/div/div/div/button/span'
p640
F0.01449956969511517
sS'/html/body/div/div/div/div/div/div/h1'
p641
F8.965784284662087
sS'/html/body/div/div/div/div/div/div/div/div/div/div/div/div/ol/li/ol/li/div/div'
p642
F8.965784284662087
sS'/html/body/div/div/div/div/div/div/div/div/div/div/div/div/div/div/div/div/div/div/span/button/span/span'
p643
F8.965784284662087
sS'/html/body/div/div/div/div/div/div/div/div/div/div/div/div/div/a/span/span/span/span'
p644
F7.965784284662087
sS'/html/body/div/div/div/div/div/div/div/div/div/div/div/div/div/label'
p645
F1.5994620704162712
sS'/html/body/div/div/div/div/div/div/div/div/div/div/div/div/div/div/div/div/div/img'
p646
F7.380821783940932
sS'/html/body/div/div/div/div/div/div/div/div/div/div/ul/li/div/div/div/div/div/h2/a/span/span/span/img'
p647
F3.7958592832197753
sS'/html/body/div/div/div/div/div/div/div/div/div/div/ul/li/div/div/h2/b'
p648
F5.380821783940931
sS'/html/body/div/div/div/div/div/div/div/div/div/div/div/div/div/span'
p649
F4.965784284662088
sS'/html/body/div/div/div/div/div/div/div/div/div/div/ul/li/span/div/h3/a/span/span'
p650
F7.380821783940932
sS'/html/body/div/div/div/div/div/div/div/div/div/div/ul/li/div/table/tbody/tr/td/a'
p651
F3.6082322800440036
sS'/html/body/div/div/div/div/div/div/div/div/div/div/div/div/div/span/span'
p652
F1.5994620704162712
sS'/html/body/div/div/div/div/div/div/div/div/div/div/div/ol/li/ol/li/div/div/div/ul/li/div/div/div/div/a/div/span/img'
p653
F8.965784284662087
s.