(dp0
S'/html/body/div/div/div/div/div/div/p/span'
p1
F6.795859283219775
sS'/html/body/div/div/div/div/div/div/div/div/div/img'
p2
F9.965784284662087
sS'/html/body/div/div/div/div/div/dl/dt/div/br'
p3
F3.2515387669959646
sS'/html/body/section/div/div/div/a'
p4
F8.965784284662087
sS'/html/body/section/section/div/div/span'
p5
F7.643856189774724
sS'/html/body/div/div/div/div/div/div/script'
p6
F0.39782820924662077
sS'/html/body/div/div/div/div/div/div/div/div/a/img'
p7
F2.2243172982609405
sS'/html/body/div/div/div/div/div/p/span/b/font'
p8
F9.965784284662087
sS'/html/body/div/div/div/div/div/div/div/div/div/i'
p9
F7.965784284662087
sS'/html/body/div/div/div/dl/dd/div/ul/li/a'
p10
F4.058893689053568
sS'/html/body/div/div/div/ul/li/div/span/a/i'
p11
F7.643856189774724
sS'/html/body/div/div/div/div/div/div/p/br'
p12
F9.965784284662087
sS'/html/body/div/div/div/div/div/div/div/div/a'
p13
F2.2243172982609405
sS'/html/body/div/div/div/div/div/dl/dt/div/p/a/img'
p14
F7.380821783940932
sS'/html/body/div/div/div'
p15
F0.008682243099800773
sS'/html/body/div/div/div/div/div/dl/dt/div/div/a/s'
p16
F5.965784284662088
sS'/html/body/div/div/div/div/div/p/a'
p17
F4.321928094887363
sS'/html/body/div/div/div/div/div/span/span'
p18
F0.39782820924662077
sS'/html/body/div/div/div/div/div/p/b'
p19
F7.965784284662087
sS'/html/body/div/div/div/span'
p20
F0.27753397552890896
sS'/html/body/div/div/div/div/div/p/strong/span/img'
p21
F9.965784284662087
sS'/html/body/div/div/div/div/div/div/b/img'
p22
F9.965784284662087
sS'/html/body/section/section/div/div/strong'
p23
F7.643856189774724
sS'/html/body/div/div/div/ul/li/div/dl/dd/a/img'
p24
F8.965784284662087
sS'/html/body/div/div/div/dl/dd/img'
p25
F2.139235797371172
sS'/html/body/div/div/div/div/div/div/div/div/div/br'
p26
F9.965784284662087
sS'/html/body/div/div/div/i'
p27
F2.5907448533151625
sS'/html/body/div/div/div/div/div/div/div/div/s/span'
p28
F2.217591435072627
sS'/html/body/div/div/div/div/div/div/p'
p29
F3.1456053222468996
sS'/html/body/div/div/div/a/span'
p30
F0.12973392960401722
sS'/html/body/section/section/article/p/span'
p31
F8.965784284662087
sS'/html/body/div/div/div/div/div/dl/dt/div/strong'
p32
F7.965784284662087
sS'/html/body/div/div/div/a/i'
p33
F2.547931769776189
sS'/html/body/div/div/div/div/div/div/div/div/span/font'
p34
F9.965784284662087
sS'/html/body/section/section/article/p/a'
p35
F7.643856189774724
sS'/html/body/div/div/div/div/div/div/div/div/div/div/div/div/div/span'
p36
F7.965784284662087
sS'/html/body/div/div/div/div/div/div/div/div/s/i'
p37
F2.217591435072627
sS'/html/body/rss/channel/image/link'
p38
F9.965784284662087
sS'/html/body/div/div/div/div/div/div/a'
p39
F0.3883554566263383
sS'/html/body/div/div/div/div/div/dl/dd/div/a/i'
p40
F0.6734626518600482
sS'/html/body/div/div/div/div/div/dl/dt/div/div/strong'
p41
F9.965784284662087
sS'/html/body/div/div/div/div/div/dl/dt/div/div/p/strong'
p42
F6.795859283219775
sS'/html/body/div/div/div/div/div/div/span/div/s/span'
p43
F0.39782820924662077
sS'/html/body/div/div/div/div/span/a/i'
p44
F0.4131151871478154
sS'/html/body/rss/channel/lastbuilddate'
p45
F9.965784284662087
sS'/html/body/div/div/div/div/div/dl/dt/div/p/em'
p46
F8.965784284662087
sS'/html/body/div/div/a/img'
p47
F0.3959286763311393
sS'/html/body/div/div/div/div/div/div/div/div/img'
p48
F9.965784284662087
sS'/html/body/div/div/div/div/a'
p49
F0.386468347082073
sS'/html/body/div/div/div/div/ul/li/h4/a'
p50
F0.4131151871478154
sS'/html/body/div/div/div/div/div/div/i'
p51
F2.7178567712185013
sS'/html/body/div/div/div/div/div/dl/dt/div/p/strong'
p52
F4.539519529959989
sS'/html/body/div/div/div/div/div/div/div/strong'
p53
F9.965784284662087
sS'/html/body/div/div/div/div/div/div/span'
p54
F0.3959286763311393
sS'/html/body/div/div/div/div/div/div/like'
p55
F0.39782820924662077
sS'/html/body/section/section/article/p/span/a'
p56
F8.965784284662087
sS'/html/head/meta'
p57
F0.001443416869668845
sS'/html/body/div/div/div/dl/dt/h2'
p58
F9.965784284662087
sS'/html/body/section/div/div/div/dl/dd/span/a/i'
p59
F7.643856189774724
sS'/html/body/div/div/div/div/div/dl/dd/span/span/a/i'
p60
F7.643856189774724
sS'/html/body/div/div/div/div/div/div/div/div/font'
p61
F9.965784284662087
sS'/html/body/section/div/div/a'
p62
F7.643856189774724
sS'/html/body/section/section/article/a/img'
p63
F7.643856189774724
sS'/html/body/div/div/div/div/div/div/div/span'
p64
F5.878321443411747
sS'/html/body/div/div/div/div/div/dl/dt/div/div/p'
p65
F2.265344566520995
sS'/html/body/div/div/div/div/ul/li/p/a/img'
p66
F0.4131151871478154
sS'/html/script'
p67
F0.008682243099800773
sS'/html/body/div/div/div/ul/li/div/a'
p68
F0.008682243099800773
sS'/html/body/div/div/div/div/div/span'
p69
F0.008682243099800773
sS'/html/body/div/div/div/div/div/dl/dt/div/div'
p70
F2.2243172982609405
sS'/html/body/div/div/div/dl/dd/a/img'
p71
F6.965784284662088
sS'/html/body/div/div/div/div/div/h2'
p72
F1.6126374591640045
sS'/html/body/div/div/div/div/div/dl/dt/div/div/a'
p73
F1.6348674065474702
sS'/html/body/div/div/div/div/div/dl/dt/div/p/strong/em'
p74
F9.965784284662087
sS'/html/body/div/div/div/div/div/dl/dt/div/p/a/strong'
p75
F7.965784284662087
sS'/html/body/div/div/div/div/div/div/a/span'
p76
F2.2243172982609405
sS'/html/body/div/div/div/div/div/dl/dd/span'
p77
F0.6734626518600482
sS'/html/body/div/div/div/div/div/dl/dt/a'
p78
F1.8008773579863993
sS'/html/body/rss/channel/generator'
p79
F9.965784284662087
sS'/html/body/div/div/div/div/div/dl/dd/div/span'
p80
F0.6734626518600482
sS'/html/body/div/div/div/div/ul/li/span'
p81
F0.4285658841234907
sS'/html/body/div/div/div/div/div/dl/dt/div/div/a/span'
p82
F5.965784284662088
sS'/html/body/div/div/div/div/div/dl/dt/div/p/span'
p83
F6.795859283219775
sS'/html/body/section/div/div/ul/li/a/h4'
p84
F7.643856189774724
sS'/html/body/div/div/div/div/div/div/div/font'
p85
F9.965784284662087
sS'/html/body/div/div/div/a/s/span'
p86
F0.41888982477445036
sS'/html/body/section/div/div/div/dl/dt/div/div/a/font'
p87
F8.380821783940931
sS'/html/body/div/div/div/div/div/dl/dd/span/span'
p88
F0.6734626518600482
sS'/html/body/div/div/input'
p89
F0.3959286763311393
sS'/html/body/div/div/div/div/div/dl/dt/div/div/span/p/strong'
p90
F9.965784284662087
sS'/html/body/div/div/div/div/h2/span'
p91
F8.965784284662087
sS'/html/body/rss/channel/image/url'
p92
F9.965784284662087
sS'/html/body/div/div/div/div/div/div/div/div/i'
p93
F7.965784284662087
sS'/html/head/script'
p94
F0.001443416869668845
sS'/html/body/div/div/div/ul/li/div/dl/dt/h4/a'
p95
F8.965784284662087
sS'/html/body/div/div/div/dl/dd/div/ul/li'
p96
F4.058893689053568
sS'/html/body/div/div/div/dl/dd/br'
p97
F9.965784284662087
sS'/html/body/div/div/div/div/div/div/span/div/a'
p98
F0.39782820924662077
sS'/html/body/div/div/div/div/div/div/div/input'
p99
F0.3959286763311393
sS'/html/body/div/div/div/div/div/dl/dt/div/div/span/a'
p100
F9.965784284662087
sS'/html/head/link'
p101
F0.001443416869668845
sS'/html/body/div/div/div/ul/li/div/span'
p102
F7.643856189774724
sS'/html/body/div/div/div/dl/dt/div/span'
p103
F6.965784284662088
sS'/html/body/div/div/div/h1'
p104
F0.4131151871478154
sS'/html/body/div/div/div/ul/li/div/span/span/a'
p105
F7.643856189774724
sS'/html/body/div/div/div/div/div/p/br'
p106
F5.058893689053569
sS'/html/body/div/div/div/div/div/dl/dt/div/div/span/p'
p107
F6.643856189774725
sS'/html/body/div/div/div/div/div/div/a/img'
p108
F8.965784284662087
sS'/html/body/div/div/div/div/div/div/textarea'
p109
F0.3959286763311393
sS'/html/body/div/div/div/div/div/p/strong/span'
p110
F7.643856189774724
sS'/html/body/div/div/div/ul/li/div/s/s'
p111
F0.008682243099800773
sS'/html/body/div/div/div/div/div/dl/dt/div/span'
p112
F8.965784284662087
sS'/html/body/div/div/div/div/span/a/span'
p113
F0.4131151871478154
sS'/html/body/rss/channel/image/title'
p114
F9.965784284662087
sS'/html/body/div/div/div/ul/li/a/s/s'
p115
F0.008682243099800773
sS'/html/body/div/div/div/ul/li/a/i'
p116
F0.008682243099800773
sS'/html/body/div/div/div/div/div/ul/li'
p117
F2.0954195650786827
sS'/html/body/div/div/div/div/div/div/div/div/span'
p118
F2.217591435072627
sS'/html/body/div/div/div/dl/dt/span'
p119
F2.5907448533151625
sS'/html/body/div/div/div/div/div/div/div/div/span/font/b'
p120
F9.965784284662087
sS'/html/body/section/div/div/ul/li/a/div/div/i'
p121
F7.643856189774724
sS'/html/body/div/div/div/dl/dd/a/span'
p122
F6.965784284662088
sS'/html/body/div/div/div/div/p/a/img'
p123
F0.3959286763311393
sS'/html/body/div/div/div/ul/li/div/span/a/s/i'
p124
F8.380821783940931
sS'/html/body/div/div/div/div/a/span'
p125
F4.058893689053568
sS'/html/body/div/div/div/div/div/p/font/br'
p126
F9.965784284662087
sS'/html/body/div/div/div/div/div/div/div/div/div/a'
p127
F7.965784284662087
sS'/html/body/section/div/div/textarea'
p128
F7.643856189774724
sS'/html/body/div/div/div/div/div/dl/dt/div/a'
p129
F6.795859283219775
sS'/html/head/title'
p130
F0.001443416869668845
sS'/html/body/div/div/div/div/span/span/a'
p131
F0.4131151871478154
sS'/html/body/div/div/div/div/div/div/div'
p132
F0.3959286763311393
sS'/html/body/div/footer/div/div/a/i'
p133
F7.643856189774724
sS'/html/body/div/div/div/div/div/dl/dt/div/p/span/strong'
p134
F8.965784284662087
sS'/html/body/div/div/div/div/div/dl/dt/div/a/img'
p135
F9.965784284662087
sS'/html/body/section/div/div/span'
p136
F7.643856189774724
sS'/html/body/div/div/div/div/div/div/span/a/s/span'
p137
F0.39782820924662077
sS'/html/body/div/div/div/ul/li/div/span/a/s/span'
p138
F8.380821783940931
sS'/html/body/div/nav/div/a'
p139
F7.643856189774724
sS'/html/body/div/div/div/div/div/div/div/span/a'
p140
F2.2243172982609405
sS'/html/body/div/div/div/div/div/p/font/img'
p141
F9.965784284662087
sS'/html/body/div/div/div/div/div/h2/span'
p142
F0.6734626518600482
sS'/html/body/div/div/div/div/div/dl/dt/div/div/span'
p143
F8.380821783940931
sS'/html/body/div/div/div/div/div/table/tbody/tr/td'
p144
F9.965784284662087
sS'/html/body/div/div/div/div/div/dl/dt/div/a/strong'
p145
F9.965784284662087
sS'/html/body/section/section/div/div/div'
p146
F7.643856189774724
sS'/html/body/div/div/div/a/s/i'
p147
F0.41888982477445036
sS'/html/body/div/div/div/div/div/div/span/span'
p148
F2.2378638300988882
sS'/html/body/div/div/div/div/a/img'
p149
F2.0954195650786827
sS'/html/body/div/div/div/div/div/dl/dt/div/p/em/strong'
p150
F9.965784284662087
sS'/html/body/div/div/div/div/div/table/tbody/tr/th'
p151
F9.965784284662087
sS'/html/body/section/section/header/div/span/span'
p152
F7.643856189774724
sS'/html/body/div/div/div/div/div/p/a/strong/font'
p153
F8.965784284662087
sS'/html/body/section/div/div/div/dl/dd/span/a'
p154
F7.643856189774724
sS'/html/body/section/div/div/div/dl/dt/div/div'
p155
F8.380821783940931
sS'/html/body/div/div/div/div/div/div/span/a/s/i'
p156
F0.39782820924662077
sS'/html/body/div/div/div/div/div/div/div/div'
p157
F9.965784284662087
sS'/html/body/div/div/div/div/div/div/div/div/div/span/font/img'
p158
F9.965784284662087
sS'/html/body/section/div/div/div/dl/dt/div/span'
p159
F7.643856189774724
sS'/html/body/div/footer/div/div/p'
p160
F7.643856189774724
sS'/html/body/section/script'
p161
F7.643856189774724
sS'/html/body/div/div/div/ul/li/div/span/a'
p162
F7.643856189774724
sS'/html/body/section/div/ul/li/a/div/div/div/div/i'
p163
F7.643856189774724
sS'/html/body/div/div/div/div/div/dl/dt/div/p/strong/a'
p164
F3.7958592832197753
sS'/html/body/div/div/div/div/div/h3/a'
p165
F9.965784284662087
sS'/html/body/div/div/div/div/div/dl/dt/div/div/br'
p166
F6.058893689053569
sS'/html/body/div/div/div/div/div/dl/dt/div/p/a'
p167
F4.473931188332412
sS'/html/body/div/div/div/div/div/dl/dd/a/img'
p168
F0.6597225952337458
sS'/html/body/div/footer/div/div/a'
p169
F7.643856189774724
sS'/html/body/div/div/div/div/div/p/embed'
p170
F9.965784284662087
sS'/html/body/div/div/div/div/div/div/span/a'
p171
F9.965784284662087
sS'/html/body/div/div/div/div/div/div/p/em'
p172
F9.965784284662087
sS'/html/body/div/div/div/div/div/div/div/div/div/div/img'
p173
F9.965784284662087
sS'/html/body/div/div/div/dl/dt'
p174
F4.058893689053568
sS'/html/body/div/div/div/div/div/dl/dt/div/p/u'
p175
F9.965784284662087
sS'/html/body/div/div/div/dl/dd/div/span'
p176
F6.643856189774725
sS'/html/body/div/div/div/div/div/ul/li/a'
p177
F2.0954195650786827
sS'/html/body/div/div/div/div/div'
p178
F1.3111482561341197
sS'/html/body/div/div/div/div/div/a'
p179
F3.5563933485243853
sS'/html/body/div/div/div/div/div/ul/li/div/a'
p180
F2.0954195650786827
sS'/html/body/div/footer/div/div/div/a'
p181
F7.643856189774724
sS'/html/body/div/div/div/div/div/div/p/strong'
p182
F9.965784284662087
sS'/html/body/div/div/div/div/div/p/strong/a'
p183
F8.380821783940931
sS'/html/body/section/div/ul/li/a/div/div/h3'
p184
F7.643856189774724
sS'/html/body/div/div/div/div/div/dl/dd/a'
p185
F0.6597225952337458
sS'/html/body/div/div/div/div/div/div/br'
p186
F5.158429362604483
sS'/html/body/div/div/a'
p187
F0.001443416869668845
sS'/html/body/section/div/ul/li/a/div/div/div/div/span'
p188
F7.643856189774724
sS'/html/body/div/div/div/div/div/p/a/img'
p189
F9.965784284662087
sS'/html/body/section/section/div/div/i'
p190
F7.643856189774724
sS'/html/body/div/div/div/div/div/div/div/div/b/font'
p191
F9.965784284662087
sS'/html/body/div/div/div/div/div/dl/dt/div/p/u/strong'
p192
F9.965784284662087
sS'/html/body/section/div/div/div'
p193
F7.643856189774724
sS'/html/body/div/div/div/div/div/div/a/i'
p194
F2.2243172982609405
sS'/html/body/section/div/div/ul/li/a/div/div/span'
p195
F7.643856189774724
sS'/html/body/link'
p196
F7.643856189774724
sS'/html/body/script'
p197
F0.001443416869668845
sS'/html/body/div/div/div/div/div/div/div/div/div/div'
p198
F9.965784284662087
sS'/html/body/div/div/div/div/b'
p199
F4.058893689053568
sS'/html/body/div/div/div/div/p/a'
p200
F9.965784284662087
sS'/html/body/div/div/div/div/div/p/strong'
p201
F3.7958592832197753
sS'/html/body/section/section/header/div/span/i'
p202
F7.643856189774724
sS'/html/body/div/div/div/div/div/dl/dd/span/a/i'
p203
F7.643856189774724
sS'/html/body/section/section/header/div/span'
p204
F7.643856189774724
sS'/html/body/div/div/div/div/div/dl/dd/span/a'
p205
F7.643856189774724
sS'/html/body/div/div/div/div/i'
p206
F2.0954195650786827
sS'/html/body/div/div/div/div/span'
p207
F4.035046947099201
sS'/html/body/div/div/div/div/ul'
p208
F0.4131151871478154
sS'/html/body/div/div/div/div/div/p/img'
p209
F4.107803289534515
sS'/html/body/rss/channel/image/description'
p210
F9.965784284662087
sS'/html/body/div/div/script'
p211
F0.39782820924662077
sS'/html/body/div/div/div/div/div/dl/dt/div/ul/li/p'
p212
F8.380821783940931
sS'/html/body/div/footer/div/p'
p213
F7.643856189774724
sS'/html/body/div/div/div/div/div/div/img'
p214
F9.965784284662087
sS'/html/body/div/div/div/div/div/p/span/font'
p215
F9.965784284662087
sS'/html/body/section/section/article/p'
p216
F8.380821783940931
sS'/html/body/div/div/div/div/div/div/div/div/font/b'
p217
F9.965784284662087
sS'/html/body/div/div/div/div/div/div/font'
p218
F9.965784284662087
sS'/html/body/div/div/div/dl/dd/span/i'
p219
F2.5907448533151625
sS'/html/body/div/div/div/div/div/div/p/a'
p220
F9.965784284662087
sS'/html/body/div/div/div/ul/li/div/dl/dd'
p221
F8.965784284662087
sS'/html/body/div/div/div/ul'
p222
F6.965784284662088
sS'/html/body/div/div/div/div/div/dl/dt/div'
p223
F0.9159357352115255
sS'/html/body/section/section/article/p/strong/a'
p224
F9.965784284662087
sS'/html/body/div/div/div/div/div/div/div/div/h4'
p225
F7.965784284662087
sS'/html/body/div/div/div/a'
p226
F3.5228407888133586
sS'/html/body/div/div/div/div/div/span/a'
p227
F9.965784284662087
sS'/html/body/rss/channel/link'
p228
F9.965784284662087
sS'/html/body/section/div/div/div/h2'
p229
F7.643856189774724
sS'/html/body/div/div/div/h2/span'
p230
F8.965784284662087
sS'/html/body/div/div/div/div/div/p/b/font/a'
p231
F9.965784284662087
sS'/html/body/section/div/ul/li/a/div/div'
p232
F7.643856189774724
sS'/html/body/div/div/label/input'
p233
F0.3959286763311393
sS'/html/body/section/div/div/div/dl/dd/span'
p234
F7.643856189774724
sS'/html/body/div/div/div/div/div/div/div/div/div/font/img'
p235
F9.965784284662087
sS'/html/body/div/div/div/ul/li/div/a/s/i'
p236
F7.643856189774724
sS'/html/body/div/div/div/div/h3/i'
p237
F9.965784284662087
sS'/html/body/section/section/div/a'
p238
F7.643856189774724
sS'/html/body/div/div/div/dl/dd/span/a'
p239
F2.5228407888133586
sS'/html/body/div/div/div/h2'
p240
F7.380821783940932
sS'/html/body/div/div/div/div/div/p/span/a'
p241
F8.380821783940931
sS'/html/body/img'
p242
F0.3959286763311393
sS'/html/body/div/div/span'
p243
F0.3959286763311393
sS'/html/body/section/section/article/p/strong/span'
p244
F9.965784284662087
sS'/html/body/div/div/div/div/div/p/em/span'
p245
F9.965784284662087
sS'/html/body/section/div/div/div/dl/dd/span/a/span'
p246
F7.643856189774724
sS'/html/body/div/div/div/div/ul/li/a'
p247
F0.4285658841234907
sS'/html/body/div/div/div/div/div/div'
p248
F0.3959286763311393
sS'/html/body/div/div/div/div/div/div/p/strong/a'
p249
F9.965784284662087
sS'/html/body/div/div/div/div/div/div/div/b'
p250
F8.965784284662087
sS'/html/body/div/div/div/ul/li/div/a/i'
p251
F0.008682243099800773
sS'/html/body/div/div/div/div/div/p/strong/img'
p252
F7.965784284662087
sS'/html/body/div/div/div/div/div/div/div/a'
p253
F0.03800632257974474
sS'/html/body/div/div/div/div/div/div/p/a/img'
p254
F7.643856189774724
sS'/html/body/noscript/img'
p255
F0.39782820924662077
sS'/html/body/div/div/div/div/div/div/div/a/i'
p256
F2.2243172982609405
sS'/html/body/div/div/div/div/div/p'
p257
F0.4659383975788818
sS'/html/body/div/div/div/div/div/div/span/div/s/i'
p258
F0.39782820924662077
sS'/html/body/div/div/div/div/div/input'
p259
F0.008682243099800773
sS'/html/body/div/img'
p260
F7.643856189774724
sS'/html/body/section/div/div/div/span'
p261
F8.380821783940931
sS'/html/body/div/div/div/div/div/p/a/span'
p262
F9.965784284662087
sS'/html/body/div/div/div/div/h4'
p263
F4.058893689053568
sS'/html/body/div/div/div/div/div/div/div/div/div'
p264
F9.965784284662087
sS'/html/body/div/div/div/dl/dd/span'
p265
F2.5228407888133586
sS'/html/body/div/div/div/div/div/div/div/div/a/s/i'
p266
F2.2243172982609405
sS'/html/body/rss/channel/description'
p267
F9.965784284662087
sS'/html/body/div/div/div/div/div/img'
p268
F0.438307278601691
sS'/html/body/div/div/div/div/div/dl/dt/div/p/strong/a/u'
p269
F9.965784284662087
sS'/html/body/rss/channel/title'
p270
F9.965784284662087
sS'/html/body/div/div/div/dl/dd'
p271
F2.680382065799839
sS'/html/body/div/div/div/div/div/div/div/div/a/s/span'
p272
F2.2243172982609405
sS'/html/body/section/section/div/div/div/a'
p273
F7.643856189774724
sS'/html/body/section/div/a'
p274
F7.643856189774724
sS'/html/body/div/div/div/div/div/p/span'
p275
F3.4111954329844494
sS'/html/body/div/div/div/ul/li/a'
p276
F0.008682243099800773
sS'/html/body/div/div/div/dl/dt/div/img'
p277
F7.380821783940932
sS'/html/body/div/div/div/div/div/dl/dt/div/p'
p278
F0.9629692690550329
sS'/html/body/div/div/div/ul/li/div/a/s/span'
p279
F7.643856189774724
sS'/html/body/div/div/div/div/div/a/i'
p280
F0.3959286763311393
sS'/html/body/div/div/div/div/h2'
p281
F0.386468347082073
sS'/html/body/div/div/div/div/div/a/img'
p282
F6.265344566520995
sS'/html/body/div/div/div/div/div/p/span/img'
p283
F8.965784284662087
sS'/html/body/div/div/div/div'
p284
F8.965784284662087
sS'/html/body/div/div/div/script'
p285
F0.31652810714477264
sS'/html/head/noscript/link'
p286
F7.643856189774724
sS'/html/body/div/div/div/div/div/div/h2/i'
p287
F8.380821783940931
sS'/html/body/div/div/div/div/div/div/div/div/font/span'
p288
F9.965784284662087
sS'/html/body/div/div/div/ul/li/div/h4/a'
p289
F7.643856189774724
sS'/html/body/section/div/div/h2'
p290
F7.643856189774724
sS'/html/body/div/div/div/div/div/div/h2/a'
p291
F8.380821783940931
sS'/html/body/section/section/header/h1'
p292
F7.643856189774724
sS'/html/body/div/div/div/div/div/dl/dt/div/div/span/br'
p293
F8.380821783940931
sS'/html/body/div/div/div/ul/li'
p294
F0.008682243099800773
s.