(dp0
S'/html/body/div/div/div/div/div/div/div/div/div/a'
p1
F8.380821783940931
sS'/html/body/section/section/div/div/span'
p2
F6.643856189774725
sS'/html/body/div/div/div/div/div/div/div/div/a/img'
p3
F2.0528949484321255
sS'/html/body/div/div/div/div/div/div/div/div/div/i'
p4
F8.380821783940931
sS'/html/body/section/div/div/div/dl/dd/span/a/i'
p5
F6.643856189774725
sS'/html/body/div/div/div/div/div/div/p/br'
p6
F9.965784284662087
sS'/html/body/div/div/div/div/div/dl/dt/a'
p7
F2.7466157641999254
sS'/html/body/div/div/div/div/div/p/a'
p8
F4.411195432984449
sS'/html/body/div/div/div/div/div/p/b'
p9
F9.965784284662087
sS'/html/body/div/div/div/dl/dd/img'
p10
F2.139235797371172
sS'/html/body/section/section/article/p/a'
p11
F6.643856189774725
sS'/html/body/div/div/div/div/div/dl/dd/div/a/i'
p12
F0.8916428219095817
sS'/html/body/rss/channel/item/link'
p13
F7.965784284662087
sS'/html/body/div/div/div/i'
p14
F3.237863830098888
sS'/html/body/div/div/div/div/span/a/i'
p15
F0.6989977439671857
sS'/html/body/div/div/div/div/div/div/span/div/s/i'
p16
F0.6896598793878495
sS'/html/body/div/div/div/div/div/table/tbody/tr/th/span'
p17
F9.965784284662087
sS'/html/body/div/div/div/div/div/div/like'
p18
F0.6896598793878495
sS'/html/head/meta'
p19
F0.011587974275211823
sS'/html/body/div/div/div/div/dl/dd/span/a/i'
p20
F9.965784284662087
sS'/html/body/div/div/ul/li/a/i'
p21
F3.9434164716336326
sS'/html/body/div/div/div/div/div/dl/dt/div/p/strong/em'
p22
F9.965784284662087
sS'/html/body/rss/channel/generator'
p23
F6.965784284662088
sS'/html/body/div/div/div/div/div/dl/dt'
p24
F9.965784284662087
sS'/html/body/section/section/article/p'
p25
F6.965784284662088
sS'/html/body/div/div/div/div/p/i'
p26
F8.965784284662087
sS'/html/body/section/div/div/div/h2'
p27
F6.643856189774725
sS'/html/body/div/div/div/a/s/span'
p28
F0.7107557148433575
sS'/html/body/section/div/div/div/dl/dt/div/div/a/font'
p29
F6.965784284662088
sS'/html/body/div/div/div/div/div/dl/dd/span/span'
p30
F0.8916428219095817
sS'/html/body/div/div/div/div/div/table/tbody/tr/td/p'
p31
F9.965784284662087
sS'/html/body/rss/channel/image/url'
p32
F6.965784284662088
sS'/html/head/script'
p33
F0.011587974275211823
sS'/html/body/div/div/div/div/div/div/ul/li/span/strong'
p34
F9.965784284662087
sS'/html/body/div/div/div/div/div/p/br'
p35
F6.058893689053569
sS'/html/body/div/div/div/div/div/dl/dt/div/div/span/p'
p36
F6.795859283219775
sS'/html/body/div/div/div/div/a/i'
p37
F8.965784284662087
sS'/html/body/div/div/div/ul/li/div/s/s'
p38
F0.12500636106703258
sS'/html/body/div/div/div/ul/li/div/span/a/s/span'
p39
F4.9213901653036345
sS'/html/body/rss/channel/image/title'
p40
F6.965784284662088
sS'/html/body/div/div/div/ul/li/a/s/s'
p41
F0.12500636106703258
sS'/html/body/div/div/div/div/div/div/div/div/span'
p42
F1.7514651638613215
sS'/html/body/div/div/div/dl/dt/span'
p43
F3.2515387669959646
sS'/html/body/div/div/div/ul/li/div/span/a'
p44
F4.608232280044003
sS'/html/body/div/footer/div/div/div/a'
p45
F6.643856189774725
sS'/html/body/div/div/div/div/span/span/a'
p46
F0.6989977439671857
sS'/html/body/div/div/div/div/div/div/div/br'
p47
F4.011587974275212
sS'/html/body/div/div/div/ul/li/div/a'
p48
F0.12500636106703258
sS'/html/body/div/div/div/div/div/div/div/div/s/span'
p49
F2.089267338097087
sS'/html/body/div/div/div/div/dl/dt/a'
p50
F9.965784284662087
sS'/html/body/section/section/div/div/div'
p51
F6.643856189774725
sS'/html/body/div/div/div/div/div/div/div/div/span/a'
p52
F4.965784284662088
sS'/html/body/div/div/div/div/div/p/strong/font/span'
p53
F9.965784284662087
sS'/html/body/div/div/div/div/dl/dd/a'
p54
F9.965784284662087
sS'/html/body/div/div/div/div/div/p/a/strong/font'
p55
F8.965784284662087
sS'/html/body/div/div/div/div/div/dl/dt/div/span'
p56
F8.380821783940931
sS'/html/body/div/div/div/div/div/table/tbody/tr/td/span'
p57
F9.965784284662087
sS'/html/body/div/div/div/div/div/div/div/h3/span'
p58
F4.011587974275212
sS'/html/body/div/div/div/div/div/p/a/img'
p59
F9.965784284662087
sS'/html/body/div/div/div/div/div/dl/dt/div/p/u/strong'
p60
F9.965784284662087
sS'/html/body/div/div/div/div/div/dl/dt/div'
p61
F1.0350469470992008
sS'/html/body/div/div/div/div/div/div/p/strong'
p62
F9.965784284662087
sS'/html/body/rss/channel/item/description'
p63
F7.965784284662087
sS'/html/body/div/div/div/div/div/div/div/div/dl/dd'
p64
F9.965784284662087
sS'/html/body/div/div/div/div/div/div/div/div/dl/dt'
p65
F9.965784284662087
sS'/html/body/div/div/div/div/div/div/span'
p66
F0.6826959316380853
sS'/html/body/section/section/header/div/span'
p67
F6.643856189774725
sS'/html/body/div/div/div/div/div/dl/dd/span/a'
p68
F4.756330919033137
sS'/html/body/div/div/div/div/dl/dd/span/span'
p69
F9.965784284662087
sS'/html/body/div/div/div/div/div/p/img'
p70
F4.473931188332412
sS'/html/body/div/div/div/div/div/div/img'
p71
F7.965784284662087
sS'/html/body/div/div/div/div/div/dl/dt/div/div/p/strong'
p72
F7.965784284662087
sS'/html/body/div/div/div/h2/span'
p73
F6.058893689053569
sS'/html/body/div/div/div/div/div/p/span/a'
p74
F9.965784284662087
sS'/html/body/section/div/div/span'
p75
F6.643856189774725
sS'/html/body/div/div/div/div/div/div/div/i'
p76
F9.965784284662087
sS'/html/body/div/div/div/div/div/p/span/p'
p77
F8.965784284662087
sS'/html/body/div/div/div/div/div/div/div/b'
p78
F6.058893689053569
sS'/html/body/div/div/div/ul/li/div/a/i'
p79
F0.12500636106703258
sS'/html/body/div/div/div/div/div/div/div/a'
p80
F0.12186323337305249
sS'/html/body/div/div/div/div/dl/dt/a/p'
p81
F9.965784284662087
sS'/html/body/noscript/img'
p82
F0.7734914701913203
sS'/html/body/div/div/div/a'
p83
F2.4035418604410146
sS'/html/body/div/div/div/dl/dt/div/span'
p84
F7.965784284662087
sS'/html/body/div/div/div/div/div/p/strong/span'
p85
F7.380821783940932
sS'/html/body/div/div/div/div/div/div/div/h3/div'
p86
F4.011587974275212
sS'/html/body/div/div/div/div/div/div/ul/li'
p87
F9.965784284662087
sS'/html/body/div/div/div/div/div/p/span'
p88
F3.680382065799839
sS'/html/body/div/div/ul/li/div/a/i'
p89
F3.9434164716336326
sS'/html/body/div/div/div/div/div/div/div/span/a'
p90
F2.0954195650786827
sS'/html/body/div/div/div/div/div/div/div'
p91
F0.545824106814198
sS'/html/body/div/div/div/div/div/a/i'
p92
F0.6850135145314844
sS'/html/body/div/div/div/div/div/div/div/div/br'
p93
F4.011587974275212
sS'/html/body/div/div/div/div'
p94
F9.965784284662087
sS'/html/head/noscript/link'
p95
F6.643856189774725
sS'/html/body/div/div/div/div/div/div/h3/a'
p96
F4.608232280044003
sS'/html/body/div/div/div/div/div/div/h2/i'
p97
F8.965784284662087
sS'/html/body/div/div/div/div/ul/li/a'
p98
F0.5542732966500159
sS'/html/body/div/div/div/div/div/ul/li/div/a'
p99
F1.7661119398257226
sS'/html/body/div/div/div/div/div/div/div/div/s/i'
p100
F2.089267338097087
sS'/html/body/div/div/div/div/div/dl/dt/div/a/img'
p101
F8.380821783940931
sS'/html/body/div/div/div/div/div/div/script'
p102
F0.5649048483799027
sS'/html/body/div/div/div/ul/li/div/span/a/i'
p103
F4.608232280044003
sS'/html/body/div/div/div/div/div/dl/dt/div/p/a/img'
p104
F6.50635266602479
sS'/html/body/div/div/div/div/div/span/span'
p105
F0.6896598793878495
sS'/html/body/div/div/div/div/div/div/p'
p106
F3.899695094204315
sS'/html/body/div/div/div/div/div/div/i'
p107
F3.3219280948873626
sS'/html/body/div/div/div/div/div/div/a'
p108
F0.6780719051126378
sS'/html/body/div/div/div/div/div/dl/dt/div/p/em'
p109
F9.965784284662087
sS'/html/body/div/div/div/div/ul/li/h4/a'
p110
F0.6989977439671857
sS'/html/body/div/div/div/div/dl/dd/a/img'
p111
F9.965784284662087
sS'/html/body/div/div/div/div/div/dl/dd/span/span/a/i'
p112
F4.795859283219775
sS'/html/body/div/div/div/div/div/div/div/span'
p113
F5.158429362604483
sS'/html/body/div/div/div/div/div/dl/dt/div/div/p'
p114
F2.2584251525812045
sS'/html/body/div/div/div/ul/li/div/span/span/a'
p115
F4.608232280044003
sS'/html/body/div/div/div/div/div/h2'
p116
F1.7759597257820698
sS'/html/body/div/div/div/div/div/dl/dt/div/div/a'
p117
F1.6850135145314844
sS'/html/body/div/div/div/div/div/dl/dd/span'
p118
F0.8916428219095817
sS'/html/body/div/div/div/div/div/dl/dt/div/p/span'
p119
F5.965784284662088
sS'/html/body/section/div/div/ul/li/a/h4'
p120
F6.643856189774725
sS'/html/body/div/b'
p121
F4.083141235300245
sS'/html/body/div/div/div/div/h2/span'
p122
F6.058893689053569
sS'/html/body/div/div/div/div/div/div/div/input'
p123
F0.5479317697761893
sS'/html/head/link'
p124
F0.011587974275211823
sS'/html/body/div/div/div/ul/li/div/span'
p125
F4.608232280044003
sS'/html/body/section/div/div/div/span'
p126
F8.965784284662087
sS'/html/body/div/div/div/div/div/div/div/div/div/div/div/span'
p127
F9.965784284662087
sS'/html/body/div/div/div/ul/li/script'
p128
F8.965784284662087
sS'/html/body/div/div/div/dl/dd/a/span'
p129
F7.965784284662087
sS'/html/body/div/div/div/div/div/dl/dt/div/div/p/span'
p130
F9.965784284662087
sS'/html/body/div/div/div/div/div/div/ul/li/a/img'
p131
F4.321928094887363
sS'/html/body/div/footer/div/div/a/i'
p132
F6.643856189774725
sS'/html/body/section/div/ul/li/a/div/div'
p133
F6.643856189774725
sS'/html/body/img'
p134
F0.6850135145314844
sS'/html/body/div/div/div/div/div/span'
p135
F0.12658049656514322
sS'/html/body/div/div/div/div/div/div/span/span'
p136
F2.1909972250609138
sS'/html/body/div/div/div/div/div/p/a/i'
p137
F8.965784284662087
sS'/html/body/div/div/div/div/div/div/div/div'
p138
F9.965784284662087
sS'/html/body/div/div/div/div/div/p/strike/span'
p139
F9.965784284662087
sS'/html/body/section/div/ul/li/a/div/div/div/div/i'
p140
F6.643856189774725
sS'/html/body/div/div/div/div/div/dl/dt/div/p/a'
p141
F4.50635266602479
sS'/html/body/div/div/div/div/div/div/p/a/img'
p142
F8.380821783940931
sS'/html/body/div/div/div/div/div/div/div/div/a/s/span'
p143
F2.0954195650786827
sS'/html/body/div/div/div/dl/dd/div/span'
p144
F7.380821783940932
sS'/html/body/div/div/div/div/div/div/div/div/p/a'
p145
F7.158429362604482
sS'/html/body/div/div/i'
p146
F3.9434164716336326
sS'/html/body/div/div/div/div/dl/dt/a/br'
p147
F9.965784284662087
sS'/html/body/div/div/a'
p148
F0.020340448284175576
sS'/html/body/style'
p149
F4.158429362604483
sS'/html/body/div/div/div/div/div/div/textarea'
p150
F0.6850135145314844
sS'/html/body/div/div/div/div/b'
p151
F3.0588936890535687
sS'/html/body/div/div/div/div/div/div/span/div/s/span'
p152
F0.6896598793878495
sS'/html/body/div/div/div/div/a'
p153
F0.5929192245494993
sS'/html/body/div/div/div/div/i'
p154
F1.7661119398257226
sS'/html/body/div/div/div/div/ul'
p155
F0.6989977439671857
sS'/html/body/div/div/div/div/div/dl/dt/div/p/strong'
p156
F4.795859283219775
sS'/html/body/div/div/script'
p157
F0.6896598793878495
sS'/html/body/div/div/div/div/div/div/div/div/a/s/i'
p158
F2.0954195650786827
sS'/html/body/div/div/div/div/div/div/ul/li/span'
p159
F9.965784284662087
sS'/html/body/div/div/div/div/div/h2/span'
p160
F0.8916428219095817
sS'/html/body/div/div/div/dl/dd/span/i'
p161
F3.2515387669959646
sS'/html/body/div/div/div/div/div/div/p/a'
p162
F3.9434164716336326
sS'/html/body/div/div/div/dl/dd/span/a'
p163
F3.197599959885161
sS'/html/body/section/section/article/p/strong/a'
p164
F8.965784284662087
sS'/html/body/div/div/div/div/div/div/s/i'
p165
F6.965784284662088
sS'/html/body/div/div/div/div/div/div/p/u'
p166
F9.965784284662087
sS'/html/body/div/div/div/div/h3/i'
p167
F8.965784284662087
sS'/html/body/div/div/ul/li/a/s'
p168
F3.9434164716336326
sS'/html/body/div/div/h2'
p169
F9.965784284662087
sS'/html/body/div/div/div/h1'
p170
F0.6989977439671857
sS'/html/body/div/div/div/div/h2/i'
p171
F9.965784284662087
sS'/html/body/div/div/div/div/div/dl/dt/div/div/span/p/em'
p172
F9.965784284662087
sS'/html/body/div/div/div/div/div/h4/span/em'
p173
F8.380821783940931
sS'/html/body/div/div/div/div/div/div'
p174
F0.5479317697761893
sS'/html/body/div/div/div/div/div/div/p/span/img'
p175
F9.965784284662087
sS'/html/body/div/div/div/div/div/div/ul/li/p'
p176
F9.965784284662087
sS'/html/body/div/div/div/div/h4'
p177
F3.0588936890535687
sS'/html/body/div/div/div/div/h2'
p178
F0.5864059175908248
sS'/html/body/div/div/div/div/div/dl/dt/div/ul/li'
p179
F7.965784284662087
sS'/html/body/div/div/div/div/div/div/ul/li/a'
p180
F9.965784284662087
sS'/html/body/div/div/div/ul/li/a'
p181
F0.02620507034739392
sS'/html/body/div/footer/div/p'
p182
F6.643856189774725
sS'/html/body/div/div/div/div/div/p/span/img'
p183
F8.380821783940931
sS'/html/body/div/div/div/div/div/div/p/span'
p184
F8.380821783940931
sS'/html/body/div/div/div/div/div/dl/dt/div/br'
p185
F3.6259342817774622
sS'/html/body/div/div/div/dl/dd/div/ul/li/a'
p186
F3.0588936890535687
sS'/html/body/section/div/div/div'
p187
F6.643856189774725
sS'/html/body/div/div/div/div/ul/li/div/a'
p188
F3.9434164716336326
sS'/html/body/section/section/div/div/strong'
p189
F6.643856189774725
sS'/html/body/div/nav/div/a'
p190
F6.643856189774725
sS'/html/body/div/div/div/a/i'
p191
F2.77595972578207
sS'/html/body/div/div/div/div/div/ul/script'
p192
F8.380821783940931
sS'/html/body/div/div/div/div/div/div/div/div/h4'
p193
F8.380821783940931
sS'/html/body/div/div/div/div/span'
p194
F2.965784284662087
sS'/html/body/rss/channel/lastbuilddate'
p195
F6.965784284662088
sS'/html/body/div/div/div/div/div/div/s/span'
p196
F9.965784284662087
sS'/html/body/div/div/div/dl/dt/h2'
p197
F8.965784284662087
sS'/html/body/section/div/div/a'
p198
F6.643856189774725
sS'/html/script'
p199
F0.12500636106703258
sS'/html/body/section/section/div/a'
p200
F6.643856189774725
sS'/html/body/div/div/div/div/div/div/h2/a'
p201
F8.965784284662087
sS'/html/body/div/div/div/dl/dt'
p202
F3.0588936890535687
sS'/html/body/div/div/div/dl/dt/div/img'
p203
F8.380821783940931
sS'/html/body/div/div/div/dl/dd'
p204
F3.3219280948873626
sS'/html/body/div/div/div/br'
p205
F9.965784284662087
sS'/html/body/div/img'
p206
F6.643856189774725
sS'/html/body/div/div/div/dl/dd/br'
p207
F9.965784284662087
sS'/html/body/div/div/div/div/div/div/div/div/span/span/a'
p208
F9.965784284662087
sS'/html/body/div/div/div/div/div/div/div/img'
p209
F4.011587974275212
sS'/html/body/div/div/div/div/div/ul/li'
p210
F1.7661119398257226
sS'/html/body/div/div/div/ul/li/div/dl/dd/a/img'
p211
F9.965784284662087
sS'/html/body/section/div/div/ul/li/a/div/div/i'
p212
F6.643856189774725
sS'/html/body/div/div/div/div/a/img'
p213
F1.7661119398257226
sS'/html/body/div/div/div/div/p/a/img'
p214
F0.6850135145314844
sS'/html/body/div/div/div/ul/li/div/span/a/s/i'
p215
F4.9213901653036345
sS'/html/body/div/div/div/div/div/dl/dt/div/ul/li/p/span'
p216
F9.965784284662087
sS'/html/body/div/div/div/div/p/a'
p217
F6.380821783940931
sS'/html/body/rss/channel/link'
p218
F6.965784284662088
sS'/html/body/div/div/div/div/div/div/span/a/s/span'
p219
F0.6896598793878495
sS'/html/body/div/div/div/ul/li/a/i'
p220
F0.12500636106703258
sS'/html/body/div/div/div/div/div/table/tbody/tr/td'
p221
F9.965784284662087
sS'/html/body/div/div/div/div/div/table/tbody/tr/th'
p222
F9.965784284662087
sS'/html/body/section/section/header/div/span/span'
p223
F6.643856189774725
sS'/html/body/section/div/div/div/dl/dd/span/a'
p224
F6.643856189774725
sS'/html/body/div/div/ul/li/a'
p225
F3.9434164716336326
sS'/html/body/div/div/div/div/div/div/span/a'
p226
F7.158429362604482
sS'/html/body/div/div/div/div/div/ul/li/a'
p227
F1.477944250839036
sS'/html/body/section/div/div/div/dl/dt/div/div'
p228
F6.965784284662088
sS'/html/body/div/div/div/ul'
p229
F8.965784284662087
sS'/html/body/div/div/div/div/div/div/br'
p230
F5.380821783940931
sS'/html/body/div/div/div/div/div/dl/dd/a/img'
p231
F0.7958592832197748
sS'/html/body/div/div/div/div/div/div/a/i'
p232
F2.0954195650786827
sS'/html/body/div/div/div/div/div/p/a/strong'
p233
F9.965784284662087
sS'/html/body/div/div/div/div/div/table/tbody/tr/td/p/span'
p234
F9.965784284662087
sS'/html/body/div/div/div/div/div/p/strong'
p235
F4.473931188332412
sS'/html/body/section/section/header/div/span/i'
p236
F6.643856189774725
sS'/html/body/div/div/div/div/div/dl/dd/span/a/i'
p237
F4.795859283219775
sS'/html/body/rss/channel/image/description'
p238
F6.965784284662088
sS'/html/body/div/div/div/div/div/dl/dt/div/ul/li/p'
p239
F7.965784284662087
sS'/html/body/div/div/div/div/div/p/strong/a'
p240
F9.965784284662087
sS'/html/body/section/div/div/div/a'
p241
F6.965784284662088
sS'/html/body/div/div/div/ul/li/div/dl/dd'
p242
F9.965784284662087
sS'/html/body/div/div/div/div/div/div/div/div/dl/dd/a/img'
p243
F9.965784284662087
sS'/html/body/div/div/div/div/div/span/a'
p244
F6.965784284662088
sS'/html/body/div/div/span'
p245
F0.6850135145314844
sS'/html/body/section/div/div/div/dl/dd/span'
p246
F6.643856189774725
sS'/html/body/div/div/div/dl/dd/span'
p247
F3.197599959885161
sS'/html/body/div/div/div/div/div/dl/dt/div/p'
p248
F1.0923401721467105
sS'/html/body/div/div/div/div/div/a/img'
p249
F7.643856189774724
sS'/html/body/div/div/ul/li'
p250
F3.9434164716336326
sS'/html/body/rss/channel/item/title'
p251
F7.965784284662087
sS'/html/body/div/div/div/div/div/dl/dt/div/a'
p252
F6.965784284662088
sS'/html/body/section/div/ul/li/a/div/div/div/div/span'
p253
F6.643856189774725
sS'/html/body/div/div/div/div/div/input'
p254
F0.03209362970985334
sS'/html/body/div/div/div/div/div/p/span/strong'
p255
F9.965784284662087
sS'/html/body/rss/channel/title'
p256
F6.965784284662088
sS'/html/body/div/div/div/div/div/div/span/a/s/i'
p257
F0.6896598793878495
sS'/html/body/div/div/div/h2'
p258
F4.351074440546879
sS'/html/body/div/div/div/div/div/dl/dt/div/div/p/a/img'
p259
F9.965784284662087
sS'/html/body/div/div/label/input'
p260
F0.6826959316380853
sS'/html/body/section/div/div/h2'
p261
F6.643856189774725
sS'/html/body/section/section/header/h1'
p262
F6.643856189774725
sS'/html/body/div/div/div/div/div/div/div/div/p'
p263
F7.158429362604482
sS'/html/body/div/div/div/div/div/dl/dt/div/div/span'
p264
F6.643856189774725
sS'/html/body/div/div/div/div/div/h4/span/a'
p265
F8.380821783940931
sS'/html/body/div/div/div/div/div/div/div/div/a'
p266
F2.0954195650786827
sS'/html/body/div/div/div'
p267
F0.02620507034739392
sS'/html/body/div/div/div/div/div/dl/dt/div/div/a/s'
p268
F5.573466861883327
sS'/html/body/div/div/div/div/div/div/div/div/i'
p269
F8.380821783940931
sS'/html/body/div/div/div/span'
p270
F0.3346072289581087
sS'/html/body/div/div/div/div/div/p/strong/span/img'
p271
F9.965784284662087
sS'/html/body/div/div/div/div/div/p/strong/img'
p272
F8.965784284662087
sS'/html/body/div/div/div/a/span'
p273
F0.48196850739783065
sS'/html/body/div/div/div/div/div/dl/dt/div/strong'
p274
F9.965784284662087
sS'/html/body/div/div/div/div/div/script'
p275
F4.158429362604483
sS'/html/body/rss/channel/image/link'
p276
F6.965784284662088
sS'/html/body/div/div'
p277
F7.643856189774724
sS'/html/body/div/div/a/img'
p278
F0.5395195299599891
sS'/html/body/div/div/div/div/div/div/p/img'
p279
F9.965784284662087
sS'/html/body/div/div/div/div/div/p/span/span'
p280
F9.965784284662087
sS'/html/body/section/section/article/a/img'
p281
F6.643856189774725
sS'/html/body/div'
p282
F4.083141235300245
sS'/html/body/div/div/div/div/ul/li/p/a/img'
p283
F0.6989977439671857
sS'/html/body/div/div/div/div/div/dl/dt/div/div'
p284
F2.2042330522176075
sS'/html/body/section/div/div/textarea'
p285
F6.643856189774725
sS'/html/body/section/div/div/ul/li/a/div/div/span'
p286
F6.643856189774725
sS'/html/body/div/div/div/div/ul/li/a/s'
p287
F3.9434164716336326
sS'/html/body/div/div/div/div/div/dl/dt/div/p/a/strong'
p288
F8.965784284662087
sS'/html/body/div/div/div/div/div/dl/dd/div/span'
p289
F0.8916428219095817
sS'/html/body/div/div/div/div/ul/li/span'
p290
F0.6989977439671857
sS'/html/body/div/div/div/div/div/dl/dt/div/div/a/span'
p291
F5.573466861883327
sS'/html/body/div/div/input'
p292
F0.6826959316380853
sS'/html/body/div/div/div/ul/li/div/dl/dt/h4/a'
p293
F9.965784284662087
sS'/html/body/div/div/div/div/div/div/ul'
p294
F9.965784284662087
sS'/html/body/div/div/div/dl/dd/div/ul/li'
p295
F3.0588936890535687
sS'/html/body/div/div/div/div/div/div/a/img'
p296
F6.643856189774725
sS'/html/body/div/div/div/div/a/span'
p297
F3.0588936890535687
sS'/html/body/div/div/div/div/div/div/div/div/dl/dd/a'
p298
F9.965784284662087
sS'/html/body/div/div/div/dl/dd/a/img'
p299
F7.965784284662087
sS'/html/head/title'
p300
F0.011587974275211823
sS'/html/body/div/div/div/div/div/a'
p301
F4.083141235300245
sS'/html/body/div/div/div/div/ul/li'
p302
F3.9434164716336326
sS'/html/body/div/div/div/ul/li/div/a/s/span'
p303
F4.608232280044003
sS'/html/body/rss/channel/description'
p304
F6.965784284662088
sS'/html/body/div/div/div/div/span/a/span'
p305
F0.6989977439671857
sS'/html/body/div/div/div/div/div/div/ul/li/span/a'
p306
F4.321928094887363
sS'/html/body/div/div/div/div/dl/dd/span/a'
p307
F9.965784284662087
sS'/html/body/section/div/div/div/dl/dt/div/span'
p308
F6.643856189774725
sS'/html/body/div/footer/div/div/p'
p309
F6.643856189774725
sS'/html/body/section/script'
p310
F6.643856189774725
sS'/html/body/section/section/div/div/div/a'
p311
F6.643856189774725
sS'/html/body/div/div/div/div/div/dl/dt/div/p/strong/a'
p312
F4.573466861883327
sS'/html/body/div/div/div/div/div/h3/a'
p313
F8.965784284662087
sS'/html/body/div/div/div/div/div/dl/dt/div/div/br'
p314
F6.265344566520995
sS'/html/body/div/div/div/div/script'
p315
F2.15200309344505
sS'/html/body/div/footer/div/div/a'
p316
F6.643856189774725
sS'/html/body/div/div/div/div/div/div/a/span'
p317
F2.0954195650786827
sS'/html/body/div/div/div/div/div/style'
p318
F9.965784284662087
sS'/html/body/div/div/div/div/div/dl/dt/div/p/strong/u'
p319
F8.965784284662087
sS'/html/body/section/div/ul/li/a/div/div/h3'
p320
F6.643856189774725
sS'/html/body/div/div/div/div/div/dl/dd/a'
p321
F0.7958592832197748
sS'/html/body/section/section/div/div/i'
p322
F6.643856189774725
sS'/html/body/div/div/div/ul/li'
p323
F0.12500636106703258
sS'/html/body/section/div/div/div/dl/dt/div/div/a'
p324
F9.965784284662087
sS'/html/body/link'
p325
F6.643856189774725
sS'/html/body/script'
p326
F0.020340448284175576
sS'/html/body/div/div/div/div/div/h4/a'
p327
F9.965784284662087
sS'/html/body/div/div/div/div/div/p/font/span'
p328
F9.965784284662087
sS'/html/body/div/div/div/div/div/h4/i'
p329
F9.965784284662087
sS'/html/body/div/div/div/div/div'
p330
F1.4819685073978306
sS'/html/body/div/div/div/div/div/div/ul/br'
p331
F4.680382065799838
sS'/html/body/div/div/div/a/s/i'
p332
F0.7107557148433575
sS'/html/body/div/div/div/div/div/dl/dt/div/div/ul/li/p'
p333
F9.965784284662087
sS'/html/body/div/div/div/ul/li/div/a/s/i'
p334
F4.608232280044003
sS'/html/body/section/div/div/div/dl/dd/span/a/span'
p335
F6.643856189774725
sS'/html/body/div/div/div/div/div/div/span/a/p'
p336
F7.158429362604482
sS'/html/body/div/div/div/div/div/div/div/a/i'
p337
F2.0954195650786827
sS'/html/body/div/div/div/div/div/p'
p338
F0.7466157641999255
sS'/html/body/rss/channel/item/pubdate'
p339
F7.965784284662087
sS'/html/body/div/div/div/div/div/p/a/span'
p340
F7.965784284662087
sS'/html/body/div/div/div/div/div/div/h4'
p341
F8.965784284662087
sS'/html/body/div/div/div/div/div/div/h3'
p342
F4.473931188332412
sS'/html/body/div/div/div/div/div/dl/dt/div/div/span/br'
p343
F8.380821783940931
sS'/html/body/section/div/a'
p344
F6.643856189774725
sS'/html/body/div/div/div/div/div/div/div/div/div/div/div/div/div/span'
p345
F8.380821783940931
sS'/html/body/div/div/div/script'
p346
F0.48196850739783065
sS'/html/body/div/div/div/div/div/img'
p347
F0.7013416844354847
sS'/html/body/div/div/div/ul/li/div/h4/a'
p348
F4.608232280044003
sS'/html/body/div/div/div/div/ul/li/div/s/s'
p349
F3.9434164716336326
sS'/html/body/div/div/div/div/div/div/span/div/a'
p350
F0.6896598793878495
s.