(dp0
S'/html/body/div/div/div/div/div/table/tr/td/div/table/tr/td/div/div/div/span'
p1
F1.4900508536956893
sS'/html/body/div/div/div/div/div/div/div/div/div/a'
p2
F0.34739878240348065
sS'/html/body/div/div/div/div/div/div/table/tr/td/div/blockquote/ol/li/p/a'
p3
F9.965784284662087
sS'/html/body/div/div/div/noscript/div/img'
p4
F1.4422223286050742
sS'/html/body/div/div/div/div/ul/li/ul/li/a'
p5
F9.965784284662087
sS'/html/body/div/div/div/div/div/div/table/tr/td/div/p/strike'
p6
F7.965784284662087
sS'/html/body/div/div/div/div/div/p/i'
p7
F5.442222328605075
sS'/html/body/div/div/div/div/table/tr/td/div/div/div/div/ol/li/ul/span'
p8
F9.965784284662087
sS'/html/body/div/div/div/div/div/div/p/br'
p9
F3.9885043611621707
sS'/html/body/div/div/div/div/div/div/table/tr/td/table/tr/td/div/br'
p10
F6.058893689053569
sS'/html/body/div/div/div/div/div/p/a'
p11
F5.107803289534515
sS'/html/body/div/div/div/div/div/p/b'
p12
F4.9213901653036345
sS'/html/body/div/div/div/div/div/div/table/tr/td/div/h1'
p13
F6.158429362604484
sS'/html/body/div/div/div/div/div/div/table/tr/td/div/h2'
p14
F5.717856771218502
sS'/html/body/div/div/div/div/div/div/table/tr/td/div/h3'
p15
F6.965784284662088
sS'/html/body/div/div/div/div/form/div/div/noscript/p/a'
p16
F6.965784284662088
sS'/html/body/div/div/div/div/div/div/table/tr/td/div/p/a'
p17
F2.4819685073978306
sS'/html/body/div/div/div/div/table/tr/td/div/div/span'
p18
F5.717856771218502
sS'/html/body/div/div/div/div/div/div/div/div/div/div/ul/li/span'
p19
F2.107803289534515
sS'/html/body/div/div/div/div/div/div/table/tr/td/div/ol/li/p/sub/a'
p20
F9.965784284662087
sS'/html/body/div/div/div/div/table/tr/td/div/table/tr/td/div/div/a/div/img'
p21
F8.965784284662087
sS'/html/body/div/div/div/div/div/form/input'
p22
F1.894321922105463
sS'/html/body/div/div/div/div/div/div/table/tr/td/div/h1/strong'
p23
F9.965784284662087
sS'/html/body/div/div/div/div/div/div/table/tr/td/div/ul/li/ul/li/em'
p24
F7.965784284662087
sS'/html/body/div/div/div/div/div/table/tr/td/div/div/p/strong'
p25
F4.965784284662088
sS'/html/body/div/div/div/a'
p26
F0.02914634565951651
sS'/html/body/div/div/div/div/div/div/table/tbody/tr/td/a'
p27
F7.158429362604482
sS'/html/body/div/div/div/div/div/table/tr/td/div/div/p/img'
p28
F5.965784284662088
sS'/html/body/div/div/div/div/div/div/div/div/div/span'
p29
F0.8008773579863991
sS'/html/body/div/div/div/div/div/div/div/div/h2/span/a/b'
p30
F9.965784284662087
sS'/html/body/div/div/div/div/table/tr/td/div/div/div/div/p'
p31
F6.795859283219775
sS'/html/body/div/div/div/div/div/div/table/tr/td/div/h3/code'
p32
F9.965784284662087
sS'/html/body/div/div/div/div/div/div/table/tr/td/div/ol/li/p/em'
p33
F7.965784284662087
sS'/html/body/div/div/div/p'
p34
F9.965784284662087
sS'/html/body/div/div/div/table/tr/td/div/div/ul/li/em'
p35
F9.965784284662087
sS'/html/body/div/div/div/div/div/div/span'
p36
F4.158429362604483
sS'/html/body/div/div/div/div/form/div/div/div/div/div/input'
p37
F7.643856189774724
sS'/html/body/div/div/div/div/div/table/tr/td/div/div'
p38
F6.643856189774725
sS'/html/body/div/div/div/div/div/div/table/tr/td/div/hr'
p39
F5.265344566520995
sS'/html/head/meta'
p40
F0.02914634565951651
sS'/html/body/div/div/div/div/div/table/tr/td/div/div/ul/li/em'
p41
F8.965784284662087
sS'/html/body/div/div/div/div/form/div/div/div/div/div/label'
p42
F7.643856189774724
sS'/html/body/div/div/div/table/tr/td/div/div/p'
p43
F9.965784284662087
sS'/html/body/div/div/div/div/p/em'
p44
F8.965784284662087
sS'/html/body/div/div/div/div/div/div/div/div/div/p'
p45
F2.3658714424749596
sS'/html/body/div/div/div/div/table/tr/td/div/table/tr/td/div/div/span'
p46
F8.965784284662087
sS'/html/body/div/div/div/div/table/tr/td/div/div/div/ol/li/p/a/span'
p47
F9.965784284662087
sS'/html/body/div/div/div/form/table/tr/td/input'
p48
F4.965784284662088
sS'/html/body/div/div/div/table/tr/td/div/div/a'
p49
F9.965784284662087
sS'/html/body/div/div/div/div/div/table/tr/td/div/div/blockquote/p/em'
p50
F9.965784284662087
sS'/html/body/div/div/div/div/div/div/div/ul/li/a/span'
p51
F2.107803289534515
sS'/html/body/div/div/div/table/tr/td/div/div/p/strong'
p52
F9.965784284662087
sS'/html/body/div/div/div/div/div/div/div/form/input'
p53
F7.643856189774724
sS'/html/body/div/div/div/div/div/div/table/tr/td/div/ul/li/ul/li/code'
p54
F8.965784284662087
sS'/html/body/div/div/div/div/p/a'
p55
F4.836501267717121
sS'/html/body/div/div/div/div/table/tr/td/div/div/div/p/a'
p56
F7.643856189774724
sS'/html/body/div/div/div/div/p/b'
p57
F5.321928094887363
sS'/html/body/div/div/div/div/h1/span'
p58
F8.965784284662087
sS'/html/body/div/div/div/div/p/i'
p59
F8.380821783940931
sS'/html/body/div/div/div/div/form/label'
p60
F8.380821783940931
sS'/html/body/div/div/div/div/table/tr/td/div/div/div/ol/span'
p61
F8.380821783940931
sS'/html/body/div/div/div/div/div/div/div/div/a/div/img'
p62
F4.539519529959989
sS'/html/body/div/div/div/div/table/tr/td/div/div/div/div/ol/li/ul/li/span'
p63
F9.965784284662087
sS'/html/head/script'
p64
F0.02914634565951651
sS'/html/body/div/div/div/div/table/tr/td/div/div/div/div/ol/li/code'
p65
F8.965784284662087
sS'/html/body/div/div/div/div/div/form/div/input'
p66
F1.894321922105463
sS'/html/body/div/div/div/div/div/div/table/tr/td/div/ul/li/a'
p67
F4.965784284662088
sS'/html/body/div/div/div/div/div/div/table/tr/td/div/blockquote/ul/li/a'
p68
F9.965784284662087
sS'/html/body/div/div/div/div/b/a'
p69
F0.02914634565951651
sS'/html/body/div/div/div/div/div/div/ol/li'
p70
F1.438307278601691
sS'/html/body/div/div/div/div/table/tr/td/div/div/div/div/p/sup/span'
p71
F9.965784284662087
sS'/html/body/div/div/div/div/div/div/table/tr/td/div/ul/li/p/strong/em'
p72
F9.965784284662087
sS'/html/body/div/div/br'
p73
F0.02914634565951651
sS'/html/body/div/div/div/div/div/div/div/div/div/pre/code'
p74
F8.965784284662087
sS'/html/body/feed/subtitle'
p75
F5.965784284662088
sS'/html/body/div/div/div/div/div/table'
p76
F6.158429362604484
sS'/html/body/div/div/div/div/table/tr/td/div/div/div/p/strong'
p77
F8.380821783940931
sS'/html/body/div/div/div/div/div/p/br'
p78
F5.380821783940931
sS'/html/body/div/div/div/div/div/div/table/tr/td/div/ul/li/p'
p79
F6.643856189774725
sS'/html/body/div/div/div/div/div/table/tr/td/div/table/tbody/tr/td/div/span/code'
p80
F4.795859283219775
sS'/html/body/div/div/div/form/div/input'
p81
F5.442222328605075
sS'/html/body/div/div/div/div/div/table/tr/td/div/table/tbody/tr/td/div/a/span'
p82
F5.795859283219775
sS'/html/body/div/div/div/table/tr/td/div/table/tr/td/div/div/a/div/img'
p83
F9.965784284662087
sS'/html/body/div/div/div/div/div/div/div/div/div/ol/li/strong'
p84
F9.965784284662087
sS'/html/body/div/div/div/div/div/table/tr/td/div/div/pre'
p85
F8.965784284662087
sS'/html/body/div/div/div/div/div/div/table/tr/td/div/ol/li/p/sub/code'
p86
F9.965784284662087
sS'/html/body/div/div/div/div/div/div/div/div/span'
p87
F4.411195432984449
sS'/html/body/div/div/div/div/div/table/tr/td/div/div/b'
p88
F1.4422223286050742
sS'/html/body/div/div/div/div/div/div/table/tr/td/div/ul/li/sup/sup'
p89
F9.965784284662087
sS'/html/body/div/div/div/div/table/tr/td/div/div/div/div/p/code'
p90
F8.380821783940931
sS'/html/body/div/div/div/table/tr/td/div/table/tr/td/div/table/tbody/tr/td/table/tbody/tr/td'
p91
F9.965784284662087
sS'/html/body/div/div/div/div/table/tr/td/div/div/div/div/ul/li/ol/li/ul/li/a/span'
p92
F9.965784284662087
sS'/html/body/div/div/div/div/div/table/tr/td/div/div/p/em'
p93
F5.011587974275212
sS'/html/body/div/div/div/div/div/table/tr/td/div/div/ul/li/p/code'
p94
F9.965784284662087
sS'/html/body/div/div/div/div/div/form/div/div/div/div/script'
p95
F1.894321922105463
sS'/html/body/div/div/div/div/div/div/div/div/div/div/i'
p96
F6.265344566520995
sS'/html/body/div/div/div/div/div/table/tr/td/div/table/tbody/tr/td/div/span/i'
p97
F4.836501267717121
sS'/html/body/div/div/div/table/tr/td/div/table/tr/td/div/table/tbody/tr/td/div/a/span'
p98
F9.965784284662087
sS'/html/body/div/div/div/div/div/div/table/tr/td/div/ul/li/pre/code'
p99
F9.965784284662087
sS'/html/body/div/div/div/div/div/div/div/br'
p100
F3.5228407888133586
sS'/html/body/div/div/div/div/div/div/table/tr/td/div/h3/strong'
p101
F9.965784284662087
sS'/html/body/div/div/div/div/div/div/h3/span'
p102
F7.158429362604482
sS'/html/body/div/div/div/div/table/tr/td/span'
p103
F6.058893689053569
sS'/html/body/div/div/div/div/div/ul/li/ul/li/a'
p104
F9.965784284662087
sS'/html/body/div/div/div/div/div/table/tr/td/div/div/p/br'
p105
F5.965784284662088
sS'/html/body/div/div/div/div/table/tr/td/div/div/div/div/ol/li/a'
p106
F9.965784284662087
sS'/html/body/div/div/div/div/table/tr/td/div/div/div/h1'
p107
F9.965784284662087
sS'/html/body/div/div/div/table/tr/td/div/div/p/strong/em'
p108
F9.965784284662087
sS'/html/body/div/div/div/div/div/div/div/div/div/h1'
p109
F6.965784284662088
sS'/html/body/div/div/div/form/div/div/div/ul/li/a'
p110
F9.965784284662087
sS'/html/body/div/div/div/div/div/div/table/tr/td/div/table/tbody/tr/td/div/span'
p111
F2.3510744405468786
sS'/html/body/div/div/div/div/div/div/div/div/div/ul/li/code'
p112
F9.965784284662087
sS'/html/body/div/div/div/div/div/table/tr/td/div/div/ul/li/ul/li/strong'
p113
F9.965784284662087
sS'/html/body/div/div/div/div/table/tr/td/div/div/div/ol/li/em'
p114
F9.965784284662087
sS'/html/body/div/div/div/div/table/tr/td/div/div/div/blockquote/pre/code'
p115
F9.965784284662087
sS'/html/body/div/div/div/div/table/tr/td/select/option'
p116
F6.965784284662088
sS'/html/body/feed/entry/link'
p117
F5.965784284662088
sS'/html/body/div/div/div/div/div/div/div/div/div/span/strong'
p118
F2.1584293626044833
sS'/html/body/div/div/div/div/div/div/div/div/a/div'
p119
F3.5228407888133586
sS'/html/body/div/div/div/div/table/tr/td/div/div/div/blockquote/p/span'
p120
F9.965784284662087
sS'/html/body/div/div/div/div/div/table/tr/td/div/h2/a'
p121
F4.293358942690592
sS'/html/body/div/div/div/div/div/div/div/a/span'
p122
F4.184424571137428
sS'/html/body/div/div/div/div/table/tr/td/div/div/div/ol/li/a/span'
p123
F9.965784284662087
sS'/html/body/div/div/div/div/div/table/tr/td/div/div/p/em/strong'
p124
F9.965784284662087
sS'/html/body/feed/entry/category'
p125
F5.965784284662088
sS'/html/body/div/div/div/div/div/ul/li/span/a'
p126
F7.380821783940932
sS'/html/body/div/div/div/div/table/tr/td/div/div/a/div/img'
p127
F5.717856771218502
sS'/html/body/feed/entry/updated'
p128
F5.965784284662088
sS'/html/body/div/div/div/div/div/div/table/tr/td/div/blockquote/p/br'
p129
F7.965784284662087
sS'/html/body/div/div/div/div/div/div/table/tr/td/div/p/strong/em'
p130
F7.643856189774724
sS'/html/body/div/div/div/div/div/p/a/img'
p131
F9.965784284662087
sS'/html/body/div/div/div/div/table/tr/td/div/div/div/div/ol/li/a/span'
p132
F9.965784284662087
sS'/html/body/div/div/div/div/div/form/div/a'
p133
F1.894321922105463
sS'/html/body/div/div/div/div/table/tr/td/div/div/div/hr'
p134
F9.965784284662087
sS'/html/body/div/div/div/div/table/tr/td/div/div/div/div/div'
p135
F9.965784284662087
sS'/html/body/div/div/div/div/div/form/div/div/div/div/div/table/tr/td/div/input'
p136
F1.894321922105463
sS'/html/body/div/div/div/div/div/div/table/tr/td/div/p/sup/em'
p137
F8.380821783940931
sS'/html/body/div/div/div/div/div/div/table/tr/td/div/a'
p138
F1.8313579644411613
sS'/html/body/div/div/div/div/p/code'
p139
F9.965784284662087
sS'/html/body/div/div/div/div/div/div/table/tr/td/div/p/strong/sup'
p140
F8.965784284662087
sS'/html/body/div/div/div/div/div/div/div/div/div/div/span/span'
p141
F2.3075728019102923
sS'/html/body/div/div/div/div/div/div/table/tr/td/div/p'
p142
F2.0291463456595165
sS'/html/body/div/div/div/div/div/table/tr/td/div/div/div/ul/li/span'
p143
F5.643856189774724
sS'/html/body/div/div/div/div/table/tr/td/div/div/div/ul/li/ol/li/a'
p144
F9.965784284662087
sS'/html/body/div/div/div/div/form/div/div/div/div/a'
p145
F7.643856189774724
sS'/html/body/div/div/div/div/div/div/table/tr/td/div/p/a/strong'
p146
F7.643856189774724
sS'/html/body/div/div/div/div/table/tr/td/div/div/div/ol/li/code'
p147
F8.965784284662087
sS'/html/body/div/div/div/div/div/div/div/div/div/p/br'
p148
F7.380821783940932
sS'/html/body/div/div/div/div/div/div/table/tr/td/div/pre'
p149
F8.380821783940931
sS'/html/body/div/div/div/div/span'
p150
F2.3883554566263383
sS'/html/body/div/div/div/div/table/tr/td/label'
p151
F6.965784284662088
sS'/html/body/div/div/div/div/div/a/span'
p152
F0.9077925619029114
sS'/html/body/div/div/div/div/form/div/div/div/div/p'
p153
F8.380821783940931
sS'/html/body/div/div/div/div/table/tr/td/div/div/div/div/ul/li/p/span'
p154
F9.965784284662087
sS'/html/body/div/div/div/div/div/div/table/tr/td/div/ol/li/em'
p155
F8.965784284662087
sS'/html/body/div/div/div/div/div/div/img'
p156
F7.643856189774724
sS'/html/body/div/div/div/div/table/tr/td/div/div/div/span/span'
p157
F5.965784284662088
sS'/html/body/div/div/div/div/div/div/table/tr/td/div/ol/li/code'
p158
F6.158429362604484
sS'/html/body/div/div/div/div/div/div/div/table/tr/td/div/h4'
p159
F2.272297327162762
sS'/html/body/div/div/div/div/table/tr/td/div/div/div/div/blockquote/p/span'
p160
F9.965784284662087
sS'/html/body/div/div/div/div/table/tr/td/ol/li/a'
p161
F0.02914634565951651
sS'/html/body/div/div/div/div/div/div/table/tbody/tr/td/span'
p162
F7.158429362604482
sS'/html/body/div/div/div/div/div/div/div/a/div/svg'
p163
F6.158429362604484
sS'/html/body/div/div/div/div/table/tr/td/div/div/div/h1/span/span'
p164
F8.965784284662087
sS'/html/body/div/div/div/div/table/tr/td/div/span'
p165
F6.265344566520995
sS'/html/body/div/div/div/div/form/div/div/div/a'
p166
F8.380821783940931
sS'/html/body/div/div/div/div/div/table/tr/td/div/table/tr/td/div/div/a'
p167
F1.4619585466663363
sS'/html/body/div/div/div/div/div/div/table/tr/td/div/table/tbody/tr/td/div/a'
p168
F2.3364276645824775
sS'/html/body/div/div/div/div/div/div/a/div/img'
p169
F5.442222328605075
sS'/html/body/div/div/div/table/tr/td/div/table/tr/td'
p170
F9.965784284662087
sS'/html/body/div/div/div/div/div/div/div/p'
p171
F3.0232697793228476
sS'/html/body/div/div/div/div/div/div/table/tr/td/div/ul/li/s/strong/a'
p172
F8.965784284662087
sS'/html/body/div/div/div/table/thead/tr/th'
p173
F9.965784284662087
sS'/html/body/div/div/div/div/div/div/table/tr/td/div/ul/li/strike'
p174
F9.965784284662087
sS'/html/body/div/div/div/div/div/div/div/a'
p175
F0.6943212567577126
sS'/html/body/div/div/div/div/div/div/table/tr/td/div/ul/li/ul/li/ul/li/code'
p176
F9.965784284662087
sS'/html/body/div/div/div/div/div/table/tr/td/div/div/blockquote/p/br'
p177
F6.50635266602479
sS'/html/body/div/div/div/form/div/div'
p178
F5.442222328605075
sS'/html/body/div/div/div/div/div/table/tr/td/div/div/p/sub'
p179
F8.965784284662087
sS'/html/body/div/div/div/div/div/div/table/tr/td/div/strong'
p180
F8.965784284662087
sS'/html/body/div/div/div/div/div/table/tr/td/div/table/tbody/tr/td/div/span/span'
p181
F2.107803289534515
sS'/html/body/div/div/div/div/div/div/table/tbody/tr/td/span/span'
p182
F7.380821783940932
sS'/html/body/div/div/div/div/table/tr/td/div/div/div/div/p/br'
p183
F9.965784284662087
sS'/html/body/div/div/div/div/div/div/div/div/div/span/span'
p184
F1.8783214434117477
sS'/html/body/div/div/div/div/table/tr/td/div/div/div/ul/li/p/em/span'
p185
F9.965784284662087
sS'/html/body/div/div/div/div/form/div/a'
p186
F7.643856189774724
sS'/html/body/div/div/div/div/div/table/tr/td/div/div/p/sup'
p187
F7.158429362604482
sS'/html/body/div/div/div/div/table/tr/td/div'
p188
F6.058893689053569
sS'/html/body/div/div/div/link'
p189
F1.4422223286050742
sS'/html/body/div/div/div/div/div/div/ul/li'
p190
F9.965784284662087
sS'/html/body/div/div/div/div/table/tr/td/div/div/div/div/div/div'
p191
F9.965784284662087
sS'/html/body/div/div/div/div/table/tr/td/span/b'
p192
F8.965784284662087
sS'/html/body/div/div/div/div/div/div/table/tr/td/div/ul/li/p/code'
p193
F7.380821783940932
sS'/html/body/div/div/div/div/table/tr/td/div/div/div/div/ul/li/ol/span'
p194
F9.965784284662087
sS'/html/body/div/div/div/div/div/div/div/div/br'
p195
F6.965784284662088
sS'/html/body/div/div/div/div'
p196
F1.8059129478836977
sS'/html/body/div/div/div/div/form/div/br'
p197
F7.643856189774724
sS'/html/body/div/div/div/div/div/div/h3/a'
p198
F2.380821783940931
sS'/html/body/div/div/div/div/div/div/h2/b'
p199
F3.9885043611621707
sS'/html/body/div/div/div/div/div/div/table/tr/td/table/tr/td/div/div/a/br'
p200
F6.380821783940931
sS'/html/body/div/div/div/div/div/div/h2/a'
p201
F3.9885043611621707
sS'/html/body/div/div/div/div/div/ul/li/div'
p202
F1.4422223286050742
sS'/html/body/div/div/div/div/div/div/table/tr/td/div/ol/li/a'
p203
F6.380821783940931
sS'/html/body/div/div/div/div/div/div/script'
p204
F8.380821783940931
sS'/html/body/div/div/div/form/div/div/div/table/tr/td/label'
p205
F7.158429362604482
sS'/html/body/div/div/div/div/div/div/h2/span'
p206
F3.9885043611621707
sS'/html/body/div/div/div/div/form/div/div/div/div/label'
p207
F8.380821783940931
sS'/html/body/div/div/div/div/table/tr/td/div/div/div/div/ul/li/ol/li/span'
p208
F9.965784284662087
sS'/html/body/div/div/div/table/tr/td/div/table/tr/td/div/div/span'
p209
F9.965784284662087
sS'/html/body/div/div/div/div/div/div/table/tr/td/div/p/em'
p210
F4.107803289534515
sS'/html/body/div/div/div/div/div/div/table/tr/td/div/ol/li/p'
p211
F6.058893689053569
sS'/html/body/div/div/div/div/table/tr/td/div/div/h1/span'
p212
F9.965784284662087
sS'/html/body/div/div/div/div/div/table/tr/td/div/div/blockquote/p/a'
p213
F6.643856189774725
sS'/html/body/div/div/div/div/div/span/span'
p214
F2.3883554566263383
sS'/html/body/div/div/div/div/div/table/tr/td/span'
p215
F6.643856189774725
sS'/html/body/div/div/div/div/table/tr/td/div/div/div/ul/li/ol/li/a/span'
p216
F9.965784284662087
sS'/html/body/div/div/div/div/div/div/div/div/div/a/span'
p217
F6.50635266602479
sS'/html/body/div/div/div/div/div/div/table/tr/td/div/p/sup/br'
p218
F8.965784284662087
sS'/html/body/div/div/div/div/div/table/tr/td/div/div/p/sup/a'
p219
F9.965784284662087
sS'/html/body/div/div/div/div/div/div/p'
p220
F2.3658714424749596
sS'/html/body/div/div/div/div/ul/li/div'
p221
F2.145605322246899
sS'/html/body/div/div/div/form/div/div/div/p/strong'
p222
F9.965784284662087
sS'/html/body/div/div/div/div/div/div/div/div/div/div/span'
p223
F2.279283757478869
sS'/html/body/div/div/div/div/div/div/b'
p224
F1.4422223286050742
sS'/html/body/div/div/div/div/div/table/tr/td/div/div/p/sup/s'
p225
F9.965784284662087
sS'/html/body/div/div/div/div/div/div/a'
p226
F0.02914634565951651
sS'/html/body/div/div/div/div/div/hr'
p227
F4.351074440546879
sS'/html/body/div/div/div/a/span'
p228
F0.02914634565951651
sS'/html/body/div/div/div/div/div/form/div/noscript/div/table/tr/td/div/label'
p229
F1.894321922105463
sS'/html/body/div/div/div/form/div/div/div/p/a'
p230
F8.965784284662087
sS'/html/body/div/div/div/div/div/div/table/tr/td/div/ul/li/a/code'
p231
F9.965784284662087
sS'/html/body/div/div/div/div/div/form/div/script'
p232
F1.894321922105463
sS'/html/body/div/div/div/div/table/tr/td/div/div/div/div/ol/li'
p233
F8.965784284662087
sS'/html/body/div/div/div/div/table/tr/td/div/div/div/span'
p234
F5.795859283219775
sS'/html/body/div/div/div/div/div/table/tr/td/div/div/p/a/img'
p235
F5.50635266602479
sS'/html/body/div/div/div/div/table/tr/td/div/div/div/ul/li/ol/li/p/span'
p236
F9.965784284662087
sS'/html/body/div/div/div/div/div/div/table/tr/td/div/p/sup/code'
p237
F9.965784284662087
sS'/html/body/div/div/div/div/table/tr/td/p/b/a'
p238
F8.965784284662087
sS'/html/body/div/div/div/div/div/div/div/div/div/ol/li/a'
p239
F8.965784284662087
sS'/html/body/div/div/div/form/div/script'
p240
F7.158429362604482
sS'/html/body/div/div/div/div/table/tr/td/div/div/div/ol/li/ul/li/a/span'
p241
F9.965784284662087
sS'/html/body/div/div/div/div/div/form/div/noscript/div/table/tr/td/div/input'
p242
F1.894321922105463
sS'/html/body/div/div/div/div/table/tr/td/div/div/div/ul/li/p/span'
p243
F9.965784284662087
sS'/html/body/div/div/div/div/div/div/div/span'
p244
F3.5563933485243853
sS'/html/body/div/div/div/div/div/div/table/tr/td/div/span'
p245
F1.8313579644411613
sS'/html/body/div/div/div/div/table/tr/td/div/div'
p246
F6.643856189774725
sS'/html/body/div/div/div/div/div/div/div/div/h2/span'
p247
F4.265344566520995
sS'/html/body/div/div/div/div/div/div/table/tr/td/div/table/tbody/tr/td/table/tbody/tr/td/span'
p248
F3.184424571137428
sS'/html/body/div/div/div/div/div/div/table/tr/td/div/ol/li/p/strong/code'
p249
F9.965784284662087
sS'/html/body/div/div/div/div/div/div/table/tr/td/div/ul/li/img'
p250
F8.965784284662087
sS'/html/body/div/div/div/div/div/div/div/table/tr/td/div/span'
p251
F2.272297327162762
sS'/html/body/div/div/div/div/div/div/div/div/div/ul/li/p/a'
p252
F9.965784284662087
sS'/html/body/div/div/div/div/div/div/table/tr/td/div/ul/li/ul/li'
p253
F7.643856189774724
sS'/html/body/div/div/div/div/div/h4'
p254
F1.3584539709124765
sS'/html/body/div/div/div/div/div/h3'
p255
F0.02914634565951651
sS'/html/body/div/div/div/div/div/h2'
p256
F6.158429362604484
sS'/html/body/div/div/div/div/div/div/table/tr/td/div/ul/li/code'
p257
F5.795859283219775
sS'/html/body/div/div/div/div/ul/li/a/strong'
p258
F4.132894270497346
sS'/html/body/div/div/div/table/tr/td/div/div/p/em/strong'
p259
F9.965784284662087
sS'/html/body/div/div/div/form/div/div/div/label'
p260
F7.158429362604482
sS'/html/body/div/div/div/div/div/div/table/tr/td/div/ol/li/pre/code'
p261
F8.380821783940931
sS'/html/body/div/div/div/div/form/div/div/div/div/noscript/p'
p262
F8.380821783940931
sS'/html/body/div/div/div/div/div/table/tr/td/div/div/blockquote/p'
p263
F6.50635266602479
sS'/html/body/div/div/div/div/table/tr/td/div/div/div/p/sup/span'
p264
F9.965784284662087
sS'/html/body/feed/entry/published'
p265
F5.965784284662088
sS'/html/body/div/div/div/div/p/span/a'
p266
F6.643856189774725
sS'/html/body/div/div/div/div/table/tr/td/div/div/blockquote/p/em'
p267
F9.965784284662087
sS'/html/body/div/div/div/div/h2/span'
p268
F4.878321443411748
sS'/html/body/div/div/div/div/table/tr/td/div/div/div/p/strong/span'
p269
F9.965784284662087
sS'/html/body/div/div/div/div/form/div/div/div/input'
p270
F8.380821783940931
sS'/html/body/div/div/div/div/table/tr/td/div/div/div/p/br'
p271
F9.965784284662087
sS'/html/body/div/div/div/div/div/table/tr/td/div/table/tbody/tr/td/table/tbody/tr/td/span'
p272
F3.3364276645824775
sS'/html/body/div/div/div/div/div/form/h2'
p273
F1.894321922105463
sS'/html/body/div/div/div/div/table/tr/td/div/div/div/div/p/sup/a'
p274
F9.965784284662087
sS'/html/head/link'
p275
F0.02914634565951651
sS'/html/body/div/div/div/form/div/style'
p276
F5.965784284662088
sS'/html/body/div/div/div/div/table/tr/td/h1'
p277
F6.643856189774725
sS'/html/body/div/div/div/div/table/tr/td/div/div/div/p/img'
p278
F8.965784284662087
sS'/html/body/div/div/div/div/div/div/div/div/div/a/br'
p279
F6.965784284662088
sS'/html/body/div/div/div/table/tr/td/div/table/tr/td/div/table/tbody/tr/td/div/span/b'
p280
F9.965784284662087
sS'/html/body/div/div/div/div/div/table/tr/td/div/table/tr/td/div/div/a/span'
p281
F2.089267338097087
sS'/html/body/div/div/div/div/div/div/div/div/div/p/a'
p282
F5.442222328605075
sS'/html/body/div/div/div/div/div/div/div/div/div/p/b'
p283
F9.965784284662087
sS'/html/body/div/div/div/table/tr/td/div/table/tr/td/div/table/tbody/tr/td/div/span/i'
p284
F9.965784284662087
sS'/html/body/div/div/div/div/div/table/tr/td/div/div/a'
p285
F1.4035418604410146
sS'/html/body/div/div/div/div/table/tr/td/div/div/div/p/span'
p286
F6.643856189774725
sS'/html/body/div/div/div/div/div/div/table/tr/td/div/p/strong/code'
p287
F8.380821783940931
sS'/html/body/div/div/div/div/div/div/table/tr/td/div/blockquote/ul/li/p'
p288
F8.380821783940931
sS'/html/body/div/div/div/div/table/tr/td/div/div/div/h2/span'
p289
F9.965784284662087
sS'/html/body/div/div/div/div/div/table/tr/td/div/table/tr/td/div/div'
p290
F3.857259827883918
sS'/html/body/div/div/div/div/div/table/tr/td/div/div/p'
p291
F1.5104570643575264
sS'/html/body/div/div/div/div/div/form/div/div/div/input'
p292
F1.894321922105463
sS'/html/body/div/div/div/div/div/div/table/tr/td/div/ul/li/p/sub'
p293
F9.965784284662087
sS'/html/body/div/div/div/div/table/tr/td/div/div/div/div/p/a/span'
p294
F8.965784284662087
sS'/html/body/div/div/div/div/div/div/table/tr/td/div/ul/li/ol/li/ul/li/pre'
p295
F9.965784284662087
sS'/html/body/div/div/div/div/table/tr/td/div/div/p/a'
p296
F9.965784284662087
sS'/html/body/div/div/div/div/div/div/table/tr/td/table/tr/td/div/div/a/div/img'
p297
F1.8836352433082157
sS'/html/body/div/div/div/div/div/h3/a'
p298
F0.02914634565951651
sS'/html/body/div/div/div/div/div/div/table/tr/td/div/ol/li/ul/li/p'
p299
F9.965784284662087
sS'/html/body/div/div/div/div/div/div/table/tr/td/div/div/span'
p300
F6.158429362604484
sS'/html/body/div/div/div/div/table/tr/td/div/div/div/ol/li/em/span'
p301
F9.965784284662087
sS'/html/body/div/div/div/div/div/span'
p302
F5.210896782498619
sS'/html/body/div/div/div/div/div/div/span/span'
p303
F6.158429362604484
sS'/html/body/div/div/div/div/h2/a/img'
p304
F9.965784284662087
sS'/html/body/div/div/div/div/div/div/div/div/div/p/strong/code'
p305
F9.965784284662087
sS'/html/body/div/div/div/div/form/br'
p306
F6.965784284662088
sS'/html/body/div/div/div/div/div/div/table/tr/td/div/ol/li/blockquote/p'
p307
F9.965784284662087
sS'/html/body/div/div/div/div/div/table/tr/td/div/div/div/p'
p308
F5.643856189774724
sS'/html/body/div/div/div/div/div/div/div/div'
p309
F3.7178567712185013
sS'/html/body/div/div/div/div/div/table/tr/td/div/table/tbody/tr/td/div/span/a/code'
p310
F9.965784284662087
sS'/html/body/div/div/div/div/div/div/table/tr/td/div/table/tbody/tr/td/div/a/span'
p311
F5.50635266602479
sS'/html/body/div/div/div/div/span/a'
p312
F0.02914634565951651
sS'/html/body/div/div/div/div/table/tr/td/div/div/div/div/ol/li/code/span'
p313
F9.965784284662087
sS'/html/body/div/div/div/div/div/div/div/div/div/h3'
p314
F9.965784284662087
sS'/html/body/div/div/div/div/div/div/div/div/div/h2'
p315
F8.965784284662087
sS'/html/body/div/div/div/div/div/table/tr/td/div/div/ul/li/a'
p316
F7.965784284662087
sS'/html/body/div/div/div/div/div/div/div/div/h2/script'
p317
F5.380821783940931
sS'/html/body/div/div/div/div/div/div/table/tr/td/table/tr/td/div/span'
p318
F1.8365012677171209
sS'/html/body/div/div/div/div/div/div/table/tr/td/div/ul/li/ol/li/ul/li'
p319
F9.965784284662087
sS'/html/body/div/div/div/div/div/div/table/tr/td/table/tr/td/div/div/span'
p320
F1.8313579644411613
sS'/html/body/div/div/div/div/div/p/span'
p321
F5.442222328605075
sS'/html/body/div/div/div/div/div/div/table/tr/td/table/tr/td/div/div/a/span'
p322
F2.7563309190331373
sS'/html/body/div/div/div/div/table/tr/td/div/div/div/ol/li/ul/li/span'
p323
F9.965784284662087
sS'/html/body/div/div/div/table/tr/td/div/div/ul/li'
p324
F9.965784284662087
sS'/html/body/div/div/div/div/div/div/div/div/div/div/div/div'
p325
F9.965784284662087
sS'/html/body/div/div/div/div/div/div/div/div/div/p/a/strong'
p326
F9.965784284662087
sS'/html/body/div/div/div/div/form/div/div/div/div/div/p'
p327
F7.643856189774724
sS'/html/head/style'
p328
F4.539519529959989
sS'/html/body/div/div/div/div/div/div/table/tr/td/div/ul/li/ul/li/ul/li'
p329
F9.965784284662087
sS'/html/body/div/div/div/div/div/table/tr/td/div/ul/li/b'
p330
F7.380821783940932
sS'/html/body/div/div/div/div/div/table/tr/td/div/ul/li/a'
p331
F7.158429362604482
sS'/html/body/div/div/div/div/table/tr/td/div/div/div/ul/li/a/span'
p332
F9.965784284662087
sS'/html/body/div/div/div/div/div/div/div'
p333
F1.4941090702700424
sS'/html/body/div/div/div/div/div/div/div/div/div/div/a/span'
p334
F9.965784284662087
sS'/html/body/div/div/div/div/div/div/table/tr/td/div/ul/li/strong'
p335
F6.795859283219775
sS'/html/body/div/div/div/div/table/tr/td/div/a'
p336
F5.878321443411747
sS'/html/body/feed/entry/summary'
p337
F5.965784284662088
sS'/html/body/div/div/div/div/table/tr/td/div/div/div/div/ul/li/ol/li/ul/li/span'
p338
F9.965784284662087
sS'/html/body/div/div/div/div/table/tr/td/div/div/div/blockquote/span'
p339
F9.965784284662087
sS'/html/body/div/div/script'
p340
F1.7369655941662063
sS'/html/body/div/div/div/div/table/tr/td/div/div/div/div/p/span'
p341
F6.643856189774725
sS'/html/body/div/div/div/div/div/table/tr/td/div/div/ul/li/p'
p342
F9.965784284662087
sS'/html/body/div/div/div/form/div/div/div/p/img'
p343
F9.965784284662087
sS'/html/body/div/div/div/div/div/div/p/i'
p344
F9.965784284662087
sS'/html/body/div/div/div/div/div/div/table/tr/td/div/h1/em'
p345
F9.965784284662087
sS'/html/body/div/div/div/div/div/br'
p346
F9.965784284662087
sS'/html/body/div/div/div/table/thead/tr/th/span'
p347
F9.965784284662087
sS'/html/body/div/div/div/div/div/div/p/a'
p348
F1.8262329322632935
sS'/html/body/div/div/div/div/div/div/table/tr/td/div/p/sub/a'
p349
F8.380821783940931
sS'/html/body/div/div/div/div/div/div/table/tr/td/div/h2/strong'
p350
F9.965784284662087
sS'/html/body/div/div/div/div/div/ol/li'
p351
F9.965784284662087
sS'/html/body/div/div/div/div/div/div/table/tr/td/table/tr/td/div/div/div/span/span'
p352
F1.926865295369785
sS'/html/body/div/div/div/div/div/div/table/tr/td/div/ul/li/ol/li/ul/li/p/br'
p353
F9.965784284662087
sS'/html/body/div/div/div/div/form/input'
p354
F0.02914634565951651
sS'/html/body/div/div/div/table/tr/td/div/table/tr/td/div/table/tbody/tr/td/div/a'
p355
F9.965784284662087
sS'/html/body/div/div/div/div/div/table/tr/td/div/div/h2'
p356
F8.380821783940931
sS'/html/body/div/div/div/div/div/table/tr/td/div/div/p/kbd'
p357
F9.965784284662087
sS'/html/body/div/div/div/div/h2/a'
p358
F5.011587974275212
sS'/html/body/div/div/div/table/tr/td/div/div/h1'
p359
F9.965784284662087
sS'/html/body/div/div/div/table/tr/td/div/div/h2'
p360
F9.965784284662087
sS'/html/body/div/div/div/table/tr/td/div/table/tr/td/div/div/ul/li'
p361
F9.965784284662087
sS'/html/body/div/div/div/div/div/div/div/div/div/div/div/div/span'
p362
F2.244685095954902
sS'/html/body/div/div/div/div/div/div/table/tr/td/div/p/sup/a'
p363
F6.965784284662088
sS'/html/body/div/div/div/div/div/div'
p364
F0.02914634565951651
sS'/html/body/div/div/div/div/div/div/table/tr/td/div/pre/code'
p365
F4.608232280044003
sS'/html/body/div/div/div/div/table/tr/td/div/div/div/div/ul/li/ol/li/p/span'
p366
F9.965784284662087
sS'/html/body/div/div/div/div/table/tr/td/div/div/div/div/blockquote/pre/code/span'
p367
F9.965784284662087
sS'/html/body/div/div/div/div/h1/a'
p368
F1.1844245711374277
sS'/html/body/div/div/div/table/tr/td/div/table/tr/td/div/a'
p369
F9.965784284662087
sS'/html/body/div/div/div/div/div/table/tr/td/div/p'
p370
F5.573466861883327
sS'/html/body/div/div/div/div/table/tr/td/div/div/div/ol/li'
p371
F8.965784284662087
sS'/html/body/div/div/div/table/tr/td/div/table/tr/td/div/table/tbody/tr/td/div/span/span'
p372
F9.965784284662087
sS'/html/body/div/div/div/div/h4'
p373
F2.1778817252706553
sS'/html/body/div/div/div/div/h3'
p374
F8.965784284662087
sS'/html/body/div/div/div/div/div/form/div/div/div/textarea'
p375
F1.894321922105463
sS'/html/body/div/div/div/div/h1'
p376
F1.9378782880922025
sS'/html/body/div/div/div/div/div/table/tr/td/div/div/ul/li/ul/li'
p377
F8.965784284662087
sS'/html/body/div/div/div/div/div/table/tr/td/div/a'
p378
F1.4422223286050742
sS'/html/body/feed/title'
p379
F5.965784284662088
sS'/html/body/div/div/div/div/table/tr/td/div/div/div/blockquote/pre/code/span'
p380
F9.965784284662087
sS'/html/body/div/div/div/div/div/div/div/span/span'
p381
F6.795859283219775
sS'/html/body/div/div/div/div/div/table/tr/td/div/table/tr/td/div/div/div'
p382
F3.680382065799839
sS'/html/body/div/div/div/div/div/ul/li/div/a'
p383
F0.02914634565951651
sS'/html/body/div/div/div/table/tr/td/div/div/hr'
p384
F9.965784284662087
sS'/html/body/div/div/div/div/div/table/tr/td/div/div/hr'
p385
F6.50635266602479
sS'/html/body/div/div/div/form/div/a'
p386
F5.442222328605075
sS'/html/body/div/div/div/div/div/table/tr/td/div/table/tr/td/div/div/a/div/img'
p387
F1.4900508536956893
sS'/html/body/div/div/div/div/div/form/script'
p388
F1.894321922105463
sS'/html/body/div/div/div/div/table/tr/td/div/div/div/div/pre/code/span'
p389
F9.965784284662087
sS'/html/body/div/div/div/div/div/div/table/tr/td/div/table/tbody/tr/td/div/span/code'
p390
F4.965784284662088
sS'/html/body/div/div/div/div/div/div/table/tr/td/div/blockquote/ul/li'
p391
F7.380821783940932
sS'/html/body/feed/license'
p392
F5.965784284662088
sS'/html/body/div/div/div/div/table/tr/td/div/div/div/ul/li/span'
p393
F8.965784284662087
sS'/html/body/div/div/div/div/div/div/table/tr/td/div/p/a/code'
p394
F8.380821783940931
sS'/html/body/div/div/div/div/div/table/tr/td/div/table/tbody/tr/td/div/span/b'
p395
F6.158429362604484
sS'/html/body/div/div/div/p/a'
p396
F4.965784284662088
sS'/html/body/div/div/div/div/table/tr/td/div/div/div/ol/li/ul/li'
p397
F9.965784284662087
sS'/html/body/div/div/div/form/div/div/div/table/tr/td/input'
p398
F7.158429362604482
sS'/html/body/div/div/div/div/div/table/tr/td/div/a/b'
p399
F5.107803289534515
sS'/html/body/div/div/div/div/table/tr/td/div/div/div'
p400
F6.380821783940931
sS'/html/body/div/div/div/div/div/div/table/tr/td/div/input'
p401
F1.8313579644411613
sS'/html/body/div/div/div/form/div/div/input'
p402
F5.442222328605075
sS'/html/body/div/div/div/div/h2/br'
p403
F9.965784284662087
sS'/html/body/div/div/div/div/div/div/div/script'
p404
F2.1909972250609138
sS'/html/body/feed/entry/rank'
p405
F5.965784284662088
sS'/html/body/div/div/div/div/div/div/div/div/div/p/em'
p406
F7.380821783940932
sS'/html/body/div/div/div/div/div/table/tbody/tr/td/a'
p407
F8.965784284662087
sS'/html/body/div/div/div/div/table/tr/td/div/div/div/ul/li/ol/li/span'
p408
F9.965784284662087
sS'/html/body/div/div/div/div/span/div/div/ul/li/a/span'
p409
F0.02914634565951651
sS'/html/body/div/div/div/form/div/h2'
p410
F5.965784284662088
sS'/html/body/div/div/div/div/div/div/table/tr/td/div/ul/li/br'
p411
F7.965784284662087
sS'/html/body/div/div/div/div/div/div/div/table/tr/td/div/ul/li/span'
p412
F2.272297327162762
sS'/html/body/div/div/div/div/div/table/tr/td/div/h2/b'
p413
F4.293358942690592
sS'/html/body/div/div/div/div/div/div/table/tr/td/table/tr/td/div/div/div'
p414
F3.1328942704973457
sS'/html/body/div/div/div/div/div/div/h2/span/span'
p415
F3.9885043611621707
sS'/html/body/div/div/div/div/div/table/tr/td/div/h2/span/span'
p416
F4.321928094887363
sS'/html/body/div/div/div/div/div/table/tr/td/div/input'
p417
F1.4422223286050742
sS'/html/body/div/div/div/div/div/div/div/div/h2'
p418
F2.4819685073978306
sS'/html/body/div/div/div/div/table/tr/td/div/div/div/div/ul/li/ol/li/a/span'
p419
F9.965784284662087
sS'/html/body/div/div/div/div/table/tr/td/div/div/div/div/blockquote/span'
p420
F9.965784284662087
sS'/html/body/div/div/div/div/a'
p421
F0.02914634565951651
sS'/html/body/div/div/div/div/div/div/table/tr/td/div/table/tbody/tr/td/table/tbody/tr/td'
p422
F2.321928094887362
sS'/html/body/div/div/div/form/div/div/div/p/code'
p423
F8.965784284662087
sS'/html/body/div/div/div/div/div/div/table/tr/td/div/ol/li/p/strong'
p424
F8.380821783940931
sS'/html/body/div/div/div/div/div/table/tbody/tr/td/span/span'
p425
F8.380821783940931
sS'/html/body/div/div/div/table/tr/td/div/div/p/a'
p426
F9.965784284662087
sS'/html/body/div/div/div/div/div/table/tr/td/div/div/div/span'
p427
F6.643856189774725
sS'/html/body/div/div/div/div/div/table/tr/td/div/p/span/a'
p428
F8.380821783940931
sS'/html/body/div/div/div/div/div/table/tr/td/div/div/p/strong/em'
p429
F8.965784284662087
sS'/html/body/div/div/div/div/div/p/em'
p430
F9.965784284662087
sS'/html/body/div/div/div/div/form/div/div/div/div'
p431
F6.965784284662088
sS'/html/body/div/div/div/div/div/form/div/noscript/h3'
p432
F1.894321922105463
sS'/html/body/div/div/div/div/div/div/table/tbody/tr/td'
p433
F8.965784284662087
sS'/html/body/div/div/div/div/div/div/div/div/div/blockquote/p/a'
p434
F9.965784284662087
sS'/html/body/div/div/div/div/table/tr/td/div/div/div/div/ul/li/a/span'
p435
F9.965784284662087
sS'/html/body/div/div/div/div/div/div/div/h3/a'
p436
F9.965784284662087
sS'/html/body/div/div/div/div/div/div/table/tr/td/div/ol/li/strong'
p437
F7.380821783940932
sS'/html/body/div/div/div/div/div/table/tr/td/div/table/tr/td/div/div/span'
p438
F1.4422223286050742
sS'/html/body/div/div/div/div/div/div/div/a/div'
p439
F1.3473987824034808
sS'/html/body/div/div/div/div/table/tr/td/div/div/div/ul/span'
p440
F9.965784284662087
sS'/html/body/div/div/div/form/script'
p441
F5.442222328605075
sS'/html/body/div/div/div/div/div/div/table/tr/td/div/table/tbody/tr/td/div/span/span'
p442
F2.321928094887362
sS'/html/body/div/div/div/div/div/div/table/tr/td/div/p/kbd'
p443
F8.965784284662087
sS'/html/body/div/div/div/div/table/tr/td/div/div/div/ol/li/p/span'
p444
F9.965784284662087
sS'/html/body/div/div/div/div/div/div/div/a/div/ul/li'
p445
F6.158429362604484
sS'/html/body/div/div/div/div/div/table/tr/td/div/div/blockquote/p/strong'
p446
F6.50635266602479
sS'/html/body/div/div/div/div/div/ul/li/span/span'
p447
F6.158429362604484
sS'/html/body/div/div/div/br'
p448
F2.083141235300246
sS'/html/body/div/div/div/div/div/table/tr/td/div/div/ul/li'
p449
F5.795859283219775
sS'/html/body/div/div/div/div/img'
p450
F6.965784284662088
sS'/html/body/div/div/div/div/div/a/div'
p451
F2.0232697793228476
sS'/html/body/div/div/div/div/div/table/tr/td/div/div/p/em/br'
p452
F9.965784284662087
sS'/html/body/div/div/div/div/div/table/tr/td/div/table/tr/td/div/br'
p453
F6.795859283219775
sS'/html/body/div/div/div/div/p/span'
p454
F4.9213901653036345
sS'/html/body/div/div/div/div/div/div/div/div/div/p/strong/a'
p455
F9.965784284662087
sS'/html/body/div/div/div/div/div/table/tr/td/div/div/a/div/img'
p456
F6.643856189774725
sS'/html/body/div/div/div/div/div/div/table/tr/td/div/ul/li/ul/li/em/strong'
p457
F9.965784284662087
sS'/html/body/div/div/div/div/p'
p458
F1.965784284662087
sS'/html/body/div/div/div/div/table/tr/td/div/div/div/blockquote/p'
p459
F9.965784284662087
sS'/html/body/div/div/div/div/table/tr/td/div/div/div/div/ul/li/ol/li/p/a/span'
p460
F9.965784284662087
sS'/html/body/feed/entry/author/name'
p461
F5.965784284662088
sS'/html/body/div/div/div/div/div/table/tbody/tr/td/div'
p462
F8.965784284662087
sS'/html/body/div/div/div/div/div/table/tr/td/p'
p463
F1.4422223286050742
sS'/html/body/div/div/div/div/h4/a'
p464
F2.145605322246899
sS'/html/body/div/div/div/div/table/tr/td/p'
p465
F6.965784284662088
sS'/html/body/div/div/div/div/table/tr/td/div/div/div/div/ol/li/p/span'
p466
F9.965784284662087
sS'/html/body/div/div/div/div/table/tr/td/div/table/tr/td/div/div/div/span/span'
p467
F8.965784284662087
sS'/html/body/div/div/div/div/div/ul/li'
p468
F8.965784284662087
sS'/html/body/div/div/div/div/div/div/table/tr/td/div/p/em/a'
p469
F7.643856189774724
sS'/html/body/div/div/div/div/div/table/tr/td/div/div/p/code'
p470
F4.539519529959989
sS'/html/body/div/div/div/div/table/tr/td/b'
p471
F7.158429362604482
sS'/html/body/div/div/div/div/table/tr/td/a'
p472
F6.965784284662088
sS'/html/body/div/div/div/table/tr/td/div/table/tr/td/div/table/tbody/tr/td/div/span'
p473
F9.965784284662087
sS'/html/body/div/div/div/form/input'
p474
F5.380821783940931
sS'/html/body/div/div/div/div/div/table/tr/td/div/div/p/a'
p475
F4.184424571137428
sS'/html/body/div/div/div/div/div/table/tr/td/p/b/a'
p476
F1.8313579644411613
sS'/html/body/div/div/div/div/div/form/div/div/input'
p477
F1.894321922105463
sS'/html/body/div/div/div/table/tr/td/div/table/tr/td/div/table/tbody/tr/td/table/tbody/tr/td/span'
p478
F9.965784284662087
sS'/html/body/div/div/div/div/table/tr/td/div/div/div/div/p/a/img'
p479
F9.965784284662087
sS'/html/body/div/div/div/div/div/div/table/tr/td/div/p/sup/strong'
p480
F7.965784284662087
sS'/html/body/div/div/div/div/div/table/tr/td/div/table/tbody/tr/td/table/tbody/tr/td'
p481
F2.107803289534515
sS'/html/body/div/div/div/div/div/div/table/tr/td/div/ul/li/ul/li/p/sub/a'
p482
F9.965784284662087
sS'/html/body/div/div/div/div/div/div/table/tr/td/div/blockquote/ol/li/pre'
p483
F9.965784284662087
sS'/html/body/div/div/div/div/div/div/br'
p484
F1.2042330522176077
sS'/html/body/div/div/div/div/div/div/div/div/a/span'
p485
F9.965784284662087
sS'/html/body/div/div/div/div/div/div/table/tbody/tr/td/a/span'
p486
F7.380821783940932
sS'/html/body/div/div/div/div/div/div/table/tr/td/div/ul/li/ul/li/p/img'
p487
F9.965784284662087
sS'/html/body/div/div/div/div/form/div/div/div/div/input'
p488
F6.965784284662088
sS'/html/body/div/div/div/div/div/div/table/tr/td'
p489
F1.652901329377732
sS'/html/body/pre'
p490
F7.965784284662087
sS'/html/body/div/div/div/div/div/div/table/tr/td/div/ol/li/p/code'
p491
F6.965784284662088
sS'/html/body/div/div/div/div/div/form/div/div'
p492
F1.894321922105463
sS'/html/body/div/div/div/div/style'
p493
F6.795859283219775
sS'/html/body/div/div/div/div/div/table/tr/td/div/div/ol/li'
p494
F7.380821783940932
sS'/html/body/div/div/div/div/div/div/table/tr/td/table/tr/td/div/a'
p495
F1.8313579644411613
sS'/html/body/div/div/div/div/div/div/table/tr/td/div/h3/br'
p496
F9.965784284662087
sS'/html/body/div/div/div/div/div/ul/li/p'
p497
F9.965784284662087
sS'/html/body/div/div/div/div/table/tr/td/div/div/div/div/h1'
p498
F9.965784284662087
sS'/html/body/div/div/div/div/div/div/table/tr/td/div/ol/li/em/a'
p499
F9.965784284662087
sS'/html/body/div/div/div/form/div/h2/a'
p500
F5.965784284662088
sS'/html/body/noscript/div/img'
p501
F0.02914634565951651
sS'/html/body/div/div/div/div/div/ul/li/a'
p502
F1.4188898247744504
sS'/html/body/div/div/div/div/div'
p503
F0.7273795453370081
sS'/html/body/div/div/div/form/div/div/div/p'
p504
F5.965784284662088
sS'/html/body/div/div/div/div/div/div/table/tr/td/div/table/tbody/tr/td/div/span/i'
p505
F4.608232280044003
sS'/html/body/feed/updated'
p506
F5.965784284662088
sS'/html/body/div/div/div/form/div/div/div/p/em'
p507
F8.965784284662087
sS'/html/body/div/div/div/div/div/div/table/tr/td/div/table/tbody/tr/td/div/span/b'
p508
F6.380821783940931
sS'/html/body/div/div/div/div/div/div/table/tr/td/div/table/tbody/tr/td/div/span/a'
p509
F3.680382065799839
sS'/html/body/div/div/div/div/table/tr/td/div/table/tr/td/div/div/div/span'
p510
F8.965784284662087
sS'/html/body/div/div/div/div/div/div/table/tr/td/div/blockquote/p/kbd'
p511
F9.965784284662087
sS'/html/body/div/div/div/div/div/div/table/tr/td/div/ol/li/ul/li/p/code'
p512
F9.965784284662087
sS'/html/body/div/div/div/div/table/tr/td/div/div/div/a/span'
p513
F7.965784284662087
sS'/html/body/div/div/noscript/div/img'
p514
F2.0232697793228476
sS'/html/body/div/div/div/div/div/p/strong'
p515
F9.965784284662087
sS'/html/body/div/div/div/div/table/tr/td/div/div/div/ol/li/a'
p516
F9.965784284662087
sS'/html/body/div/div/div/div/div/div/table/tr/td/div/ol/li'
p517
F4.608232280044003
sS'/html/body/div/div/div/div/div/table/tr/td/div/span/a'
p518
F7.158429362604482
sS'/html/body/div/div/div/div/table/tr/td/div/div/div/div/hr'
p519
F9.965784284662087
sS'/html/body/div/div/div/table/tr/td/div/table/tr/td/div/span'
p520
F9.965784284662087
sS'/html/body/div/div/div/div/ul/li/code'
p521
F9.965784284662087
sS'/html/body/div/div/div/div/div/div/div/table/tr/td/div/ul/li/a/span'
p522
F2.272297327162762
sS'/html/body/div/div/div/div/div/table/tr/td/div/div/ul/li/p/a'
p523
F9.965784284662087
sS'/html/body/div/div/div/form/div/div/div/ul/li'
p524
F9.965784284662087
sS'/html/body/div/div/div/div/div/div/table/tr/td/div/ul/li/p/s/a'
p525
F9.965784284662087
sS'/html/body/div/div/div/div/div/div/table/tr/td/div/ul/li/ul/li/p'
p526
F8.965784284662087
sS'/html/body/div/div/div/table/tr/td/div/table/tr/td/div/div/a'
p527
F9.965784284662087
sS'/html/body/div/div/div/div/table/tr/td/div/div/div/ul/li/ol/li/ul/li/span'
p528
F9.965784284662087
sS'/html/body/div/div/div/div/table/tr/td/div/div/div/ul/li/ol/li/p/a/span'
p529
F9.965784284662087
sS'/html/body/div/div/div/div/table/tr/td/div/div/div/pre/code/span'
p530
F9.965784284662087
sS'/html/body/div/div/div/div/div/div/table/tr/td/div/ul/li/p/strong'
p531
F7.380821783940932
sS'/html/body/div/div/div/div/div/div/p/i/b/a'
p532
F9.965784284662087
sS'/html/body/div/div/div/div/div/div/table/tr/td/div/blockquote/p/em'
p533
F7.965784284662087
sS'/html/body/div/div/div/div/div/table/tr/td/div/span'
p534
F1.4422223286050742
sS'/html/body/div/div/div/table/tr/td/div/table/tr/td/div/table/tbody/tr/td'
p535
F9.965784284662087
sS'/html/body/div/div/div/div/div/table/tr/td/div/table/tr/td/div/a'
p536
F1.4422223286050742
sS'/html/body/div/div/div/div/div/table/tr/td/div/div/div/span/span'
p537
F6.643856189774725
sS'/html/body/div/div/div/div/ul/li/strong'
p538
F9.965784284662087
sS'/html/body/div/div/div/div/div/table/tr/td/div/div/h1'
p539
F8.965784284662087
sS'/html/body/div/div/div/div/div/table/tbody/tr/td/a/span'
p540
F9.965784284662087
sS'/html/body/div/div/div/div/table/tr/th'
p541
F0.02914634565951651
sS'/html/body/div/div/div/div/table/tr/td'
p542
F5.265344566520995
sS'/html/body/div/div/div/div/div/p/sup/a'
p543
F8.965784284662087
sS'/html/body/div/div/div/div/div/div/table/tr/td/div/p/br'
p544
F4.795859283219775
sS'/html/body/div/div/div/div/div/table/tr/td/div/div/h3'
p545
F7.643856189774724
sS'/html/body/div/div/div/div/table/tr/td/div/div/div/div/p/a'
p546
F7.965784284662087
sS'/html/body/div/div/div/div/table/tr/td/div/div/div/div/ul/li/ol/li/a'
p547
F9.965784284662087
sS'/html/body/div/div/div/div/div/div/div/ul/li/div'
p548
F2.107803289534515
sS'/html/body/div/div/div/div/div/input'
p549
F9.965784284662087
sS'/html/body/div/div/div/div/div/div/table/tr/td/div/table/tbody/tr/td/div/span/i/code'
p550
F9.965784284662087
sS'/html/body/div/div/div/div/noscript/div/img'
p551
F6.965784284662088
sS'/html/body/div/div/div/div/div/div/table/tr/td/div/blockquote/p'
p552
F4.442222328605075
sS'/html/body/div/div/div/div/table/tr/td/div/div/div/ol/li/code/span'
p553
F9.965784284662087
sS'/html/body/div/div/div/div/table/tr/td/div/div/div/div/ul/li/ol/li/ul/span'
p554
F9.965784284662087
sS'/html/body/div/div/div/div/div/div/table/tr/td/div/ul/li/ul/li/p/a'
p555
F9.965784284662087
sS'/html/body/div/div/div/div/div/div/table/tbody/tr/td/div'
p556
F7.158429362604482
sS'/html/body/div/div/div/div/div/div/table/tr/td/div/ul/li/blockquote/p'
p557
F8.965784284662087
sS'/html/body/div/div/div/div/div/form/div/div/div/div/h3'
p558
F1.894321922105463
sS'/html/body/div/div/div/div/div/div/div/div/div/p/sup'
p559
F9.965784284662087
sS'/html/body/div/div/div/div/div/div/table/tr/td/div/ul/li/p/a/img'
p560
F8.965784284662087
sS'/html/body/div/div/div/div/div/div/div/h2/span'
p561
F1.8313579644411613
sS'/html/body/div/div/div/form/div/div/label'
p562
F5.442222328605075
sS'/html/body/div/div/div/div/div/div/table/tr/td/div/br'
p563
F8.965784284662087
sS'/html/body/div/div/div/div/div/table/tr/td/div/p/a'
p564
F5.058893689053569
sS'/html/body/div/div/div/div/table/tr/td/div/div/p/strong/em'
p565
F9.965784284662087
sS'/html/body/div/div/div/div/div/div/table/tr/td/div/p/a/img'
p566
F6.50635266602479
sS'/html/body/feed/entry/id'
p567
F5.965784284662088
sS'/html/body/div/div/div/div/div/table/tr/td/div/p/i'
p568
F9.965784284662087
sS'/html/body/div/div/div/div/div/div/table/tr/td/div/ol/li/p/a'
p569
F7.965784284662087
sS'/html/body/div/div/div/div/table/tr/td/div/div/div/div/h2/span'
p570
F9.965784284662087
sS'/html/body/div/div/div/div/div/table/tr/td/div/table/tr/td/div/div/a/br'
p571
F6.965784284662088
sS'/html/body/div/div/div/div/table/tr/td/div/div/div/p/a/img'
p572
F9.965784284662087
sS'/html/body/div/div/div/div/div/div/table/tr/td/div/ol/li/ul/li'
p573
F9.965784284662087
sS'/html/body/div/div/div/div/div/div/div/ul/li/a/span/span'
p574
F2.107803289534515
sS'/html/body/div/div/div/div/table/tr/td/div/div/div/p/code/span'
p575
F8.965784284662087
sS'/html/body/div/div/div/div/div/div/table/tr/td/div/ul/li/ul/li/ul/li/br'
p576
F9.965784284662087
sS'/html/body/div/div/div/div/div/div/table/tr/td/div/ol/li/ul/li/strong'
p577
F9.965784284662087
sS'/html/body/div/div/div/div/table/tr/td/div/div/div/h2'
p578
F8.965784284662087
sS'/html/body/div/div/div/div/div/table/tr/td/div/table/tbody/tr/td'
p579
F2.8783214434117474
sS'/html/body/div/div/div/div/div/div/table/tr/td/div/blockquote/p/strong'
p580
F7.158429362604482
sS'/html/body/div/div/div/div/div/div/div/div/b'
p581
F6.795859283219775
sS'/html/body/div/div/div/form/label'
p582
F9.965784284662087
sS'/html/body/div/div/div/div/div/div/div/div/a'
p583
F2.4819685073978306
sS'/html/body/div/div/div'
p584
F0.02914634565951651
sS'/html/body/div/div/div/div/div/div/table/tr/td/div/ul/li/ul/li/pre'
p585
F9.965784284662087
sS'/html/body/div/div/div/h1'
p586
F8.965784284662087
sS'/html/body/div/div/div/form/div/div/div/input'
p587
F7.158429362604482
sS'/html/body/div/div/div/div/div/table/tr/td/div/div/p/sup/strong'
p588
F9.965784284662087
sS'/html/body/feed/id'
p589
F5.965784284662088
sS'/html/body/div/div/div/div/table/tr/td/div/div/div/p/code'
p590
F8.380821783940931
sS'/html/body/div/div/div/div/div/div/table/thead/tr/th'
p591
F7.643856189774724
sS'/html/body/div/div/div/div/form/div/div/div/hr'
p592
F6.965784284662088
sS'/html/body/div/div/div/div/table/tr/td/p/b'
p593
F6.965784284662088
sS'/html/body/div/div/div/div/table/tr/td/div/table/tr/td/div/div/a'
p594
F8.965784284662087
sS'/html/body/noscript/div'
p595
F0.02914634565951651
sS'/html/body/div/div/div/div/div/div/table/tr/td/div/p/a/em'
p596
F8.965784284662087
sS'/html/body/div/div/div/div/div/script'
p597
F1.446148031818874
sS'/html/body/div/div/div/div/table/tr/td/div/div/div/div/ol/span'
p598
F8.380821783940931
sS'/html/body/div/div/div/div/div/table/tr/td/span/a'
p599
F6.643856189774725
sS'/html/body/div/div/div/div/div/div/table/tr/td/div/p/sub'
p600
F6.965784284662088
sS'/html/body/div/div/div/div/table/tr/td/div/div/div/div/ol/li/ul/li/a/span'
p601
F9.965784284662087
sS'/html/body/div/div/div/div/div/table/tr/td/div/table/tr/td/div/div/div/span/span'
p602
F1.539519529959989
sS'/html/body/div/div/div/div/div/div/table/tr/td/div/blockquote/ol/li/a'
p603
F8.965784284662087
sS'/html/body/div/div/div/div/div/div/table/tr/td/div/ul/li/sup'
p604
F8.380821783940931
sS'/html/body/div/div/div/div/div/div/table/tr/td/div/p/sup'
p605
F6.158429362604484
sS'/html/body/div/div/div/div/table/tr/td/div/div/div/div/ol/li/span'
p606
F7.965784284662087
sS'/html/body/div/div/div/div/table/tr/td/div/div/div/div/p/strong/span'
p607
F9.965784284662087
sS'/html/body/div/div/div/div/div/div/div/div/h3/a'
p608
F7.965784284662087
sS'/html/body/div/div/div/div/table/tr/td/div/div/div/div/p/img'
p609
F8.965784284662087
sS'/html/body/div/div/div/div/div/div/table/tr/td/table/tr/td/div/div'
p610
F3.197599959885161
sS'/html/body/div/div/div/div/div/div/div/div/div/p/a/img'
p611
F7.158429362604482
sS'/html/body/div/div/div/div/div/table/tr/td/div/div/ol/li/strong'
p612
F9.965784284662087
sS'/html/body/div'
p613
F0.02914634565951651
sS'/html/body/div/div/div/div/div/table/tr/td/div/div/pre/code'
p614
F5.717856771218502
sS'/html/body/div/div/div/div/div/table/tr/td/div/table/tr/td/div/span'
p615
F1.446148031818874
sS'/html/body/div/div/div/div/table/tr/td/div/div/div/div/ol/li/em'
p616
F9.965784284662087
sS'/html/body/div/div/div/div/table/tr/td/div/div/div/ul/li/ol/span'
p617
F9.965784284662087
sS'/html/body/div/div/div/div/div/div/div/div/div/ul/li/a'
p618
F7.643856189774724
sS'/html/body/div/div/div/table/tr/td/div/div/p/br'
p619
F9.965784284662087
sS'/html/body/div/div/div/div/table/tr/td/div/div/div/ul/li/a'
p620
F9.965784284662087
sS'/html/body/div/div/div/div/div/div/div/div/div/div/ul/li/a'
p621
F3.7958592832197753
sS'/html/body/div/div/div/div/div/div/table/tr/td/div/ul/li/p/strong/a'
p622
F9.965784284662087
sS'/html/body/div/div/div/div/div/table/tr/td'
p623
F1.4422223286050742
sS'/html/body/div/div/div/div/div/div/table/tr/td/div/ul/li/p/a'
p624
F6.643856189774725
sS'/html/body/div/div/div/div/table/tr/td/div/div/div/ul/li/p'
p625
F9.965784284662087
sS'/html/body/div/div/div/div/div/div/table/tr/td/table/tr/td/div/div/div/span'
p626
F1.8836352433082157
sS'/html/body/div/div/div/div/div/table/tr/td/div/table/tbody/tr/td/div/span'
p627
F2.3364276645824775
sS'/html/body/div/div/div/div/div/div/div/div/div/div'
p628
F2.0709665213541437
sS'/html/body/div/div/div/div/div/form/div/div/div/div/div/p/span'
p629
F1.894321922105463
sS'/html/body/div/div/div/div/br'
p630
F5.107803289534515
sS'/html/body/div/div/div/div/div/div/table/tr/td/div/p/em/strong'
p631
F9.965784284662087
sS'/html/body/div/div/div/div/div/div/table/tr/td/div/ol/li/ul/li/ul/li/code'
p632
F9.965784284662087
sS'/html/body/div/div/div/div/table/tr/td/div/div/div/div/ul/li/p/em/span'
p633
F9.965784284662087
sS'/html/body/div/div/div/div/div/blockquote/p'
p634
F8.965784284662087
sS'/html/body/div/div/div/div/div/table/tr/td/div/div/span'
p635
F6.795859283219775
sS'/html/body/div/div/div/div/div/div/table/tr/td/div/ul/li/p/em'
p636
F7.965784284662087
sS'/html/body/div/div/div/div/table/tr/td/div/div/br'
p637
F6.50635266602479
sS'/html/body/div/div/div/div/div/div/table/tr/td/div/em'
p638
F8.965784284662087
sS'/html/body/div/div/div/div/div/ul/li/ul/li/strong'
p639
F9.965784284662087
sS'/html/body/div/div/div/div/div/div/table/tr/td/div/p/sup/sup'
p640
F8.965784284662087
sS'/html/body/div/div/div/div/div/div/table/tr/td/div/ul/li/ol/li/a'
p641
F9.965784284662087
sS'/html/body/div/div/div/div/div/form/div/p/a'
p642
F1.894321922105463
sS'/html/body/div/div/div/div/table/tr/td/div/div/div/p/a/span'
p643
F8.965784284662087
sS'/html/body/div/div/div/form/div/div/div/hr'
p644
F9.965784284662087
sS'/html/body/div/div/div/div/h2'
p645
F7.643856189774724
sS'/html/body/div/div/div/div/div/div/div/ul/li/a/span/span/span'
p646
F2.2108967824986188
sS'/html/body/div/div/div/div/div/div/table/tr/td/div/ul/li/ol/li/p'
p647
F9.965784284662087
sS'/html/body/div/div/div/div/table/tr/td/div/div/div/div/ol/li/p/a/span'
p648
F9.965784284662087
sS'/html/body/div/div/div/div/div/div/table/tr/td/div/p/strong'
p649
F3.6989977439671855
sS'/html/body/div/div/div/div/a/span'
p650
F2.380821783940931
sS'/html/body/div/div/div/div/div/form/div/div/div/div/h3/a'
p651
F1.894321922105463
sS'/html/body/div/div/div/div/table/tr/td/div/div/div/div/ul/li'
p652
F9.965784284662087
sS'/html/body/feed/link'
p653
F5.965784284662088
sS'/html/body/div/div/div/div/div/table/tr/td/div/div/div/ul/li/a'
p654
F5.643856189774724
sS'/html/body/div/div/div/div/div/div/div/h3/span'
p655
F2.107803289534515
sS'/html/head/title'
p656
F0.0232697793228473
sS'/html/body/div/div/div/div/div/div/table/tr/td/div/ul/li/em'
p657
F6.265344566520995
sS'/html/body/div/div/div/div/div/div/table/tr/td/div/a/b'
p658
F4.293358942690592
sS'/html/body/div/div/div/table/tr/td/div/div/p/em'
p659
F9.965784284662087
sS'/html/body/div/div/div/div/form/div/input'
p660
F6.965784284662088
sS'/html/body/div/div/div/div/div/div/table/tr/td/div/ul/li/s/a'
p661
F9.965784284662087
sS'/html/body/div/div/div/div/ul/li/a'
p662
F0.02914634565951651
sS'/html/body/div/div/div/div/ul/li'
p663
F9.965784284662087
sS'/html/body/div/div/div/div/div/div/div/h3/span/span/i'
p664
F6.643856189774725
sS'/html/body/div/div/div/div/div/div/div/span/a'
p665
F4.965784284662088
sS'/html/body/div/div/div/div/div/div/div/h3/span/span/a'
p666
F2.244685095954902
sS'/html/body/div/div/div/div/table/tr/td/div/div/div/ul/li/ol/li/ul/span'
p667
F9.965784284662087
sS'/html/body/div/div/div/div/div/div/table/tr/td/div/table/tbody/tr/td/div/span/b/i'
p668
F9.965784284662087
sS'/html/body/div/div/div/div/div/table/tr/td/div/div/p/strong/kbd'
p669
F9.965784284662087
sS'/html/body/div/div/div/div/table/tr/td/div/div/div/div/ul/li/span'
p670
F8.965784284662087
sS'/html/body/div/div/div/div/span/a/span'
p671
F0.02914634565951651
sS'/html/body/div/div/div/div/div/div/table/tr/td/div/p/strong/a'
p672
F7.380821783940932
sS'/html/body/div/div/div/div/div/div/div/ul/li/a'
p673
F2.8365012677171206
sS'/html/body/div/div/div/div/table/tr/td/div/div/div/p/sup/a'
p674
F9.965784284662087
sS'/html/body/div/div/div/div/table/tr/td/div/div/div/div/h2'
p675
F8.965784284662087
sS'/html/body/div/div/div/div/div/p/kbd'
p676
F9.965784284662087
sS'/html/body/div/div/div/div/form/div/label'
p677
F7.643856189774724
sS'/html/body/div/div/div/div/div/div/table/tr/td/div/blockquote/ul/li/strong'
p678
F9.965784284662087
sS'/html/body/div/div/div/div/table/tr/td/div/div/p'
p679
F9.965784284662087
sS'/html/body/div/div/div/div/div/div/table/tr/td/div/ol/li/kbd'
p680
F9.965784284662087
sS'/html/body/div/div/div/div/div/div/div/span/span/a/span'
p681
F6.265344566520995
sS'/html/body/div/div/div/div/table/tr/td/div/table/tr/td'
p682
F8.965784284662087
sS'/html/body/div/div/div/div/div/table/tr/td/div/table/tbody/tr/td/div/a'
p683
F2.145605322246899
sS'/html/body/div/div/div/div/table/tr/td/div/div/div/div/p/strong'
p684
F8.965784284662087
sS'/html/body/div/div/div/div/table/tr/td/div/div/div/a'
p685
F8.380821783940931
sS'/html/body/div/div/div/div/table/tr/td/div/div/div/div/ul/span'
p686
F9.965784284662087
sS'/html/body/div/div/div/div/script'
p687
F0.7908586021614084
sS'/html/body/div/div/div/div/div/div/table/tr/td/div/ul/li/sup/code'
p688
F9.965784284662087
sS'/html/body/div/div/div/div/div/h2/a'
p689
F1.4819685073978306
sS'/html/body/div/div/div/div/table/tr/td/div/div/div/ol/li/ul/span'
p690
F9.965784284662087
sS'/html/body/div/div/div/div/div/div/div/div/div/a/div/img'
p691
F1.2009126939259964
sS'/html/body/div/div/div/div/table/tr/td/div/div/div/p'
p692
F6.643856189774725
sS'/html/body/div/div/div/div/div/div/table/tr/td/table/tr/td/div/div/a'
p693
F1.8365012677171209
sS'/html/body/div/div/div/div/p/br'
p694
F7.158429362604482
sS'/html/body/div/div/div/div/div/form/div/div/div/div'
p695
F1.894321922105463
sS'/html/body/div/div/div/div/table/tr/td/div/div/div/div/h1/span/span'
p696
F8.965784284662087
sS'/html/body/div/div/div/div/div/div/table/tr/td/div/p/code'
p697
F3.7178567712185013
sS'/html/body/div/div/div/div/div/div/div/h3'
p698
F2.107803289534515
sS'/html/body/div/div/div/div/div/div/div/h2'
p699
F3.4422223286050744
sS'/html/body/div/div/div/div/div/table/tr/td/div/table/tbody/tr/td/div/span/a'
p700
F3.1713684183119812
sS'/html/body/div/div/div/div/div/div/table/tr/td/div/blockquote/ul/li/em'
p701
F9.965784284662087
sS'/html/body/div/div/div/div/div/ul/li/div/span'
p702
F0.02914634565951651
sS'/html/body/div/div/div/div/table/tr/td/div/div/div/div/ol/li/ul/li'
p703
F9.965784284662087
sS'/html/body/div/div/div/div/div/div/table/tr/td/div/p/img'
p704
F5.321928094887363
sS'/html/body/div/div/div/div/div/h4/a'
p705
F1.4422223286050742
sS'/html/body/div/div/div/div/table/tr/td/div/div/div/div/span'
p706
F7.380821783940932
sS'/html/body/div/div/div/table/tr/td/div/table/tr/td/div/div/br'
p707
F9.965784284662087
sS'/html/body/div/div/div/div/div/div/table/tr/td/div/ul/li/strong/a'
p708
F8.965784284662087
sS'/html/body/div/div/div/div/div/div/table/tr/td/div/table/tbody/tr/td/div/span/i/a'
p709
F9.965784284662087
sS'/html/body/div/div/div/div/div/div/table/tr/td/div/table/tbody/tr/td/div/span/i/b'
p710
F9.965784284662087
sS'/html/body/div/div/div/div/form/div/div/div/div/div/noscript/p'
p711
F7.643856189774724
sS'/html/body/div/div/div/div/div/div/table/tr/td/div/table/tbody/tr/td'
p712
F2.4900508536956893
sS'/html/body/div/div/div/div/div/div/table/tr/td/div/ul/li/ul/li/br'
p713
F8.965784284662087
sS'/html/body/div/div/div/div/table/tr/td/div/div/div/div/ol/li/em/span'
p714
F9.965784284662087
sS'/html/body/div/div/div/div/table/tr/td/input'
p715
F7.643856189774724
sS'/html/body/div/div/div/div/table/tr/td/div/div/div/ol/li/span'
p716
F7.965784284662087
sS'/html/body/div/div/div/div/div/table/tr/td/div/table/tbody/tr/td/div/span/b/i/a'
p717
F8.965784284662087
sS'/html/body/div/div/div/div/table/tr/td/div/div/a'
p718
F5.717856771218502
sS'/html/body/div/div/div/div/div/div/table/tr/td/div/ul/li/ol/li/ul/li/code'
p719
F9.965784284662087
sS'/html/body/div/div/div/div/div/div/table/tr/td/div/blockquote/p/a'
p720
F6.965784284662088
sS'/html/body/div/div/div/div/div/div/hr'
p721
F3.5228407888133586
sS'/html/body/div/div/div/div/table/tr/td/div/div/div/ul/li'
p722
F9.965784284662087
sS'/html/body/div/div/div/div/div/div/h3/a/span'
p723
F7.158429362604482
sS'/html/body/div/div/div/div/div/div/div/div/div/ul/li'
p724
F8.965784284662087
sS'/html/body/div/div/div/div/div/table/tr/td/div/h2/span'
p725
F5.107803289534515
sS'/html/body/div/div/div/div/div/div/table/tr/td/div/ul/li/ul/li/strong'
p726
F9.965784284662087
sS'/html/body/div/div/div/div/div/div/a/div'
p727
F7.643856189774724
sS'/html/body/div/div/div/div/div/div/p/span'
p728
F2.1975999598851605
sS'/html/body/div/div/div/div/div/table/tr/td/div/div/ol/li/p'
p729
F8.380821783940931
sS'/html/body/div/div/div/form/div/div/div/div'
p730
F5.442222328605075
sS'/html/body/div/div/div/div/table/tr/td/div/div/div/div/ul/li/a'
p731
F9.965784284662087
sS'/html/body/div/div/div/div/div/table/tr/td/div/div/p/a/code'
p732
F9.965784284662087
sS'/html/body/div/div/div/div/div/div/div/div/div/div/a'
p733
F2.244685095954902
sS'/html/body/div/div/div/div/div/div/div/div/div/div/div'
p734
F9.965784284662087
sS'/html/body/div/div/div/div/div/div/table/tr/td/div/blockquote/ol/li/p'
p735
F9.965784284662087
sS'/html/body/div/div/div/div/div/ul/li/a/div'
p736
F0.02914634565951651
sS'/html/body/script'
p737
F0.02914634565951651
sS'/html/body/div/div/div/div/div/div/table/tr/td/span'
p738
F4.965784284662088
sS'/html/body/div/div/div/div/div/div/table/tr/td/div/ol/li/br'
p739
F8.965784284662087
sS'/html/body/div/div/div/div/table/tr/td/div/div/div/div/ul/li/p'
p740
F9.965784284662087
sS'/html/body/div/div/div/div/div/ul/li/em'
p741
F9.965784284662087
sS'/html/body/div/div/div/div/div/p'
p742
F4.680382065799838
sS'/html/body/div/div/div/div/div/div/div/div/div/p/strong'
p743
F6.965784284662088
sS'/html/body/div/div/div/div/div/table/tr/td/p/b'
p744
F1.4422223286050742
sS'/html/body/div/div/div/div/span/span'
p745
F5.717856771218502
sS'/html/body/div/div/div/div/div/p/a/span'
p746
F9.965784284662087
sS'/html/body/div/div/div/form/div/div/div/textarea'
p747
F5.442222328605075
sS'/html/body/div/div/div/div/div/div/div/div/div'
p748
F4.293358942690592
sS'/html/body/div/div/div/div/table/tr/td/div/div/div/div/p/code/span'
p749
F8.965784284662087
sS'/html/body/div/div/div/div/div/b'
p750
F9.965784284662087
sS'/html/body/div/div/div/div/div/a'
p751
F0.02914634565951651
sS'/html/body/div/div/div/div/table/tr/td/div/h1/a'
p752
F8.965784284662087
sS'/html/body/div/div/div/div/div/ul/li/ul/li/a/strong'
p753
F9.965784284662087
sS'/html/body/div/div/div/div/div/div/table/tr/td/div/blockquote/ol/li'
p754
F8.965784284662087
sS'/html/body/div/div/div/div/div/div/div/div/strong'
p755
F2.2378638300988882
sS'/html/body/div/div/div/div/div/div/table/tr/td/div/ul/li/ol/li'
p756
F9.965784284662087
sS'/html/body/div/div/div/div/div/div/div/div/div/p/code'
p757
F9.965784284662087
sS'/html/body/div/div/div/div/div/div/table/tr/td/div/ul/li'
p758
F4.836501267717121
sS'/html/body/div/div/div/div/div/div/div/div/div/div/div/div/div/span'
p759
F2.244685095954902
sS'/html/body/div/div/div/div/table/tr/td/div/div/h1'
p760
F6.965784284662088
sS'/html/body/feed/entry/author/uri'
p761
F5.965784284662088
sS'/html/body/div/div/div/script'
p762
F0.6896598793878495
sS'/html/body/div/div/div/div/div/div/table/tr/td/div/ol/li/ul/li/ul/li/strong'
p763
F9.965784284662087
sS'/html/body/div/div/div/div/div/div/div/p/a'
p764
F7.643856189774724
sS'/html/body/div/div/div/div/table/tr/td/div/div/div/ul/li/ol/li/ul/li/a/span'
p765
F9.965784284662087
sS'/html/body/feed/entry/title'
p766
F5.965784284662088
sS'/html/body/div/div/div/div/form/a'
p767
F8.380821783940931
sS'/html/body/div/div/div/div/div/form/div/div/div/div/div/table/tr/td/div/label'
p768
F1.894321922105463
sS'/html/body/div/div/div/div/div/h1/span'
p769
F7.158429362604482
s.