(dp0
S'/html/body/div/div/div/div/div/div/div/div/div/a'
p1
F4.643856189774724
sS'/html/body/div/div/div/div/div/form/ol/li/div/div/div/div/div/fieldset/legend/img'
p2
F9.965784284662087
sS'/html/body/div/div/div/div/ul/li/div/div/h4/a/img'
p3
F3.2243172982609405
sS'/html/body/div/div/div/div/ul/li/ul/li/a'
p4
F0.13289427049734548
sS'/html/body/div/div/ol/li/div/div/div/div/div/a'
p5
F5.210896782498619
sS'/html/body/div/div/div/div/div/form/ol/li/div/div/blockquote/br'
p6
F6.965784284662088
sS'/html/body/div/div/form/div/div/ol/li/div/div/div/div/div/ul/li/form/ul/li/input'
p7
F9.965784284662087
sS'/html/body/div/div/ol/li/div/div/div/blockquote/div/u/font/a'
p8
F7.643856189774724
sS'/html/body/div/div/ol/li/div/div/div/div/div/blockquote/b/u'
p9
F9.965784284662087
sS'/html/body/div/div/div/div/div/div/div/h3/img'
p10
F5.50635266602479
sS'/html/body/div/div/div/div/div/div/ul/li/div/hr'
p11
F8.380821783940931
sS'/html/body/div/div/div/div/div/ol/li/div/div'
p12
F7.965784284662087
sS'/html/body/div/div/div/div/div/form/ol/li/div/div'
p13
F6.158429362604484
sS'/html/body/div/div/div/div/strong'
p14
F3.5063526660247897
sS'/html/body/div/table/tr/td/div/div/table/tr/td/div/a'
p15
F8.380821783940931
sS'/html/body/div/div/div/div/div/div/table/tr/td/b'
p16
F2.373327247394007
sS'/html/body/div/form/div/div/div/label'
p17
F6.380821783940931
sS'/html/body/div/div/form/div/div/div/div/span/span/a'
p18
F2.954557029238833
sS'/html/body/div/ol/li/ol/li/a/img'
p19
F9.965784284662087
sS'/html/body/div/div/div/div/div/form/input'
p20
F3.3075728019102923
sS'/html/body/p/script'
p21
F5.50635266602479
sS'/html/body/rss/channel/item/link'
p22
F6.795859283219775
sS'/html/body/div/div/div/ol/li/div/h2/span/a'
p23
F5.50635266602479
sS'/html/body/div/div/div/div/ul/li/ul/li/ul/li/a'
p24
F0.13289427049734548
sS'/html/body/div/div/ol/li/div/div/div/blockquote/div/br'
p25
F3.7369655941662066
sS'/html/body/div/div/form/div/div/ol/li/div/div/div/div/form/div/div/ol/li/div/div/div/div/div/dl/dt/span'
p26
F9.965784284662087
sS'/html/body/div/div/div/a'
p27
F0.12973392960401722
sS'/html/body/div/div/div/div/div/ol/li/div/div/div/span'
p28
F9.965784284662087
sS'/html/body/div/div/div/div/div/form/div/div/dl/dd/div/h3/span/a'
p29
F7.965784284662087
sS'/html/body/div/form/div/div/div/script'
p30
F9.965784284662087
sS'/html/body/div/div/form/div/div/label/input'
p31
F3.4900508536956893
sS'/html/body/div/div/div/div/ul/li/script'
p32
F3.2243172982609405
sS'/html/body/div/div/div/ul/li/div/ul/li/div/div/div/div/img'
p33
F8.380821783940931
sS'/html/body/div/table/tr/td/div/div/table/tbody/tr/td/img'
p34
F8.380821783940931
sS'/html/body/div/div/div/div/div/div/div/table/tr/td/a/strong'
p35
F5.158429362604483
sS'/html/body/div/div/div/div/div/form/ol/li/div/div/div/div/div/p/a'
p36
F6.965784284662088
sS'/html/body/div/div/div/div/fieldset/ul/li/form/input'
p37
F0.12815635149068239
sS'/html/body/div/div/div/div/div/ol/li/div/div/div/div/span/a'
p38
F9.965784284662087
sS'/html/body/div/div/div/ul/li/form/input'
p39
F2.954557029238833
sS'/html/body/div/div/div/ul/li/div/ul/li/img'
p40
F8.380821783940931
sS'/html/body/div/div/ol/li/div/div/div/div/div/blockquote/b/span/font'
p41
F9.965784284662087
sS'/html/body/div/div/table/tr/th'
p42
F6.965784284662088
sS'/html/body/div/div/div/div/form/ol/li/div/div/div/div/blockquote/img'
p43
F8.965784284662087
sS'/html/body/div/div/div/div/div/form/div/ol/li/div/div/label/span/span'
p44
F8.965784284662087
sS'/html/body/div/div/div/div/div/form/ol/li/div/div/div/div/div/div/span/a'
p45
F6.643856189774725
sS'/html/body/div/div/div/ol/li/div/a'
p46
F8.380821783940931
sS'/html/body/div/div/form/div/div/ol/li/div/div/div/div/div/div/fieldset/ul/li/form/input'
p47
F9.965784284662087
sS'/html/body/div/div/div/div/div/div/table/tr/td/div/fieldset/table/tr/td/br'
p48
F2.373327247394007
sS'/html/body/div/form/div/div/div/ul/li/select/option'
p49
F9.965784284662087
sS'/html/body/div/div/div/ul/li/div/ul/li'
p50
F8.380821783940931
sS'/html/body/div/div/div/div/div/dl/dd'
p51
F2.965784284662087
sS'/html/body/rss/channel/item/encoded/b'
p52
F9.965784284662087
sS'/html/body/div/div/div/div/div/form/ol/li/div/div/div/div/blockquote/a'
p53
F8.965784284662087
sS'/html/body/div/div/div/div/div/ol/li/div/div/div/div/span/span'
p54
F9.965784284662087
sS'/html/body/div/div/div/div/div/div/div/form/input'
p55
F2.77595972578207
sS'/html/body/div/div/form/div/div/ol/li/div/dl/dd/a/img'
p56
F2.954557029238833
sS'/html/body/rss/channel/generator'
p57
F5.442222328605075
sS'/html/body/div/div/div/div/div/dl/dt'
p58
F1.8313579644411613
sS'/html/body/div/div/form/div'
p59
F2.965784284662087
sS'/html/body/div/div/div/div/div/div/div/ul/li/div/div'
p60
F2.6711635357704604
sS'/html/body/div/div/div/div/div/div/table/tr/td/div/fieldset/table/tr/td/i'
p61
F2.373327247394007
sS'/html/body/div/div/div/div/ul/p'
p62
F0.12973392960401722
sS'/html/body/div/div/form/div/div/ol/li/div/div/div/div/form/div/div/ol/li/div/div/div/div/div/span/a'
p63
F9.965784284662087
sS'/html/body/div/form/div/div/div/textarea'
p64
F6.643856189774725
sS'/html/body/rss/channel/image/url'
p65
F5.442222328605075
sS'/html/head/script'
p66
F0.03504694709920065
sS'/html/body/div/div/ol/li/div/div/div/div/div/blockquote/a/br'
p67
F9.965784284662087
sS'/html/body/div/div/div/div/div/form/ol/li/div/div/blockquote/div/div/div/div/strong'
p68
F7.643856189774724
sS'/html/body/div/div/div/ul/li/form/ul/li/div/label/input'
p69
F2.954557029238833
sS'/html/body/div/div/div/div/div/a/span'
p70
F0.12815635149068239
sS'/html/body/div/div/form/div/div/ol/li/div/div/div/div/div/div/div'
p71
F2.954557029238833
sS'/html/body/div/div/ol/li/div/div/div/div/span/img'
p72
F2.7083964419694353
sS'/html/body/div/div/div/ul/li'
p73
F0.12815635149068239
sS'/html/body/div/div/div/div/form/ol/li/div/div/div/div/div/p/span'
p74
F9.965784284662087
sS'/html/body/div/div/ol/li/div/div/div/div/div/a/img'
p75
F3.7369655941662066
sS'/html/body/div/div/div/span/em'
p76
F5.210896782498619
sS'/html/body/div/div/div/div/fieldset/ul/li/form/fieldset/div/div/div/label/input'
p77
F0.12815635149068239
sS'/html/body/div/div/div/ul/li/div/blockquote/div'
p78
F8.380821783940931
sS'/html/body/div/div/div/div/div/div/div/div/span'
p79
F1.8365012677171209
sS'/html/body/div/div/div/table/tr/td/a'
p80
F4.965784284662088
sS'/html/body/div/div/form/div/div/ol/li/div/div/div/h3/a'
p81
F2.954557029238833
sS'/html/body/div/div/div/div/div/div/div/form/ul/li/input'
p82
F2.77595972578207
sS'/html/body/div/div/ol/li/div/div/div/dl/dd/a'
p83
F5.795859283219775
sS'/html/body/div/div/div/div/ul/li/ul/li/a/img'
p84
F2.7083964419694353
sS'/html/body/div/div/div/div/div/h5/img'
p85
F5.50635266602479
sS'/html/body/div/div/ol/li/div/div/div/div/img'
p86
F2.7083964419694353
sS'/html/body/div/div/form/div/div/div/div/span/a/img'
p87
F3.4111954329844494
sS'/html/body/div/div/form/div/div/ol/li/div/div/div/h3/span'
p88
F4.608232280044003
sS'/html/body/div/div/div/div/div/div/div/br'
p89
F1.8365012677171209
sS'/html/body/div/div/div/ol/li/ol/li/div/div/div/p/span'
p90
F5.50635266602479
sS'/html/body/div/div/div/ul/li/ol/li/a'
p91
F2.932361283124637
sS'/html/body/div/div/div/div/div/div/h3/span'
p92
F4.50635266602479
sS'/html/body/div/div/div/h6/a/span'
p93
F2.954557029238833
sS'/html/body/div/div/div/div/div/form/div/ol/li/div/div/blockquote'
p94
F8.965784284662087
sS'/html/body/div/div/div/div/div/div/div/div/div/form/span/a/img'
p95
F5.321928094887363
sS'/html/body/div/div/table/tr/td/div'
p96
F6.965784284662088
sS'/html/body/div/div/div/div/div/div/div/div/div/div/span/a/img'
p97
F4.643856189774724
sS'/html/body/div/div/div/div/div/div/table/tr/td/div/fieldset/table/tr/td/i/img'
p98
F7.158429362604482
sS'/html/body/rss/channel/item/encoded/img'
p99
F8.965784284662087
sS'/html/body/div/div/div/div/div/div/div/div/div/ul/li/ul/li/img'
p100
F4.643856189774724
sS'/html/body/div/form/div/div/fieldset/legend'
p101
F9.965784284662087
sS'/html/body/div/div/div/div/div/form/div/ol/li/script'
p102
F8.965784284662087
sS'/html/body/div/div/div/div/div/div/table/tr/td/a'
p103
F2.373327247394007
sS'/html/body/div/div/div/div/div/form/div/ol/li/div/div/blockquote/div/div/div/div/br'
p104
F9.965784284662087
sS'/html/body/div/div/div/div/br'
p105
F1.1297339296040172
sS'/html/body/div/div/div/div/div/div/div/div/div/div/form/ul/li/label/input'
p106
F5.321928094887363
sS'/html/body/div/div/form/div/div/ol/li/div/div/div/div/ul/li/a'
p107
F9.965784284662087
sS'/html/body/div/div/div/div/div/div/div/div/div/div/form/span'
p108
F6.50635266602479
sS'/html/body/div/div/div/div/div/form/div/div/p/a'
p109
F7.158429362604482
sS'/html/body/div/div/div/div/div/div/div/div/div/form/span'
p110
F6.50635266602479
sS'/html/body/div/div/div/ul/li/h6/a'
p111
F2.954557029238833
sS'/html/body/div/div/div/div/div/form/div/div/dl/dd/a'
p112
F7.965784284662087
sS'/html/body/div/div/div/div/div/div/form/ol/li/div/div/blockquote/br'
p113
F7.158429362604482
sS'/html/body/div/div/div/div/div/div/form/ol/li/div/div/label/span/span'
p114
F4.50635266602479
sS'/html/body/div/div/ol/li/div/div/div/dl/dd'
p115
F2.7083964419694353
sS'/html/body/div/form/div/div/fieldset/ul/li/label'
p116
F9.965784284662087
sS'/html/body/div/div/div/div/div/div/table/tr/td/div/fieldset/table/tr/td/i/br'
p117
F2.7466157641999254
sS'/html/body/rss/channel/item/description'
p118
F6.795859283219775
sS'/html/body/div/div/div/div/div/div/div/div/dl/dd'
p119
F2.954557029238833
sS'/html/body/br'
p120
F0.12973392960401722
sS'/html/body/div/div/ol/li/div/div/div/div/div/blockquote/div/div/div/div/br'
p121
F6.158429362604484
sS'/html/body/div/div/ul/li/div/ul/li/div/p'
p122
F8.380821783940931
sS'/html/body/div/div/form/div/div/ol/li/div/div/div/div/ul/li/a/img'
p123
F9.965784284662087
sS'/html/body/div/div/div/div/div/div/div/div/dl/dt'
p124
F2.954557029238833
sS'/html/body/div/div/div/ul/li/div/ul/li/div/div/div/div/strong'
p125
F8.380821783940931
sS'/html/body/div/h2'
p126
F4.083141235300245
sS'/html/body/div/div/div/div/ul/li/div/div/ul/li/div/br'
p127
F3.3959286763311396
sS'/html/body/div/div/div/div/div/form/div/ol/li/div/div/blockquote/a/font/b'
p128
F9.965784284662087
sS'/html/body/div/div/div/div/div/div/span'
p129
F2.321928094887362
sS'/html/body/div/p/a'
p130
F9.965784284662087
sS'/html/body/div/div/div/div/div/form/div/ol/li/div/div/a'
p131
F9.965784284662087
sS'/html/body/div/div/div/div/span'
p132
F9.965784284662087
sS'/html/body/div/div/br'
p133
F0.12658049656514322
sS'/html/body/div/form/div/div/div/ul/li/label/input'
p134
F9.965784284662087
sS'/html/body/div/div/div/div/div/div/div/ul/li/a'
p135
F2.321928094887362
sS'/html/body/div/div/div/div/div/div/div/ol/li/a/img'
p136
F4.965784284662088
sS'/html/body/div/div/div/div/div/div/div/div/ul/li/strong'
p137
F2.7083964419694353
sS'/html/body/div/div/span'
p138
F8.380821783940931
sS'/html/body/div/div/form/div/div/ol/li/div/div/div/div/form/div/div/div/div/span/a/img'
p139
F9.965784284662087
sS'/html/body/div/div/div/div/div/form/div/ol/li/div/div/blockquote/div/div/div/div'
p140
F9.965784284662087
sS'/html/body/div/div/div/div/div/div/div/a'
p141
F5.50635266602479
sS'/html/body/div/div/ol/li/div/div/div/div/div/blockquote/font'
p142
F8.380821783940931
sS'/html/body/div/div/div/div/div/ul/li/a/img'
p143
F1.8365012677171209
sS'/html/body/div/div/form/div/div/ol/li/div/ul/li/a'
p144
F2.954557029238833
sS'/html/body/div/div/div/div/form/ol/li/div/div/div/div/div/div/span/a/img'
p145
F8.380821783940931
sS'/html/body/div/div/div/div/table/tr/td/ol/li/a'
p146
F9.965784284662087
sS'/html/body/div/div/form/div/div/ol/li/div/div/div/div/hr'
p147
F9.965784284662087
sS'/html/body/div/div/div/div/div/form/div/ol/li/div/div/label/a'
p148
F8.965784284662087
sS'/html/body/div/div/ol/li/div/div/div/div/div/blockquote/acronym'
p149
F9.965784284662087
sS'/html/body/div/div/div/div/div/div/div/div/div/dl/dd/div/a'
p150
F1.8365012677171209
sS'/html/body/rss/channel/item/encoded/font/b'
p151
F9.965784284662087
sS'/html/body/div/div/div/div/div/div/div/div/div/blockquote/font/br'
p152
F7.643856189774724
sS'/html/body/div/div/table/tr/td/div/a'
p153
F6.965784284662088
sS'/html/body/rss/channel/item/creator'
p154
F6.795859283219775
sS'/html/body/div/div/div/div/div/div/div/div/form/div/input'
p155
F4.643856189774724
sS'/html/body/div/div/div/div/div/ol/li/div/div/div/a/img'
p156
F9.965784284662087
sS'/html/body/div/div/form/div/div/ol/li/div/div/div/div/div/div/form/span'
p157
F9.965784284662087
sS'/html/body/div/table/tr/td/div/div/table/tbody/tr/td/div/a/img'
p158
F8.380821783940931
sS'/html/body/div/div/form/div/div/ol/li/div/div/div/div/ul/li/span'
p159
F9.965784284662087
sS'/html/body/div/div/ol/li/div/div/div/div'
p160
F3.5395195299599895
sS'/html/body/div/div/ol/li/div/div/div/blockquote/div/i/font/font'
p161
F9.965784284662087
sS'/html/body/div/div/ul/li/div/div/ul/li/div/div/a'
p162
F5.50635266602479
sS'/html/body/div/div/div/div/div/form/div/div/dl/dd/a/img'
p163
F7.965784284662087
sS'/html/body/div/div/div/img'
p164
F7.965784284662087
sS'/html/body/div/div/ol/li/div/div/div/a/img'
p165
F2.8572598278839183
sS'/html/body/div/div/ol/li/hr'
p166
F2.7083964419694353
sS'/html/body/div/div/div/div/div/form/ol/li/div/div/blockquote/img'
p167
F7.158429362604482
sS'/html/body/div/div/ol/li/div/div/span/span/span'
p168
F2.7083964419694353
sS'/html/body/div/div/ul/li/div/div/ul/li/div/h5/a'
p169
F5.50635266602479
sS'/html/body/rss/channel/item/encoded/font/font'
p170
F9.965784284662087
sS'/html/body/div/div/form/div/div/ol/li/div/div/div/div/form/div/div/ol/li/div/div/a'
p171
F9.965784284662087
sS'/html/body/div/div/div/div/div/div/ul/li/div/div/span'
p172
F8.380821783940931
sS'/html/body/div/div/div/div/ol/li'
p173
F7.965784284662087
sS'/html/body/div/div/div/div/form/ol/li/div/div/div/div/blockquote/a/img'
p174
F9.965784284662087
sS'/html/body/div/div/div/div/div/form/div/div/label'
p175
F7.158429362604482
sS'/html/body/div/div/div/div/div/div/table/tr/td/br'
p176
F2.373327247394007
sS'/html/body/div/form/div/div/fieldset/p'
p177
F9.965784284662087
sS'/html/body/div/div/ol/li/div/div/div/blockquote/div/span/br'
p178
F7.965784284662087
sS'/html/body/div/div/div/div/div/div/form/ol/li/div/a'
p179
F4.50635266602479
sS'/html/body/div/div/div/div/div/div/ul/li'
p180
F2.736965594166206
sS'/html/body/div/div/div/div/div/div/div/div/p/a'
p181
F3.265344566520995
sS'/html/body/div/div/div/div/div/div/div'
p182
F2.7178567712185013
sS'/html/body/rss/channel/title'
p183
F5.442222328605075
sS'/html/body/div/div/div/div/div/a/img'
p184
F0.12973392960401722
sS'/html/body/div/div/div/div'
p185
F0.12658049656514322
sS'/html/body/div/div/ol/li/div/div/div/h2/img'
p186
F2.7083964419694353
sS'/html/body/div/div/div/div/div/form/ol/li/div/div/div/div/div/div/span/a/img'
p187
F6.643856189774725
sS'/html/body/div/div/ol/li/div/div/div/div/span'
p188
F2.7083964419694353
sS'/html/body/div/div/div/div/div/div/form/ol/li/div/div/blockquote/img'
p189
F4.756330919033137
sS'/html/body/div/div/div/ul/li/div/ul/li/a/img'
p190
F8.380821783940931
sS'/html/body/div/div/div/div/div/div/div/span/input'
p191
F5.50635266602479
sS'/html/body/div/div/div/div/div/div/script'
p192
F1.8365012677171209
sS'/html/body/div/div/div/div/div/form/ol/li/div/div/div/div/div/a/strong'
p193
F4.539519529959989
sS'/html/body/div/div/ul/li/div/div/a/img'
p194
F5.321928094887363
sS'/html/body/div/div/div/div/form/ol/li/div/div/div/div/div/p/a'
p195
F9.965784284662087
sS'/html/body/div/div/div/div/div/div/ul/li/img'
p196
F5.50635266602479
sS'/html/body/div/div/div/div/div/form/ol/li/div/div/div/div/div/dl/dd/a'
p197
F4.539519529959989
sS'/html/body/div/div/div/div/form/ol/li/div/div/div/div/blockquote/a/font/b'
p198
F6.265344566520995
sS'/html/body/div/div/form/div/div/ol/li/div/div/div/div/div/div/form/ul/li/label/input'
p199
F9.965784284662087
sS'/html/body/div/div/div/div/div/form/div/ol/li/div/div/blockquote/div/div/div/div/strong'
p200
F9.965784284662087
sS'/html/body/div/div/form/div/div/ol/li/div/div/div/div/form/div/div/ol/li/div/div/div/h3/img'
p201
F9.965784284662087
sS'/html/body/div/div/div/div/form/ol/li/div/div/div/div/blockquote/br'
p202
F7.965784284662087
sS'/html/body/div/div/div/div/form/div/div/div/div/a'
p203
F5.158429362604483
sS'/html/body/div/div/div/div/div/div/ol/li/a/img'
p204
F2.279283757478869
sS'/html/body/div/div/div/div/div/div/p'
p205
F4.107803289534515
sS'/html/body/div/div/div/div/div/div/div/div/div/ul/li/ul/li/a'
p206
F4.643856189774724
sS'/html/body/div/div/div/div/ul/li/div'
p207
F3.2243172982609405
sS'/html/body/div/div/div/div/div/div/div/dl/dd/a'
p208
F2.954557029238833
sS'/html/body/div/div/form/div/div/ol/li/div/div/div/div/div/div/form/ul/li/input'
p209
F9.965784284662087
sS'/html/body/div/div/div/div/div/div/div/span/strong'
p210
F2.11403524324603
sS'/html/body/div/div/div/div/div/form/div/ol/li/a'
p211
F8.965784284662087
sS'/html/body/div/div/div/div/div/div/div/div/div/form/ul/li/input'
p212
F5.321928094887363
sS'/html/body/div/div/div/div/div/div/div/div/div/div/span'
p213
F4.717856771218502
sS'/html/body/div/div/div/div/ul/li/div/div/ul/li/div/a'
p214
F3.3959286763311396
sS'/html/body/div/div/div/div/div/h5/a/img'
p215
F5.158429362604483
sS'/html/body/div/ul/li'
p216
F7.158429362604482
sS'/html/body/div/div/ol/li/div/div/div/blockquote/div/div/a/font/b'
p217
F9.965784284662087
sS'/html/body/div/div/ol/li/div/div/div/div/div/fieldset/ul/li/a'
p218
F9.965784284662087
sS'/html/body/div/div/form/div/div/ol/li/div/div/div/div/div/div/form/span/a/img'
p219
F9.965784284662087
sS'/html/body/div/div/div/div/div/div/ul/li/div/p/br'
p220
F8.380821783940931
sS'/html/body/div/div/form/div/div/ol/li/div/div/title'
p221
F9.965784284662087
sS'/html/body/div/div/div/div/div/form/div/div/dl/dd/dl/dt/a/img'
p222
F7.965784284662087
sS'/html/body/div/div/ul/li/div/ul/li/img'
p223
F8.380821783940931
sS'/html/body/div/div/form/div/div/ol/li/div/div/div/div/div/div/div/span'
p224
F9.965784284662087
sS'/html/head/meta'
p225
F0.03504694709920065
sS'/html/body/rss/channel/ttl'
p226
F5.442222328605075
sS'/html/body/div/div/div/div/div/div/ul/li/div/div/a/img'
p227
F8.380821783940931
sS'/html/body/div/div/div/span/strong'
p228
F4.965784284662088
sS'/html/body/div/div/div/div/ul/li/h6/a'
p229
F2.7083964419694353
sS'/html/body/div/div/div/div/ul/li/div/div/ul/li/div/span'
p230
F3.3959286763311396
sS'/html/body/div/div/ul/li/div/ul/li/a'
p231
F8.380821783940931
sS'/html/body/div/div/form/div/div/ol/li/div/div/div/div/div/div/ul/li/ul/li/a'
p232
F9.965784284662087
sS'/html/body/div/div/ol/li/div/div/div/blockquote/span'
p233
F5.058893689053569
sS'/html/body/div/div/div/div/div/h4'
p234
F7.965784284662087
sS'/html/body/div/form/div/div/ul/li/input'
p235
F8.965784284662087
sS'/html/body/div/div/div/div/div/form/div/ol/li/div/div/blockquote/br'
p236
F8.965784284662087
sS'/html/body/div/div/div/div/div/h1'
p237
F5.50635266602479
sS'/html/body/div/div/div/div/div/form/div'
p238
F4.539519529959989
sS'/html/body/div/div/table/tr/td/br'
p239
F6.965784284662088
sS'/html/body/div/div/div/div/form/div/div/div/label/input'
p240
F5.158429362604483
sS'/html/body/div/form/br'
p241
F8.965784284662087
sS'/html/body/div/table/tr/td/div/div/table/tr/td/a'
p242
F8.380821783940931
sS'/html/body/div/form/div/div/div/div/input'
p243
F6.50635266602479
sS'/html/body/div/div/div/div/ul/li/div/div/div/table/tr/td/a/strong'
p244
F4.795859283219775
sS'/html/body/div/div/ul/li/div/ul/li/div/div/a'
p245
F8.380821783940931
sS'/html/body/div/div/div/ul/li/form/ul/li/input'
p246
F2.954557029238833
sS'/html/body/div/div/ol/li/div/div/div/div/div/blockquote/div/div/div/div/img'
p247
F5.380821783940931
sS'/html/body/div/a'
p248
F9.965784284662087
sS'/html/body/div/div/div/div/div/form/ol/li/div/div/a'
p249
F4.380821783940931
sS'/html/body/div/div/div/div/form/div/div/div/input'
p250
F2.965784284662087
sS'/html/body/div/div/ol/li/div/div/div/div/div/fieldset/ul/li/img'
p251
F9.965784284662087
sS'/html/body/div/form/div/div/input'
p252
F6.380821783940931
sS'/html/body/div/div/div/div/div/form/h2'
p253
F7.158429362604482
sS'/html/body/div/form/div/div/div/input'
p254
F5.643856189774724
sS'/html/head/link'
p255
F0.03504694709920065
sS'/html/body/div/div/div/ul/li/div/span'
p256
F8.380821783940931
sS'/html/body/div/div/form/div/div/ol/li/div/div/div/div/div/div/ul/li/ul/li/ul/li/a'
p257
F9.965784284662087
sS'/html/body/div/div/div/h4/a'
p258
F9.965784284662087
sS'/html/body/div/div/div/table/tr/td'
p259
F4.965784284662088
sS'/html/body/div/div/form/div/div/ol/li/div/div/div/div/form/div/div/ol/li/div/div/div/h3/span'
p260
F9.965784284662087
sS'/html/body/div/div/div/div/div/div/div/div/form/div/ul/li/input'
p261
F4.643856189774724
sS'/html/body/div/div/a/span'
p262
F8.380821783940931
sS'/html/body/div/div/div/div/form/ol/li/div/div/a/img'
p263
F5.878321443411747
sS'/html/body/div/div/div/div/div/div/div/div/div/p/a'
p264
F5.878321443411747
sS'/html/body/div/div/div/div/form/ol/li/div/div/div/div/blockquote/font'
p265
F6.265344566520995
sS'/html/body/div/hr'
p266
F9.965784284662087
sS'/html/body/div/div/div/div/div/div/div/div/form/div/ul/li/label/span/input'
p267
F4.643856189774724
sS'/html/body/div/div/ul'
p268
F8.380821783940931
sS'/html/body/div/div/div/div/div/div/div/dl/dd/br'
p269
F3.6438561897747253
sS'/html/body/div/div/div/div/ul/li/div/div'
p270
F5.158429362604483
sS'/html/body/div/div/div/div/div/form/ol/li/div/h4/a'
p271
F4.539519529959989
sS'/html/body/div/div/div/div/div/div/ul/li/a/img'
p272
F1.0350469470992008
sS'/html/body/div/div/div/ol/li/div/h2/a/img'
p273
F5.50635266602479
sS'/html/body/div/div/ol/li/div/div/div/dl/div/dt'
p274
F2.7083964419694353
sS'/html/body/div/div/div/div/div/div/div/ul/li/strong/span'
p275
F7.643856189774724
sS'/html/body/div/div/ol/li/div/div/span/a'
p276
F2.7083964419694353
sS'/html/body/div/div/form/div/div/ol/li/div/div/div/div/div/div/script'
p277
F9.965784284662087
sS'/html/body/div/table/tr/td/div/div/table/tr/td/div/div/span'
p278
F8.380821783940931
sS'/html/body/div/div/div/div/form/ol/li/div/div/div/div/div/a/strong'
p279
F5.878321443411747
sS'/html/body/div/form/div'
p280
F0.12973392960401722
sS'/html/body/div/div/div/div/div/form/ol/li/div/div/blockquote/div/div/div/div'
p281
F7.643856189774724
sS'/html/body/div/div/form/div/div/label'
p282
F3.4900508536956893
sS'/html/body/div/div/ol/li/div/div/div/span'
p283
F2.7083964419694353
sS'/html/body/div/div/form/div/div/input'
p284
F3.4900508536956893
sS'/html/body/div/div/form/div/div/ol/li/div/div/script'
p285
F9.965784284662087
sS'/html/body/div/div/div/a/img'
p286
F7.965784284662087
sS'/html/body/div/div/div/div/div/span'
p287
F0.12658049656514322
sS'/html/body/div/div/ol/li/div/div/div/div/div/blockquote/div/div/div/div/strong'
p288
F5.380821783940931
sS'/html/body/div/div/h2/a'
p289
F6.965784284662088
sS'/html/body/div/div/form/select/optgroup/option'
p290
F0.39782820924662077
sS'/html/body/div/div/div/div/div/form/ol/li/div/div/div'
p291
F6.158429362604484
sS'/html/body/p/.342'
p292
F9.965784284662087
sS'/html/body/div/div/div/div/div/div/div/div/div/blockquote/font/a/img'
p293
F8.380821783940931
sS'/html/body/div/div/div/div/div/div/div/div'
p294
F1.960159735468209
sS'/html/body/div/div/form/div/div/ol/li/div/div/div/div/div/div/fieldset/ul/li/script'
p295
F9.965784284662087
sS'/html/body/div/div/form/div/div/ol/li/div/div/div/div/div/div'
p296
F9.965784284662087
sS'/html/body/div/div/div/div/fieldset/ul/li/script'
p297
F0.12815635149068239
sS'/html/body/rss/channel/item/encoded/font/font/b'
p298
F9.965784284662087
sS'/html/body/div/div/div/div/form/ol/li/div/div/div/div/div/div/span/a'
p299
F8.380821783940931
sS'/html/body/div/div/div/div/div/div/div/div/blockquote/img'
p300
F4.473931188332412
sS'/html/body/div/div/div/div/div/ol/li/div/a'
p301
F9.965784284662087
sS'/html/body/div/div/div/div/ul/li/img'
p302
F5.210896782498619
sS'/html/body/div/div/div/div/div/h2/a'
p303
F4.539519529959989
sS'/html/body/div/div/div/div/form/ul/li/input'
p304
F2.680382065799839
sS'/html/body/div/div/div/div/img'
p305
F9.965784284662087
sS'/html/body/div/div/ul/li/div/br'
p306
F8.380821783940931
sS'/html/body/div/div/form/div/div/ol/li/div/div/div/div'
p307
F9.965784284662087
sS'/html/body/div/div/form/h2'
p308
F2.954557029238833
sS'/html/body/div/div/div/div/ul/li/span/strong'
p309
F5.210896782498619
sS'/html/body/div/div/ol/li/div/div/div/div/div/blockquote/br'
p310
F2.932361283124637
sS'/html/body/div/div/div/div/div/form/div/ol/li/div/div'
p311
F8.965784284662087
sS'/html/body/div/div/div/ul/li/div/br'
p312
F8.380821783940931
sS'/html/body/div/div/div/div/div/div/form/div/input'
p313
F9.965784284662087
sS'/html/body/div/div/div/ul/li/div/font'
p314
F8.380821783940931
sS'/html/body/div/div/a'
p315
F3.9885043611621707
sS'/html/body/div/div/div/ol/li/ol/li/div/ul/li/a'
p316
F5.50635266602479
sS'/html/body/div/div/ul/li/div/div/ul/li/div/p'
p317
F5.50635266602479
sS'/html/body/div/div/div/div/div/div/a/span/img'
p318
F3.2243172982609405
sS'/html/body/rss/channel/item/pubdate'
p319
F6.795859283219775
sS'/html/body/div/div/form/div/div/ol/li/div/div/div/br'
p320
F9.965784284662087
sS'/html/body/div/div/div/div/div/div/div/div/div/blockquote/b/br'
p321
F9.965784284662087
sS'/html/body/div/div/p'
p322
F8.965784284662087
sS'/html/body/div/div/div/div/b'
p323
F8.380821783940931
sS'/html/body/div/div/div/div/ul/li/div/div/div/h2'
p324
F4.011587974275212
sS'/html/body/div/div/div/div/a'
p325
F0.12815635149068239
sS'/html/body/div/div/div/div/form/ul/li/div/a'
p326
F4.965784284662088
sS'/html/body/div/div/div/div/table/tbody/tr/td/a'
p327
F9.965784284662087
sS'/html/body/div/div/form/div/div/ol/li/div/div/div/div/div/dl/dd/span'
p328
F6.643856189774725
sS'/html/body/div/div/div/div/p'
p329
F0.12973392960401722
sS'/html/body/div/div/div/div/div/div/form/input'
p330
F4.158429362604483
sS'/html/body/div/div/script'
p331
F0.3492354408830976
sS'/html/body/div/div/div/div/div/form/div/div/input'
p332
F7.158429362604482
sS'/html/body/div/div/div/div/div/div/ul/li/span'
p333
F5.50635266602479
sS'/html/body/div/div/form/div/div/ol/li/div/div/div/div/h1/span'
p334
F9.965784284662087
sS'/html/body/div/div/form/div/div/ol/li/div/div/div/div/form/div/div/ol/li/div/dl/dt'
p335
F9.965784284662087
sS'/html/body/div/div/div/div/div/br'
p336
F0.8339273240532943
sS'/html/body/div/div/form/div/div/ol/li/div/div/link'
p337
F9.965784284662087
sS'/html/body/div/div/div/div/div/div/p/a'
p338
F2.965784284662087
sS'/html/body/div/form/div/h3'
p339
F6.643856189774725
sS'/html/body/div/div/div/div/div/div/div/div/div/dl/dd/a'
p340
F3.0350469470992008
sS'/html/body/div/div/div/div/div/div/form/ol/li/div/div/blockquote'
p341
F7.158429362604482
sS'/html/body/div/div/div/ul/li/ul/li/a'
p342
F2.954557029238833
sS'/html/body/div/div/div/div/div/div/form/div/div/span'
p343
F4.473931188332412
sS'/html/body/div/div/div/div/div/form/div/ol/li/div/div/span'
p344
F9.965784284662087
sS'/html/body/div/div/div/div/form/input'
p345
F2.373327247394007
sS'/html/body/div/div/form/div/p/a'
p346
F3.4900508536956893
sS'/html/body/div/div/div/div/div/ol/li/div/div/div/div/div/ul'
p347
F9.965784284662087
sS'/html/body/div/div/div/h3'
p348
F8.380821783940931
sS'/html/body/div/div/h2'
p349
F4.756330919033137
sS'/html/body/div/div/div/div/div/form/ol/li/div/div/blockquote'
p350
F6.158429362604484
sS'/html/body/div/div/form/div/div/ol/li/div/div/div/div/div/div/form/span/a'
p351
F9.965784284662087
sS'/html/body/div/div/div/div/div/dl/dd/a'
p352
F1.8365012677171209
sS'/html/body/div/div/div/div/div/div/form/ol/li/div/div/blockquote/a'
p353
F7.158429362604482
sS'/html/body/div/div/div/div/div/ol/li/div/div/span'
p354
F7.965784284662087
sS'/html/body/rss/channel/language'
p355
F5.442222328605075
sS'/html/body/div/div/div/div/div/div/div/ol/li/div/span/strong'
p356
F4.965784284662088
sS'/html/body/div/div/ol/li/div/div/div/blockquote/div/span/font'
p357
F9.965784284662087
sS'/html/body/div/div/div/div/div/div'
p358
F1.4035418604410146
sS'/html/body/div/div/div/div/div/form/ol/li/div/div/div/div/blockquote/font/b'
p359
F7.380821783940932
sS'/html/body/div/table/tr/td/div/div/table/tr/td/a/img'
p360
F8.380821783940931
sS'/html/body/div/div/div/div/form/ol/li/div/div/img'
p361
F5.878321443411747
sS'/html/body/div/div/div/div/div/div/form/ol/li/div/div/span'
p362
F4.50635266602479
sS'/html/body/div/div/ol/li/div/div/div/div/div/blockquote/img'
p363
F3.5395195299599895
sS'/html/body/div/table/tr/td/div/div/table/tr/td/img'
p364
F8.380821783940931
sS'/html/body/div/div/div/div/div/div/div/div/div/blockquote/font/img'
p365
F9.965784284662087
sS'/html/body/div/script'
p366
F0.1313132346778651
sS'/html/body/div/div/div/div/h6/a'
p367
F4.965784284662088
sS'/html/body/div/div/div/div/div/form/div/ol/li/div/div/blockquote/a/font'
p368
F9.965784284662087
sS'/html/body/div/div/form/div/div/ol/li/div/div/div/div/form/div/div/ol/li/div/div/div/div/div/div/div/a/img'
p369
F9.965784284662087
sS'/html/body/div/div/div/div/h4'
p370
F2.965784284662087
sS'/html/body/div/div/ol/li/div/div/div/div/div/blockquote'
p371
F3.0350469470992008
sS'/html/body/div/div/div/div/div/div/div/form/span/a'
p372
F2.77595972578207
sS'/html/body/div/div/div/div/div/form/ol/li/div/div/blockquote/div/div/div/div/img'
p373
F7.643856189774724
sS'/html/body/div/div/div/div/form/ol/li/div/div/div/div/div/dl/dd/a'
p374
F5.878321443411747
sS'/html/body/div/div/div/div/div/form/div/ol/li/div/div/blockquote/div/div/div/div/img'
p375
F9.965784284662087
sS'/html/body/div/div/div/div/ul/li/div/div/div/ul/li/a'
p376
F3.380821783940931
sS'/html/body/div/div/div/div/div/form/div/div/div/div/p'
p377
F7.158429362604482
sS'/html/body/div/div/ol/li/div/div/div/dl/br'
p378
F2.7083964419694353
sS'/html/body/div/div/ol/li/div/div/div/blockquote/div'
p379
F4.539519529959989
sS'/html/body/div/div/ol/li/div/div/div/blockquote/div/div/br'
p380
F9.965784284662087
sS'/html/body/div/div/div/div/div/div/ul/li/div/p'
p381
F8.380821783940931
sS'/html/body/div/div/div/ul/li/a'
p382
F0.12815635149068239
sS'/html/body/div/div/hr'
p383
F0.12815635149068239
sS'/html/body/div/div/div/div/div/form/div/ol/li/div/div/div/ul/li/a/img'
p384
F8.965784284662087
sS'/html/body/div/div/div/div/div/form/div/ol/li/div/div/div/ul/li'
p385
F8.965784284662087
sS'/html/body/div/div/div/div/p/strong'
p386
F7.965784284662087
sS'/html/body/div/form/div/div/div/div'
p387
F6.965784284662088
sS'/html/body/div/div/div/div/div/form/script'
p388
F4.473931188332412
sS'/html/body/div/div/div/div/div/div/div/dl/dd/span'
p389
F1.8365012677171209
sS'/html/body/div/div/form/div/div/ol/li/div/div/div/div/div/ul/li/ul/li/a'
p390
F9.965784284662087
sS'/html/body/div/form/div/div/div/div/p'
p391
F6.643856189774725
sS'/html/body/div/div/div/div/div/div/form/span'
p392
F6.795859283219775
sS'/html/body/div/div/div/div/fieldset/ul/li/form/fieldset/div/div/input'
p393
F0.12815635149068239
sS'/html/body/div/table/tr/td/div/h2/div/br'
p394
F8.380821783940931
sS'/html/body/div/div/form/div/div/ol/li/div/div/div/div/div/div/div/img'
p395
F4.573466861883327
sS'/html/body/div/div/form/div/div/ol/li/div/div/div/div/br'
p396
F9.965784284662087
sS'/html/body/div/div/div/form/ul/li/input'
p397
F4.965784284662088
sS'/html/body/div/div/ol/li/div/div/div/span/a/img'
p398
F2.7178567712185013
sS'/html/body/div/div/div/ol/li/ol/li/div/div/img'
p399
F5.50635266602479
sS'/html/body/div/div/div/div/div/div/div/ul/li/strong'
p400
F1.8313579644411613
sS'/html/body/div/div/ul/li/div/div/span'
p401
F5.321928094887363
sS'/html/body/div/div/div/div/div/div/div/div/dl/dd/a'
p402
F5.50635266602479
sS'/html/body/div/div/ul/li/ol/li/a'
p403
F8.380821783940931
sS'/html/body/div/div/div/div/div/form/ol/li/div/div/div/div/div/p/span'
p404
F6.965784284662088
sS'/html/body/div/div/div/div/div/div/div/div/div/form/ul/li/label/input'
p405
F5.321928094887363
sS'/html/body/div/div/div/div/ul/li/div/div/ul/li/a/img'
p406
F3.3959286763311396
sS'/html/body/div/div/div/div/div/h5/span'
p407
F2.63486740654747
sS'/html/body/div/div/div/div/div/div/form/div/div/button'
p408
F9.965784284662087
sS'/html/body/div/div/div/div/div/form/ol/li/div/div/a/img'
p409
F4.539519529959989
sS'/html/body/div/div/div/div/div/dl/dt/img'
p410
F2.965784284662087
sS'/html/body/div/div/form/div/div/ol/li/div/div/div/div/form/div/div/ol/li/div/div/div/div/div/dl/dd/span/a'
p411
F9.965784284662087
sS'/html/body/div/div/div/div/div/form/ol/li/div/div/img'
p412
F4.539519529959989
sS'/html/body/div/form/div/div/div/ol/li/input'
p413
F9.965784284662087
sS'/html/body/div/div/div/div/div/div/div/div/h2'
p414
F3.3510744405468786
sS'/html/body/div/div/div/div/div/div/table/tr/td/a/img'
p415
F2.373327247394007
sS'/html/body/div/div/div/div/div/div/div/div/div/dl/dt'
p416
F1.6438561897747248
sS'/html/body/div/div/div/div/div/div/ol/li/div/h4/a'
p417
F2.279283757478869
sS'/html/body/div/form/input'
p418
F0.12973392960401722
sS'/html/body/div/div/div/div/div/div/div/style'
p419
F4.539519529959989
sS'/html/body/div/div/table/tr/td/img'
p420
F6.965784284662088
sS'/html/body/rss/channel/lastbuilddate'
p421
F5.442222328605075
sS'/html/body/div/div/div/form/select/optgroup/option'
p422
F2.7563309190331373
sS'/html/body/div/div/div/div/div/div/div/div/img'
p423
F1.810966175609983
sS'/html/body/div/div/div/div/div/strong'
p424
F7.965784284662087
sS'/html/body/div/div/div/div/div/div/ul/li/div/h3/a'
p425
F8.380821783940931
sS'/html/body/div/div/div/div/form/div'
p426
F5.158429362604483
sS'/html/body/div/div/div/div/div/div/div/div/dl/dt/img'
p427
F5.50635266602479
sS'/html/body/div/div/form/div/div/ol/li/div/div/div/div/form/div/div/div/div/span/a'
p428
F9.965784284662087
sS'/html/body/div/div/div/div/div/div/div/div/div/div/span/a'
p429
F8.965784284662087
sS'/html/body/div/div/div/div/div/div/div/div/div/div/form/span/a'
p430
F5.321928094887363
sS'/html/body/div/div/form/div/div/ol/li/div/div/div/div/form/div/div/ol/li/div/div/div/h3/a'
p431
F9.965784284662087
sS'/html/body/div/div/ul/li/dl/dd/a'
p432
F4.083141235300245
sS'/html/body/div/div/form/div/div/ol/li/div/div/div/div/div/div/form/input'
p433
F9.965784284662087
sS'/html/body/div/div/div/div/div/div/h4/a/img'
p434
F5.158429362604483
sS'/html/body/div/div/div/div/div/div/div/ol/li/blockquote/span'
p435
F4.965784284662088
sS'/html/body/div/table/tr/td/div/div/table/tbody/tr/td/div/a'
p436
F8.380821783940931
sS'/html/body/div/div/div/div/form/ol/li/div/script'
p437
F5.878321443411747
sS'/html/body/div/br'
p438
F0.12658049656514322
sS'/html/body/div/div/div/div/ul/li/ul/li'
p439
F2.7083964419694353
sS'/html/body/div/div/div/div/ul/li/div/div/div/table/tr/th/a'
p440
F3.2243172982609405
sS'/html/body/div/div/div/div/form/div/div/div/div'
p441
F5.158429362604483
sS'/html/body/div/div/div/ul/li/div/div/div'
p442
F8.380821783940931
sS'/html/body/div/div/div/div/div/form/div/div/div/label'
p443
F7.158429362604482
sS'/html/body/div/div/ol/li/div/div/div/div/div'
p444
F2.7083964419694353
sS'/html/body/div/div/div/div/div/div/form/ol/li/div/a/img'
p445
F4.50635266602479
sS'/html/body/div/div/div/ol/li/ol/li/div/ul/li'
p446
F5.50635266602479
sS'/html/body/div/div/div/div/h1/span/span/br'
p447
F1.8365012677171209
sS'/html/body/div/div/h1/span'
p448
F2.954557029238833
sS'/html/body/rss/channel/item/encoded/br'
p449
F7.380821783940932
sS'/html/body/div/div/div/div/h1/span/span/img'
p450
F1.8365012677171209
sS'/html/body/div/div/ul/li/div/div/ul/li/div/div/br'
p451
F5.50635266602479
sS'/html/body/div/div/ul/li/a/img'
p452
F0.13289427049734548
sS'/html/body/div/div/form/div/div/ol/li/div/div/div/div/form/div/div/div/div/span/span/a'
p453
F9.965784284662087
sS'/html/body/div/div/div/br'
p454
F0.12973392960401722
sS'/html/body/div/form/div/div/div/div/select/option'
p455
F9.965784284662087
sS'/html/body/div/div/ul/li/dl/dt'
p456
F4.083141235300245
sS'/html/body/div/div/form/div/div/ol/li/div/div/div/div/form/h2'
p457
F9.965784284662087
sS'/html/body/div/div/div/div/div/form/div/div/dl/dd/div/h3/a'
p458
F7.965784284662087
sS'/html/body/div/div/form/div/div/ol/li/div/div/div/div/div/div/div/a/img'
p459
F3.7563309190331378
sS'/html/body/div/div/div/div/div/div/div/div/div/blockquote'
p460
F9.965784284662087
sS'/html/body/div/div/ol/li/div/div/div/div/div/blockquote/b/font'
p461
F9.965784284662087
sS'/html/body/rss/channel/item/encoded/font'
p462
F8.380821783940931
sS'/html/body/div/div/ul/li/dl/dd'
p463
F9.965784284662087
sS'/html/body/div/div/div/div/div/div/div/div/div/blockquote/b'
p464
F7.643856189774724
sS'/html/head/base'
p465
F0.03800632257974474
sS'/html/body/div/div/div/div/div/div/form/span/a'
p466
F6.50635266602479
sS'/html/body/div/div/div/div/div/form/ol/li/div/div/div/div/blockquote/br'
p467
F5.011587974275212
sS'/html/body/rss/channel/image/title'
p468
F5.442222328605075
sS'/html/body/div/div/div/div/div/form/div/div/textarea'
p469
F7.158429362604482
sS'/html/body/div/div/form/div/hr'
p470
F2.965784284662087
sS'/html/body/div/div/div/div/h5/a'
p471
F2.279283757478869
sS'/html/body/div/div/table/tr/td/div/br'
p472
F6.965784284662088
sS'/html/body/div/div/div/div/div/div/ul/li/div/h6/a'
p473
F2.272297327162762
sS'/html/body/rss/channel/item/encoded'
p474
F9.965784284662087
sS'/html/body/div/div/div/ul/li/div/ul/li/div/div/div/div'
p475
F8.380821783940931
sS'/html/body/div/div/div/ol/li/ol/li/div/div/h4'
p476
F5.50635266602479
sS'/html/body/div/div/div/div/div/div/div/h4/a'
p477
F3.6082322800440036
sS'/html/body/div/ul/li/a'
p478
F7.158429362604482
sS'/html/body/div/div/div/ol/li/ol/li/div/div/div/p/a'
p479
F5.50635266602479
sS'/html/body/rss/channel/item/guid'
p480
F6.795859283219775
sS'/html/body/div/div/div/div/table/tr/td/a'
p481
F9.965784284662087
sS'/html/body/div/div/div/div/div/form/ol/li/div/div/div/div/blockquote/font'
p482
F6.795859283219775
sS'/html/body/div/div/div/div/div/form/ol/li/div/div/div/ul/li/a/img'
p483
F6.158429362604484
sS'/html/body/div/div/div/form/input'
p484
F4.795859283219775
sS'/html/body/div/div/form/div/div/ol/li/div/div/a'
p485
F2.954557029238833
sS'/html/body/div/div/div/div/div/div/div/table/tr/td'
p486
F5.158429362604483
sS'/html/body/div/div/div/div/div/div/div/div/div/form/input'
p487
F5.321928094887363
sS'/html/body/div/div/div/div/div/div/div/ol/li/a'
p488
F2.11403524324603
sS'/html/body/rss/channel/item/encoded/a/font/b'
p489
F8.965784284662087
sS'/html/body/div/form/h2'
p490
F5.717856771218502
sS'/html/body/div/div/div/div/div/div/div/table/tr/th'
p491
F5.210896782498619
sS'/html/body/div/div/div/div/div/h2/img'
p492
F8.380821783940931
sS'/html/body/rss/channel/link'
p493
F5.442222328605075
sS'/html/body/div/div/form/div/div/ol/li/div/div/div/div/div/ul/li/h6/a'
p494
F9.965784284662087
sS'/html/body/div/div/div/div/div/div/i/u'
p495
F9.965784284662087
sS'/html/body/div/form/select/optgroup/option'
p496
F7.158429362604482
sS'/html/body/div/div/div/div/div/form/ol/li/div/div/div/div/blockquote/img'
p497
F6.265344566520995
sS'/html/body/div/div/div/div/ul/li/div/div/a/img'
p498
F3.380821783940931
sS'/html/body/div/div/div/div/div/div/div/div/p/span'
p499
F5.50635266602479
sS'/html/body/div/div/ul/li'
p500
F0.3921370971687651
sS'/html/body/div/div/form/div/h3'
p501
F3.4900508536956893
sS'/html/body/div/div/div/ul/li/a/i'
p502
F9.965784284662087
sS'/html/body/div/div/ol/li/div/div/div/div/div/blockquote/a'
p503
F3.6259342817774622
sS'/html/body/div/div/div/div/div/div/br'
p504
F1.7958592832197748
sS'/html/body/div/div/form/input'
p505
F2.2042330522176075
sS'/html/body/div/div/div/div/h1/span/span'
p506
F1.8365012677171209
sS'/html/body/div/div/ol/li/div/div/div/div/div/blockquote/i'
p507
F7.158429362604482
sS'/html/body/div/div/div/div/div/div/ol/li/div/div'
p508
F2.279283757478869
sS'/html/body/div/div/div/div/form/div/div/div/div/input'
p509
F5.158429362604483
sS'/html/body/div/div/div/div/form/div/div/ul/li/label/input'
p510
F2.965784284662087
sS'/html/body/div/div/form/div/div/ol/li/div/dl/dd/div/a/strong'
p511
F2.954557029238833
sS'/html/body/div/div/div/div/div/div/div/ol/li/div/span/a'
p512
F4.965784284662088
sS'/html/body/div/div/table/tr/td/hr'
p513
F6.965784284662088
sS'/html/body/div/div/div/div/div/form/div/div'
p514
F4.083141235300245
sS'/html/body/div/h1/span/a'
p515
F2.7083964419694353
sS'/html/body/div/div/form/div/div/ol/li/div/div/div/div/div/div/fieldset/ul/li/form/fieldset/div/div/input'
p516
F9.965784284662087
sS'/html/body/div/div/div/div/div/div/ol/li/div/h4/img'
p517
F2.279283757478869
sS'/html/body/div/div/div/ul/li/div/ul/li/iframe'
p518
F8.380821783940931
sS'/html/body/div/div/div/div/ul/li/div/div/a'
p519
F3.3959286763311396
sS'/html/body/div/div/div/div/div/div/div/ul/li'
p520
F1.526992432083826
sS'/html/body/div/div/div/ul/li/div/ol/li'
p521
F8.380821783940931
sS'/html/body/div/div/div/ol/li/ol/li/div/div/div/p/a/img'
p522
F5.50635266602479
sS'/html/body/div/div/ul/li/a'
p523
F0.12658049656514322
sS'/html/body/div/div/div/form/ul/li/label/input'
p524
F4.965784284662088
sS'/html/body/div/div/ol/li/div/div/div/blockquote/div/b'
p525
F7.643856189774724
sS'/html/body/div/div/ol/li/div/div/div/blockquote/div/a'
p526
F4.680382065799838
sS'/html/body/div/div/div/div/div/div/span/a'
p527
F5.50635266602479
sS'/html/body/div/div/ol/li/div/div/div/blockquote/div/i'
p528
F7.380821783940932
sS'/html/body/div/form/div/div/p'
p529
F6.795859283219775
sS'/html/body/div/div/div/div/div'
p530
F0.12973392960401722
sS'/html/body/div/div/div/div/div/div/h4'
p531
F0.7345631039509016
sS'/html/body/div/div/div/div/div/div/div/form/span/a/img'
p532
F2.77595972578207
sS'/html/body/div/div/ol/li/div/div/div/div/div/a/strong'
p533
F2.7083964419694353
sS'/html/body/div/form/div/h2'
p534
F9.965784284662087
sS'/html/body/div/div/div/div/form/ul/li/label/input'
p535
F2.680382065799839
sS'/html/body/div/div/form/div/div/ol/li/div/ul/li'
p536
F2.954557029238833
sS'/html/body/div/div/div/div/div/form/ol/li/script'
p537
F6.158429362604484
sS'/html/body/div/form/div/div/fieldset/ul/li/input'
p538
F9.965784284662087
sS'/html/body/div/div/div/div/form/span/a/img'
p539
F2.680382065799839
sS'/html/body/div/div/div/div/div/div/ul/li/div/br'
p540
F5.50635266602479
sS'/html/body/div/ol/li/ol/li/dl/dd'
p541
F9.965784284662087
sS'/html/body/div/div/div/ol/li/ol/li/div/div/div/div/div/a/strong'
p542
F5.50635266602479
sS'/html/body/div/div/div/div/form/span/a'
p543
F2.680382065799839
sS'/html/body/div/div/div/ul/li/div/div/div/code/code/span/span/br'
p544
F8.380821783940931
sS'/html/body/div/div/div/div/div/div/a'
p545
F2.300448367476911
sS'/html/body/div/div/div/div/div/ol/li/div/div/div/a'
p546
F9.965784284662087
sS'/html/body/div/div/div/div/div/div/div/div/div/div/a/strong'
p547
F4.643856189774724
sS'/html/head/noscript/meta'
p548
F9.965784284662087
sS'/html/body/div/div/div/div/div/ol/li/div/h6/a'
p549
F7.965784284662087
sS'/html/body/div/div/div/div/div/div/form/ol/li/script'
p550
F4.50635266602479
sS'/html/body/div/dl/dd/a'
p551
F4.9213901653036345
sS'/html/body/div/div/div/ul/li/div/div/div/code/code/span/span'
p552
F8.380821783940931
sS'/html/body/div/div/div/h3/strong'
p553
F7.965784284662087
sS'/html/body/div/div/form/div/div/ol/li/div/div/div/div/div/div/fieldset/ul/li/form/fieldset/div/div/p/input'
p554
F9.965784284662087
sS'/html/body/div/div/div/div/div/div/div/div/ul/li/span/a/img'
p555
F3.457989644463391
sS'/html/body/div/div/div/div/div/div/div/form/ul/li/label/input'
p556
F2.77595972578207
sS'/html/body/div/div/div/div/ol/li/br'
p557
F7.965784284662087
sS'/html/body/div/div/div/div/div/div/div/div/div/div/a'
p558
F3.6082322800440036
sS'/html/body/div/div/div/div/div/div/div/table/tr/th/a'
p559
F5.158429362604483
sS'/html/body/div/div/div/div/div/script'
p560
F3.3510744405468786
sS'/html/body/div/div/div/div/div/div/form/ul/li/input'
p561
F6.50635266602479
sS'/html/body/div/div/div/div/div/ol/li/div/div/div/div/div/a'
p562
F9.965784284662087
sS'/html/body/div/div/form/div/div/ol/li/div/div/div/div/div/div/div/a/span'
p563
F9.965784284662087
sS'/html/body/div/div/form/div/div/ol/li/div/div/div/div/form/div/div/ol/li/div/dl/dd/div/a/strong'
p564
F9.965784284662087
sS'/html/body/div/div/div/div/div/form/ol/li/div/div/label/a'
p565
F6.158429362604484
sS'/html/body/div/div/div/div/ul/li/div/div/div/table/tr/th'
p566
F3.237863830098888
sS'/html/body/div/div/div/div/div/div/div/div/div/div/form/span/a/img'
p567
F5.321928094887363
sS'/html/body/div/div/form/div/div/ol/li/div/div/div/div/div/dl/dd/span/a'
p568
F4.965784284662088
sS'/html/body/div/div/div/form/span/a'
p569
F4.965784284662088
sS'/html/body/div/div/div/div/form/span'
p570
F2.8262329322632938
sS'/html/body/div/div/div/div/div/div/div/div/div/blockquote/b/font'
p571
F9.965784284662087
sS'/html/body/div/div/div/div/form/ol/li/div/div/div/div/div/fieldset/a/img'
p572
F8.380821783940931
sS'/html/body/div/div/div/div/div/div/div/div/div/div/form/input'
p573
F5.321928094887363
sS'/html/body/div/div/div/div/div/div/div/div/span/span'
p574
F1.8365012677171209
sS'/html/body/div/div/div/div/div/div/div/ul/li/div/hr'
p575
F1.8365012677171209
sS'/html/body/div/div/div/div/table/tr/td/span'
p576
F9.965784284662087
sS'/html/body/div/div/div/div/table/tr/th'
p577
F9.965784284662087
sS'/html/body/rss/channel/item/title'
p578
F6.795859283219775
sS'/html/body/div/div/div/div/div/div/div/div/h6/a'
p579
F4.643856189774724
sS'/html/body/div/form/div/div/ul/li/label/input'
p580
F9.965784284662087
sS'/html/body/div/div/ol/li/div/div/div/span/img'
p581
F2.7083964419694353
sS'/html/body/div/div/div/table/tr/th/a/img'
p582
F4.965784284662088
sS'/html/body/div/div/div/div/div/div/div/div/blockquote/b'
p583
F5.965784284662088
sS'/html/body/div/div/div/div/div/div/div/ul/li/div'
p584
F1.8365012677171209
sS'/html/body/div/div/div/div/div/div/div/div/div/blockquote/a/font/b'
p585
F6.058893689053569
sS'/html/body/rss/channel/item/encoded/a'
p586
F8.380821783940931
sS'/html/body/div/div/form/div/div/ol/li/div/div/div/div/div/ul/li/form/ul/li/div/label/input'
p587
F9.965784284662087
sS'/html/body/div/div/div/div/iframe'
p588
F9.965784284662087
sS'/html/body/div/div/div/div/div/div/div/div/div/blockquote/font/font/b'
p589
F7.158429362604482
sS'/html/body/div/div/form/div/div/ol/li/div/div/div/div/div/div/ul/li/a'
p590
F9.965784284662087
sS'/html/body/div/div/form/div/div/ol/li/div/div/div/h3/img'
p591
F4.756330919033137
sS'/html/body/div/div/div/h2'
p592
F3.011587974275212
sS'/html/body/div/div/div/div/ul/li/div/div/div/table/tr/td'
p593
F3.2243172982609405
sS'/html/body/div/div/ol/li/div/div/div/blockquote/div/u/font'
p594
F7.643856189774724
sS'/html/body/div/div/div/div/h1/span/br'
p595
F1.8365012677171209
sS'/html/head/style'
p596
F0.7759597257820698
sS'/html/body/div/div/h1'
p597
F4.011587974275212
sS'/html/body/div/div/div/form/img'
p598
F9.965784284662087
sS'/html/body/div/form/div/div/div/p'
p599
F8.965784284662087
sS'/html/body/div/div/ul/li/div/div/ul/li/div/div/span'
p600
F5.50635266602479
sS'/html/body/div/div/ol/li/div/div/div/blockquote/div/span'
p601
F6.50635266602479
sS'/html/body/div/div/div/ul/li/form/ul/li/div/a'
p602
F2.954557029238833
sS'/html/body/div/div/div/div/div/div/div/ul/li/div/div/span/span'
p603
F2.6711635357704604
sS'/html/body/rss/channel/item/category'
p604
F9.965784284662087
sS'/html/body/div/div/table/tr/td/a'
p605
F6.965784284662088
sS'/html/body/div/div/div/div/div/div/div/ul/li/div/img'
p606
F2.6711635357704604
sS'/html/body/div/div/div/div/div/div/div/div/p'
p607
F3.457989644463391
sS'/html/body/div/div/div/div/fieldset/ul/li/form/fieldset/div/div/p/input'
p608
F0.12815635149068239
sS'/html/body/div/div/form/div/div/ol/li/div/div/div/div/div/div/fieldset/ul/li/form/fieldset/div/div/div/label/input'
p609
F9.965784284662087
sS'/html/body/div/div/div/ol/li/ol/li/div/div/div/div/p'
p610
F5.50635266602479
sS'/html/body/div/div/div/div/div/form/div/div/dl/dd'
p611
F7.965784284662087
sS'/html/body/div/div/div/div/div/div/div/div/blockquote/font/font/b'
p612
F5.965784284662088
sS'/html/body/div/div/div/div/div/ol/li/div/span'
p613
F7.643856189774724
sS'/html/body/div/div/div/div/form/div/h5/a/img'
p614
F5.158429362604483
sS'/html/body/div/div/div/div/ul/li/div/div/ul/li/div/span/a'
p615
F3.9885043611621707
sS'/html/body/div/div/div'
p616
F1.5864059175908247
sS'/html/body/div/div/div/ol/li/ol/li/div/div/div/div/div/h2/a'
p617
F5.50635266602479
sS'/html/body/div/div/div/ul/li/div/i'
p618
F8.380821783940931
sS'/html/body/div/div/ol/li/div/div/div/br'
p619
F2.7083964419694353
sS'/html/body/div/div/div/span'
p620
F4.878321443411748
sS'/html/body/div/div/div/ol/li/div'
p621
F8.380821783940931
sS'/html/body/div/div/div/ul/li/div/div/pre/span'
p622
F8.380821783940931
sS'/html/body/div/div/div/div/h5/span'
p623
F2.279283757478869
sS'/html/body/div/div/div/div/div/div/div/table/tr/td/span'
p624
F5.158429362604483
sS'/html/body/div/div/div/div/div/form/div/ol/li/a/img'
p625
F8.965784284662087
sS'/html/body/div/div/div/a/span'
p626
F2.932361283124637
sS'/html/body/div/div/div/div/form/div/div/p'
p627
F2.965784284662087
sS'/html/body/div/div/ol/li/div/div/div/div/div/blockquote/a/b/u'
p628
F9.965784284662087
sS'/html/body/div/div/ol/li/div/div/div/div/div/blockquote/div/div/div/div/a'
p629
F8.965784284662087
sS'/html/body/rss/channel/item/encoded/b/br'
p630
F9.965784284662087
sS'/html/body/div/div/ol/li/div/div/div/div/div/blockquote/div/div/div/div/a/img'
p631
F5.717856771218502
sS'/html/body/rss/channel/image/link'
p632
F5.442222328605075
sS'/html/body/div/div/form/div/div/ol/li/div/div/div/div/form/div/div/ol/li/div/ul/li/a'
p633
F9.965784284662087
sS'/html/body/div/div/div/ul/li/div/ul/li/span'
p634
F8.380821783940931
sS'/html/body/div/div/div/div/form/ol/li/div/div/div/div/div/dl/dt'
p635
F5.878321443411747
sS'/html/body/div/div/div/table/tr/th/a'
p636
F4.965784284662088
sS'/html/body/div/div/div/div/div/form/div/div/div/div/input'
p637
F7.158429362604482
sS'/html/body/div/div/div/div/div/div/div/div/ul/li/span'
p638
F3.457989644463391
sS'/html/body/div/div/div/div/div/div/div/form/span'
p639
F7.643856189774724
sS'/html/body/div/div/div/div/form/div/div/select/option'
p640
F2.965784284662087
sS'/html/body/div/div/div/div/div/form/ol/li/div/div/span'
p641
F7.643856189774724
sS'/html/body/div/div/div/div/div/div/div/div/div/blockquote/font/b'
p642
F9.965784284662087
sS'/html/body/div/div/a/img'
p643
F5.50635266602479
sS'/html/body/div/div/div/div/div/div/div/ol'
p644
F6.50635266602479
sS'/html/body/div/div/div/div/div/ol/li/div/div/div/div'
p645
F9.965784284662087
sS'/html/body/div/div/ol/li/div/div/div/div/div/fieldset/legend/img'
p646
F9.965784284662087
sS'/html/body/div/div/div/div/div/div/div/div/div/p/a/img'
p647
F4.643856189774724
sS'/html/body/div/div/div/div/div/div/div/dl/dd'
p648
F1.8365012677171209
sS'/html/body/div/div/div/div/div/div/div/div/div/ul/li/a'
p649
F4.643856189774724
sS'/html/body/div'
p650
F7.158429362604482
sS'/html/body/div/div/form/div/div/ol/li/div/div/div/div/div/div/a'
p651
F9.965784284662087
sS'/html/body/div/div/div/div/div/form/ol/li/div/div/blockquote/a/font/b'
p652
F9.965784284662087
sS'/html/body/div/div/ul/li/div'
p653
F5.265344566520995
sS'/html/body/div/div/ol/li/div/div/div/div/div/blockquote/div/div/div/br'
p654
F9.965784284662087
sS'/html/body/div/div/div/div/div/div/div/dl/dt'
p655
F1.8365012677171209
sS'/html/body/div/div/div/div/form/div/div'
p656
F5.50635266602479
sS'/html/body/div/div/form/div/div/ol/li/div/div/div/div/div/ul/li/form/ul/li/div/a'
p657
F9.965784284662087
sS'/html/body/div/div/ul/li/div/ul/li/div/h3/a'
p658
F8.380821783940931
sS'/html/body/div/div/ol/li/div/div/div/div/div/blockquote/u'
p659
F8.965784284662087
sS'/html/body/div/div/ol/li/div/div/div/div/span/b'
p660
F2.7083964419694353
sS'/html/body/div/div/div/div/div/form/ol/li/div/div/div/div/div/dl/dt'
p661
F4.539519529959989
sS'/html/body/div/div/form/div/div/ol/li'
p662
F3.4900508536956893
sS'/html/body/div/div/div/div/div/form/ol/li/a'
p663
F6.158429362604484
sS'/html/body/div/div/div/div/div/div/form/div/div/a'
p664
F9.965784284662087
sS'/html/body/div/div/div/div/div/div/form/ol/li/div/div/label/a'
p665
F4.50635266602479
sS'/html/body/div/div/form/div/div/div/div/span/span/a/img'
p666
F4.836501267717121
sS'/html/body/div/form/div/div/ul/li/select/option'
p667
F9.965784284662087
sS'/html/body/div/div/div/div/form/ol/li/div/h4/a'
p668
F5.878321443411747
sS'/html/body/div/div/div/ul/li/div'
p669
F8.380821783940931
sS'/html/body/div/div/div/div/div/div/div/div/blockquote/br'
p670
F3.6082322800440036
sS'/html/body/div/div/div/form/span'
p671
F5.011587974275212
sS'/html/body/div/div/div/div/div/div/table/tr/td/img'
p672
F2.373327247394007
sS'/html/body/div/div/div/span/img'
p673
F5.210896782498619
sS'/html/body/div/div/ul/li/ul/li/a'
p674
F9.965784284662087
sS'/html/body/div/div/div/div/ul/li/div/div/div/ul/li/strong/span'
p675
F6.058893689053569
sS'/html/body/div/div/div/div/div/div/table/tr/th'
p676
F2.373327247394007
sS'/html/body/div/div/table/tr/td/b/a'
p677
F6.965784284662088
sS'/html/body/div/div/form/div/div/ol/li/div/div/div/div/div/dl/dt/span'
p678
F4.965784284662088
sS'/html/body/div/div/div/div/div/div/div/div/div/p/span'
p679
F5.878321443411747
sS'/html/body/div/div/form/div/div/ol/li/div/div/div/form/input'
p680
F9.965784284662087
sS'/html/body/div/form/div/div/ul/li/label'
p681
F9.965784284662087
sS'/html/body/div/div/div/div/div/div/div/div/span/input'
p682
F3.3510744405468786
sS'/html/body/div/form/div/div/div/ol/li/label/input'
p683
F9.965784284662087
sS'/html/body/div/div/div/div/div/form/ol/li/div/div/div/div/blockquote/a/font/b'
p684
F6.795859283219775
sS'/html/body/div/div/ul/li/div/ul/li/div/p/br'
p685
F8.380821783940931
sS'/html/body/div/div/div/div/div/div/div/div/div/div/form/ul/li/input'
p686
F5.321928094887363
sS'/html/body/div/div/div/table/tr/td/span'
p687
F4.965784284662088
sS'/html/body/rss/channel/item/encoded/b/font'
p688
F9.965784284662087
sS'/html/body/div/div/div/div/div/div/a/img'
p689
F3.0588936890535687
sS'/html/body/div/div/div/div/div/div/div/ul/li/img'
p690
F5.158429362604483
sS'/html/body/div/div/ol/li/div/div/div/div/div/blockquote/b'
p691
F8.380821783940931
sS'/html/body/div/div/ul/li/div/ul/li/div/a/img'
p692
F8.380821783940931
sS'/html/body/div/div/div/div/div/div/div/div/div/form/span/a'
p693
F5.321928094887363
sS'/html/body/div/div/div/div/h3'
p694
F0.12973392960401722
sS'/html/body/div/div/ol/li/div/div/div/dl/dt'
p695
F5.795859283219775
sS'/html/body/div/div/div/div/form/div/div/label'
p696
F2.965784284662087
sS'/html/body/div/div/div/div/div/div/ul/li/div/div/a'
p697
F5.321928094887363
sS'/html/body/div/div/div/ul/li/div/ul/li/div/div/div/div/a/img'
p698
F8.380821783940931
sS'/html/body/div/div/form/div/div/ol/li/div/div/div/div/div/div/fieldset/ul/li/form/fieldset/div/div/br'
p699
F9.965784284662087
sS'/html/body/div/div/div/div/div/h5'
p700
F2.11403524324603
sS'/html/body/div/div/div/div/div/div/ul/li/div/a/img'
p701
F2.965784284662087
sS'/html/body/div/div/div/table/tr/td/img'
p702
F5.011587974275212
sS'/html/body/div/dl/dt'
p703
F3.4422223286050744
sS'/html/body/div/div/div/div/div/div/div/h1/a/i/u'
p704
F9.965784284662087
sS'/html/head/title'
p705
F0.03504694709920065
sS'/html/body/div/div/div/div/div/div/div/ol/li/blockquote/a'
p706
F4.965784284662088
sS'/html/body/div/div/ol/li/div/div/div/blockquote/div/b/br'
p707
F8.380821783940931
sS'/html/body/div/div/div/ol/li/ol/li/div/h4'
p708
F5.50635266602479
sS'/html/body/div/dl/dd'
p709
F4.083141235300245
sS'/html/body/div/div/div/div/div/a'
p710
F0.12973392960401722
sS'/html/body/div/div/div/div/ul/li'
p711
F5.158429362604483
sS'/html/body/div/div/form/div/div/ol/li/div/div/div/div/form/div/div/ol/li/div/dl/dd/span'
p712
F9.965784284662087
sS'/html/body/div/div/div/div/div/div/div/span/a'
p713
F9.965784284662087
sS'/html/body/div/div/ol/li/div/div/div/div/div/blockquote/div/div/div/div'
p714
F5.380821783940931
sS'/html/body/div/div/div/div/ul/li/span'
p715
F8.380821783940931
sS'/html/body/div/div/div/div/form/ol/li/div/div/a'
p716
F5.878321443411747
sS'/html/body/div/div/ol/li/div/div/div/blockquote/div/div/b'
p717
F9.965784284662087
sS'/html/body/div/div/div/div/div/div/ul/li/strong'
p718
F2.965784284662087
sS'/html/body/div/ol/li/h2'
p719
F9.965784284662087
sS'/html/body/div/div/div/div/fieldset/ul/li/form/fieldset/div/div/br'
p720
F0.12815635149068239
sS'/html/body/div/div/div/div/div/div/div/div/div/ul/li/ul/li'
p721
F4.643856189774724
sS'/html/body/rss/channel/description'
p722
F5.442222328605075
sS'/html/body/div/div/form/div/div/ol/li/div/dl/dt'
p723
F2.954557029238833
sS'/html/body/div/div/ul/li/div/a'
p724
F4.083141235300245
sS'/html/body/div/div/div/div/div/div/ol/li/div/p'
p725
F2.279283757478869
sS'/html/body/div/div/div/form/a'
p726
F9.965784284662087
sS'/html/body/div/div/div/div/div/form/ol/li/div/div/blockquote/div/div/div/div/br'
p727
F7.643856189774724
sS'/html/body/div/div/div/ul/li/div/div/pre'
p728
F8.380821783940931
sS'/html/body/div/div/div/div/div/div/ul/li/a'
p729
F2.5145731728297585
sS'/html/body/div/div/ol/li/div/div/div/div/div/blockquote/a/img'
p730
F5.442222328605075
sS'/html/body/div/div'
p731
F0.12658049656514322
sS'/html/body/div/div/form/div/br'
p732
F2.965784284662087
sS'/html/body/div/div/div/div/div/form/ol/li/div/script'
p733
F4.539519529959989
sS'/html/body/div/div/div/div/div/div/form/div/div/input'
p734
F9.965784284662087
sS'/html/body/div/div/div/div/div/form/div/div/dl/dd/dl/dd/span'
p735
F7.965784284662087
sS'/html/body/div/div/div/div/script'
p736
F0.12815635149068239
sS'/html/body/div/div/div/div/div/div/div/div/a'
p737
F1.3845837027371302
sS'/html/body/div/div/form/div/div/ol/li/div/div/div/div/form/div/div/ol/li/div/dl/dd/a/img'
p738
F9.965784284662087
sS'/html/body/div/div/div/div/div/dl/dd/span'
p739
F9.965784284662087
sS'/html/body/div/div/div/div/div/h5/a'
p740
F2.63486740654747
sS'/html/body/div/div/div/div/div/form/ol/li/div/div/div/div/blockquote/font/font/b'
p741
F7.158429362604482
sS'/html/body/div/div/ol/li/div/div/div/blockquote/div/a/b'
p742
F9.965784284662087
sS'/html/body/div/div/div/div/div/ol/li/div/div/div/div/div/ul/li/label/a'
p743
F9.965784284662087
sS'/html/body/div/div/form/div/div/ol/li/div/div/div/div/form/div/div/ol/li/div/ul/li'
p744
F9.965784284662087
sS'/html/body/div/div/div/form/select/option'
p745
F9.965784284662087
sS'/html/body/div/div/ol/li/div/div/div/blockquote/div/b/span'
p746
F9.965784284662087
sS'/html/body/div/div/div/ul/li/div/div/pre/span/span'
p747
F8.380821783940931
sS'/html/body/div/div/div/ul/li/div/div'
p748
F8.380821783940931
sS'/html/body/div/ol/li/ol/li/h4/a'
p749
F9.965784284662087
sS'/html/body/div/div/div/div/div/div/div/h5'
p750
F1.8365012677171209
sS'/html/body/div/div/div/div/div/div/div/h4'
p751
F1.207561069935362
sS'/html/body/div/div/div/div/div/div/div/h3'
p752
F4.539519529959989
sS'/html/body/div/div/div/div/div/div/div/h2'
p753
F5.50635266602479
sS'/html/body/div/div/ol/li/div/div/div/div/div/blockquote/span/font/font'
p754
F7.965784284662087
sS'/html/body/div/div/div/div/div/form/ol/li/div/div/div/div/div/fieldset/a/img'
p755
F9.965784284662087
sS'/html/body/script'
p756
F9.965784284662087
sS'/html/body/div/div/div/div/div/form/ol/li/a/img'
p757
F6.158429362604484
sS'/html/body/p/link'
p758
F5.50635266602479
sS'/html/body/div/div/div/div/form/ol/li/div/div/div/div/div/fieldset/legend/img'
p759
F8.380821783940931
sS'/html/body/div/div/form/div/div/ol/li/div/div/div/div/form/div/div/ol/li/div/div/div/div/div/div/div'
p760
F9.965784284662087
sS'/html/body/div/div/div/div/div/div/div/div/ul/li/a/img'
p761
F4.643856189774724
sS'/html/body/div/div/div/div/ul/li/div/div/div/table/tr/td/span'
p762
F3.2243172982609405
sS'/html/body/div/div/ul/li/div/div/ul/li/div/div/a/img'
p763
F5.50635266602479
sS'/html/body/div/div/div/div/div/form/ol/li/div/div/label/span/span'
p764
F6.158429362604484
sS'/html/body/div/div/div/div/div/form/div/div/dl/dd/dl/dt/a'
p765
F7.965784284662087
sS'/html/body/div/div/div/div/div/div/div/div/div/blockquote/a'
p766
F7.158429362604482
sS'/html/body/div/div/ul/li/div/div/a'
p767
F8.380821783940931
sS'/html/body/div/div/form/div/div/div/div/span/a'
p768
F2.954557029238833
sS'/html/body/div/div/p/a'
p769
F5.878321443411747
sS'/html/body/div/div/div/div/div/ol/li/div/div/div/div/br'
p770
F9.965784284662087
sS'/html/body/div/form/div/div/p/strong'
p771
F9.965784284662087
sS'/html/body/div/div/ol/li/div/div/div/blockquote/div/b/a'
p772
F8.380821783940931
sS'/html/body/div/div/div/div/ul/li/div/div/div/ul/li/img'
p773
F4.011587974275212
sS'/html/body/div/div/div/div/div/div/ol/li/div/div/ul/li/a/img'
p774
F2.643856189774725
sS'/html/body/div/div/div/div/div/div/div/div/blockquote/font/b'
p775
F5.965784284662088
sS'/html/body/div/div/div/ol/li/ol/li/div/div/div/div/div/span'
p776
F5.50635266602479
sS'/html/body/div/div/form/div/div/ol/li/div/div/div/div/div/span/a'
p777
F2.954557029238833
sS'/html/body/div/div/ul/li/span'
p778
F0.13289427049734548
sS'/html/body/div/div/div/form/span/a/img'
p779
F4.965784284662088
sS'/html/body/div/div/ul/li/div/ul/li/div/div/br'
p780
F8.380821783940931
sS'/html/body/div/center/a'
p781
F6.965784284662088
sS'/html/body/div/div/div/div/div/div/div/div/div/blockquote/br'
p782
F5.643856189774724
sS'/html/body/div/div/form/div/div/ol/li/div/div/div/form/div'
p783
F9.965784284662087
sS'/html/body/div/div/div/div/div/form/ol/li/div/div/div/div/blockquote/b'
p784
F7.380821783940932
sS'/html/body/div/div/div/div/div/form/ol/li/div/div/div/div/blockquote'
p785
F8.380821783940931
sS'/html/body/div/ol/li/ol/li/dl/dt'
p786
F9.965784284662087
sS'/html/body/div/div/div/div/div/form/div/ol/li/div/div/blockquote/img'
p787
F8.965784284662087
sS'/html/body/div/div/div/ul/li/div/ul/li/i'
p788
F8.380821783940931
sS'/html/body/div/div/div/div/div/div/ul/li/div/div'
p789
F8.380821783940931
sS'/html/body/div/div/div/div/div/div/div/div/div/blockquote/font'
p790
F5.965784284662088
sS'/html/body/div/div/div/ul/li/div/ul/li/b'
p791
F8.380821783940931
sS'/html/body/div/div/div/div/div/div/form/span/a/img'
p792
F6.50635266602479
sS'/html/body/div/div/div/ul/li/div/ul/li/a'
p793
F8.380821783940931
sS'/html/body/div/div/div/div/div/div/form/ul/li/label/input'
p794
F6.50635266602479
sS'/html/body/rss/channel/item/encoded/i'
p795
F9.965784284662087
sS'/html/body/div/div/ul/li/div/div/img'
p796
F5.321928094887363
sS'/html/body/div/form/div/div/label'
p797
F6.795859283219775
sS'/html/body/div/div/div/div/div/div/ul/li/div/a'
p798
F5.321928094887363
sS'/html/body/div/table/tr/td/div/h2/a/img'
p799
F8.380821783940931
sS'/html/body/div/div/div/div/div/form/ol/li/div/div/div/ul/li'
p800
F6.158429362604484
sS'/html/body/div/div/div/table/tr/th/span'
p801
F4.965784284662088
sS'/html/body/div/div/div/table/tr/td/span/img'
p802
F4.965784284662088
sS'/html/body/div/div/div/ul/li/div/ul/li/u'
p803
F8.380821783940931
sS'/html/body/div/div/div/div/div/p'
p804
F5.50635266602479
sS'/html/body/div/form/div/div/h3'
p805
F9.965784284662087
sS'/html/body/rss/channel/item/encoded/b/font/font'
p806
F9.965784284662087
sS'/html/body/div/div/div/div/table/tbody/tr/td/a/i'
p807
F9.965784284662087
sS'/html/body/div/div/div/div/ul/li/div/div/img'
p808
F9.965784284662087
sS'/html/body/div/div/div/div/div/div/div/div/div'
p809
F3.107803289534515
sS'/html/body/div/div/div/div/div/h3/span'
p810
F2.279283757478869
sS'/html/body/div/div/div/div/div/div/h5'
p811
F1.207561069935362
sS'/html/body/div/div/div/div/div/div/div/div/ul/li/a'
p812
F2.0350469470992008
sS'/html/body/div/div/div/div/div/div/h2'
p813
F5.50635266602479
sS'/html/body/div/div/div/div/div/div/h1'
p814
F3.2515387669959646
sS'/html/body/div/table/tr/td/div/h2/div/div/strong'
p815
F8.380821783940931
sS'/html/body/div/div/div/div/form/script'
p816
F5.878321443411747
sS'/html/body/div/div/div/div/ul/li/a'
p817
F0.12815635149068239
sS'/html/body/div/div/div/div/div/div/div/div/div/div'
p818
F4.643856189774724
sS'/html/body/div/div/div/table/tr/td/a/img'
p819
F4.965784284662088
sS'/html/body/div/div/div/ul/li/div/img'
p820
F8.380821783940931
sS'/html/body/div/div/div/div/div/div/div/ul/li/div/div/a'
p821
F2.6711635357704604
sS'/html/body/div/div/div/script'
p822
F2.7563309190331373
sS'/html/body/div/div/div/div/h1/span/span/b'
p823
F1.8365012677171209
sS'/html/body/div/div/div/div/div/div/div/p/a'
p824
F2.7083964419694353
sS'/html/body/div/div/form/div/div/ol/li/div/div/div/div/div/ul/li/form/input'
p825
F9.965784284662087
sS'/html/body/div/div/div/div/div/img'
p826
F0.12973392960401722
sS'/html/body/div/div/div/div/div/div/div/div/div/blockquote/a/font/b/u'
p827
F8.380821783940931
sS'/html/body/div/div/div/div/div/div/div/div/div/blockquote/img'
p828
F6.158429362604484
sS'/html/body/div/div/div/div/div/div/ul/li/div/div/br'
p829
F8.380821783940931
sS'/html/body/div/div/form/div/div/ol/li/div/dl/dd/span'
p830
F2.954557029238833
sS'/html/body/div/div/div/div/div/div/div/div/script'
p831
F4.643856189774724
s.