(lp0
I72961
aI76076
aI74182
aI74032
aI67300
aI68053
aI70154
aI66520
aI75962
aI68403
aI62349
aI65533
aI70528
aI68351
aI73407
aI70365
aI87821
aI75122
aI70889
aI71259
aI59556
aI91652
aI70053
aI67563
aI84427
aI75100
aI44767
aI47441
aI27604
aI4168
aI3691
aI2310
aI3662
aI2902
aI7444
aI2599
aI3137
aI2331
aI4000
aI5243
aI4803
aI3826
aI7669
aI6164
aI4702
aI8740
aI4480
aI3257
aI11999
aI4379
aI51407
aI52154
aI49907
aI52528
aI54014
aI35957
aI31485
aI103370
aI51350
aI59458
aI37397
aI28798
aI28760
aI28625
aI28583
aI28991
aI28580
aI28594
aI28470
aI28524
aI118938
aI107207
aI28469
aI28370
aI28445
aI31812
aI97793
aI29843
aI88980
aI28234
aI28283
aI28540
aI28541
aI33577
aI28433
aI89323
aI28355
aI28347
aI28213
aI28487
aI28788
aI28298
aI28697
aI31448
aI42088
aI29402
aI31399
aI33446
aI28953
aI30215
aI32217
aI32137
aI30928
aI30156
aI35482
aI34257
aI35464
aI34107
aI34525
aI34239
aI35459
aI33721
aI33318
aI38129
aI42921
aI33908
aI35352
aI35568
aI34533
aI33276
aI34145
aI33753
aI33618
aI34366
aI34519
aI35212
aI37254
aI36388
aI35026
aI35763
aI35849
aI35322
aI34273
aI36321
aI37243
aI56689
aI36853
aI35422
aI35521
aI36139
aI37768
aI36763
aI33957
aI33372
aI34504
aI35526
aI34696
aI33539
aI35747
aI40647
aI69775
aI67130
aI67340
aI67654
aI68098
aI72233
aI70216
aI62993
aI75848
aI66074
aI68099
aI63660
aI70929
aI65344
aI59248
aI71120
aI68233
aI62534
aI62153
aI65681
aI68363
aI68174
aI64521
aI73398
aI70551
aI68278
aI123839
aI63295
aI75258
aI74520
aI72749
aI74983
aI66702
aI67205
aI68498
aI66717
aI63884
aI70390
aI71314
aI71818
aI72609
aI59720
aI69639
aI68832
aI76313
aI66684
aI74572
aI84774
aI86982
aI69530
aI70578
aI70313
aI73274
aI67629
aI85314
aI84898
aI85016
aI78888
aI78975
aI84536
aI77552
aI85259
aI85488
aI78201
aI84123
aI119314
aI115412
aI120487
aI163637
aI165098
aI87978
aI49690
aI85474
aI78011
aI84055
aI67130
aI67340
aI66899
aI67227
aI73559
aI70375
aI68615
aI74487
aI75282
aI75174
aI67556
aI69911
aI74077
aI78849
aI70977
aI74174
aI68098
aI67937
aI67779
aI68726
aI69628
aI69628
aI68435
aI65174
aI72212
aI67416
aI62495
aI62616
aI63270
aI73814
aI70584
aI75389
aI75588
aI75741
aI66095
aI66415
aI66268
aI65314
aI69031
aI66313
aI78000
aI72330
aI76016
aI84653
aI75358
aI76525
aI63775
aI69317
aI62524
aI69231
aI63096
aI71895
aI70935
aI70661
aI70791
aI70926
aI65541
aI63422
aI68190
aI70031
aI72191
aI62778
aI69894
aI68114
aI61527
aI69757
aI65420
aI66109
aI72379
aI65384
aI62961
aI61192
aI68702
aI62074
aI65872
aI77697
aI66112
aI72383
aI59248
aI67847
aI64796
aI68660
aI59305
aI69760
aI71120
aI72791
aI72458
aI72015
aI59392
aI67437
aI68437
aI68411
aI62151
aI64904
aI71125
aI64407
aI66403
aI56919
aI62602
aI62700
aI62535
aI62659
aI61540
aI62485
aI62262
aI60333
aI63823
aI63756
aI65603
aI65663
aI65841
aI56589
aI71394
aI72224
aI68169
aI68209
aI68371
aI68320
aI68619
aI68522
aI68174
aI73879
aI74199
aI73280
aI70551
aI70465
aI70440
aI128799
aI65539
aI99318
aI63295
aI69801
aI67576
aI73955
aI84667
aI74503
aI75927
aI75403
aI80991
aI74094
aI74857
aI75118
aI72641
aI68776
aI70579
aI70313
aI70552
aI70573
aI68033
aI71039
aI70758
aI71361
aI80246
aI73513
aI79088
aI71433
aI65541
aI59720
aI59457
aI59560
aI58247
aI66515
aI68307
aI69720
aI69342
aI85681
aI108542
aI62160
aI72177
aI76749
aI94590
aI66684
aI67320
aI67634
aI73053
aI94950
aI71253
aI89826
aI64451
aI71066
aI84774
aI84700
aI64872
aI69714
aI69639
aI69981
aI69909
aI82382
aI75035
aI69922
aI64661
aI38299
aI30848
aI30087
aI89656
aI88929
aI92566
aI89740
aI126122
aI88611
aI88834
aI90809
aI88959
aI172281
aI88592
aI84857
aI89319
aI88971
aI88899
aI125699
aI70637
aI85534
aI58016
aI88019
aI91884
aI87712
aI59210
aI54587
aI88172
aI125354
aI90601
aI87888
aI122734
aI170510
aI88659
aI129833
aI86418
aI85677
aI86851
aI82111
aI76876
aI88098
aI91062
aI89242
aI171611
aI87292
aI87527
aI88502
aI88803
aI88469
aI89181
aI88461
aI124714
aI88839
aI89057
aI89265
aI87771
aI84633
aI89105
aI87667
aI87828
aI88019
aI124215
aI92149
aI88170
aI89124
aI88851
aI88357
aI124370
aI90136
aI90501
aI88908
aI89722
aI88869
aI88173
aI89473
aI87850
aI90390
aI88791
aI172377
aI90317
aI88462
aI61426
aI89675
aI88693
aI88608
aI88783
aI85430
aI88706
aI90420
aI90132
aI79057
aI88932
aI171263
aI90362
aI92987
aI181874
aI87732
aI87524
aI90397
aI125590
aI171904
aI87181
aI89056
aI66426
aI88647
aI89257
aI90249
aI89985
aI125777
aI172159
aI88870
aI124272
aI88333
aI88797
aI90526
aI89977
aI175702
aI87795
aI88777
aI123579
aI91267
aI89309
aI89012
aI45359
aI89413
aI125228
aI88155
aI85311
aI90613
aI87864
aI89639
aI88709
aI170485
aI91613
aI88723
aI89534
aI88885
aI92471
aI92637
aI91705
aI90463
aI178874
aI87306
aI88717
aI88916
aI88588
aI89319
aI90071
aI89655
aI91590
aI90012
aI91029
aI90229
aI126906
aI88358
aI88250
aI53001
aI90066
aI88802
aI123001
aI57100
aI90289
aI88082
aI89644
aI90149
aI86530
aI86627
aI89795
aI171856
aI86760
aI90524
aI176947
aI87698
aI122206
aI167275
aI91323
aI87632
aI90433
aI88904
aI126405
aI82743
aI86636
aI87748
aI88603
aI89410
aI88553
aI123901
aI87402
aI89895
aI87825
aI123354
aI89191
aI87732
aI89377
aI87588
aI90395
aI90031
aI89364
aI88135
aI88506
aI89753
aI89592
aI86805
aI90946
aI88193
aI170045
aI87282
aI86854
aI88857
aI88494
aI87922
aI47940
aI54781
aI51159
aI50399
aI49143
aI48596
aI50947
aI48211
aI49433
aI72775
aI48369
aI51236
aI46024
aI49583
aI51319
aI48785
aI46592
aI48676
aI49192
aI49077
aI48544
aI73255
aI50590
aI50837
aI65518
aI62118
aI62173
aI41884
aI65594
aI45498
aI105061
aI39343
aI62101
aI45964
aI40199
aI126668
aI46807
aI98602
aI44751
aI95787
aI39441
aI39189
aI39585
aI91940
aI53214
aI45244
aI38873
aI98365
aI110691
aI45992
aI39512
aI91367
aI47645
aI104981
aI39107
aI95961
aI44193
aI47454
aI39443
aI50327
aI91320
aI44988
aI39009
aI99413
aI38101
aI45263
aI39668
aI44300
aI127556
aI127603
aI127313
aI100359
aI53241
aI65168
aI65158
aI65292
aI64657
aI64951
aI67622
aI50747
aI64323
aI149633
aI65918
aI65291
aI65375
aI101908
aI151552
aI65295
aI77255
aI70426
aI77431
aI77200
aI77346
aI31595
aI52222
aI35401
aI35788
aI31644
aI40820
aI50703
aI50749
aI43191
aI50767
aI67102
aI44954
aI55300
aI49622
aI50354
aI40388
aI40186
aI40452
aI48136
aI49387
aI48191
aI45251
aI45308
aI50697
aI53808
aI39874
aI36743
aI35416
aI58161
aI54247
aI45555
aI45652
aI55486
aI35397
aI45617
aI52204
aI37998
aI47737
aI47765
aI40649
aI45076
aI46167
aI40230
aI52176
aI38758
aI52199
aI56778
aI37839
aI39172
aI34019
aI53582
aI40357
aI42319
aI42132
aI47164
aI49033
aI39002
aI57335
aI43941
aI36341
aI36029
aI64458
aI58720
aI58738
aI58783
aI75017
aI80158
aI43727
aI44501
aI48880
aI41649
aI43151
aI43361
aI43198
aI43425
aI50609
aI40090
aI32286
aI36264
aI32350
aI42641
aI36128
aI34069
aI41603
aI37515
aI36996
aI37209
aI44281
aI33972
aI41717
aI36181
aI33865
aI35485
aI36100
aI41958
aI40939
aI42022
aI47812
aI36695
aI36292
aI36389
aI43930
aI40053
aI34631
aI31822
aI31639
aI31886
aI42605
aI36201
aI42579
aI40377
aI31695
aI30217
aI34555
aI30281
aI41426
aI43305
aI39706
aI39708
aI39770
aI50896
aI36647
aI35061
aI36711
aI44124
aI37686
aI35278
aI37750
aI49669
aI31704
aI37191
aI57217
aI45038
aI60446
aI47844
aI44998
aI41420
aI49308
aI54195
aI43778
aI58440
aI54288
aI54177
aI53834
aI53407
aI37031
aI55331
aI51726
aI56735
aI50069
aI52248
aI52076
aI47465
aI57772
aI57772
aI57461
aI43621
aI54179
aI47666
aI56971
aI51276
aI39606
aI35836
aI53702
aI43171
aI43593
aI50206
aI42041
aI50294
aI45667
aI42882
aI37577
aI37574
aI37641
aI44335
aI52614
aI46327
aI54223
aI48090
aI53412
aI65477
aI59977
aI59650
aI59691
aI79654
aI41263
aI40955
aI39868
aI26107
aI33008
aI33488
aI33074
aI34234
aI33507
aI33369
aI33657
aI33379
aI33404
aI33606
aI33771
aI33519
aI33309
aI33491
aI33406
aI33632
aI33597
aI33677
aI33622
aI33304
aI33334
aI33376
aI35710
aI32743
aI33868
aI34145
aI34049
aI33817
aI34390
aI34225
aI34620
aI34375
aI34132
aI34202
aI34369
aI34430
aI34425
aI34324
aI34489
aI34272
aI34062
aI34342
aI34337
aI34233
aI34318
aI34148
aI34529
aI34585
aI34484
aI34350
aI34315
aI34345
aI34395
aI34340
aI34218
aI34485
aI34057
aI34087
aI34420
aI34118
aI36428
aI34356
a.