(dp0
S'/html/body/div/div/div/div/div/div/div/div/div/a'
p1
F8.380821783940931
sS'/html/body/section/section/div/div/span'
p2
F6.643856189774725
sS'/html/body/div/div/div/div/div/div/div/div/a/img'
p3
F2.0528949484321255
sS'/html/body/div/div/div/div/div/div/div/div/div/i'
p4
F8.380821783940931
sS'/html/body/section/div/div/div/dl/dd/span/a/i'
p5
F6.643856189774725
sS'/html/body/div/div/div/div/div/div/p/br'
p6
F9.965784284662087
sS'/html/body/div/div/div/div/div/dl/dt/a'
p7
F2.7466157641999254
sS'/html/body/div/div/div/div/div/p/a'
p8
F4.411195432984449
sS'/html/body/div/div/div/div/div/p/b'
p9
F9.965784284662087
sS'/html/body/div/div/div/dl/dd/img'
p10
F2.139235797371172
sS'/html/body/section/section/article/p/a'
p11
F6.643856189774725
sS'/html/body/div/div/div/div/div/dl/dd/div/a/i'
p12
F0.8916428219095817
sS'/html/body/rss/channel/item/link'
p13
F7.965784284662087
sS'/html/body/div/div/div/i'
p14
F3.237863830098888
sS'/html/body/div/div/div/div/span/a/i'
p15
F0.6989977439671857
sS'/html/body/div/div/div/div/div/div/span/div/s/i'
p16
F0.6896598793878495
sS'/html/body/div/div/div/div/div/table/tbody/tr/th/span'
p17
F9.965784284662087
sS'/html/body/div/div/div/div/div/div/like'
p18
F0.6896598793878495
sS'/html/head/meta'
p19
F0.011587974275211823
sS'/html/body/div/div/div/div/dl/dd/span/a/i'
p20
F9.965784284662087
sS'/html/body/div/div/ul/li/a/i'
p21
F3.9434164716336326
sS'/html/body/div/div/div/div/div/dl/dt/div/p/strong/em'
p22
F9.965784284662087
sS'/html/body/rss/channel/generator'
p23
F6.965784284662088
sS'/html/body/div/div/div/div/div/dl/dt'
p24
F9.965784284662087
sS'/html/body/section/section/article/p'
p25
F6.965784284662088
sS'/html/body/div/div/div/div/p/i'
p26
F8.965784284662087
sS'/html/body/section/div/div/div/h2'
p27
F6.643856189774725
sS'/html/body/div/div/div/a/s/span'
p28
F0.7107557148433575
sS'/html/body/section/div/div/div/dl/dt/div/div/a/font'
p29
F6.965784284662088
sS'/html/body/div/div/div/div/div/dl/dd/span/span'
p30
F0.8916428219095817
sS'/html/body/div/div/div/div/div/table/tbody/tr/td/p'
p31
F9.965784284662087
sS'/html/body/rss/channel/image/url'
p32
F6.965784284662088
sS'/html/head/script'
p33
F0.011587974275211823
sS'/html/body/div/div/div/div/div/div/ul/li/span/strong'
p34
F9.965784284662087
sS'/html/body/div/div/div/div/div/p/br'
p35
F6.058893689053569
sS'/html/body/div/div/div/div/div/dl/dt/div/div/span/p'
p36
F6.795859283219775
sS'/html/body/div/div/div/div/a/i'
p37
F8.965784284662087
sS'/html/body/div/div/div/ul/li/div/s/s'
p38
F0.12500636106703258
sS'/html/body/div/div/div/ul/li/div/span/a/s/span'
p39
F4.9213901653036345
sS'/html/body/rss/channel/image/title'
p40
F6.965784284662088
sS'/html/body/div/div/div/ul/li/a/s/s'
p41
F0.12500636106703258
sS'/html/body/div/div/div/div/div/div/div/div/span'
p42
F1.7514651638613215
sS'/html/body/div/div/div/dl/dt/span'
p43
F3.2515387669959646
sS'/html/body/div/div/div/ul/li/div/span/a'
p44
F4.608232280044003
sS'/html/body/div/footer/div/div/div/a'
p45
F6.643856189774725
sS'/html/body/div/div/div/div/span/span/a'
p46
F0.6989977439671857
sS'/html/body/div/div/div/div/div/div/div/br'
p47
F4.011587974275212
sS'/html/body/div/div/div/ul/li/div/a'
p48
F0.12500636106703258
sS'/html/body/div/div/div/div/div/div/div/div/s/span'
p49
F2.089267338097087
sS'/html/body/div/div/div/div/dl/dt/a'
p50
F9.965784284662087
sS'/html/body/section/section/div/div/div'
p51
F6.643856189774725
sS'/html/body/div/div/div/div/div/div/div/div/span/a'
p52
F4.965784284662088
sS'/html/body/div/div/div/div/div/p/strong/font/span'
p53
F9.965784284662087
sS'/html/body/div/div/div/div/dl/dd/a'
p54
F9.965784284662087
sS'/html/body/div/div/div/div/div/p/a/strong/font'
p55
F8.965784284662087
sS'/html/body/div/div/div/div/div/dl/dt/div/span'
p56
F8.380821783940931
sS'/html/body/div/div/div/div/div/table/tbody/tr/td/span'
p57
F9.965784284662087
sS'/html/body/div/div/div/div/div/div/div/h3/span'
p58
F4.011587974275212
sS'/html/body/div/div/div/div/div/p/a/img'
p59
F9.965784284662087
sS'/html/body/div/div/div/div/div/dl/dt/div/p/u/strong'
p60
F9.965784284662087
sS'/html/body/div/div/div/div/div/dl/dt/div'
p61
F1.0350469470992008
sS'/html/body/div/div/div/div/div/div/p/strong'
p62
F9.965784284662087
sS'/html/body/rss/channel/item/description'
p63
F7.965784284662087
sS'/html/body/div/div/div/div/div/div/div/div/dl/dd'
p64
F9.965784284662087
sS'/html/body/div/div/div/div/div/div/div/div/dl/dt'
p65
F9.965784284662087
sS'/html/body/div/div/div/div/div/div/span'
p66
F0.6826959316380853
sS'/html/body/section/section/header/div/span'
p67
F6.643856189774725
sS'/html/body/div/div/div/div/div/dl/dd/span/a'
p68
F4.756330919033137
sS'/html/body/div/div/div/div/dl/dd/span/span'
p69
F9.965784284662087
sS'/html/body/div/div/div/div/div/p/img'
p70
F4.473931188332412
sS'/html/body/div/div/div/div/div/div/img'
p71
F7.965784284662087
sS'/html/body/div/div/div/div/div/dl/dt/div/div/p/strong'
p72
F7.965784284662087
sS'/html/body/div/div/div/h2/span'
p73
F6.058893689053569
sS'/html/body/div/div/div/div/div/p/span/a'
p74
F9.965784284662087
sS'/html/body/section/div/div/span'
p75
F6.643856189774725
sS'/html/body/div/div/div/div/div/div/div/i'
p76
F9.965784284662087
sS'/html/body/div/div/div/div/div/p/span/p'
p77
F8.965784284662087
sS'/html/body/div/div/div/div/div/div/div/b'
p78
F6.058893689053569
sS'/html/body/div/div/div/ul/li/div/a/i'
p79
F0.12500636106703258
sS'/html/body/div/div/div/div/div/div/div/a'
p80
F0.12186323337305249
sS'/html/body/div/div/div/div/dl/dt/a/p'
p81
F9.965784284662087
sS'/html/body/noscript/img'
p82
F0.7734914701913203
sS'/html/body/div/div/div/a'
p83
F2.4035418604410146
sS'/html/body/div/div/div/dl/dt/div/span'
p84
F7.965784284662087
sS'/html/body/div/div/div/div/div/p/strong/span'
p85
F7.380821783940932
sS'/html/body/div/div/div/div/div/div/div/h3/div'
p86
F4.011587974275212
sS'/html/body/div/div/div/div/div/div/ul/li'
p87
F9.965784284662087
sS'/html/body/div/div/div/div/div/p/span'
p88
F3.680382065799839
sS'/html/body/div/div/ul/li/div/a/i'
p89
F3.9434164716336326
sS'/html/body/div/div/div/div/div/div/div/span/a'
p90
F2.0954195650786827
sS'/html/body/div/div/div/div/div/div/div'
p91
F0.545824106814198
sS'/html/body/div/div/div/div/div/a/i'
p92
F0.6850135145314844
sS'/html/body/div/div/div/div/div/div/div/div/br'
p93
F4.011587974275212
sS'/html/body/div/div/div/div'
p94
F9.965784284662087
sS'/html/head/noscript/link'
p95
F6.643856189774725
sS'/html/body/div/div/div/div/div/div/h3/a'
p96
F4.608232280044003
sS'/html/body/div/div/div/div/div/div/h2/i'
p97
F8.965784284662087
sS'/html/body/div/div/div/div/ul/li/a'
p98
F0.5542732966500159
sS'/html/body/div/div/div/div/div/ul/li/div/a'
p99
F1.7661119398257226
sS'/html/body/div/div/div/div/div/div/div/div/s/i'
p100
F2.089267338097087
sS'/html/body/div/div/div/div/div/dl/dt/div/a/img'
p101
F8.380821783940931
sS'/html/body/div/div/div/div/div/div/script'
p102
F0.5713215900517701
sS'/html/body/div/div/div/ul/li/div/span/a/i'
p103
F4.608232280044003
sS'/html/body/div/div/div/div/div/dl/dt/div/p/a/img'
p104
F6.50635266602479
sS'/html/body/div/div/div/div/div/span/span'
p105
F0.6896598793878495
sS'/html/body/div/div/div/div/div/div/p'
p106
F3.899695094204315
sS'/html/body/div/div/div/div/div/div/i'
p107
F3.3219280948873626
sS'/html/body/div/div/div/div/div/div/a'
p108
F0.6780719051126378
sS'/html/body/div/div/div/div/div/dl/dt/div/p/em'
p109
F9.965784284662087
sS'/html/body/div/div/div/div/ul/li/h4/a'
p110
F0.6989977439671857
sS'/html/body/div/div/div/div/dl/dd/a/img'
p111
F9.965784284662087
sS'/html/body/div/div/div/div/div/dl/dd/span/span/a/i'
p112
F4.795859283219775
sS'/html/body/div/div/div/div/div/div/div/span'
p113
F5.158429362604483
sS'/html/body/div/div/div/div/div/dl/dt/div/div/p'
p114
F2.2584251525812045
sS'/html/body/div/div/div/ul/li/div/span/span/a'
p115
F4.608232280044003
sS'/html/body/div/div/div/div/div/h2'
p116
F1.7759597257820698
sS'/html/body/div/div/div/div/div/dl/dt/div/div/a'
p117
F1.6850135145314844
sS'/html/body/div/div/div/div/div/dl/dd/span'
p118
F0.8916428219095817
sS'/html/body/div/div/div/div/div/dl/dt/div/p/span'
p119
F5.965784284662088
sS'/html/body/section/div/div/ul/li/a/h4'
p120
F6.643856189774725
sS'/html/body/div/b'
p121
F4.158429362604483
sS'/html/body/div/div/div/div/h2/span'
p122
F6.058893689053569
sS'/html/body/div/div/div/div/div/div/div/input'
p123
F0.5479317697761893
sS'/html/head/link'
p124
F0.011587974275211823
sS'/html/body/div/div/div/ul/li/div/span'
p125
F4.608232280044003
sS'/html/body/section/div/div/div/span'
p126
F8.965784284662087
sS'/html/body/div/div/div/div/div/div/div/div/div/div/div/span'
p127
F9.965784284662087
sS'/html/body/div/div/div/ul/li/script'
p128
F8.965784284662087
sS'/html/body/div/div/div/dl/dd/a/span'
p129
F7.965784284662087
sS'/html/body/div/div/div/div/div/dl/dt/div/div/p/span'
p130
F9.965784284662087
sS'/html/body/div/div/div/div/div/div/ul/li/a/img'
p131
F4.237863830098888
sS'/html/body/div/footer/div/div/a/i'
p132
F6.643856189774725
sS'/html/body/section/div/ul/li/a/div/div'
p133
F6.643856189774725
sS'/html/body/img'
p134
F0.6850135145314844
sS'/html/body/div/div/div/div/div/span'
p135
F0.12658049656514322
sS'/html/body/div/div/div/div/div/div/span/span'
p136
F2.1909972250609138
sS'/html/body/div/div/div/div/div/p/a/i'
p137
F8.965784284662087
sS'/html/body/div/div/div/div/div/div/div/div'
p138
F9.965784284662087
sS'/html/body/div/div/div/div/div/p/strike/span'
p139
F9.965784284662087
sS'/html/body/section/div/ul/li/a/div/div/div/div/i'
p140
F6.643856189774725
sS'/html/body/div/div/div/div/div/dl/dt/div/p/a'
p141
F4.50635266602479
sS'/html/body/div/div/div/div/div/div/p/a/img'
p142
F8.380821783940931
sS'/html/body/div/div/div/div/div/div/div/div/a/s/span'
p143
F2.0954195650786827
sS'/html/body/div/div/div/dl/dd/div/span'
p144
F7.380821783940932
sS'/html/body/div/div/div/div/div/div/div/div/p/a'
p145
F7.158429362604482
sS'/html/body/div/div/i'
p146
F3.9434164716336326
sS'/html/body/div/div/div/div/dl/dt/a/br'
p147
F9.965784284662087
sS'/html/body/div/div/a'
p148
F0.024736678321506545
sS'/html/body/style'
p149
F4.237863830098888
sS'/html/body/div/div/div/div/div/div/textarea'
p150
F0.6850135145314844
sS'/html/body/div/div/div/div/b'
p151
F3.0588936890535687
sS'/html/body/div/div/div/div/div/div/span/div/s/span'
p152
F0.6896598793878495
sS'/html/body/div/div/div/div/a'
p153
F0.5929192245494993
sS'/html/body/div/div/div/div/i'
p154
F1.7661119398257226
sS'/html/body/div/div/div/div/ul'
p155
F0.6989977439671857
sS'/html/body/div/div/div/div/div/dl/dt/div/p/strong'
p156
F4.795859283219775
sS'/html/body/div/div/script'
p157
F0.6896598793878495
sS'/html/body/div/div/div/div/div/div/div/div/a/s/i'
p158
F2.0954195650786827
sS'/html/body/div/div/div/div/div/h2/span'
p159
F0.8916428219095817
sS'/html/body/div/div/div/dl/dd/span/i'
p160
F3.2515387669959646
sS'/html/body/div/div/div/div/div/div/p/a'
p161
F3.9434164716336326
sS'/html/body/div/div/div/dl/dd/span/a'
p162
F3.197599959885161
sS'/html/body/section/section/article/p/strong/a'
p163
F8.965784284662087
sS'/html/body/div/div/div/div/div/div/s/i'
p164
F6.965784284662088
sS'/html/body/div/div/div/div/div/div/p/u'
p165
F9.965784284662087
sS'/html/body/div/div/div/div/h3/i'
p166
F8.965784284662087
sS'/html/body/div/div/ul/li/a/s'
p167
F3.9434164716336326
sS'/html/body/div/div/h2'
p168
F9.965784284662087
sS'/html/body/div/div/div/h1'
p169
F0.6989977439671857
sS'/html/body/div/div/div/div/h2/i'
p170
F9.965784284662087
sS'/html/body/div/div/div/div/div/dl/dt/div/div/span/p/em'
p171
F9.965784284662087
sS'/html/body/div/div/div/div/div/h4/span/em'
p172
F8.380821783940931
sS'/html/body/div/div/div/div/div/div'
p173
F0.5479317697761893
sS'/html/body/div/div/div/div/div/div/p/span/img'
p174
F9.965784284662087
sS'/html/body/div/div/div/div/div/div/ul/li/p'
p175
F9.965784284662087
sS'/html/body/div/div/div/div/h4'
p176
F3.0588936890535687
sS'/html/body/div/div/div/div/h2'
p177
F0.5864059175908248
sS'/html/body/div/div/div/div/div/dl/dt/div/ul/li'
p178
F7.965784284662087
sS'/html/body/div/div/div/div/div/div/ul/li/a'
p179
F9.965784284662087
sS'/html/body/div/div/div/ul/li/a'
p180
F0.02620507034739392
sS'/html/body/div/footer/div/p'
p181
F6.643856189774725
sS'/html/body/div/div/div/div/div/p/span/img'
p182
F8.380821783940931
sS'/html/body/div/div/div/div/div/div/p/span'
p183
F8.380821783940931
sS'/html/body/div/div/div/div/div/dl/dt/div/br'
p184
F3.6259342817774622
sS'/html/body/div/div/div/dl/dd/div/ul/li/a'
p185
F3.0588936890535687
sS'/html/body/section/div/div/div'
p186
F6.643856189774725
sS'/html/body/div/div/div/div/ul/li/div/a'
p187
F3.9434164716336326
sS'/html/body/section/section/div/div/strong'
p188
F6.643856189774725
sS'/html/body/div/nav/div/a'
p189
F6.643856189774725
sS'/html/body/div/div/div/a/i'
p190
F2.77595972578207
sS'/html/body/div/div/div/div/div/ul/script'
p191
F8.380821783940931
sS'/html/body/div/div/div/div/div/div/div/div/h4'
p192
F8.380821783940931
sS'/html/body/div/div/div/div/span'
p193
F2.965784284662087
sS'/html/body/rss/channel/lastbuilddate'
p194
F6.965784284662088
sS'/html/body/div/div/div/div/div/div/s/span'
p195
F9.965784284662087
sS'/html/body/div/div/div/dl/dt/h2'
p196
F8.965784284662087
sS'/html/body/section/div/div/a'
p197
F6.643856189774725
sS'/html/script'
p198
F0.12500636106703258
sS'/html/body/section/section/div/a'
p199
F6.643856189774725
sS'/html/body/div/div/div/div/div/div/h2/a'
p200
F8.965784284662087
sS'/html/body/div/div/div/dl/dt'
p201
F3.0588936890535687
sS'/html/body/div/div/div/dl/dt/div/img'
p202
F8.380821783940931
sS'/html/body/div/div/div/dl/dd'
p203
F3.3219280948873626
sS'/html/body/div/div/div/br'
p204
F9.965784284662087
sS'/html/body/div/img'
p205
F6.643856189774725
sS'/html/body/div/div/div/dl/dd/br'
p206
F9.965784284662087
sS'/html/body/div/div/div/div/div/div/div/div/span/span/a'
p207
F9.965784284662087
sS'/html/body/div/div/div/div/div/div/div/img'
p208
F4.011587974275212
sS'/html/body/div/div/div/div/div/ul/li'
p209
F1.7661119398257226
sS'/html/body/div/div/div/ul/li/div/dl/dd/a/img'
p210
F9.965784284662087
sS'/html/body/section/div/div/ul/li/a/div/div/i'
p211
F6.643856189774725
sS'/html/body/div/div/div/div/a/img'
p212
F1.7661119398257226
sS'/html/body/div/div/div/div/p/a/img'
p213
F0.6850135145314844
sS'/html/body/div/div/div/ul/li/div/span/a/s/i'
p214
F4.9213901653036345
sS'/html/body/div/div/div/div/div/dl/dt/div/ul/li/p/span'
p215
F9.965784284662087
sS'/html/body/div/div/div/div/p/a'
p216
F6.380821783940931
sS'/html/body/rss/channel/link'
p217
F6.965784284662088
sS'/html/body/div/div/div/div/div/div/span/a/s/span'
p218
F0.6896598793878495
sS'/html/body/div/div/div/ul/li/a/i'
p219
F0.12500636106703258
sS'/html/body/div/div/div/div/div/table/tbody/tr/td'
p220
F9.965784284662087
sS'/html/body/div/div/div/div/div/table/tbody/tr/th'
p221
F9.965784284662087
sS'/html/body/section/section/header/div/span/span'
p222
F6.643856189774725
sS'/html/body/section/div/div/div/dl/dd/span/a'
p223
F6.643856189774725
sS'/html/body/div/div/ul/li/a'
p224
F3.9434164716336326
sS'/html/body/div/div/div/div/div/div/span/a'
p225
F7.158429362604482
sS'/html/body/div/div/div/div/div/ul/li/a'
p226
F1.477944250839036
sS'/html/body/section/div/div/div/dl/dt/div/div'
p227
F6.965784284662088
sS'/html/body/div/div/div/ul'
p228
F8.965784284662087
sS'/html/body/div/div/div/div/div/div/br'
p229
F5.380821783940931
sS'/html/body/div/div/div/div/div/dl/dd/a/img'
p230
F0.7958592832197748
sS'/html/body/div/div/div/div/div/div/a/i'
p231
F2.0954195650786827
sS'/html/body/div/div/div/div/div/p/a/strong'
p232
F9.965784284662087
sS'/html/body/div/div/div/div/div/table/tbody/tr/td/p/span'
p233
F9.965784284662087
sS'/html/body/div/div/div/div/div/p/strong'
p234
F4.473931188332412
sS'/html/body/section/section/header/div/span/i'
p235
F6.643856189774725
sS'/html/body/div/div/div/div/div/dl/dd/span/a/i'
p236
F4.795859283219775
sS'/html/body/rss/channel/image/description'
p237
F6.965784284662088
sS'/html/body/div/div/div/div/div/dl/dt/div/ul/li/p'
p238
F7.965784284662087
sS'/html/body/div/div/div/div/div/p/strong/a'
p239
F9.965784284662087
sS'/html/body/section/div/div/div/a'
p240
F6.965784284662088
sS'/html/body/div/div/div/ul/li/div/dl/dd'
p241
F9.965784284662087
sS'/html/body/div/div/div/div/div/div/div/div/dl/dd/a/img'
p242
F9.965784284662087
sS'/html/body/div/div/div/div/div/span/a'
p243
F6.965784284662088
sS'/html/body/div/div/span'
p244
F0.6850135145314844
sS'/html/body/section/div/div/div/dl/dd/span'
p245
F6.643856189774725
sS'/html/body/div/div/div/dl/dd/span'
p246
F3.197599959885161
sS'/html/body/div/div/div/div/div/dl/dt/div/p'
p247
F1.0923401721467105
sS'/html/body/div/div/div/div/div/a/img'
p248
F7.643856189774724
sS'/html/body/div/div/ul/li'
p249
F3.9434164716336326
sS'/html/body/rss/channel/item/title'
p250
F7.965784284662087
sS'/html/body/div/div/div/div/div/dl/dt/div/a'
p251
F6.965784284662088
sS'/html/body/section/div/ul/li/a/div/div/div/div/span'
p252
F6.643856189774725
sS'/html/body/div/div/div/div/div/input'
p253
F0.03209362970985334
sS'/html/body/div/div/div/div/div/p/span/strong'
p254
F9.965784284662087
sS'/html/body/rss/channel/title'
p255
F6.965784284662088
sS'/html/body/div/div/div/div/div/div/span/a/s/i'
p256
F0.6896598793878495
sS'/html/body/div/div/div/h2'
p257
F4.351074440546879
sS'/html/body/div/div/div/div/div/dl/dt/div/div/p/a/img'
p258
F9.965784284662087
sS'/html/body/div/div/label/input'
p259
F0.6826959316380853
sS'/html/body/section/div/div/h2'
p260
F6.643856189774725
sS'/html/body/section/section/header/h1'
p261
F6.643856189774725
sS'/html/body/div/div/div/div/div/div/div/div/p'
p262
F7.158429362604482
sS'/html/body/div/div/div/div/div/dl/dt/div/div/span'
p263
F6.643856189774725
sS'/html/body/div/div/div/div/div/h4/span/a'
p264
F8.380821783940931
sS'/html/body/div/div/div/div/div/div/div/div/a'
p265
F2.0954195650786827
sS'/html/body/div/div/div'
p266
F0.02620507034739392
sS'/html/body/div/div/div/div/div/dl/dt/div/div/a/s'
p267
F5.573466861883327
sS'/html/body/div/div/div/div/div/div/div/div/i'
p268
F8.380821783940931
sS'/html/body/div/div/div/span'
p269
F0.3346072289581087
sS'/html/body/div/div/div/div/div/p/strong/span/img'
p270
F9.965784284662087
sS'/html/body/div/div/div/div/div/p/strong/img'
p271
F8.965784284662087
sS'/html/body/div/div/div/a/span'
p272
F0.48196850739783065
sS'/html/body/div/div/div/div/div/dl/dt/div/strong'
p273
F9.965784284662087
sS'/html/body/div/div/div/div/div/script'
p274
F4.237863830098888
sS'/html/body/rss/channel/image/link'
p275
F6.965784284662088
sS'/html/body/div/div'
p276
F7.643856189774724
sS'/html/body/div/div/a/img'
p277
F0.5395195299599891
sS'/html/body/div/div/div/div/div/div/p/img'
p278
F9.965784284662087
sS'/html/body/div/div/div/div/div/p/span/span'
p279
F9.965784284662087
sS'/html/body/section/section/article/a/img'
p280
F6.643856189774725
sS'/html/body/div'
p281
F4.158429362604483
sS'/html/body/div/div/div/div/ul/li/p/a/img'
p282
F0.6989977439671857
sS'/html/body/div/div/div/div/div/dl/dt/div/div'
p283
F2.2042330522176075
sS'/html/body/section/div/div/textarea'
p284
F6.643856189774725
sS'/html/body/section/div/div/ul/li/a/div/div/span'
p285
F6.643856189774725
sS'/html/body/div/div/div/div/ul/li/a/s'
p286
F3.9434164716336326
sS'/html/body/div/div/div/div/div/dl/dt/div/p/a/strong'
p287
F8.965784284662087
sS'/html/body/div/div/div/div/div/dl/dd/div/span'
p288
F0.8916428219095817
sS'/html/body/div/div/div/div/ul/li/span'
p289
F0.6989977439671857
sS'/html/body/div/div/div/div/div/dl/dt/div/div/a/span'
p290
F5.573466861883327
sS'/html/body/div/div/input'
p291
F0.6826959316380853
sS'/html/body/div/div/div/ul/li/div/dl/dt/h4/a'
p292
F9.965784284662087
sS'/html/body/div/div/div/div/div/div/ul'
p293
F9.965784284662087
sS'/html/body/div/div/div/dl/dd/div/ul/li'
p294
F3.0588936890535687
sS'/html/body/div/div/div/div/div/div/a/img'
p295
F6.643856189774725
sS'/html/body/div/div/div/div/a/span'
p296
F3.0588936890535687
sS'/html/body/div/div/div/div/div/div/div/div/dl/dd/a'
p297
F9.965784284662087
sS'/html/body/div/div/div/dl/dd/a/img'
p298
F7.965784284662087
sS'/html/head/title'
p299
F0.011587974275211823
sS'/html/body/div/div/div/div/div/a'
p300
F4.083141235300245
sS'/html/body/div/div/div/div/ul/li'
p301
F3.9434164716336326
sS'/html/body/div/div/div/ul/li/div/a/s/span'
p302
F4.608232280044003
sS'/html/body/rss/channel/description'
p303
F6.965784284662088
sS'/html/body/div/div/div/div/span/a/span'
p304
F0.6989977439671857
sS'/html/body/div/div/div/div/div/div/ul/li/span/a'
p305
F4.293358942690592
sS'/html/body/div/div/div/div/dl/dd/span/a'
p306
F9.965784284662087
sS'/html/body/section/div/div/div/dl/dt/div/span'
p307
F6.643856189774725
sS'/html/body/div/footer/div/div/p'
p308
F6.643856189774725
sS'/html/body/section/script'
p309
F6.643856189774725
sS'/html/body/section/section/div/div/div/a'
p310
F6.643856189774725
sS'/html/body/div/div/div/div/div/dl/dt/div/p/strong/a'
p311
F4.573466861883327
sS'/html/body/div/div/div/div/div/h3/a'
p312
F8.965784284662087
sS'/html/body/div/div/div/div/div/dl/dt/div/div/br'
p313
F6.265344566520995
sS'/html/body/div/div/div/div/script'
p314
F2.15200309344505
sS'/html/body/div/footer/div/div/a'
p315
F6.643856189774725
sS'/html/body/div/div/div/div/div/div/a/span'
p316
F2.0954195650786827
sS'/html/body/div/div/div/div/div/style'
p317
F9.965784284662087
sS'/html/body/div/div/div/div/div/dl/dt/div/p/strong/u'
p318
F8.965784284662087
sS'/html/body/section/div/ul/li/a/div/div/h3'
p319
F6.643856189774725
sS'/html/body/div/div/div/div/div/dl/dd/a'
p320
F0.7958592832197748
sS'/html/body/section/section/div/div/i'
p321
F6.643856189774725
sS'/html/body/div/div/div/ul/li'
p322
F0.12500636106703258
sS'/html/body/section/div/div/div/dl/dt/div/div/a'
p323
F9.965784284662087
sS'/html/body/link'
p324
F6.643856189774725
sS'/html/body/script'
p325
F0.024736678321506545
sS'/html/body/div/div/div/div/div/h4/a'
p326
F9.965784284662087
sS'/html/body/div/div/div/div/div/p/font/span'
p327
F9.965784284662087
sS'/html/body/div/div/div/div/div/h4/i'
p328
F9.965784284662087
sS'/html/body/div/div/div/div/div'
p329
F1.4941090702700424
sS'/html/body/div/div/div/div/div/div/ul/br'
p330
F4.680382065799838
sS'/html/body/div/div/div/a/s/i'
p331
F0.7107557148433575
sS'/html/body/div/div/div/div/div/dl/dt/div/div/ul/li/p'
p332
F9.965784284662087
sS'/html/body/div/div/div/ul/li/div/a/s/i'
p333
F4.608232280044003
sS'/html/body/section/div/div/div/dl/dd/span/a/span'
p334
F6.643856189774725
sS'/html/body/div/div/div/div/div/div/span/a/p'
p335
F7.158429362604482
sS'/html/body/div/div/div/div/div/div/div/a/i'
p336
F2.0954195650786827
sS'/html/body/div/div/div/div/div/p'
p337
F0.7466157641999255
sS'/html/body/rss/channel/item/pubdate'
p338
F7.965784284662087
sS'/html/body/div/div/div/div/div/p/a/span'
p339
F7.965784284662087
sS'/html/body/div/div/div/div/div/div/h4'
p340
F8.965784284662087
sS'/html/body/div/div/div/div/div/div/h3'
p341
F4.473931188332412
sS'/html/body/div/div/div/div/div/dl/dt/div/div/span/br'
p342
F8.380821783940931
sS'/html/body/section/div/a'
p343
F6.643856189774725
sS'/html/body/div/div/div/div/div/div/div/div/div/div/div/div/div/span'
p344
F8.380821783940931
sS'/html/body/div/div/div/script'
p345
F0.48196850739783065
sS'/html/body/div/div/div/div/div/img'
p346
F0.7013416844354847
sS'/html/body/div/div/div/ul/li/div/h4/a'
p347
F4.608232280044003
sS'/html/body/div/div/div/div/ul/li/div/s/s'
p348
F3.9434164716336326
sS'/html/body/div/div/div/div/div/div/span/div/a'
p349
F0.6896598793878495
s.