(dp0
S'/html/body/div/div/div/div/div/div/p/span'
p1
F8.965784284662087
sS'/html/body/section/script'
p2
F5.795859283219775
sS'/html/body/div/div/div/div/div/div/div/div/p'
p3
F6.965784284662088
sS'/html/body/div/div/div/div/div/dl/dt/div/br'
p4
F3.878321443411748
sS'/html/body/section/div/div/div/a'
p5
F5.965784284662088
sS'/html/body/section/section/div/div/span'
p6
F5.795859283219775
sS'/html/body/div/div/div/div/div/div/script'
p7
F0.6483716708972177
sS'/html/body/div/div/div/div/div/div/div/div/a/img'
p8
F1.9434164716336328
sS'/html/body/section/div/div/ul/li/a/div/div/span'
p9
F5.795859283219775
sS'/html/body/div/div/div/div/div/div/div/div/div/i'
p10
F7.965784284662087
sS'/html/body/section/section/div/div/div/a'
p11
F5.795859283219775
sS'/html/body/div/div/div/dl/dd/div/ul/li/a'
p12
F3.011587974275212
sS'/html/body/section/div/div/div/dl/dd/span/a/i'
p13
F5.795859283219775
sS'/html/body/div/div/div/ul/li/div/a'
p14
F0.11716134423274915
sS'/html/body/div/div/div/div/div/dl/dt/div/p/a/img'
p15
F6.380821783940931
sS'/html/body/div/div/div'
p16
F0.04097178105630611
sS'/html/body/div/div/div/div/div/dl/dt/div/div/a/s'
p17
F5.965784284662088
sS'/html/body/div/div/div/div/div/p/a'
p18
F4.878321443411748
sS'/html/body/div/div/div/div/div/span/span'
p19
F0.7563309190331374
sS'/html/body/div/div/div/div/div/div/div/div/i'
p20
F7.965784284662087
sS'/html/body/div/div/div/span'
p21
F0.33278908751912917
sS'/html/body/div/div/div/div/div/p/strong/span/img'
p22
F8.965784284662087
sS'/html/body/div/div/div/ul/li/a'
p23
F0.04097178105630611
sS'/html/body/section/section/div/div/strong'
p24
F5.795859283219775
sS'/html/body/div/div/div/ul/li/div/dl/dd/a/img'
p25
F8.965784284662087
sS'/html/body/div/div/div/dl/dd/img'
p26
F2.0954195650786827
sS'/html/body/section/div/div/div/dl/dd/span/a'
p27
F5.795859283219775
sS'/html/body/div/div/div/div/div/div/div/div/s/span'
p28
F1.9770995978899213
sS'/html/body/div/div/div/div/div/div/p'
p29
F3.9657842846620874
sS'/html/body/div/div/div/a/span'
p30
F0.5269924320838261
sS'/html/body/div/div/div/div/div/dl/dt/div/strong'
p31
F8.965784284662087
sS'/html/body/div/div/div/div/div/p/a/span'
p32
F7.380821783940932
sS'/html/body/div/div/div/a/i'
p33
F2.6082322800440036
sS'/html/body/section/section/article/p/a'
p34
F5.795859283219775
sS'/html/body/div/div/div/div/div/script'
p35
F4.442222328605075
sS'/html/body/div/div/div/div/div/div/div/div/s/i'
p36
F1.9770995978899213
sS'/html/body/div/div/h2'
p37
F8.965784284662087
sS'/html/body/rss/channel/image/link'
p38
F6.643856189774725
sS'/html/body/div/div/div/div/div/div/a'
p39
F0.7417826104639821
sS'/html/body/div/div/div/div/div/dl/dd/div/a/i'
p40
F1.0954195650786824
sS'/html/body/rss/channel/item/link'
p41
F7.380821783940932
sS'/html/body/div/div/div/div/div/dl/dt/div/div/p/strong'
p42
F7.965784284662087
sS'/html/body/div/div'
p43
F8.965784284662087
sS'/html/body/div/div/div/div/div/div/span/div/s/span'
p44
F0.7563309190331374
sS'/html/body/div/div/div/div/span/a/i'
p45
F0.7661119398257227
sS'/html/body/rss/channel/lastbuilddate'
p46
F6.643856189774725
sS'/html/body/div/div/div/div/div/p/span/img'
p47
F7.380821783940932
sS'/html/body/div/div/a/img'
p48
F0.6348674065474701
sS'/html/body/div/div/div/div/div/dl/dt/div/p/strong'
p49
F4.965784284662088
sS'/html/body/div/div/div/i'
p50
F3.184424571137428
sS'/html/body/div/div/div/div/a'
p51
F0.6126374591640045
sS'/html/body/div/div/div/div/ul/li/h4/a'
p52
F0.7661119398257227
sS'/html/body/div/div/div/div/dl/dd/a/img'
p53
F8.965784284662087
sS'/html/body/div/div/div/div/div/div/span/a/s/i'
p54
F0.7563309190331374
sS'/html/body/div/div/div/div/div/dl/dd/span/a/i'
p55
F4.158429362604483
sS'/html/body/div/div/div/div/div/div/like'
p56
F0.7563309190331374
sS'/html/head/meta'
p57
F0.01449956969511517
sS'/html/body/div/div/div/dl/dt/h2'
p58
F8.965784284662087
sS'/html/body/div/div/div/ul/li/div/span/a/i'
p59
F4.158429362604483
sS'/html/body/div/div/div/div/div/div/div'
p60
F0.6348674065474701
sS'/html/body/div/div/div/div/div/dl/dd/span/span/a/i'
p61
F4.158429362604483
sS'/html/body/div/div/div/div/div/p/span/span'
p62
F8.965784284662087
sS'/html/body/section/div/div/a'
p63
F5.795859283219775
sS'/html/body/section/section/article/a/img'
p64
F5.795859283219775
sS'/html/body/div'
p65
F4.442222328605075
sS'/html/body/div/div/div/div/div/dl/dt/div/div/p'
p66
F2.4900508536956893
sS'/html/body/div/div/div/div/ul/li/p/a/img'
p67
F0.7661119398257227
sS'/html/script'
p68
F0.11716134423274915
sS'/html/body/div/div/div/div/div/div/div/div/a'
p69
F1.9885043611621704
sS'/html/body/div/div/div/div/div/span'
p70
F0.11716134423274915
sS'/html/body/div/div/div/div/i'
p71
F1.6082322800440034
sS'/html/body/div/div/div/ul/li/div/span/span/a'
p72
F4.158429362604483
sS'/html/body/div/div/div/div/div/dl/dt/div/div'
p73
F2.265344566520995
sS'/html/body/section/div/div/textarea'
p74
F5.795859283219775
sS'/html/body/div/div/div/div/div/h2'
p75
F1.9213901653036336
sS'/html/body/div/div/div/div/div/dl/dt/div/div/a'
p76
F1.8262329322632935
sS'/html/body/div/div/ul/li/a/i'
p77
F4.321928094887363
sS'/html/body/div/div/div/div/div/dl/dt/div/p/strong/em'
p78
F8.965784284662087
sS'/html/body/div/div/div/br'
p79
F8.965784284662087
sS'/html/body/div/div/div/div/div/dl/dt/div/p/a/strong'
p80
F8.965784284662087
sS'/html/body/div/div/div/div/div/div/a/span'
p81
F1.9885043611621704
sS'/html/body/div/div/div/div/div/div/span/a'
p82
F6.643856189774725
sS'/html/body/div/div/div/div/div/dl/dd/span'
p83
F1.0954195650786824
sS'/html/body/div/div/div/div/div/dl/dt/a'
p84
F2.736965594166206
sS'/html/body/div/div/div/div/div/div/div/span'
p85
F4.50635266602479
sS'/html/body/rss/channel/generator'
p86
F6.643856189774725
sS'/html/body/div/div/div/div/div/dl/dd/div/span'
p87
F1.0954195650786824
sS'/html/body/div/div/div/div/ul/li/span'
p88
F0.7417826104639821
sS'/html/body/div/div/div/div/div/dl/dt/div/div/a/span'
p89
F5.965784284662088
sS'/html/body/div/div/div/div/div/dl/dt/div/p/span'
p90
F5.965784284662088
sS'/html/body/section/div/div/ul/li/a/h4'
p91
F5.795859283219775
sS'/html/body/div/div/div/a/s/span'
p92
F0.7710274302398393
sS'/html/body/section/div/div/div/dl/dt/div/div/a/font'
p93
F5.965784284662088
sS'/html/body/div/div/div/div/div/dl/dd/span/span'
p94
F1.0954195650786824
sS'/html/body/div/div/input'
p95
F0.7514651638613213
sS'/html/body/div/b'
p96
F4.442222328605075
sS'/html/body/div/div/div/div/h2/span'
p97
F5.265344566520995
sS'/html/body/rss/channel/image/url'
p98
F6.643856189774725
sS'/html/body/div/div/div/div/ul/li/div/a'
p99
F4.321928094887363
sS'/html/head/script'
p100
F0.01449956969511517
sS'/html/body/div/div/div/ul/li/div/dl/dt/h4/a'
p101
F8.965784284662087
sS'/html/body/div/div/div/dl/dd/div/ul/li'
p102
F3.011587974275212
sS'/html/body/div/div/div/dl/dd/br'
p103
F8.965784284662087
sS'/html/body/div/div/div/div/div/p/img'
p104
F4.210896782498619
sS'/html/body/div/div/div/div/div/div/div/input'
p105
F0.6348674065474701
sS'/html/body/div/div/div/div/div/dl/dt/div/p'
p106
F1.2933589426905916
sS'/html/head/link'
p107
F0.01449956969511517
sS'/html/body/div/div/div/ul/li/div/span'
p108
F4.158429362604483
sS'/html/body/section/div/div/div/span'
p109
F8.965784284662087
sS'/html/body/div/div/div/h1'
p110
F0.7661119398257227
sS'/html/body/div/div/div/div/div/div/div/img'
p111
F4.321928094887363
sS'/html/body/div/div/div/div/div/p/br'
p112
F5.380821783940931
sS'/html/body/div/div/div/div/dl/dd/span/a/i'
p113
F8.965784284662087
sS'/html/body/div/div/div/div/div/dl/dt/div/div/span/p'
p114
F7.380821783940932
sS'/html/body/div/div/div/div/div/div/a/img'
p115
F6.380821783940931
sS'/html/body/div/div/div/div/div/p/strong/span'
p116
F7.965784284662087
sS'/html/body/div/div/div/ul/li/div/s/s'
p117
F0.11716134423274915
sS'/html/body/div/div/div/div/div/dl/dt/div/span'
p118
F8.965784284662087
sS'/html/body/section/div/div/span'
p119
F5.795859283219775
sS'/html/body/rss/channel/image/title'
p120
F6.643856189774725
sS'/html/body/div/div/div/ul/li/a/s/s'
p121
F0.11716134423274915
sS'/html/body/div/div/div/ul/li/a/i'
p122
F0.11716134423274915
sS'/html/body/div/div/div/div/div/ul/li'
p123
F1.6082322800440034
sS'/html/body/div/div/div/ul/li/script'
p124
F8.965784284662087
sS'/html/body/div/div/div/div/div/div/div/div/span'
p125
F1.7178567712185013
sS'/html/body/div/div/div/dl/dt/span'
p126
F3.2108967824986188
sS'/html/body/div/div/div/div/div/p/strong/img'
p127
F7.965784284662087
sS'/html/body/section/div/div/ul/li/a/div/div/i'
p128
F5.795859283219775
sS'/html/body/div/div/div/div/a/img'
p129
F1.6082322800440034
sS'/html/body/div/div/div/div/p/a/img'
p130
F0.7514651638613213
sS'/html/body/div/div/div/ul/li/div/span/a/s/i'
p131
F4.50635266602479
sS'/html/body/div/div/div/div/a/span'
p132
F3.011587974275212
sS'/html/body/div/footer/div/div/p'
p133
F5.795859283219775
sS'/html/body/div/div/div/div/div/div/div/div/div/a'
p134
F7.965784284662087
sS'/html/body/div/div/div/dl/dd/a/img'
p135
F7.965784284662087
sS'/html/body/div/div/div/div/div/dl/dt/div/a'
p136
F7.380821783940932
sS'/html/head/title'
p137
F0.01449956969511517
sS'/html/body/div/div/div/div/div/div/ul/li/a/img'
p138
F4.643856189774724
sS'/html/body/div/div/div/div/p/a'
p139
F6.380821783940931
sS'/html/body/div/div/div/div/div/div/div/br'
p140
F4.321928094887363
sS'/html/body/div/div/div/div/div/ul/li/div/a'
p141
F1.6082322800440034
sS'/html/body/rss/channel/link'
p142
F6.643856189774725
sS'/html/body/section/div/ul/li/a/div/div'
p143
F5.795859283219775
sS'/html/body/div/div/div/div/div/dl/dt/div/a/img'
p144
F7.965784284662087
sS'/html/body/img'
p145
F0.7514651638613213
sS'/html/body/div/div/div/div/div/div/span/a/s/span'
p146
F0.7563309190331374
sS'/html/body/div/div/div/div/ul/li'
p147
F4.321928094887363
sS'/html/body/div/nav/div/a'
p148
F5.795859283219775
sS'/html/body/div/div/div/ul/li/div/a/s/span'
p149
F4.158429362604483
sS'/html/body/div/div/div/div/dl/dt/a'
p150
F8.965784284662087
sS'/html/body/div/div/div/div/div/dl/dt/div/div/span'
p151
F6.965784284662088
sS'/html/body/div/div/div/div/div/div/br'
p152
F5.50635266602479
sS'/html/body/section/section/div/div/div'
p153
F5.795859283219775
sS'/html/body/div/div/div/div/div/h2/span'
p154
F1.0954195650786824
sS'/html/body/div/div/div/div/div/div/span/span'
p155
F2.145605322246899
sS'/html/body/div/div/div/div/span/a/span'
p156
F0.7661119398257227
sS'/html/body/div/div/div/div/div/p/a/i'
p157
F8.965784284662087
sS'/html/body/div/div/div/div/dl/dd/a'
p158
F8.965784284662087
sS'/html/body/section/section/header/div/span/span'
p159
F5.795859283219775
sS'/html/body/div/div/div/div/div/p/a/strong/font'
p160
F8.965784284662087
sS'/html/body/div/div/div/div/div/div/ul/li/span/a'
p161
F4.643856189774724
sS'/html/body/div/div/div/div/div'
p162
F1.5907448533151625
sS'/html/body/div/div/div/div/dl/dd/span/a'
p163
F8.965784284662087
sS'/html/body/div/div/div/div/div/ul/li/a'
p164
F1.4035418604410146
sS'/html/body/section/div/div/div/dl/dt/div/span'
p165
F5.795859283219775
sS'/html/body/div/div/div/ul/li/div/span/a/s/span'
p166
F4.50635266602479
sS'/html/body/div/div/div/div/div/p/strike/span'
p167
F8.965784284662087
sS'/html/body/div/div/div/ul/li/div/span/a'
p168
F4.158429362604483
sS'/html/body/section/div/ul/li/a/div/div/div/div/i'
p169
F5.795859283219775
sS'/html/body/div/div/div/div/div/div/div/h3/span'
p170
F4.321928094887363
sS'/html/body/div/div/div/div/div/dl/dt/div/p/strong/a'
p171
F5.058893689053569
sS'/html/body/div/div/div/div/div/h3/a'
p172
F8.965784284662087
sS'/html/body/div/div/ul/li/a'
p173
F4.321928094887363
sS'/html/body/div/div/div/div/div/dl/dt/div/p/a'
p174
F4.442222328605075
sS'/html/body/div/img'
p175
F5.795859283219775
sS'/html/body/div/div/div/div/script'
p176
F2.816037165157405
sS'/html/body/div/footer/div/div/a'
p177
F5.795859283219775
sS'/html/body/div/div/div/div/div/p/strong/font/span'
p178
F8.965784284662087
sS'/html/body/div/div/div/div/div/div/i'
p179
F3.293358942690592
sS'/html/body/div/div/div/dl/dt'
p180
F3.011587974275212
sS'/html/body/div/div/div/div/div/p/a/img'
p181
F8.965784284662087
sS'/html/body/div/div/div/div/div/dl/dt/div/p/u/strong'
p182
F8.965784284662087
sS'/html/body/div/div/div/div/div/p/font/span'
p183
F8.965784284662087
sS'/html/body/section/div/div/div/dl/dt/div/div'
p184
F5.965784284662088
sS'/html/body/noscript/img'
p185
F0.7563309190331374
sS'/html/body/div/footer/div/div/div/a'
p186
F5.795859283219775
sS'/html/body/div/div/i'
p187
F4.321928094887363
sS'/html/body/div/div/div/div/div/p/span'
p188
F3.5734668618833267
sS'/html/body/section/div/ul/li/a/div/div/h3'
p189
F5.795859283219775
sS'/html/body/div/div/div/div/div/dl/dd/a'
p190
F0.9268652953697848
sS'/html/body/rss/channel/item/description'
p191
F7.380821783940932
sS'/html/body/div/div/div/div/div/dl/dt/div/div/br'
p192
F6.965784284662088
sS'/html/body/div/div/a'
p193
F0.020340448284175576
sS'/html/body/div/div/div/div/div/dl/dt/div/p/strong/u'
p194
F7.965784284662087
sS'/html/body/style'
p195
F4.442222328605075
sS'/html/body/section/section/div/div/i'
p196
F5.795859283219775
sS'/html/body/div/div/div/ul/li'
p197
F0.11716134423274915
sS'/html/body/div/div/div/dl/dd/div/span'
p198
F7.965784284662087
sS'/html/body/section/div/div/div'
p199
F5.795859283219775
sS'/html/body/div/div/div/div/div/div/a/i'
p200
F1.9885043611621704
sS'/html/body/section/div/div/div/dl/dt/div/div/a'
p201
F8.965784284662087
sS'/html/body/link'
p202
F5.795859283219775
sS'/html/body/script'
p203
F0.020340448284175576
sS'/html/body/div/div/div/div/div/div/textarea'
p204
F0.7514651638613213
sS'/html/body/div/div/div/div/b'
p205
F3.011587974275212
sS'/html/body/div/div/div/div/div/h4/a'
p206
F8.965784284662087
sS'/html/body/div/div/div/div/div/p/strong'
p207
F4.573466861883327
sS'/html/body/section/section/header/div/span/i'
p208
F5.795859283219775
sS'/html/body/div/div/div/div/div/div/span'
p209
F0.7514651638613213
sS'/html/body/section/section/header/div/span'
p210
F5.795859283219775
sS'/html/body/div/div/div/div/div/dl/dd/span/a'
p211
F4.158429362604483
sS'/html/body/div/div/label/input'
p212
F0.7514651638613213
sS'/html/body/div/div/div/div/div/h4/i'
p213
F8.965784284662087
sS'/html/body/div/div/div/div/span/span/a'
p214
F0.7661119398257227
sS'/html/body/div/div/div/div/dl/dd/span/span'
p215
F8.965784284662087
sS'/html/body/div/div/div/div/span'
p216
F2.899695094204315
sS'/html/body/div/div/div/div/ul'
p217
F0.7661119398257227
sS'/html/body/div/div/div/div/div/dl/dd/a/img'
p218
F0.9268652953697848
sS'/html/body/div/div/div/div/div/div/ul/li/span/strong'
p219
F8.965784284662087
sS'/html/body/rss/channel/image/description'
p220
F6.643856189774725
sS'/html/body/div/div/div/div/div/div/ul/br'
p221
F5.158429362604483
sS'/html/body/div/div/script'
p222
F0.7563309190331374
sS'/html/body/div/div/div/div/div/dl/dt/div/ul/li/p'
p223
F7.380821783940932
sS'/html/body/div/footer/div/p'
p224
F5.795859283219775
sS'/html/body/div/div/div/div/div/div/img'
p225
F7.965784284662087
sS'/html/body/div/div/div/div/div/dl/dt/div/div/p/span'
p226
F8.965784284662087
sS'/html/body/section/section/article/p'
p227
F5.965784284662088
sS'/html/body/div/div/div/a/s/i'
p228
F0.7710274302398393
sS'/html/body/div/div/div/div/div/div/span/div/a'
p229
F0.7563309190331374
sS'/html/body/div/div/div/div/div/dl/dt/div/div/ul/li/p'
p230
F8.965784284662087
sS'/html/body/div/div/div/dl/dd/span/i'
p231
F3.2108967824986188
sS'/html/body/div/div/div/div/div/div/p/a'
p232
F4.265344566520995
sS'/html/body/div/div/div/ul/li/div/dl/dd'
p233
F8.965784284662087
sS'/html/body/div/div/div/div/div/div/s/i'
p234
F6.965784284662088
sS'/html/body/div/div/div/ul'
p235
F8.965784284662087
sS'/html/body/div/div/div/div/div/dl/dt/div'
p236
F1.1975999598851608
sS'/html/body/section/section/article/p/strong/a'
p237
F8.965784284662087
sS'/html/body/div/div/div/div/div/div/div/div/h4'
p238
F7.965784284662087
sS'/html/body/div/div/div/a'
p239
F2.2243172982609405
sS'/html/body/div/div/div/div/div/span/a'
p240
F6.643856189774725
sS'/html/body/div/div/div/div/ul/li/a/s'
p241
F4.321928094887363
sS'/html/body/div/footer/div/div/a/i'
p242
F5.795859283219775
sS'/html/body/section/div/div/div/h2'
p243
F5.795859283219775
sS'/html/body/div/div/div/div/div/div/div/div/span/a'
p244
F5.50635266602479
sS'/html/body/div/div/div/h2/span'
p245
F5.265344566520995
sS'/html/body/div/div/div/div/div/div/p/u'
p246
F8.965784284662087
sS'/html/body/section/div/div/div/dl/dd/span'
p247
F5.795859283219775
sS'/html/body/div/div/div/dl/dd/span'
p248
F3.1584293626044833
sS'/html/body/div/div/div/div/h3/i'
p249
F8.965784284662087
sS'/html/body/section/section/div/a'
p250
F5.795859283219775
sS'/html/body/div/div/div/dl/dd/span/a'
p251
F3.1584293626044833
sS'/html/body/div/div/div/h2'
p252
F3.921390165303634
sS'/html/body/div/div/div/div/div/p/span/a'
p253
F8.965784284662087
sS'/html/body/div/div/div/div/div/a/img'
p254
F8.965784284662087
sS'/html/body/div/div/span'
p255
F0.7514651638613213
sS'/html/body/section/section/header/h1'
p256
F5.795859283219775
sS'/html/body/section/div/div/div/dl/dd/span/a/span'
p257
F5.795859283219775
sS'/html/body/div/div/ul/li'
p258
F4.321928094887363
sS'/html/body/div/div/div/dl/dd/a/span'
p259
F7.965784284662087
sS'/html/body/div/div/div/div/ul/li/a'
p260
F0.6259342817774622
sS'/html/body/div/div/ul/li/a/s'
p261
F4.321928094887363
sS'/html/body/div/div/div/div/div/div'
p262
F0.6348674065474701
sS'/html/body/rss/channel/item/title'
p263
F7.380821783940932
sS'/html/body/div/div/div/div/dl/dt/a/br'
p264
F8.965784284662087
sS'/html/body/div/div/div/div/div/div/span/a/p'
p265
F6.965784284662088
sS'/html/body/div/div/div/ul/li/div/a/i'
p266
F0.11716134423274915
sS'/html/body/div/div/div/div/div/div/div/a'
p267
F0.15842936260448298
sS'/html/body/div/div/div/div/dl/dt/a/p'
p268
F8.965784284662087
sS'/html/body/div/div/div/div/div/a'
p269
F4.321928094887363
sS'/html/body/section/div/ul/li/a/div/div/div/div/span'
p270
F5.795859283219775
sS'/html/body/div/div/div/div/div/div/div/a/i'
p271
F1.9885043611621704
sS'/html/body/div/div/div/div/div/p'
p272
F0.8416629728328995
sS'/html/body/div/div/div/div/div/div/span/div/s/i'
p273
F0.7563309190331374
sS'/html/body/div/div/div/div/div/input'
p274
F0.04097178105630611
sS'/html/body/div/div/div/ul/li/div/a/s/i'
p275
F4.158429362604483
sS'/html/body/div/div/div/dl/dt/div/span'
p276
F7.965784284662087
sS'/html/body/div/div/div/div/div/div/ul/li/p'
p277
F8.965784284662087
sS'/html/body/div/div/div/div/h4'
p278
F3.011587974275212
sS'/html/body/div/div/div/div/h2'
p279
F0.6126374591640045
sS'/html/body/div/div/div/div/div/p/span/p'
p280
F7.965784284662087
sS'/html/body/div/div/div/div/div/div/div/div/a/s/i'
p281
F1.9885043611621704
sS'/html/body/rss/channel/description'
p282
F6.643856189774725
sS'/html/body/div/div/div/div/div/dl/dt/div/ul/li'
p283
F7.965784284662087
sS'/html/body/div/div/div/div/div/div/h4'
p284
F8.965784284662087
sS'/html/body/div/div/div/div/div/div/h3'
p285
F4.795859283219775
sS'/html/body/rss/channel/title'
p286
F6.643856189774725
sS'/html/body/div/div/div/dl/dd'
p287
F3.265344566520995
sS'/html/body/div/div/div/div/div/div/div/div/a/s/span'
p288
F1.9885043611621704
sS'/html/body/div/div/div/div/div/div/ul/li/a'
p289
F8.965784284662087
sS'/html/body/div/div/div/div/div/div/div/h3/div'
p290
F4.321928094887363
sS'/html/body/div/div/div/div/div/div/ul/li'
p291
F8.965784284662087
sS'/html/body/section/div/a'
p292
F5.795859283219775
sS'/html/body/div/div/div/div/div/div/div/div/p/a'
p293
F6.965784284662088
sS'/html/body/div/div/ul/li/div/a/i'
p294
F4.321928094887363
sS'/html/body/div/div/div/div/div/div/div/b'
p295
F5.265344566520995
sS'/html/body/div/div/div/dl/dt/div/img'
p296
F7.965784284662087
sS'/html/body/div/div/div/div/div/div/div/div/div/div/div/div/div/span'
p297
F7.965784284662087
sS'/html/body/div/div/div/div/div/div/div/span/a'
p298
F1.9885043611621704
sS'/html/body/div/div/div/div/div/a/i'
p299
F0.7514651638613213
sS'/html/body/div/div/div/div/div/div/div/div/br'
p300
F4.321928094887363
sS'/html/body/div/div/div/div/div/dl/dt/div/div/p/a/img'
p301
F8.965784284662087
sS'/html/body/div/div/div/script'
p302
F0.5145731728297582
sS'/html/head/noscript/link'
p303
F5.795859283219775
sS'/html/body/div/div/div/div/div/div/h3/a'
p304
F5.158429362604483
sS'/html/body/div/div/div/div/div/img'
p305
F0.7661119398257227
sS'/html/body/div/div/div/div/div/div/h2/i'
p306
F8.965784284662087
sS'/html/body/div/div/div/ul/li/div/h4/a'
p307
F4.158429362604483
sS'/html/body/rss/channel/item/pubdate'
p308
F7.380821783940932
sS'/html/body/section/div/div/h2'
p309
F5.795859283219775
sS'/html/body/div/div/div/div/div/div/h2/a'
p310
F8.965784284662087
sS'/html/body/div/div/div/div/ul/li/div/s/s'
p311
F4.321928094887363
sS'/html/body/div/div/div/div/div/dl/dt/div/div/span/br'
p312
F8.965784284662087
sS'/html/body/div/div/div/div/div/div/p/a/img'
p313
F7.965784284662087
s.