(dp0
S'/html/body/div/div/div/p/a'
p1
F2.0651841687601378
sS'/html/body/div/nav/div/ul/li/div/div/ul/li/a'
p2
F0.10513354880784442
sS'/html/body/div/div/div/div/ul/li/a/span'
p3
F2.0651841687601378
sS'/html/body/div/div/div/form/div/div/input'
p4
F2.6932153913731796
sS'/html/body/div/div/ul/li/div/h3/a'
p5
F1.6838775267938433
sS'/html/body/div/div/div/div/div/div/div/div/a/img'
p6
F8.960001932068081
sS'/html/body/div/div/div/div/div/table/tbody/tr/td'
p7
F2.7120744186244954
sS'/html/body/div/div/div/div/div/div/h4'
p8
F2.9827220085681647
sS'/html/body/div/header/div/div/a/svg/circle'
p9
F0.10513354880784442
sS'/html/body/div/footer/div/ul/li/a'
p10
F0.10513354880784442
sS'/html/body/div/div/div/div/table/tbody/tr/td/h4/a'
p11
F6.638073837180718
sS'/html/body/div/div/ul/li/div/div/table/tbody/tr/th'
p12
F7.960001932068081
sS'/html/body/div/div/div'
p13
F1.1145118811237058
sS'/html/body/div/div/div/div/table/tbody/tr/td/p/a'
p14
F2.5005703134307837
sS'/html/body/div/div/ul/li/div/div/p/em/strong/a'
p15
F7.375039431346925
sS'/html/body/div/div/ul/li/div/div/h3'
p16
F7.375039431346925
sS'/html/body/div/div/ul/li/div/div/h1'
p17
F8.960001932068081
sS'/html/body/div/header/div/a/svg/g/g/path'
p18
F0.10513354880784442
sS'/html/body/div/div/div/span'
p19
F2.0651841687601378
sS'/html/body/div/div/ul/li/div/div/table/tbody/tr/td'
p20
F7.960001932068081
sS'/html/body/div/div/ul/li/div/p/a'
p21
F1.6838775267938433
sS'/html/body/div/div/div/div/ul/li'
p22
F2.7311832415722
sS'/html/body/div/div/div/div/div/div/table/thead/tr/th'
p23
F2.7311832415722
sS'/html/body/div/div/ul/li/div/div/br'
p24
F6.152647010010477
sS'/html/body/div/nav/div/a'
p25
F0.10513354880784442
sS'/html/body/div/div/div/div/div/h2/span/a'
p26
F2.7311832415722
sS'/html/body/div/div/div/div/form/p/input'
p27
F8.960001932068081
sS'/html/body/div/div/div/div/div/div/a'
p28
F1.5170584362193527
sS'/html/body/div/div/div/div/span'
p29
F5.259562213926989
sS'/html/body/rss/channel/item/link'
p30
F3.8307189151231147
sS'/html/body/div/div/div/div/form/div/p/label'
p31
F3.3161457422933562
sS'/html/body/div/div/div/div/table/tbody/tr/td/div'
p32
F2.5005703134307837
sS'/html/body/div/form/input'
p33
F0.36754489480000047
sS'/html/body/div/div'
p34
F0.36754489480000047
sS'/html/body/div/div/ul/li/div/p/span/span'
p35
F1.6838775267938433
sS'/html/body/div/div/div/a'
p36
F1.0896372124846765
sS'/html/body/div/div/ul/li/div/div/p'
p37
F1.7026140893754294
sS'/html/body/div/div/ul/li/div/div/p/strong/span'
p38
F8.960001932068081
sS'/html/body/div/div/div/div/form/div/p/input'
p39
F3.3161457422933562
sS'/html/body/div/div/ul/li/div/div/hr'
p40
F8.960001932068081
sS'/html/body/div/div/div/p'
p41
F5.500570313430784
sS'/html/body/div/div/ul/li/div/div/h2/i'
p42
F8.960001932068081
sS'/html/body/div/div/div/div/select/optgroup/option'
p43
F5.259562213926989
sS'/html/body/div/div/div/div/div/div/span'
p44
F2.7311832415722
sS'/html/head/meta'
p45
F0.10513354880784442
sS'/html/body/div/div/div/div/table/tbody/tr/td/h2/a'
p46
F2.5005703134307837
sS'/html/body/div'
p47
F0.36754489480000047
sS'/html/body/div/div/ul/li/div/img'
p48
F5.638073837180719
sS'/html/body/div/noscript/img'
p49
F2.6932153913731796
sS'/html/body/div/div/ul/li/div/div/blockquote/h4'
p50
F3.405413080390444
sS'/html/body/div/div/ul/li/div/div/pre/strong/br'
p51
F8.960001932068081
sS'/html/body/div/div/ul/li/div/p/b/i'
p52
F6.960001932068081
sS'/html/body/div/div/div/div/div/div/table/tbody/tr/td'
p53
F2.7311832415722
sS'/html/body/div/div/div/div/div/h2'
p54
F1.851477475289912
sS'/html/body/div/div/ul/li/div/b'
p55
F5.638073837180719
sS'/html/body/div/header/div/div/input'
p56
F0.10513354880784442
sS'/html/body/div/div/ul/li/div/div/pre/strong/em/span'
p57
F6.638073837180718
sS'/html/body/div/div/div/div/form/div/select/option'
p58
F3.3161457422933562
sS'/html/body/div/div/div/div/p/br'
p59
F6.375039431346925
sS'/html/body/div/div/ul/li/div/div/ul/li/a'
p60
F8.960001932068081
sS'/html/body/div/div/div/h1/a'
p61
F2.6562211838909784
sS'/html/body/div/div/div/div/div/table/thead/tr/th'
p62
F8.960001932068081
sS'/html/body/div/div/div/form/div/div/button'
p63
F2.6932153913731796
sS'/html/body/div/div/div/div/p/a'
p64
F7.960001932068081
sS'/html/body/div/div/div/div/table/tbody/tr/td/br'
p65
F6.638073837180718
sS'/html/body/div/div/ul/li/div/p'
p66
F1.6838775267938433
sS'/html/body/div/div/div/div/p/b'
p67
F8.960001932068081
sS'/html/body/div/div/h1'
p68
F2.6932153913731796
sS'/html/body/div/div/ul/li/div/div/p/span/span'
p69
F6.638073837180718
sS'/html/body/div/div/ul/li/div/div/pre/span/strong'
p70
F8.960001932068081
sS'/html/body/div/div/ul/li/div/div/p/em/strong'
p71
F7.375039431346925
sS'/html/body/div/a'
p72
F2.7311832415722
sS'/html/head/script'
p73
F0.10513354880784442
sS'/html/body/div/div/div/div/form/div/div/p/label'
p74
F3.3161457422933562
sS'/html/body/div/div/div/form/div/br'
p75
F2.6932153913731796
sS'/html/body/div/div/ul/li/div/div/blockquote/span/span'
p76
F8.960001932068081
sS'/html/body/div/div/div/div/div/table/tbody/tr/td/a'
p77
F2.7311832415722
sS'/html/head/link'
p78
F0.10513354880784442
sS'/html/body/div/div/ul/li/div/div/pre/span/strong/em'
p79
F8.960001932068081
sS'/html/body/div/div/ul/li/div/div/p/a/em/strong'
p80
F8.960001932068081
sS'/html/body/div/div/ul/li/div/div/p/span/br'
p81
F8.960001932068081
sS'/html/body/div/footer/div/div'
p82
F0.10513354880784442
sS'/html/body/div/div/ul/li/div/div/p/strong/img'
p83
F8.960001932068081
sS'/html/body/div/div/ul/li/div'
p84
F4.7900769306257684
sS'/html/body/div/div/div/form/div/input'
p85
F2.6932153913731796
sS'/html/body/div/nav/div/ul/li/div/div/h2'
p86
F0.10513354880784442
sS'/html/body/div/div/ul/li/div/div/p/img'
p87
F5.960001932068081
sS'/html/body/div/div/div/div/table/tbody/tr/td/p/b/a/img'
p88
F5.3750394313469245
sS'/html/body/div/div/ul/li/div/div/table/tbody/tr/td/p/br'
p89
F8.960001932068081
sS'/html/body/div/div/div/div/form/div/div/label'
p90
F3.3161457422933562
sS'/html/body/div/div/div/div/form/div/div/input'
p91
F3.3161457422933562
sS'/html/body/div/div/div/div/a/img'
p92
F7.375039431346925
sS'/html/body/div/footer/div/ul/li/span'
p93
F0.10513354880784442
sS'/html/body/div/div/div/form/input'
p94
F2.6932153913731796
sS'/html/body/div/div/div/div/form/div/h4'
p95
F3.3161457422933562
sS'/html/body/div/div/ul/li/div/div/blockquote/strong'
p96
F8.960001932068081
sS'/html/head/title'
p97
F0.10513354880784442
sS'/html/body/div/div/div/div/div/img'
p98
F2.7311832415722
sS'/html/body/div/div/ul/li/div/div/p/strong/a'
p99
F7.960001932068081
sS'/html/body/div/div/div/div/div/div/h3/span'
p100
F2.9827220085681647
sS'/html/body/div/div/div/div/form/div/input'
p101
F3.3161457422933562
sS'/html/body/div/div/div/div/ul/li/a'
p102
F1.165586065717975
sS'/html/body/noscript/img'
p103
F0.36754489480000047
sS'/html/body/div/div/ul/li/div/div/table/tbody/tr/td/pre/span/span'
p104
F8.960001932068081
sS'/html/body/div/div/div/div/div/div/h3'
p105
F2.7311832415722
sS'/html/body/div/footer/div/ul/li/h2/a/svg/path'
p106
F0.10513354880784442
sS'/html/body/div/div/div/div/div/div/h2'
p107
F2.232081477504882
sS'/html/body/div/div/ul/li/div/div/blockquote/a'
p108
F7.960001932068081
sS'/html/body/noscript/a/img'
p109
F0.3863547445747588
sS'/html/body/div/div/div/div/form/h2/a'
p110
F3.3161457422933562
sS'/html/body/div/div/ul/li/div/div/blockquote/p/strong'
p111
F8.960001932068081
sS'/html/body/div/div/ul/li/div/div/ol/li'
p112
F6.638073837180718
sS'/html/body/div/div/ul/li/div/div/pre/strong'
p113
F6.638073837180718
sS'/html/body/div/div/ul/li/div/div/blockquote/p/i'
p114
F7.960001932068081
sS'/html/body/div/div/div/div/form/h3/a'
p115
F3.3161457422933562
sS'/html/body/div/div/ul/li/div/div/p/span/a/br'
p116
F8.960001932068081
sS'/html/body/div/div/ul/li/div/a/img'
p117
F1.6838775267938433
sS'/html/body/div/div/ul/li/div/div/p/a/strong'
p118
F7.960001932068081
sS'/html/body/div/div/ul/li/div/div/blockquote/p'
p119
F5.500570313430784
sS'/html/body/div/div/ul/li/div/a'
p120
F1.6838775267938433
sS'/html/body/div/div/h1/a'
p121
F2.0651841687601378
sS'/html/body/div/div/ul/li/div/div/pre/br'
p122
F5.960001932068081
sS'/html/body/div/div/div/div/br'
p123
F8.960001932068081
sS'/html/body/div/div/ul/li/div/div/p/b/a'
p124
F7.375039431346925
sS'/html/body/div/div/ul/li/div/strong'
p125
F6.960001932068081
sS'/html/body/div/div/ul/li/div/div/ul/li'
p126
F6.375039431346925
sS'/html/body/div/div/div/div/table/tbody'
p127
F7.960001932068081
sS'/html/body/div/div/div/div/p'
p128
F1.6112737778370037
sS'/html/body/div/div/ul/li/div/div/pre/em/span/strong'
p129
F6.960001932068081
sS'/html/body/div/div/div/div/select/option'
p130
F5.259562213926989
sS'/html/body/div/div/ul/li/div/div/pre/span/em/strong'
p131
F6.960001932068081
sS'/html/body/div/div/ul/li/div/div/table/tbody/tr/td/p/span'
p132
F6.960001932068081
sS'/html/body/div/div/div/div/div/div/a/span'
p133
F2.3306453119884716
sS'/html/body/div/div/ul/li/div/b/a'
p134
F5.259562213926989
sS'/html/body/div/div/ul/li/div/br'
p135
F2.810254812563399
sS'/html/body/div/div/div/div/div/ul/li/a'
p136
F1.8831863350172502
sS'/html/body/div/header/div/a'
p137
F0.10513354880784442
sS'/html/body/div/div/ul/li/div/div/p/a/span'
p138
F6.960001932068081
sS'/html/body/div/header/div/a/svg/g/g/defs/rect'
p139
F0.10513354880784442
sS'/html/body/rss/channel/item/description'
p140
F3.8307189151231147
sS'/html/body/div/div/h1/span'
p141
F3.960001932068081
sS'/html/body/div/div/a'
p142
F0.1655860657179751
sS'/html/head/style'
p143
F0.10513354880784442
sS'/html/body/div/div/div/ul/li'
p144
F2.5005703134307837
sS'/html/body/div/div/ul/li/div/div/blockquote/br'
p145
F7.960001932068081
sS'/html/body/div/div/div/div'
p146
F1.4131074721804442
sS'/html/body/div/div/div/div/table/tbody/tr/td'
p147
F2.4842685011016834
sS'/html/body/script'
p148
F0.36754489480000047
sS'/html/body/div/div/ul/li/div/div/p/strong'
p149
F4.316145742293356
sS'/html/body/div/div/ul/li/div/h3'
p150
F1.6838775267938433
sS'/html/body/div/div/ul/li/div/div/pre/strong/span'
p151
F8.960001932068081
sS'/html/body/div/div/div/div/a'
p152
F5.259562213926989
sS'/html/body/div/div/ul/li/div/div/blockquote/span/em/strong'
p153
F7.375039431346925
sS'/html/body/div/div/ul/li/div/div/h3/strong'
p154
F8.960001932068081
sS'/html/body/div/div/div/div/table/tbody/tr/td/a'
p155
F6.375039431346925
sS'/html/body/div/div/ul/li/div/div/table/tbody/tr/td/pre/span/span/br'
p156
F8.960001932068081
sS'/html/body/div/header/div/div/div/a'
p157
F0.10513354880784442
sS'/html/body/div/div/ul/li/div/p/br'
p158
F8.960001932068081
sS'/html/body/div/div/div/div/div'
p159
F1.6471189767837258
sS'/html/body/div/div/div/div/div/table/tbody/tr/th'
p160
F2.7311832415722
sS'/html/body/rss/channel/id'
p161
F3.8307189151231147
sS'/html/body/div/div/div/div/table/tbody/tr/td/p/span'
p162
F6.375039431346925
sS'/html/body/div/div/ul/li/div/div/a'
p163
F8.960001932068081
sS'/html/body/div/div/ul/li/div/div'
p164
F1.6838775267938433
sS'/html/body/div/div/div/form/h2'
p165
F2.6932153913731796
sS'/html/body/rss/channel/item/guid'
p166
F3.8307189151231147
sS'/html/body/div/footer/div/ul/li/h2'
p167
F0.10513354880784442
sS'/html/body/div/div/div/div/div/div/ul/li/span'
p168
F3.005805621681206
sS'/html/body/div/div/ul/li/div/div/pre/span'
p169
F6.638073837180718
sS'/html/body/div/div/div/div/div/h2/span'
p170
F3.053111336459563
sS'/html/body/div/div/div/div/div/div/div/div/p/strong'
p171
F8.960001932068081
sS'/html/body/div/div/ul/li/div/div/p/span/b'
p172
F8.960001932068081
sS'/html/body/div/div/ul/li/div/div/p/span/a'
p173
F6.960001932068081
sS'/html/body/div/header/div/a/svg/path'
p174
F0.10513354880784442
sS'/html/body/div/div/div/div/form/h3/span'
p175
F3.3161457422933562
sS'/html/body/rss/channel/item/updated'
p176
F3.8307189151231147
sS'/html/body/div/div/ul/li/div/div/p/span/span/br'
p177
F7.960001932068081
sS'/html/body/div/div/div/div/div/div/p/strong'
p178
F2.7311832415722
sS'/html/body/div/div/ul/li/div/p/span'
p179
F5.3750394313469245
sS'/html/body/rss/channel/link'
p180
F3.8307189151231147
sS'/html/body/div/div/ul/li/div/div/blockquote/pre'
p181
F6.375039431346925
sS'/html/body/div/div/div/h2/span'
p182
F7.375039431346925
sS'/html/body/div/div/ul/li/div/p/span/a'
p183
F1.6838775267938433
sS'/html/body/div/div/div/form/p/input'
p184
F2.5005703134307837
sS'/html/body/div/div/ul/li/div/div/p/a/img'
p185
F8.960001932068081
sS'/html/body/div/div/div/h1/span'
p186
F2.3017904493162864
sS'/html/body/div/div/div/h2'
p187
F0.8778528907142094
sS'/html/body/div/div/div/h1'
p188
F1.9376341190396267
sS'/html/body/div/div/ul/li/div/div/ul/li/em'
p189
F6.960001932068081
sS'/html/body/div/div/span'
p190
F0.36754489480000047
sS'/html/body/div/div/ul/li/div/div/p/span/span/b'
p191
F7.960001932068081
sS'/html/body/div/header/div/div/a/svg/path'
p192
F0.10513354880784442
sS'/html/body/div/div/ul/li/div/div/table/tbody/tr/td/pre'
p193
F8.960001932068081
sS'/html/body/div/nav/div/ul/li/a'
p194
F0.10513354880784442
sS'/html/body/div/div/div/div/form/div/div/h4'
p195
F3.3161457422933562
sS'/html/body/div/div/div/div/form/div/div/p/input'
p196
F3.3161457422933562
sS'/html/body/div/div/div/div/div/div'
p197
F8.960001932068081
sS'/html/body/rss/channel/item/title'
p198
F3.8307189151231147
sS'/html/body/div/div/div/div/div/div/div/div/h4/a'
p199
F8.960001932068081
sS'/html/body/div/div/ul/li/div/div/blockquote/p/br'
p200
F8.960001932068081
sS'/html/body/div/div/div/div/form/div/div'
p201
F3.3161457422933562
sS'/html/body/div/div/ul/li/div/div/p/i'
p202
F6.638073837180718
sS'/html/body/div/div/ul/li/div/div/pre/pre'
p203
F8.960001932068081
sS'/html/body/rss/channel/lastbuilddate'
p204
F3.8307189151231147
sS'/html/body/div/script'
p205
F2.6932153913731796
sS'/html/body/div/div/ul/li/div/div/p/a'
p206
F3.005805621681206
sS'/html/body/div/div/ul/li/div/div/p/b'
p207
F6.638073837180718
sS'/html/body/div/div/ul/li/div/div/blockquote/span'
p208
F3.405413080390444
sS'/html/body/div/div/div/div/h2'
p209
F0.8255756118471549
sS'/html/body/rss/channel/description'
p210
F3.8307189151231147
sS'/html/body/div/div/ul/li/div/div/p/strong/br'
p211
F8.960001932068081
sS'/html/body/div/div/ul/li/ul/li/a'
p212
F1.6838775267938433
sS'/html/body/div/div/ul/li/div/div/p/span/span/span/span/span'
p213
F8.960001932068081
sS'/html/body/rss/channel/title'
p214
F3.8307189151231147
sS'/html/body/div/div/ul/li/div/div/pre'
p215
F3.102020936940509
sS'/html/body/div/div/div/div/div/div/h3/span/a'
p216
F2.9827220085681647
sS'/html/body/div/div/ul/li/div/div/p/br'
p217
F3.6380738371807184
sS'/html/body/div/div/div/div/div/div/ul/li/a'
p218
F2.232081477504882
sS'/html/body/div/div/div/div/table/thead/tr/th'
p219
F4.375039431346925
sS'/html/body/div/div/ul/li/div/div/h3/a'
p220
F7.960001932068081
sS'/html/body/div/div/h2'
p221
F2.7311832415722
sS'/html/body/div/div/ul/li/div/div/p/span/span/span/span'
p222
F8.960001932068081
sS'/html/body/div/div/ul/li/div/div/p/b/span'
p223
F7.375039431346925
sS'/html/body/div/div/div/div/div/div/div'
p224
F2.7311832415722
sS'/html/body/div/div/div/form/div/label'
p225
F2.6932153913731796
sS'/html/body/div/div/div/form/div/a'
p226
F2.6932153913731796
sS'/html/body/div/div/div/form/div/div/label'
p227
F2.6932153913731796
sS'/html/body/div/div/div/div/table/tbody/tr/td/p/br'
p228
F5.3750394313469245
sS'/html/body/div/div/ul/li/div/div/table/tbody/tr/td/a'
p229
F7.960001932068081
sS'/html/body/div/div/ul/li/div/div/p/em'
p230
F6.960001932068081
sS'/html/body/div/div/ul/li/div/div/p/span/span/a'
p231
F7.960001932068081
sS'/html/body/div/div/ul/li/div/div/p/span'
p232
F4.436439976011068
sS'/html/body/div/div/ul/li/div/div/table/tbody/tr/td/pre/span'
p233
F8.960001932068081
sS'/html/body/rss/channel/item/pubdate'
p234
F6.152647010010477
sS'/html/body/div/header/div/a/svg/g/g/clippath/use'
p235
F0.10513354880784442
sS'/html/body/div/div/div/div/table/thead/tr/th/a'
p236
F2.4208431209600496
sS'/html/body/div/div/ul/li/div/div/table/tbody/tr/td/p'
p237
F6.638073837180718
s.