(dp0
S'/html/body/div/div/div/div/div/div/div/div/div/b'
p1
F8.965784284662087
sS'/html/body/div/div/div/div/div/div/div/div/div/a'
p2
F2.0588936890535687
sS'/html/body/div/div/div/div/div/div/div/div/a/img'
p3
F0.29335894269059154
sS'/html/body/div/div/div/a/div/button'
p4
F8.965784284662087
sS'/html/body/div/div/div/div/div/div/div/div/div/i'
p5
F5.795859283219775
sS'/html/body/div/div/div/div/div/div/div/p/span/a'
p6
F6.158429362604484
sS'/html/body/div/div/div/div/div/div/div/div/div/p'
p7
F4.878321443411748
sS'/html/body/div/div/div/div/div/div/div/div/dl/dt'
p8
F5.965784284662088
sS'/html/body/div/div/div/div/div/p/a'
p9
F2.643856189774725
sS'/html/body/div/div/div/div/div/p/b'
p10
F5.965784284662088
sS'/html/body/div/div/div/div/div/div/div/div/div/div/div/div/h1/a'
p11
F8.965784284662087
sS'/html/body/div/div/div/div/ul/li/div/div/div/div/ul/li/a'
p12
F1.9885043611621704
sS'/html/body/div/div/div/div/div/div/table/tr/td/a'
p13
F4.011587974275212
sS'/html/body/div/div/div/div/div/form/input'
p14
F8.965784284662087
sS'/html/body/div/div/div/div/div/div/table/tr/td/p'
p15
F8.965784284662087
sS'/html/body/div/div/div/div/div/div/table/tbody/tr/td/p'
p16
F7.380821783940932
sS'/html/body/div/div/div/div/div/div/div/div/div/div/p/br'
p17
F4.380821783940931
sS'/html/body/div/div/div/div/div/div/table/thead/tr/th/a'
p18
F2.8783214434117474
sS'/html/body/div/div/div/div/ul/li/div/div/div/div/h2'
p19
F1.9885043611621704
sS'/html/body/div/div/div/a'
p20
F0.008682243099800773
sS'/html/body/div/div/div/div/div/div/table/tbody/tr/td/a'
p21
F4.878321443411748
sS'/html/body/div/div/div/div/div/div/div/ul/li/div/div/a/span'
p22
F1.9885043611621704
sS'/html/body/div/div/div/div/div/div/div/div/div/span'
p23
F2.145605322246899
sS'/html/body/div/div/div/div/div/div/div/div/div/div/p/em'
p24
F8.965784284662087
sS'/html/body/div/div/div/div/div/table/tr/td/span'
p25
F3.878321443411748
sS'/html/body/div/div/div/div/div/div/span'
p26
F3.4111954329844494
sS'/html/head/meta'
p27
F0.0
sS'/html/body/div/div/div/div/div/ul/li/a/i'
p28
F8.965784284662087
sS'/html/body/div/div/div/div/a/div/div/div/div/p/em'
p29
F8.965784284662087
sS'/html/body/div/div/div/div/div/div/table/tr/td/a/span'
p30
F2.795859283219775
sS'/html/body/div/div/div/div/div/div/p/br'
p31
F8.965784284662087
sS'/html/body/div/div/div/div/ul/li/div/div/div/div/a/h2'
p32
F1.9885043611621704
sS'/html/body/div/div/div/div/form/div/div/button'
p33
F0.008682243099800773
sS'/html/body/div/div/div/div/div/div/div/div/ul/li/br'
p34
F7.965784284662087
sS'/html/body/div/div/div/div/div/div/div/div/div/strong'
p35
F5.058893689053569
sS'/html/body/div/div/div/div/div/div/div/h4/span'
p36
F7.965784284662087
sS'/html/body/div/div/div/div/ul/li/div/div/div/div/div/img'
p37
F1.9885043611621704
sS'/html/body/div/div/div/div/div/div/div/div/ul/li/div/div/a'
p38
F0.4305089080412838
sS'/html/body/div/div/div/div/div/table/thead/tr/th'
p39
F6.380821783940931
sS'/html/body/div/div/div/div/form/div/button'
p40
F0.008682243099800773
sS'/html/body/div/div/div/div/div/div/div/a/div/span'
p41
F5.158429362604483
sS'/html/body/div/div/div/div/h1/span'
p42
F4.321928094887363
sS'/html/body/div/div/div/div/div/div/a/div/h5/em'
p43
F8.965784284662087
sS'/html/body/div/div/div/div/div/div/div/div/div/div/div/p/span'
p44
F4.795859283219775
sS'/html/body/div/div/div/div/div/div/div/a/p/span'
p45
F2.662003536484984
sS'/html/body/div/div/div/div/a/div/div/div/div/div'
p46
F8.965784284662087
sS'/html/body/div/div/div/div/div/div/div/div/div/div/div/div/span'
p47
F3.0588936890535687
sS'/html/body/div/div/div/div/div/div/div/div/div/div/span/span/span'
p48
F5.380821783940931
sS'/html/head/script'
p49
F0.005782352594006179
sS'/html/body/div/div/div/div/ul/li/div/div/div/div'
p50
F1.9885043611621704
sS'/html/body/div/div/div/div/div/form/div/input'
p51
F7.965784284662087
sS'/html/body/div/div/div/div/div/div/ul/li/div/div/dl/dt'
p52
F7.965784284662087
sS'/html/body/div/div/div/div/div/table/tbody/tr/td/a'
p53
F6.965784284662088
sS'/html/body/div/div/div/div/ul/li/div/div/div/div/div/a/span'
p54
F1.9885043611621704
sS'/html/body/div/div/div/div/div/table'
p55
F5.965784284662088
sS'/html/body/div/div/div/div/div/p/br'
p56
F0.008682243099800773
sS'/html/body/div/div/div/div/div/table/tbody/tr/td/span/span'
p57
F6.965784284662088
sS'/html/body/div/div/div/div/div/div/div/div/div/div/a/h3'
p58
F7.965784284662087
sS'/html/body/div/div/div/div/div/form/div/div/div/button/span'
p59
F1.965784284662087
sS'/html/body/div/div/div/div/div/div/div/div/ul/li/a/i'
p60
F7.965784284662087
sS'/html/body/div/div/div/div/div/div/div/div/span'
p61
F0.008682243099800773
sS'/html/body/div/div/div/div/div/div/table/tbody/tr/td/h2'
p62
F7.965784284662087
sS'/html/body/div/div/div/div/div/div/div/div/div/div/div/div/p'
p63
F4.795859283219775
sS'/html/body/div/div/div/div/div/div/div/div/div/div/p/a'
p64
F4.380821783940931
sS'/html/body/div/div/div/div/div/div/a/p/span'
p65
F1.15200309344505
sS'/html/body/div/div/div/div/div/div/div/div/div/div/div/div/div/div/span/span'
p66
F5.380821783940931
sS'/html/body/div/div/div/div/div/div/div/br'
p67
F2.795859283219775
sS'/html/body/div/div/div/div/div/div/h3/span'
p68
F2.265344566520995
sS'/html/body/div/div/div/div/div/div/div/div/p/span/em'
p69
F8.965784284662087
sS'/html/head/title/script'
p70
F7.965784284662087
sS'/html/body/div/div/div/div/div/div/div/div/div/div/p'
p71
F2.279283757478869
sS'/html/head/noscript/iframe'
p72
F0.005782352594006179
sS'/html/body/div/div/div/div/div/div/ul/li/div/div/div/span'
p73
F8.965784284662087
sS'/html/body/div/div/div/div/a/div/div/p'
p74
F7.965784284662087
sS'/html/body/div/div/div/div/div/div/div/div/table/tr/td/button'
p75
F5.965784284662088
sS'/html/body/div/div/div/div/div/div/a/div/div/div/div/p'
p76
F8.965784284662087
sS'/html/body/div/div/div/div/div/div/div/p/strong'
p77
F0.008682243099800773
sS'/html/body/div/div/div/div/div/div/link'
p78
F6.158429362604484
sS'/html/body/div/div/div/div/div/table/tr/td'
p79
F3.0588936890535687
sS'/html/body/div/div/div/div/div/ol/li/ol/li'
p80
F7.965784284662087
sS'/html/body/div/div/div/div/a/h1/span'
p81
F3.6438561897747253
sS'/html/body/div/div/div/div/div/div/div/div/button/span'
p82
F6.380821783940931
sS'/html/head/title/style'
p83
F7.965784284662087
sS'/html/body/div/div/div/div/div/div/div/div/a/p/span'
p84
F3.2108967824986188
sS'/html/body/div/div/div/div/div/table/tbody/tr/td/span'
p85
F7.380821783940932
sS'/html/body/div/div/div/div/div/div/div/div/ul/li'
p86
F4.965784284662088
sS'/html/body/div/div/div/div/div/style'
p87
F5.965784284662088
sS'/html/body/div/div/div/div/div/div/a/button'
p88
F5.965784284662088
sS'/html/body/div/div/div/div/div/div/div/ul/li/form/div/label/span/span'
p89
F4.573466861883327
sS'/html/body/div/div/div/div/div/form/div/span/button'
p90
F7.965784284662087
sS'/html/head/title/meta'
p91
F7.965784284662087
sS'/html/body/div/div/div/div/ul/li/div/div/div/div/div/br'
p92
F1.9885043611621704
sS'/html/body/div/div/div/div/div/div/table/tr/td/div/i'
p93
F8.965784284662087
sS'/html/body/div/div/div/div/div/div/p'
p94
F1.8262329322632935
sS'/html/body/div/div/div/div/form/div/p/small/a'
p95
F0.008682243099800773
sS'/html/body/div/div/div/div/form/div/div/label/span'
p96
F0.008682243099800773
sS'/html/body/div/div/div/div/div/div/table/tr/td/div/b'
p97
F8.965784284662087
sS'/html/body/div/div/div/div/div/div/table/tr/td/div/a'
p98
F6.643856189774725
sS'/html/body/div/div/div/div/div/div/div/a/div/div/span/em'
p99
F7.965784284662087
sS'/html/body/div/div/div/div/div/div/span/a/span'
p100
F7.380821783940932
sS'/html/body/div/div/div/div/div/div/div/div/div/strong/span'
p101
F7.965784284662087
sS'/html/body/div/div/div/div/div/div/div/div/div/div/span/span'
p102
F5.158429362604483
sS'/html/body/div/div/div/div/ul/li/div/div/div/div/table/tr/td/img'
p103
F1.9885043611621704
sS'/html/body/div/div/div/div/h2/em'
p104
F1.15200309344505
sS'/html/body/div/div/div/div/div/div/dl/dd/a'
p105
F5.50635266602479
sS'/html/body/div/div/div/div/div/ul/li/div/div/div/div/div/img'
p106
F0.4305089080412838
sS'/html/body/div/div/div/div/div/div/div/div/h2'
p107
F2.7563309190331373
sS'/html/body/div/div/div/div/div/div/form/label/span'
p108
F7.965784284662087
sS'/html/body/div/div/div/div/div/a/span'
p109
F5.50635266602479
sS'/html/body/div/div/div/div/div/div/form/ol/div/div/div/label/div/span'
p110
F7.965784284662087
sS'/html/body/div/div/div/div/div/div/form/ol/div/div/div/textarea'
p111
F7.965784284662087
sS'/html/body/div/div/div/div/div/div/img'
p112
F4.107803289534515
sS'/html/body/div/div/div/div/div/div/div/div/form/div/label/input'
p113
F4.573466861883327
sS'/html/body/div/div/div/div/div/ul/li/a/img'
p114
F1.573466861883327
sS'/html/body/div/div/div/div/div/ul/li/div/div/div/div/a/h2'
p115
F0.4305089080412838
sS'/html/body/div/div/div/div/div/div/form/div/div/div/button/em'
p116
F0.4305089080412838
sS'/html/body/div/div/div/div/div/div/table/tbody/tr/td/span'
p117
F8.965784284662087
sS'/html/body/div/div/div/div/div/div/table/tr/td/p/a'
p118
F8.965784284662087
sS'/html/body/div/div/div/div/div/div/div/div/div/div/div/div/div/div/div/div/a'
p119
F8.965784284662087
sS'/html/body/div/div/div/div/div/div/table/tr/td/div/i/a'
p120
F8.965784284662087
sS'/html/body/div/div/div/div/div/div/meta'
p121
F6.158429362604484
sS'/html/body/div/div/div/div/div/div/a/div/img'
p122
F7.965784284662087
sS'/html/body/div/div/div/div/div/div/div/p'
p123
F0.005782352594006179
sS'/html/body/div/div/div/div/div/div/div/i'
p124
F0.008682243099800773
sS'/html/body/div/div/div/div/h3/a/span'
p125
F4.321928094887363
sS'/html/body/div/div/div/div/div/div/div/strong'
p126
F7.965784284662087
sS'/html/body/div/div/div/div/div/div/div/div/div/div/div/div/br'
p127
F8.965784284662087
sS'/html/body/div/div/div/div/div/div/div/ul/li/form/div/label/input'
p128
F4.573466861883327
sS'/html/body/div/div/div/div/div/p/small/a'
p129
F0.008682243099800773
sS'/html/body/div/div/div/div/div/div/div/div/div/span/span'
p130
F5.158429362604483
sS'/html/body/div/div/div/div/div/div/div/div/div/div/br'
p131
F6.380821783940931
sS'/html/body/div/div/div/div/div/div/div/div/div/button'
p132
F4.573466861883327
sS'/html/body/div/div/div/div/div/div/ul/li'
p133
F2.2108967824986188
sS'/html/body/div/div/div/div/div/p/span'
p134
F5.965784284662088
sS'/html/body/div/div/div/div/div/div/div/span/a'
p135
F6.158429362604484
sS'/html/body/div/div/div/div/div/p/span/a'
p136
F2.899695094204315
sS'/html/body/div/div/div/div/div/div/div/a/span'
p137
F1.4035418604410146
sS'/html/body/div/div/div/div/div/button/div/span'
p138
F4.573466861883327
sS'/html/body/div/div/div/div/div/div/div/div/div/div/div/img'
p139
F2.9213901653036336
sS'/html/body/div/div/div/div/div/ul/li/div/p'
p140
F3.083141235300246
sS'/html/body/div/div/div/div/div/div/div/div/br'
p141
F7.380821783940932
sS'/html/body/div/div/div/div'
p142
F0.0
sS'/html/body/div/div/div/div/div/div/ul/li/h3'
p143
F4.573466861883327
sS'/html/body/div/div/div/div/a/div/span/strong'
p144
F7.380821783940932
sS'/html/body/div/div/style'
p145
F6.965784284662088
sS'/html/body/div/div/div/div/div/div/h2/a'
p146
F2.795859283219775
sS'/html/body/div/div/div/div/div/ul/li/div'
p147
F8.965784284662087
sS'/html/body/div/div/div/div/div/div/div/div/div/div/a/div/div'
p148
F7.965784284662087
sS'/html/body/div/div/div/div/p/small/a'
p149
F0.008682243099800773
sS'/html/body/div/div/div/div/div/div/div/a/div/a'
p150
F8.965784284662087
sS'/html/body/div/div/div/div/div/div/div/div/div/a/em'
p151
F8.965784284662087
sS'/html/body/div/div/div/div/div/div/strong'
p152
F7.965784284662087
sS'/html/body/div/div/div/div/div/div/title'
p153
F6.158429362604484
sS'/html/body/div/div/div/div/div/div/form/ol/input'
p154
F7.965784284662087
sS'/html/body/div/div/div/div/div/form/p'
p155
F6.380821783940931
sS'/html/body/div/div/div/div/div/div/form/ol/div/div/div/label/div'
p156
F7.965784284662087
sS'/html/body/div/div/div/div/div/div/div/div/div/input'
p157
F2.4266254735540556
sS'/html/body/div/div/div/div/div/span/span'
p158
F6.158429362604484
sS'/html/body/div/div/div/div/div/div/div/div/div/a/span'
p159
F4.158429362604483
sS'/html/body/div/div/div/div/div/div/div/a/meta'
p160
F4.107803289534515
sS'/html/body/div/div/div/div/div/div/div/div/div/div/label/a'
p161
F4.573466861883327
sS'/html/body/div/div/div/div/div/div/i'
p162
F5.058893689053569
sS'/html/body/div/div/div/div/div/div/div/div/div/div/span'
p163
F2.1328942704973457
sS'/html/body/div/div/div/div/div/div/a'
p164
F0.0028882793248263526
sS'/html/body/div/div/div/div/div/hr'
p165
F4.442222328605075
sS'/html/body/div/div/div/div/div/div/ul/li/div/div/div/div/img'
p166
F8.965784284662087
sS'/html/body/div/div/div/div/div/div/div/div/form/div/label/span/span'
p167
F4.573466861883327
sS'/html/body/div/div/div/div/div/div/div/table/tr/td/span/a/span'
p168
F2.965784284662087
sS'/html/body/div/div/div/div/a/div/div/div/h3'
p169
F8.965784284662087
sS'/html/body/div/div/div/div/div/div/div/a/div/img'
p170
F7.965784284662087
sS'/html/body/div/div/div/div/div/div/div/a/div/div/span'
p171
F8.965784284662087
sS'/html/body/div/div/div/div/div/div/div/a/div/div/div/div'
p172
F5.158429362604483
sS'/html/body/div/div/div/div/div/div/div/span'
p173
F0.005782352594006179
sS'/html/body/div/div/div/div/div/div/div/ul/li/a'
p174
F1.5479317697761892
sS'/html/body/div/div/div/div/div/h6'
p175
F7.965784284662087
sS'/html/body/div/div/div/div/div/h3'
p176
F2.795859283219775
sS'/html/body/div/div/div/div/div/h2'
p177
F0.0028882793248263526
sS'/html/body/div/div/div/div/div/h1'
p178
F7.380821783940932
sS'/html/body/div/div/div/div/div/div/div/div/em/a'
p179
F8.965784284662087
sS'/html/body/div/div/div/div/div/div/div/ul/li/h3'
p180
F4.573466861883327
sS'/html/body/div/div/div/div/div/div/table/table/tr/td/a'
p181
F8.965784284662087
sS'/html/body/div/div/div/div/div/div/ul/li/div/div/div/p/span/span'
p182
F7.965784284662087
sS'/html/body/div/div/div/div/div/div/table/tr/td/span/span'
p183
F2.293358942690592
sS'/html/body/div/div/div/div/input'
p184
F8.965784284662087
sS'/html/body/div/div/div/div/div/ul/li/div/div/div/div/ul/li/img'
p185
F0.4305089080412838
sS'/html/body/div/div/div/div/div/ul/li/br'
p186
F5.965784284662088
sS'/html/body/div/div/div/div/ul/li/div/div/div/div/ul/li/img'
p187
F1.9885043611621704
sS'/html/body/div/div/div/div/div/div/div/div/div/a/div/div/div'
p188
F8.965784284662087
sS'/html/body/div/div/div/div/div/div/div/meta'
p189
F4.965784284662088
sS'/html/body/div/div/div/div/h2/span'
p190
F0.008682243099800773
sS'/html/body/div/div/div/div/div/div/div/div/ul/li/a'
p191
F0.39973024649099537
sS'/html/head/link'
p192
F0.005782352594006179
sS'/html/body/div/div/div/div/div/div/div/div/div/div/div/span'
p193
F2.1844245711374275
sS'/html/body/div/div/div/div/div/ul/li/div/div/div/div/ul/li/a'
p194
F0.4305089080412838
sS'/html/body/div/div/div/div/div/div/div/a/div/div'
p195
F2.795859283219775
sS'/html/body/div/div/div/div/div/div/div/table/tr/td/a/span'
p196
F2.1975999598851605
sS'/html/body/div/div/div/div/div/div/div/div/div/p/a'
p197
F4.380821783940931
sS'/html/body/div/div/div/div/div/div/div/div/div/a/img'
p198
F6.965784284662088
sS'/html/body/div/div/div/div/div/div/div/div/div/div/div/meta'
p199
F2.3658714424749596
sS'/html/body/div/div/div/div/div/div/div/form/button/span'
p200
F2.680382065799839
sS'/html/body/div/div/div/div/div/div/div/div/div/div/a/div/div/h3'
p201
F5.795859283219775
sS'/html/body/div/style'
p202
F0.13923579737117195
sS'/html/body/div/div/div/div/div/div/ul/li/div/div/div/p/a'
p203
F8.965784284662087
sS'/html/body/div/div/div/div/form/div/p/small/br'
p204
F0.008682243099800773
sS'/html/body/div/div/div/div/a/div/div'
p205
F3.6438561897747253
sS'/html/body/div/div/div/div/div/div/ul/li/a/img'
p206
F4.795859283219775
sS'/html/body/div/div/div/div/div/div/div/div/strong/span'
p207
F6.380821783940931
sS'/html/body/div/div/div/div/div/div/div'
p208
F1.3959286763311394
sS'/html/body/div/div/div/div/div/div/form/div/span/button'
p209
F8.965784284662087
sS'/html/body/div/div/div/div/div/div/div/div/p/br'
p210
F6.643856189774725
sS'/html/body/div/div/div/div/div/div/div/h5/a/strong'
p211
F8.965784284662087
sS'/html/body/div/div/div/a/img'
p212
F7.965784284662087
sS'/html/body/div/div/div/div/div/div/div/div/ul'
p213
F2.680382065799839
sS'/html/body/div/div/div/div/div/p/b/i'
p214
F8.965784284662087
sS'/html/body/div/div/h3/a'
p215
F6.965784284662088
sS'/html/body/div/div/div/div/div/span'
p216
F2.680382065799839
sS'/html/body/div/div/div/div/div/div/span/span'
p217
F3.7563309190331378
sS'/html/body/div/div/div/div/form/div/div/div/div/span/a/i'
p218
F0.008682243099800773
sS'/html/body/div/div/div/div/div/ol/li/a'
p219
F7.965784284662087
sS'/html/body/div/div/div/div/div/p/a/i'
p220
F0.008682243099800773
sS'/html/body/div/div/div/div/div/div/div/div/div/div/div/div/a/meta'
p221
F2.4579896444633906
sS'/html/body/div/div/div/div/div/div/div/div'
p222
F1.857259827883918
sS'/html/body/div/div/div/div/div/div/div/div/ul/li/div/div/a/span'
p223
F0.4305089080412838
sS'/html/body/div/div/div/div/div/div/div/div/div/div/div/div/p/br'
p224
F8.965784284662087
sS'/html/body/div/div/div/div/div/div/div/div/div/a/div/span'
p225
F8.965784284662087
sS'/html/body/div/div/div/div/div/div/div/table/thead/tr/th/a'
p226
F3.0350469470992008
sS'/html/body/div/div/div/div/form/div/span/button'
p227
F0.008682243099800773
sS'/html/body/div/div/div/div/div/ul/li/div/a'
p228
F1.965784284662087
sS'/html/body/div/div/div/div/div/div/div/div/p/a'
p229
F7.965784284662087
sS'/html/body/div/div/div/button/span'
p230
F8.965784284662087
sS'/html/body/div/div/div/div/div/div/div/ul/li/span/span'
p231
F8.965784284662087
sS'/html/body/div/div/div/div/div/div/form/div/input'
p232
F6.965784284662088
sS'/html/body/div/div/div/div/div/div/div/div/div/div/div/div'
p233
F1.6896598793878495
sS'/html/body/div/div/div/div/div/div/form/div/label'
p234
F7.380821783940932
sS'/html/body/div/div/div/div/div/div/div/div/a/div/div/p'
p235
F2.988504361162171
sS'/html/head/style'
p236
F4.878321443411748
sS'/html/body/div/div/div/div/div/div/div/div/div/div/div/div/div/meta'
p237
F5.380821783940931
sS'/html/body/div/div/div/div/div/div/div/p/em'
p238
F7.965784284662087
sS'/html/body/div/div/div/div/div/div/a/div/div/div/img'
p239
F8.965784284662087
sS'/html/body/div/div/div/div/ul/li/div/div/div/h2'
p240
F1.9885043611621704
sS'/html/body/div/div/div/div/div/div/div/div/div/label/a'
p241
F4.573466861883327
sS'/html/body/div/div/div/div/div/div/div/div/div/div/a/span'
p242
F4.380821783940931
sS'/html/body/div/div/div/div/div/div/p/a/i'
p243
F7.380821783940932
sS'/html/body/div/div/div/h3/a'
p244
F2.4422223286050744
sS'/html/body/div/div/div/div/div/div/a/div/div/div/div/div'
p245
F8.965784284662087
sS'/html/body/div/div/div/div/div/div/form/input'
p246
F6.643856189774725
sS'/html/body/div/div/script'
p247
F0.06793882865657559
sS'/html/body/div/div/div/div/div/div/div/div/div/a/div/span/span'
p248
F8.965784284662087
sS'/html/body/div/div/div/div/div/form/div/div/input'
p249
F1.965784284662087
sS'/html/body/div/div/div/div/div/div/ul/li/span'
p250
F3.7958592832197753
sS'/html/body/div/div/div/div/div/h2/span'
p251
F7.965784284662087
sS'/html/body/div/div/div/div/div/br'
p252
F0.008682243099800773
sS'/html/body/div/div/div/div/div/div/p/a'
p253
F4.265344566520995
sS'/html/body/div/div/div/div/div/div/style'
p254
F5.965784284662088
sS'/html/body/div/div/div/div/div/ol/li'
p255
F7.965784284662087
sS'/html/body/div/div/div/div/div/div/a/div/h5'
p256
F8.965784284662087
sS'/html/body/div/div/div/div/form/input'
p257
F0.008682243099800773
sS'/html/body/div/div/div/div/div/div/div/div/div/a/p'
p258
F8.965784284662087
sS'/html/body/div/div/div/h2'
p259
F6.965784284662088
sS'/html/body/div/div/div/h1'
p260
F7.380821783940932
sS'/html/body/div/div/div/div/div/div/div/div/table/tr/td/select/option'
p261
F5.965784284662088
sS'/html/body/div/div/div/div/div/div/form/ol/div/div/div/label/div/label'
p262
F7.965784284662087
sS'/html/body/div/div/div/div/h3/a'
p263
F2.77595972578207
sS'/html/body/div/div/div/div/div/div/div/label/input'
p264
F7.965784284662087
sS'/html/body/div/div/div/div/div/div'
p265
F0.6259342817774622
sS'/html/body/div/div/div/div/div/div/div/table/tr/td/a/span/span'
p266
F8.965784284662087
sS'/html/body/div/div/div/div/div/div/a/span/span'
p267
F8.965784284662087
sS'/html/body/div/div/div/div/div/div/div/div/div/a/span/span'
p268
F5.50635266602479
sS'/html/body/div/div/div/div/div/a'
p269
F0.0028882793248263526
sS'/html/body/div/div/div/div/div/div/div/button/div/div'
p270
F4.573466861883327
sS'/html/body/div/div/div/div/div/div/a/div/div/div/div/p/em'
p271
F8.965784284662087
sS'/html/body/div/script'
p272
F0.008682243099800773
sS'/html/body/div/div/div/div/div/div/ul/li/p'
p273
F7.965784284662087
sS'/html/body/div/div/div/div/button/span'
p274
F0.0028882793248263526
sS'/html/body/div/div/div/div/h2'
p275
F0.008682243099800773
sS'/html/body/div/div/div/div/h1'
p276
F2.3075728019102923
sS'/html/body/div/div/div/div/div/div/div/div/div/div/script'
p277
F7.965784284662087
sS'/html/body/div/div/div/div/div/div/ul/li/a'
p278
F1.5228407888133588
sS'/html/body/div/div/div/div/form/div/div/div/button/em'
p279
F7.965784284662087
sS'/html/body/div/div/div/div/div/div/div/span/span'
p280
F7.380821783940932
sS'/html/body/div/div/div/ul/li/a'
p281
F1.8996950942043145
sS'/html/body/div/div/div/div/div/em'
p282
F7.965784284662087
sS'/html/body/div/div/div/div/div/div/a/h3'
p283
F4.878321443411748
sS'/html/body/div/div/div/div/div/div/div/div/div/div/a/img'
p284
F6.380821783940931
sS'/html/body/div/div/div/div/div/div/ul/li/div/a'
p285
F3.7563309190331378
sS'/html/body/div/div/div/div/div/div/div/div/strong/a'
p286
F4.965784284662088
sS'/html/body/div/div/div/div/div/div/div/div/strong'
p287
F8.965784284662087
sS'/html/body/div/div/div/div/div/ul/li/div/div/div/div/div/br'
p288
F0.4305089080412838
sS'/html/body/div/div/div/div/div/div/p/span'
p289
F2.0954195650786827
sS'/html/body/div/div/div/div/ul/li/a/span'
p290
F1.965784284662087
sS'/html/body/div/div/div/div/div/div/div/div/form/div/div/input'
p291
F8.965784284662087
sS'/html/body/div/div/div/div/div/div/div/div/div/img'
p292
F2.2243172982609405
sS'/html/body/div/div/div/div/div/div/div/div/meta'
p293
F2.380821783940931
sS'/html/body/div/div/div/div/div/ul/li/a/span'
p294
F0.4305089080412838
sS'/html/body/div/div/div/div/form/div/div/div/button/span'
p295
F7.965784284662087
sS'/html/body/div/div/div/div/button'
p296
F6.158429362604484
sS'/html/body/div/div/div/div/div/div/div/script'
p297
F1.4981787345790896
sS'/html/body/div/div/div/div/div/div/ul/li/p/a'
p298
F7.965784284662087
sS'/html/body/div/div/div/div/div/div/table/tbody/tr/td/textarea'
p299
F6.380821783940931
sS'/html/body/div/div/div/div/div/div/div/div/a/div/div/div/span'
p300
F7.965784284662087
sS'/html/body/div/div/div/div/div/div/div/div/div/p/em'
p301
F8.965784284662087
sS'/html/body/div/div/div/div/div/div/script'
p302
F0.31832585820716686
sS'/html/body/div/div/div/div/div/div/a/div/div/div/h3'
p303
F8.965784284662087
sS'/html/body/div/div/div/div/div/div/div/div/textarea'
p304
F2.795859283219775
sS'/html/body/div/div/div/div/div/ul/li/h3'
p305
F4.573466861883327
sS'/html/body/div/div/div/div/div/div/div/div/div/div/img'
p306
F5.265344566520995
sS'/html/body/div/div/div/div/div/div/form/ol/div/div/div/ul/li/label/span/a'
p307
F7.965784284662087
sS'/html/body/div/div/div/div/a/div/h3'
p308
F7.965784284662087
sS'/html/body/div/div/div/div/div/div/div/div/div/em'
p309
F5.265344566520995
sS'/html/body/div/div/div/div/div/div/div/div/h3'
p310
F4.573466861883327
sS'/html/body/div/div/div/div/span'
p311
F7.965784284662087
sS'/html/body/div/div/div/div/div/div/div/div/div/div/input'
p312
F4.573466861883327
sS'/html/body/div/div/div/div/div/div/table/tr/td/ul/li/em'
p313
F3.4422223286050744
sS'/html/body/div/div/div/div/div/div/ul/li/ol/li/span'
p314
F8.965784284662087
sS'/html/body/div/div/div/div/div/div/div/div/img'
p315
F4.265344566520995
sS'/html/body/div/div/div/div/a'
p316
F0.0028882793248263526
sS'/html/body/div/div/div/div/div/div/div/div/p/span/span'
p317
F8.965784284662087
sS'/html/body/div/div/div/div/div/div/div/button/span'
p318
F0.36587144247495945
sS'/html/body/div/div/div/div/div/div/dl/dt'
p319
F4.442222328605075
sS'/html/body/div/div/div/div/div/div/div/div/div/li'
p320
F8.965784284662087
sS'/html/body/div/div/div/div/div/div/div/div/div/script'
p321
F4.321928094887363
sS'/html/body/div/div/div/div/div/div/select/option'
p322
F6.380821783940931
sS'/html/body/div/div/div/div/div/div/dl/dd'
p323
F4.442222328605075
sS'/html/script'
p324
F4.321928094887363
sS'/html/body/div/div/div/div/div/div/button'
p325
F7.965784284662087
sS'/html/body/div/div/div/div/form/div/div/div/div'
p326
F0.008682243099800773
sS'/html/body/div/div/div/div/div/ul/li/div/div/div/div/h2'
p327
F0.4305089080412838
sS'/html/body/div/div/div/div/p/img'
p328
F0.008682243099800773
sS'/html/body/div/div/div/div/div/div/table/tbody/tr/td'
p329
F5.643856189774724
sS'/html/body/div/div/div/div/div/div/div/a/div'
p330
F6.643856189774725
sS'/html/body/div/div/div/div/div/div/div/h5/a'
p331
F8.965784284662087
sS'/html/body/div/div/div/div/div/div/form/ol/div/div/div/div'
p332
F7.965784284662087
sS'/html/body/div/div/div/div/div/ul/li/span/span'
p333
F2.8365012677171206
sS'/html/body/div/div/div/div/div/div/div/h2/a'
p334
F6.380821783940931
sS'/html/body/div/div/div/div/div/div/div/div/form/div/div/span/button/em'
p335
F8.965784284662087
sS'/html/body/div/div/div/div/div/div/div/table/tr/td/a'
p336
F2.0350469470992008
sS'/html/body/div/div/div/div/img'
p337
F8.965784284662087
sS'/html/body/div/div/div/div/div/div/div/p/span/br'
p338
F7.965784284662087
sS'/html/body/div/div/div/div/div/table/tr/td/a'
p339
F4.265344566520995
sS'/html/body/div/div/div/div/div/form/textarea'
p340
F6.380821783940931
sS'/html/body/div/div/div/div/a/div/div/div/div/p'
p341
F8.965784284662087
sS'/html/body/div/div/div/div/div/div/div/a/p/em'
p342
F7.965784284662087
sS'/html/body/div/div/div/div/p'
p343
F0.008682243099800773
sS'/html/body/div/div/div/div/div/div/div/div/a/div/div/img'
p344
F7.965784284662087
sS'/html/body/div/div/div/div/div/div/table/table/tr/td/span/span'
p345
F8.965784284662087
sS'/html/body/div/div/div/div/div/div/div/img'
p346
F3.921390165303634
sS'/html/body/div/div/div/div/div/div/table/tbody/tr/td/p/br'
p347
F8.965784284662087
sS'/html/body/div/div/div/div/div/div/a/div/div/img'
p348
F0.0028882793248263526
sS'/html/body/div/div/div/div/div/div/div/div/button'
p349
F3.7958592832197753
sS'/html/body/div/div/div/div/div/ul/li'
p350
F0.4305089080412838
sS'/html/body/div/div/div/div/div/div/form/label/input'
p351
F7.965784284662087
sS'/html/body/div/div/div/div/div/div/table/tbody/tr/td/select'
p352
F6.380821783940931
sS'/html/body/div/div/div/div/div/div/div/div/div/br'
p353
F8.965784284662087
sS'/html/body/div/div/div/div/a/img'
p354
F8.965784284662087
sS'/html/body/div/div/div/div/div/div/div/div/div/div/a/div/div/img'
p355
F5.795859283219775
sS'/html/body/div/div/div/div/div/div/div/a/div/div/p'
p356
F8.965784284662087
sS'/html/body/div/div/div/div/div/div/div/div/div/h2/span'
p357
F8.965784284662087
sS'/html/body/div/div/div/div/div/div/ul/li/a/span'
p358
F3.7958592832197753
sS'/html/body/div/div/div/div/div/div/div/div/span/span'
p359
F8.965784284662087
sS'/html/body/div/div/div/nav/ul/li/a'
p360
F7.965784284662087
sS'/html/body/div/div/div/div/div/div/div/div/p/span'
p361
F7.380821783940932
sS'/html/body/div/div/div/div/div/div/div/div/h3/div/a'
p362
F4.573466861883327
sS'/html/body/div/div/div/div/div/table/thead/tr/th/span'
p363
F6.643856189774725
sS'/html/body/div/div/div/div/div/div/div/button/div'
p364
F4.573466861883327
sS'/html/body/div/div/div/div/h3/a/meta'
p365
F4.321928094887363
sS'/html/body/div/div/div/div/div/div/a/br'
p366
F5.965784284662088
sS'/html/body/div/div/div/div/div/form/p/select/option'
p367
F8.965784284662087
sS'/html/body/div/div/div/div/form/div/div/div/div/input'
p368
F0.008682243099800773
sS'/html/body/div/div/div/div/div/div/table/tr/td'
p369
F2.3075728019102923
sS'/html/body/div/div/div/style'
p370
F3.0588936890535687
sS'/html/body/div/div/div/div/div/div/div/div/div/a/p/em'
p371
F8.965784284662087
sS'/html/body/div/div/div/div/div/div/div/a/div/div/div/span'
p372
F2.795859283219775
sS'/html/body/div/div/div/div/div/div/div/div/div/div/a/div/img'
p373
F2.795859283219775
sS'/html/body/div/div/div/div/div/ul/li/div/div/span'
p374
F5.965784284662088
sS'/html/body/div/div/div/div/div/div/ul/li/div/div/div/span/a'
p375
F8.965784284662087
sS'/html/body/div/div/div/div/div/div/div/div/table/tr/td/textarea'
p376
F5.965784284662088
sS'/html/body/div/div/div/div/div/div/div/a/button/em'
p377
F0.4305089080412838
sS'/html/body/div/div/div/div/div/div/div/div/div/div/div/div/div/a'
p378
F3.380821783940931
sS'/html/body/div/div/div/div/div/div/div/table/tr/td/ul/li/em'
p379
F3.4111954329844494
sS'/html/body/div/div/div/div/div/div/ul/li/div/div/div/img'
p380
F8.965784284662087
sS'/html/body/div/div/div/div/div/div/div/div/div/div/a/div/div/p'
p381
F2.6259342817774622
sS'/html/body/div/div/div/div/div/ul/li/a'
p382
F0.0028882793248263526
sS'/html/body/div/div/div/div/div'
p383
F0.0028882793248263526
sS'/html/body/div/div/div/div/div/div/a/p'
p384
F8.965784284662087
sS'/html/body/div/div/div/div/div/div/div/table/tr/td'
p385
F1.457989644463391
sS'/html/body/div/div/div/div/div/div/div/div/div/span/a'
p386
F5.058893689053569
sS'/html/body/div/div/div/div/div/script'
p387
F0.13289427049734548
sS'/html/body/div/div/div/div/div/div/br'
p388
F3.9657842846620874
sS'/html/body/div/div/div/div/div/div/table/tr/td/span'
p389
F4.107803289534515
sS'/html/body/div/div/div/div/div/div/div/table/tr/td/span/span'
p390
F1.4819685073978306
sS'/html/body/div/div/div/div/div/div/div/div/p/span/a'
p391
F8.965784284662087
sS'/html/body/div/div/div/div/div/div/h1/em'
p392
F7.965784284662087
sS'/html/body/div/div/div/div/div/div/ul/li/div/a/span'
p393
F3.7958592832197753
sS'/html/body/div/div/div/div/div/div/div/div/div/div/div/div/div/div'
p394
F5.380821783940931
sS'/html/body/div/div/div/div/div/form/div/span/a'
p395
F8.965784284662087
sS'/html/body/div/div/div/div/a/div/span'
p396
F3.6438561897747253
sS'/html/body/div/div/div/div/div/ul/li/div/div/div/div/table/tr/td/img'
p397
F0.4305089080412838
sS'/html/body/div/div/div/div/div/p/a/strong'
p398
F7.965784284662087
sS'/html/body/div/div/div/div/div/div/p/a/span'
p399
F7.965784284662087
sS'/html/body/div/div/div/div/div/p/strong'
p400
F7.965784284662087
sS'/html/body/div/div/div/div/div/div/div/ul/div/div'
p401
F4.573466861883327
sS'/html/body/div/div/div/div/div/div/a/p/em'
p402
F1.380821783940931
sS'/html/body/div/div/div/div/div/div/form/label/textarea'
p403
F7.965784284662087
sS'/html/body/div/div/div/div/div/div/div/div/a/sub'
p404
F5.058893689053569
sS'/html/body/div/div/div/div/div/div/div/div/div/div/a'
p405
F2.1844245711374275
sS'/html/body/div/div/div/div/div/div/div/div/div/div/div/div/div/div/span'
p406
F5.380821783940931
sS'/html/body/div/div/div/div/a/div/div/div/div/span'
p407
F8.965784284662087
sS'/html/body/div/div/div/div/div/div/div/a/img'
p408
F0.008682243099800773
sS'/html/body/div/div/div/div/div/span/a'
p409
F6.158429362604484
sS'/html/body/div/div/div/div/div/div/h1'
p410
F2.3075728019102923
sS'/html/body/div/div/div/div/div/div/div/div/div/div/a/div/div/p/em'
p411
F2.795859283219775
sS'/html/body/div/div'
p412
F5.795859283219775
sS'/html/body/div/div/div/div/div/a/img'
p413
F4.321928094887363
sS'/html/body/div/div/div/div/div/div/form/ol/div/div/div/br'
p414
F7.965784284662087
sS'/html/body/div/div/div/div/div/div/table/tr/td/p/br'
p415
F8.965784284662087
sS'/html/body/div/div/div/div/div/form/p/b'
p416
F8.965784284662087
sS'/html/body/div/div/div/div/div/div/div/div/a/div/div/div'
p417
F2.988504361162171
sS'/html/body/div/div/div/div/div/form/p/i'
p418
F6.380821783940931
sS'/html/body/div/div/div/div/div/ul/li/a/em'
p419
F8.965784284662087
sS'/html/body/div/div/div/div/div/div/a/span'
p420
F0.008682243099800773
sS'/html/body/div/div/div/div/div/input'
p421
F6.158429362604484
sS'/html/body/div/div/div/div/div/div/div/div/div/a/div/div/p'
p422
F7.965784284662087
sS'/html/body/div/div/div/div/a/div'
p423
F3.5734668618833267
sS'/html/body/div/div/div/div/div/img'
p424
F2.0115879742752116
sS'/html/body/div/div/div/div/div/div/div/a/div/div/p/em'
p425
F8.965784284662087
sS'/html/body/div/div/div/div/div/div/div/div/div/a/div/h3'
p426
F8.965784284662087
sS'/html/body/div/div/div/div/div/div/a/button/em'
p427
F1.965784284662087
sS'/html/body/div/div/div/div/div/div/a/div/div/div'
p428
F4.50635266602479
sS'/html/body/div/div/div/div/div/div/form/label/br'
p429
F7.965784284662087
sS'/html/body/div/div/div/div/div/ul/li/span'
p430
F3.7563309190331378
sS'/html/body/div/div/div/div/div/div/div/table/tr/td/time'
p431
F3.473931188332412
sS'/html/body/div/div/div/div/div/div/a/div/div/div/div/span'
p432
F8.965784284662087
sS'/html/body/div/div/h1'
p433
F8.965784284662087
sS'/html/body/div/div/div/div/div/div/div/div/div/div/div/div/div/div/div/div/a/img'
p434
F8.965784284662087
sS'/html/body/div/div/div/div/div/ul/li/div/div/div/h2'
p435
F0.4305089080412838
sS'/html/body/div/div/div/div/div/div/div/div/div/div/div/a'
p436
F1.7858751946471525
sS'/html/body/div/div/div/div/div/div/div/ol/li/span'
p437
F7.965784284662087
sS'/html/body/div/div/div/div/div/div/div/div/table/tr/td/p/a'
p438
F8.965784284662087
sS'/html/body/div/div/div/div/div/div/div/div/ul/li/div'
p439
F6.380821783940931
sS'/html/body/div/div/div/div/div/div/table/tbody/tr/td/p/a'
p440
F7.380821783940932
sS'/html/body/div/div/div/div/div/div/div/div/div/div/div/div/img'
p441
F6.380821783940931
sS'/html/body/div/div/div/div/div/div/div/div/p'
p442
F0.008682243099800773
sS'/html/body/div/div/div/div/div/div/div/div/span/br'
p443
F2.0
sS'/html/body/div/div/div/div/p/a/i'
p444
F0.008682243099800773
sS'/html/body/div/div/div/div/div/ol/li/p/a'
p445
F7.965784284662087
sS'/html/body/div/div/div/div/div/div/div/h2'
p446
F4.107803289534515
sS'/html/body/div/div/div/div/div/div/div/div/table/thead/tr/th'
p447
F5.965784284662088
sS'/html/body/div/div/div/div/div/div/div/div/div/div/div/div/div/div/h3/a'
p448
F8.965784284662087
sS'/html/body/div/div/div/div/div/table/tbody/tr/td'
p449
F6.965784284662088
sS'/html/body/div/div/div'
p450
F2.7563309190331373
sS'/html/body/div/div/div/div/div/div/div/div/a/span/span'
p451
F5.50635266602479
sS'/html/body/div/div/div/div/div/div/a/div/div'
p452
F4.50635266602479
sS'/html/body/div/div/div/div/div/form/button/span'
p453
F6.380821783940931
sS'/html/body/div/div/div/span'
p454
F0.008682243099800773
sS'/html/body/div/div/div/div/div/div/div/div/div/div/span/meta'
p455
F5.380821783940931
sS'/html/body/div/div/div/div/div/div/ul/li/div/div/dl/dd/a'
p456
F7.965784284662087
sS'/html/body/div/div/div/div/div/div/div/a/h5'
p457
F6.965784284662088
sS'/html/body/div/div/div/div/div/div/div/table/tr/td/span'
p458
F2.0588936890535687
sS'/html/body/div/div/div/div/div/div/table/thead/tr/th'
p459
F3.5395195299599895
sS'/html/body/div/div/div/div/div/div/table/tr/td/div'
p460
F2.473931188332412
sS'/html/body/div/div/div/div/a/h3'
p461
F3.921390165303634
sS'/html/body/div/div/div/div/div/div/div/div/p/strong'
p462
F4.321928094887363
sS'/html/body/div/div/div/div/div/div/div/a'
p463
F0.25842515258120435
sS'/html/body/div/div/div/div/div/div/div/div/ul/li/span'
p464
F7.965784284662087
sS'/html/body/div/div/div/div/div/div/div/div/div/div/div/div/div/div/meta'
p465
F5.380821783940931
sS'/html/body/div/div/div/div/form/div/div/select/option'
p466
F0.008682243099800773
sS'/html/body/div/div/div/div/div/div/div/div/h2/a'
p467
F6.380821783940931
sS'/html/body/div/div/div/div/div/div/div/table/tr/td/ul/li/span'
p468
F3.2108967824986188
sS'/html/body/div/div/div/div/div/ol/li/p/strong'
p469
F7.965784284662087
sS'/html/body/div/div/div/div/div/div/div/div/div/a/p/span'
p470
F2.795859283219775
sS'/html/body/div/div/div/div/div/div/div/div/div/h2/a'
p471
F8.965784284662087
sS'/html/body/div/div/div/div/div/div/div/div/div/div/div/em'
p472
F3.380821783940931
sS'/html/body/div/div/div/div/div/div/div/div/div/ul/li/a'
p473
F7.965784284662087
sS'/html/body/div/div/div/div/div/div/form/select/option'
p474
F7.380821783940932
sS'/html/body/div'
p475
F0.008682243099800773
sS'/html/body/div/div/div/meta'
p476
F4.965784284662088
sS'/html/body/div/div/div/div/div/div/div/ul/h3'
p477
F4.573466861883327
sS'/html/body/div/div/div/div/div/div/div/div/div/div/meta'
p478
F2.145605322246899
sS'/html/body/div/div/div/div/div/form/div/span'
p479
F8.965784284662087
sS'/html/body/div/div/div/div/div/div/div/div/div/div/a/div/div/div/span'
p480
F5.795859283219775
sS'/html/body/div/div/div/div/div/form/span'
p481
F6.380821783940931
sS'/html/body/div/div/div/div/div/div/table/tbody/tr/td/p/a/span'
p482
F7.965784284662087
sS'/html/body/div/div/div/div/div/button'
p483
F4.573466861883327
sS'/html/body/div/div/div/div/div/div/a/div/span'
p484
F7.965784284662087
sS'/html/body/div/div/div/div/div/div/div/div/div/div/div/div/div'
p485
F3.265344566520995
sS'/html/body/div/div/div/div/div/div/button/span'
p486
F1.6989977439671857
sS'/html/body/div/div/div/div/form/div/div/label/span/br'
p487
F0.008682243099800773
sS'/html/body/div/div/div/div/div/ul/li/p/a'
p488
F2.795859283219775
sS'/html/body/div/div/div/div/div/div/div/ul/li/div/div'
p489
F4.573466861883327
sS'/html/body/div/div/div/div/div/div/div/div/div/p/span'
p490
F3.878321443411748
sS'/html/body/div/div/div/div/div/div/div/div/div/a/div'
p491
F8.965784284662087
sS'/html/body/div/div/div/div/div/meta'
p492
F3.380821783940931
sS'/html/body/div/div/div/div/div/div/form/div/button/span'
p493
F7.965784284662087
sS'/html/body/div/div/div/div/div/div/div/div/div/a/div/div/p/em'
p494
F7.965784284662087
sS'/html/body/div/div/div/div/div/div/div/div/a/button/span'
p495
F4.643856189774724
sS'/html/body/div/div/div/div/div/div/a/img'
p496
F0.7131188522118386
sS'/html/body/div/div/div/div/div/div/div/div/a/h5'
p497
F4.210896782498619
sS'/html/body/noscript/iframe'
p498
F7.965784284662087
sS'/html/body/div/div/div/a/div/span/strong'
p499
F8.965784284662087
sS'/html/body/div/div/div/div/div/div/a/div/div/span'
p500
F0.0028882793248263526
sS'/html/body/div/div/div/div/div/div/div/div/button/span/span'
p501
F6.380821783940931
sS'/html/body/div/div/div/div/form/div/div/input'
p502
F0.0028882793248263526
sS'/html/body/div/div/div/div/div/a/h3'
p503
F2.77595972578207
sS'/html/body/div/div/div/div/div/ul/li/div/div/div/div/div/a/span'
p504
F0.4305089080412838
sS'/html/body/div/div/div/div/div/div/ul/li/div/a/img'
p505
F3.7178567712185013
sS'/html/body/div/div/div/div/div/div/div/a/div/meta'
p506
F2.539519529959989
sS'/html/body/div/div/div/div/div/div/div/div/div/div/a/div/span'
p507
F7.965784284662087
sS'/html/body/div/div/div/div/div/table/tr/td/span/span'
p508
F6.158429362604484
sS'/html/head/title'
p509
F0.008682243099800773
sS'/html/body/div/div/div/div/form/div/div/small/a'
p510
F0.008682243099800773
sS'/html/body/div/div/div/div/div/table/tr/td/a/span'
p511
F4.965784284662088
sS'/html/body/div/div/div/div/div/div/div/a/div/h3'
p512
F7.965784284662087
sS'/html/body/div/div/div/div/form/div/input'
p513
F0.008682243099800773
sS'/html/body/div/div/div/div/ul/li/a'
p514
F0.0028882793248263526
sS'/html/body/div/div/div/div/ul/li'
p515
F0.0028882793248263526
sS'/html/body/div/div/div/div/form/div/label'
p516
F0.008682243099800773
sS'/html/body/div/div/div/div/span/a/em'
p517
F8.965784284662087
sS'/html/body/div/div/div/div/div/div/table/tr/td/ul/li/span'
p518
F3.3219280948873626
sS'/html/body/div/div/div/div/div/div/div/table/thead/tr/th/span'
p519
F3.0350469470992008
sS'/html/body/div/div/div/div/form/div/div/label/span/a/i'
p520
F0.008682243099800773
sS'/html/body/div/div/div/div/div/ul/li/a/br'
p521
F2.0588936890535687
sS'/html/body/div/div/div/div/div/div/div/div/div/div/div/div/script'
p522
F8.965784284662087
sS'/html/body/div/div/div/div/div/div/div/div/a/span'
p523
F0.24468509595490195
sS'/html/body/div/div/div/div/h2/a/em'
p524
F4.321928094887363
sS'/html/body/div/div/div/div/div/ul/li/div/div/div/div'
p525
F0.4305089080412838
sS'/html/body/div/div/div/div/div/div/div/hr'
p526
F8.965784284662087
sS'/html/body/div/div/div/div/div/button/span'
p527
F0.008682243099800773
sS'/html/body/div/div/div/div/div/div/div/div/a/div/img'
p528
F2.795859283219775
sS'/html/body/div/div/div/div/div/div/ul/li/div/div/p/em'
p529
F7.965784284662087
sS'/html/body/div/div/div/div/div/div/div/div/a/div/div/span'
p530
F2.795859283219775
sS'/html/body/div/div/div/div/div/div/form/div/div/input'
p531
F0.4305089080412838
sS'/html/body/div/div/div/div/script'
p532
F0.0028882793248263526
sS'/html/body/div/div/div/div/div/div/div/div/a'
p533
F1.8677522017015604
sS'/html/body/div/div/div/div/div/h2/a'
p534
F8.965784284662087
sS'/html/body/div/div/div/div/div/div/div/div/div/a/div/img'
p535
F6.965784284662088
sS'/html/body/div/div/div/div/div/ul'
p536
F8.965784284662087
sS'/html/body/div/div/div/div/div/div/div/div/div/div/div/div/a/span'
p537
F2.4579896444633906
sS'/html/body/div/div/div/div/div/div/div/div/div/a/sub'
p538
F6.158429362604484
sS'/html/body/div/div/div/div/div/div/div/div/div/div/p/span'
p539
F2.4579896444633906
sS'/html/body/div/div/div/div/div/div/div/h4'
p540
F4.50635266602479
sS'/html/body/div/div/div/div/div/div/div/h3'
p541
F0.008682243099800773
sS'/html/body/div/div/div/ul/li'
p542
F1.965784284662087
sS'/html/body/div/div/div/div/div/div/form/ol/div/div/div/input'
p543
F7.965784284662087
sS'/html/body/div/div/div/div/a/div/em/span'
p544
F7.380821783940932
sS'/html/head/title/link'
p545
F7.965784284662087
sS'/html/body/div/div/div/div/div/div/form/button/span'
p546
F3.380821783940931
sS'/html/body/script'
p547
F0.0
sS'/html/body/div/div/div/div/div/div/div/div/div/div'
p548
F1.8468432119385796
sS'/html/body/div/div/div/div/div/form/div/span/select/option'
p549
F8.965784284662087
sS'/html/body/div/div/div/div/div/div/div/style'
p550
F1.965784284662087
sS'/html/body/div/div/div/div/div/div/div/div/div/div/div/br'
p551
F3.380821783940931
sS'/html/body/div/div/div/a/div/em/span'
p552
F8.965784284662087
sS'/html/body/div/div/div/div/a/div/div/div/img'
p553
F8.965784284662087
sS'/html/body/div/div/div/div/div/form/div/div/div/button/em'
p554
F1.965784284662087
sS'/html/body/div/div/div/div/div/div/form/div/div/div/button/span'
p555
F0.4305089080412838
sS'/html/body/div/div/div/div/div/div/ul/br'
p556
F8.965784284662087
sS'/html/body/div/div/div/div/div/div/form/br'
p557
F7.965784284662087
sS'/html/body/div/div/div/div/div/div/div/ul/li/a/img'
p558
F1.9885043611621704
sS'/html/body/div/div/div/div/div/div/div/ul/li/div/div/a'
p559
F1.9885043611621704
sS'/html/body/div/div/div/div/div/div/div/div/div/strong/a'
p560
F7.965784284662087
sS'/html/body/div/div/div/div/div/div/form/ol/div/table/tbody/tr/td/input'
p561
F7.965784284662087
sS'/html/body/div/div/div/div/a/div/button'
p562
F7.380821783940932
sS'/html/body/div/div/div/div/div/div/div/p/a/em'
p563
F8.965784284662087
sS'/html/body/div/div/div/div/div/div/div/ul/li/span'
p564
F6.643856189774725
sS'/html/body/div/div/div/div/div/div/hr'
p565
F7.380821783940932
sS'/html/body/div/div/div/div/div/div/table/br'
p566
F8.965784284662087
sS'/html/body/div/div/div/div/div/div/div/div/div/div/div/div/a/span/span'
p567
F2.4579896444633906
sS'/html/body/div/div/div/h1/span'
p568
F2.988504361162171
sS'/html/body/div/div/div/div/div/div/ul/li/div/div'
p569
F3.7958592832197753
sS'/html/body/div/div/div/div/div/div/div/div/div/a/div/div'
p570
F8.965784284662087
sS'/html/body/div/div/div/div/h4'
p571
F0.008682243099800773
sS'/html/body/div/div/div/div/div/div/div/a/div/div/div'
p572
F3.107803289534515
sS'/html/body/div/div/div/div/div/div/div/div/div/div/div'
p573
F2.77595972578207
sS'/html/body/div/div/div/div/div/div/div/div/dl/dd'
p574
F5.965784284662088
sS'/html/body/div/div/div/div/form/div/div'
p575
F0.008682243099800773
sS'/html/body/div/div/div/div/div/div/form/ol/div/div/div/ul/li/label/span/input'
p576
F7.965784284662087
sS'/html/body/div/div/div/div/div/p'
p577
F0.005782352594006179
sS'/html/body/div/div/div/div/div/div/div/p/span'
p578
F5.965784284662088
sS'/html/body/div/div/div/div/div/div/div/div/div'
p579
F2.1202942337177118
sS'/html/body/div/div/div/div/div/h3/span'
p580
F2.795859283219775
sS'/html/body/div/div/div/div/div/div/ul/li/a/div'
p581
F8.965784284662087
sS'/html/body/div/div/div/div/div/div/h3'
p582
F6.643856189774725
sS'/html/body/div/div/div/div/div/div/h2'
p583
F2.1713684183119812
sS'/html/body/div/div/div/div/div/div/div/div/h3/span'
p584
F0.008682243099800773
sS'/html/body/div/div/div/div/div/div/div/a/p'
p585
F7.965784284662087
sS'/html/body/div/div/div/div/div/div/div/div/ul/li/a/img'
p586
F0.4305089080412838
sS'/html/body/div/div/div/div/div/div/div/div/div/div/div/div/div/span'
p587
F2.3658714424749596
sS'/html/body/div/div/div/div/div/div/div/div/div/meta'
p588
F4.321928094887363
sS'/html/body/div/div/div/div/div/div/ul/ul/li/p'
p589
F7.965784284662087
sS'/html/body/div/div/div/div/div/table/tr/td/a/meta'
p590
F4.965784284662088
sS'/html/body/div/div/div/script'
p591
F0.13289427049734548
sS'/html/body/div/div/div/div/div/div/div/p/a'
p592
F6.380821783940931
sS'/html/body/div/div/div/div/div/span/button'
p593
F6.158429362604484
sS'/html/body/div/div/div/div/div/div/div/a/br'
p594
F8.965784284662087
sS'/html/body/div/div/div/div/div/a/div/span'
p595
F4.573466861883327
sS'/html/body/div/div/div/div/div/h1/span'
p596
F8.965784284662087
sS'/html/body/div/div/div/div/div/div/div/div/script'
p597
F0.5437195184892747
s.