(dp0
S'/html/body/div/div/div/div/div/div/table/tr/td/div/a/span'
p1
F4.307428525192248
sS'/html/body/div/div/div/div/form/fieldset/input'
p2
F0.20309186537751173
sS'/html/body/div/div/div/div/div/div/div/div/div/a'
p3
F1.381429106636024
sS'/html/body/div/div/div/div/div/div/div/div/h3/div/a/img'
p4
F2.2370391973008497
sS'/html/body/div/div/div/div/div/div/div/div/a/img'
p5
F1.7224660244710912
sS'/html/body/div/div/div/div/div/span/br'
p6
F4.62935662007961
sS'/html/body/div/div/div/div/div/div/p/br'
p7
F6.6293566200796095
sS'/html/body/div/div/div/div/div/div/div/div/div/div/div/div/ul/li/a'
p8
F6.6293566200796095
sS'/html/body/div/div/div/div/div/p/a'
p9
F2.4594316186372973
sS'/html/body/div/div/div/div/div/div/div/h3/div/a/img'
p10
F5.044394119358453
sS'/html/body/div/div/div/div/div/table/thead/tr/td/a'
p11
F6.6293566200796095
sS'/html/body/div/div/div/div/div/div/div/div/div/div/div/div/span/a'
p12
F2.2370391973008497
sS'/html/body/div/div/div/div/div/div/table/tr/td/a'
p13
F5.044394119358453
sS'/html/body/div/div/div/div/div/div/div/div/div/div/dl/dd/span/a'
p14
F5.044394119358453
sS'/html/body/header/div/div/div/div/a'
p15
F4.62935662007961
sS'/html/body/rss/channel/item/link'
p16
F4.62935662007961
sS'/html/body/div/div/div/div/div/div/div/div/div/div/p/br'
p17
F3.4594316186372978
sS'/html/body/div/div/div/img'
p18
F6.6293566200796095
sS'/html/body/div/div/div/a'
p19
F0.18641312423088138
sS'/html/body/div/div/div/div/div/div/div/div/div/span'
p20
F1.1057946640225966
sS'/html/body/div/div/div/div/div/div/div/span/input'
p21
F2.1699250014423126
sS'/html/head/meta'
p22
F0.05950101174866165
sS'/html/body/header/div/div/div/div/img'
p23
F4.62935662007961
sS'/html/body/div/div/div/div/div/div/ul/li/ul/li/a'
p24
F5.044394119358453
sS'/html/body/div/div/div/form/div/p/label'
p25
F5.044394119358453
sS'/html/body/div/div/div/div/div/table/thead/tr/td'
p26
F5.62935662007961
sS'/html/body/div/div/div/div/div/div/div/div/div/strong'
p27
F2.1699250014423126
sS'/html/body/div/div/div/div/div/div/div/p/a/wbr'
p28
F5.62935662007961
sS'/html/body/div/div/div/div/div/div/div/form/input'
p29
F4.307428525192248
sS'/html/body/div/div/div/div/div/div/div/div/div/span/em'
p30
F2.8220016980220057
sS'/html/body/div/div/div/div/p/a'
p31
F1.985500430304885
sS'/html/body/div/div/div/div/div/div/div/ul/li/span/a'
p32
F5.62935662007961
sS'/html/body/div/div/div/div/div/div/ul/li/div/img'
p33
F6.6293566200796095
sS'/html/body/div/div/div/div/ul/li/div/a'
p34
F4.62935662007961
sS'/html/head/script'
p35
F0.09019780897157814
sS'/html/body/div/div/div/div/div/div/div/div/div/div/div/span/a'
p36
F1.5418937788292701
sS'/html/body/div/div/div/div/div/table/tbody/tr/td/a'
p37
F5.62935662007961
sS'/html/body/div/div/div/div/div/div/ul/li/div/span/a'
p38
F5.62935662007961
sS'/html/body/div/div/div/div/div/form/div/div/div'
p39
F6.6293566200796095
sS'/html/body/div/div/div/form/div/input'
p40
F5.044394119358453
sS'/html/body/div/div/div/div/div/div/div/div/div/div/span/em'
p41
F5.044394119358453
sS'/html/body/div/div/div/div/div/div/div/form/div/div/input'
p42
F4.307428525192248
sS'/html/body/div/div/div/div/div/div/ul/li/div/div/div/p'
p43
F5.044394119358453
sS'/html/body/div/div/div/div/div/div/div/div/div/span/link'
p44
F4.62935662007961
sS'/html/body/div/div/div/div/div/div/ul/li/ul/li/span'
p45
F5.044394119358453
sS'/html/body/div/div/div/div/div/div/a/div/div/p'
p46
F6.6293566200796095
sS'/html/body/div/div/div/div/div/div/div/div/div/div/a'
p47
F1.985500430304885
sS'/html/body/div/div/div/div/div/div/div/div/div/div/p'
p48
F1.4594316186372973
sS'/html/body/div/div/div/div/div/span/div/span/a'
p49
F5.044394119358453
sS'/html/body/div/div/div/div/div/div/ul/li/div'
p50
F6.6293566200796095
sS'/html/body/div/div/div/div/div/div/div/div/span/a'
p51
F2.5418937788292704
sS'/html/body/div/div/div/div/div/div/link'
p52
F4.62935662007961
sS'/html/body/div/div/div/div/br'
p53
F1.6751603096927343
sS'/html/body/div/div/div/div/div/div/div/p/a/span'
p54
F2.8220016980220057
sS'/html/body/div/div/div/div/div/table/tbody/tr/td/span'
p55
F6.6293566200796095
sS'/html/body/div/div/div/div/div/style'
p56
F3.0443941193584534
sS'/html/body/div/div/div/div/div/ul/li/span/a'
p57
F4.62935662007961
sS'/html/body/rss/channel/copyright'
p58
F4.62935662007961
sS'/html/body/div/div/div/div/div/span/link'
p59
F4.62935662007961
sS'/html/body/div/div/div/div/div/div/ul/li/div/a/img'
p60
F4.044394119358453
sS'/html/body/div/div/div/div/div/div/div/form/div/div/button'
p61
F4.307428525192248
sS'/html/body/div/div/div/div/div/div/p/strong'
p62
F4.62935662007961
sS'/html/body/div/div/div/div/div/div/div/div/div/div/ul/li/a'
p63
F5.044394119358453
sS'/html/body/rss/channel/item/description'
p64
F4.62935662007961
sS'/html/body/div/div/div/div/div/div/table/tr/td/div/a'
p65
F4.307428525192248
sS'/html/body/div/div/div/div/div/div/div/div/ul/li/a/em'
p66
F4.62935662007961
sS'/html/body/div/div/div/div/div/div/div/div/dl/dt'
p67
F4.62935662007961
sS'/html/body/div/div/div/div/div/div/table/tr/td/div/p'
p68
F6.6293566200796095
sS'/html/body/div/div/div/div/div/div/div/div/p/a/wbr'
p69
F6.6293566200796095
sS'/html/body/div/div/div/div/div/div/span'
p70
F2.0443941193584534
sS'/html/body/div/div/div/div/div/div/dl/dd/a'
p71
F2.2370391973008497
sS'/html/body/div/div/div/div/div/ul/li/h3/div/a/img'
p72
F6.6293566200796095
sS'/html/body/div/div/div/div/div/a/span'
p73
F3.62935662007961
sS'/html/body/div/div/div/div/div/div/table/tr/td/a/img'
p74
F4.307428525192248
sS'/html/body/div/div/div/div/div/div/div/ul/li/a'
p75
F2.8220016980220057
sS'/html/body/div/div/div/div/div/div/table/tr/td/p'
p76
F4.62935662007961
sS'/html/body/div/div/div/div/div/div/div/div/div/h3/a/img'
p77
F6.6293566200796095
sS'/html/body/div/div/div/div/div/ul/li/a/img'
p78
F1.9289169019385175
sS'/html/body/div/div/div/div/ul/li/a/img'
p79
F4.307428525192248
sS'/html/body/div/div/div/div/div/div/ul/li/ul/li/span/a'
p80
F5.044394119358453
sS'/html/body/rss/channel/item/creator'
p81
F4.62935662007961
sS'/html/body/div/div/div/div/div/ul/li/div/span/div/a/img'
p82
F6.6293566200796095
sS'/html/body/div/div/div/div/div/div/div/div/form/div/input'
p83
F4.62935662007961
sS'/html/body/div/div/div/div/h2/a/span'
p84
F5.044394119358453
sS'/html/body/div/div/div/div/div/p/span/a'
p85
F5.044394119358453
sS'/html/body/div/div/div/div/div/div/a/div/img'
p86
F4.044394119358453
sS'/html/body/div/div/div/div/div/div/div/p'
p87
F3.62935662007961
sS'/html/body/div/div/div/div/div/div/div/div/h4/span'
p88
F4.62935662007961
sS'/html/body/div/div/div/div/div/span/div/span/script'
p89
F5.044394119358453
sS'/html/body/div/div/div/div/div/div/div/a'
p90
F0.9014361655164106
sS'/html/body/div/div/div/div/div/div/div/div/div/div/h3/span/span'
p91
F2.1699250014423126
sS'/html/body/div/div/div/div/div/div/ul/li/div/div/span'
p92
F5.044394119358453
sS'/html/body/div/div/div/div/div/div/dl/dt/a/img'
p93
F2.2370391973008497
sS'/html/body/div/div/div/div/div/div/div/div/div/div/div/div/span/em'
p94
F6.6293566200796095
sS'/html/body/div/div/div/div/form/fieldset/legend'
p95
F0.20309186537751173
sS'/html/body/div/div/div/div/div/div/ul/li'
p96
F1.074767768401972
sS'/html/body/div/div/div/div/form/div/div/span'
p97
F6.6293566200796095
sS'/html/body/div/div/div/div/div/div/div/div/p/a'
p98
F4.62935662007961
sS'/html/body/div/div/div/div/div/div/div'
p99
F2.1699250014423126
sS'/html/body/div/div/div/div/div/div/div/div/br'
p100
F1.62935662007961
sS'/html/body/div/div/div/div'
p101
F0.23703919730084938
sS'/html/body/div/div/div/div/div/div/ul/li/h3'
p102
F5.044394119358453
sS'/html/body/div/div/div/div/form/textarea'
p103
F4.62935662007961
sS'/html/body/div/div/div/div/div/div/h3/a'
p104
F5.044394119358453
sS'/html/body/div/div/div/div/div/div/h2/i'
p105
F2.1699250014423126
sS'/html/body/rss/channel/item/pubdate'
p106
F4.62935662007961
sS'/html/body/div/div/div/div/div/div/h2/a'
p107
F4.044394119358453
sS'/html/body/div/div/div/div/div/ul/li/div'
p108
F6.6293566200796095
sS'/html/body/div/div/div/div/div/div/script'
p109
F1.5849625007211563
sS'/html/body/div/div/div/div/div/h2/span/a'
p110
F2.105794664022597
sS'/html/body/div/div/div/div/div/div/h2/span'
p111
F6.6293566200796095
sS'/html/body/div/div/div/div/div/div/strong'
p112
F3.8220016980220057
sS'/html/body/div/div/div/div/div/div/ul/li/img'
p113
F1.985500430304885
sS'/html/body/div/div/div/div/div/div/div/div/dl/dt/a/img'
p114
F6.6293566200796095
sS'/html/body/div/div/div/div/div/div/span/a'
p115
F1.2030918653775118
sS'/html/body/div/div/div/div/div/div/p'
p116
F3.4594316186372978
sS'/html/body/div/div/div/div/ul/li/div'
p117
F4.62935662007961
sS'/html/body/div/div/div/div/div/div/a/div/span'
p118
F4.307428525192248
sS'/html/body/div/div/div/div/div/div/div/div/div/div/span'
p119
F2.0443941193584534
sS'/html/body/header/div/span'
p120
F4.62935662007961
sS'/html/body/div/div/div/div/div/div/a'
p121
F0.6986192825167234
sS'/html/body/div/div/div/div/div/div/ul/li/script'
p122
F2.1699250014423126
sS'/html/body/div/div/div/div/div/div/div/span/span/a/img'
p123
F2.1699250014423126
sS'/html/body/div/div/div/div/div/div/div/div/div/div/ul/li'
p124
F2.8220016980220057
sS'/html/body/div/div/div/div/div/div/div/div/p/a/span'
p125
F4.62935662007961
sS'/html/body/div/div/div/form/div/script'
p126
F5.044394119358453
sS'/html/body/div/div/div/div/div/div/div/div/div/div/div/span/em'
p127
F2.2370391973008497
sS'/html/body/div/div/div/div/div/div/div/table/thead/tr/td'
p128
F5.044394119358453
sS'/html/body/div/div/div/div/div/div/div/span'
p129
F2.9289169019385173
sS'/html/body/div/div/div/div/div/div/table/tr/td/div/span'
p130
F6.6293566200796095
sS'/html/body/div/div/div/div/form/div/span'
p131
F6.6293566200796095
sS'/html/body/div/span/img'
p132
F6.6293566200796095
sS'/html/body/div/div/div/div/div/div/div/ul/li/h3/a'
p133
F2.9289169019385173
sS'/html/body/div/div/div/div/div/div/div/h3/span/input'
p134
F6.6293566200796095
sS'/html/body/div/div/div/div/div/div/table/tbody/tr/td/img'
p135
F6.6293566200796095
sS'/html/body/div/div/div/div/input'
p136
F4.62935662007961
sS'/html/body/div/div/div/div/div/div/div/span/link'
p137
F5.62935662007961
sS'/html/body/div/div/div/div/form/div/div/div'
p138
F6.6293566200796095
sS'/html/body/div/div/div/form/div/a/img'
p139
F5.044394119358453
sS'/html/body/div/div/div/div/p/span/a'
p140
F1.9289169019385175
sS'/html/body/div/div/div/div/div/div/div/div/span/div/a/img'
p141
F5.62935662007961
sS'/html/body/div/div/div/div/h2/span'
p142
F6.6293566200796095
sS'/html/body/div/div/div/div/div/div/div/div/ul/li/a'
p143
F5.044394119358453
sS'/html/body/div/div/div/div/div/div/div/input'
p144
F4.62935662007961
sS'/html/body/div/div/div/div/div/div/span/p/span'
p145
F3.4594316186372978
sS'/html/body/div/div/div/div/div/div/div/div/div/div/dl/dt'
p146
F5.044394119358453
sS'/html/head/link'
p147
F0.1057946640225966
sS'/html/body/div/div/div/div/div/div/div/div/div/div/p/a/wbr'
p148
F5.62935662007961
sS'/html/body/div/div/div/div/div/div/div/div/div/div/div/span'
p149
F2.4594316186372973
sS'/html/body/div/div/div/div/div/p/span/span/a'
p150
F4.62935662007961
sS'/html/body/div/div/div/div/div/div/div/div/div/span/div/a/img'
p151
F3.3074285251922477
sS'/html/body/div/div/div/div/div/div/div/div/span/div'
p152
F5.044394119358453
sS'/html/body/div/div/div/div/div/div/ul/li/a/img'
p153
F4.62935662007961
sS'/html/body/div/div/div/div/div/div/div/form/div/div'
p154
F4.307428525192248
sS'/html/body/img'
p155
F6.6293566200796095
sS'/html/body/div/div/div/div/div/div/div/div/p/br'
p156
F5.62935662007961
sS'/html/body/div/div/div/div/div/div/span/br'
p157
F3.1699250014423126
sS'/html/body/div/div/div/a/img'
p158
F6.6293566200796095
sS'/html/body/div/div/div/div/div/div/table/tr/td/div/div/span'
p159
F6.6293566200796095
sS'/html/body/div/div/div/div/div/span'
p160
F0.18641312423088138
sS'/html/body/div/div/div/div/div/div/span/span'
p161
F4.307428525192248
sS'/html/body/div/div/div/div/link'
p162
F4.044394119358453
sS'/html/body/div/div/h1/a'
p163
F4.62935662007961
sS'/html/body/div/div/div/div/div/div/div/div'
p164
F3.1699250014423126
sS'/html/body/div/div/div/div/div/div/ul/li/ul/li/a/img'
p165
F5.044394119358453
sS'/html/body/div/div/div/div/div/div/table/tbody/tr/td/div/span'
p166
F6.6293566200796095
sS'/html/body/div/div/div/div/div/div/div/h3/span/a'
p167
F6.6293566200796095
sS'/html/body/div/div/div/div/div/div/table/tr/td/p/span'
p168
F5.044394119358453
sS'/html/body/div/div/div/div/div/ul/li/div/a'
p169
F1.9289169019385175
sS'/html/body/div/div/div/div/div/p/span'
p170
F4.62935662007961
sS'/html/body/div/div/a'
p171
F0.15362318911321193
sS'/html/body/div/div/div/div/div/div/div/div/div/div/div/div'
p172
F2.8220016980220057
sS'/html/body/div/div/div/div/div/div/a/em'
p173
F5.62935662007961
sS'/html/body/div/div/div/div/div/div/div/div/form/div/select/option'
p174
F4.62935662007961
sS'/html/body/div/div/div/div/div/div/div/p/a/img'
p175
F2.722466024471091
sS'/html/body/div/div/div/div/a'
p176
F0.13750352374993502
sS'/html/body/div/div/div/div/table/tbody/tr/td/a'
p177
F6.6293566200796095
sS'/html/body/div/div/div/div/div/div/table/tbody/tr/td/div/span/span'
p178
F6.6293566200796095
sS'/html/body/div/div/div/div/ul'
p179
F4.62935662007961
sS'/html/body/div/div/div/div/p'
p180
F0.12156197988091325
sS'/html/body/div/div/div/div/div/div/form/input'
p181
F5.044394119358453
sS'/html/body/div/div/script'
p182
F3.8220016980220057
sS'/html/body/div/div/div/div/div/form/div/div/input'
p183
F6.6293566200796095
sS'/html/body/div/div/div/div/div/div/ul/li/span'
p184
F1.3074285251922473
sS'/html/body/div/div/div/div/div/div/div/div/div/div/h4'
p185
F4.62935662007961
sS'/html/body/div/div/div/div/div/br'
p186
F5.044394119358453
sS'/html/body/div/div/div/div/div/div/p/a'
p187
F2.0443941193584534
sS'/html/body/div/div/div/div/div/div/ul/li/div/em'
p188
F5.044394119358453
sS'/html/body/div/div/div/div/div/div/div/table/tbody/tr/td/span'
p189
F5.044394119358453
sS'/html/body/div/div/div/div/div/ul/li/span/span/a'
p190
F6.6293566200796095
sS'/html/body/div/div/div/div/div/ul/li/span/span'
p191
F5.044394119358453
sS'/html/body/div/div/div/div/form/input'
p192
F6.6293566200796095
sS'/html/body/div/div/div/div/div/div/div/span/script'
p193
F3.8220016980220057
sS'/html/body/div/div/div/div/h2/a'
p194
F2.3814291066360243
sS'/html/body/div/div/div/div/div/ul/li/span'
p195
F1.5849625007211563
sS'/html/body/div/div/h1'
p196
F1.2030918653775118
sS'/html/body/div/div/div/div/h2/i'
p197
F5.044394119358453
sS'/html/body/rss/channel/language'
p198
F4.62935662007961
sS'/html/body/div/div/div/div/div/div'
p199
F1.9289169019385175
sS'/html/body/div/div/div/div/div/div/div/div/p/span/br'
p200
F5.62935662007961
sS'/html/body/div/div/div/div/div/div/div/div/div/div/div/ul/script'
p201
F2.2370391973008497
sS'/html/body/div/div/span/a'
p202
F0.15362318911321193
sS'/html/body/div/script'
p203
F5.044394119358453
sS'/html/body/div/div/div/div/img'
p204
F5.044394119358453
sS'/html/body/div/div/div/div/h4'
p205
F4.62935662007961
sS'/html/body/div/div/div/div/h3'
p206
F6.6293566200796095
sS'/html/body/div/div/div/div/div/div/a/span'
p207
F2.0443941193584534
sS'/html/body/div/div/div/div/div/ul/ul/li/a'
p208
F4.62935662007961
sS'/html/body/div/div/div/div/div/div/ul/li/a'
p209
F1.4594316186372973
sS'/html/body/div/div/div/form/div/label'
p210
F5.044394119358453
sS'/html/body/div/div/div/div/div/div/div/span/span'
p211
F2.1699250014423126
sS'/html/body/div/div/div/ul/li/a'
p212
F0.20309186537751173
sS'/html/body/div/div/div/div/div/a/div/img'
p213
F5.62935662007961
sS'/html/body/div/div/div/form/div/a'
p214
F5.044394119358453
sS'/html/body/div/div/div/div/div/div/div/div/div/div/a/img'
p215
F4.62935662007961
sS'/html/body/div/div/div/div/div/div/ul/li/div/a'
p216
F4.62935662007961
sS'/html/body/div/div/div/div/div/div/p/span'
p217
F3.62935662007961
sS'/html/body/div/div/div/div/ul/li/a/span'
p218
F6.6293566200796095
sS'/html/body/div/div/div/div/div/div/div/div/form/div/div/input'
p219
F4.62935662007961
sS'/html/body/div/div/div/div/div/div/div/div/dl/dd/br'
p220
F6.6293566200796095
sS'/html/body/div/div/div/div/div/div/table/tbody/tr/td/div/div/h3/a'
p221
F6.6293566200796095
sS'/html/body/div/div/div/div/div/div/div/div/div/h3/div/a/img'
p222
F6.6293566200796095
sS'/html/body/div/div/div/div/div/div/div/ul'
p223
F6.6293566200796095
sS'/html/body/div/div/div/div/div/div/table/tbody/tr/td/div/div/h2/a'
p224
F6.6293566200796095
sS'/html/body/div/div/div/div/button'
p225
F5.044394119358453
sS'/html/body/header/div'
p226
F5.044394119358453
sS'/html/body/div/div/div/div/div/div/div/script'
p227
F2.8220016980220057
sS'/html/body/div/div/div/div/div/div/ul/li/p/a'
p228
F6.6293566200796095
sS'/html/body/div/div/div/div/div/div/div/div/div/div/img'
p229
F4.044394119358453
sS'/html/body/div/div/div/div/form/button'
p230
F4.62935662007961
sS'/html/body/div/div/div/div/div/div/div/h3/a/img'
p231
F5.044394119358453
sS'/html/body/header/div/div/span'
p232
F4.62935662007961
sS'/html/body/div/div/div/div/div/strong'
p233
F5.044394119358453
sS'/html/body/div/div/div/div/div/div/div/div/div/div/span/a'
p234
F2.3074285251922473
sS'/html/body/div/div/div/div/ul/li/div/a/img'
p235
F4.62935662007961
sS'/html/body/div/div/div/div/div/div/div/div/a'
p236
F1.5849625007211563
sS'/html/body/div/div/div/div/div/div/div/div/div/div/span/script'
p237
F2.8220016980220057
sS'/html/body/div/div/div/div/div/div/div/h3/a'
p238
F5.044394119358453
sS'/html/body/div/div/h1/span'
p239
F1.3439544012173612
sS'/html/body/rss/channel/item/encoded/br'
p240
F4.62935662007961
sS'/html/body/div/div/div/div/div/div/div/div/span/script'
p241
F5.044394119358453
sS'/html/body/div/div/div/div/div/span/span'
p242
F5.044394119358453
sS'/html/body/div/div/div/div/div/div/div/table/tbody/tr/td/a'
p243
F5.044394119358453
sS'/html/body/div/img'
p244
F6.6293566200796095
sS'/html/body/div/div/div/div/div/div/div/div/span/span/a'
p245
F2.1699250014423126
sS'/html/body/div/div/div/div/div/div/div/img'
p246
F6.6293566200796095
sS'/html/body/div/div/div/div/div/ul/li/a/div/img'
p247
F5.044394119358453
sS'/html/body/div/div/div/div/div/ul/li'
p248
F1.7713756249520376
sS'/html/body/div/div/div/div/div/div/div/div/span'
p249
F1.4594316186372973
sS'/html/body/div/div/div/div/div/div/div/div/ul/li/a/strong'
p250
F4.62935662007961
sS'/html/body/div/div/div/div/div/div/div/div/div/br'
p251
F2.8220016980220057
sS'/html/body/div/div/div/div/a/img'
p252
F0.25431718873268483
sS'/html/body/div/div/div/form/input'
p253
F5.044394119358453
sS'/html/body/div/div/div/div/div/div/h2/span/a'
p254
F1.6751603096927343
sS'/html/body/div/div/div/ul/li/div/table/tr/td/a'
p255
F0.20309186537751173
sS'/html/body/div/div/div/div/form/fieldset/label'
p256
F0.20309186537751173
sS'/html/body/div/div/div/div/div/div/ul/li/a/span'
p257
F6.6293566200796095
sS'/html/body/div/div/div/div/div/h2/img'
p258
F6.6293566200796095
sS'/html/body/rss/channel/link'
p259
F4.62935662007961
sS'/html/body/div/div/div/div/div/div/div/div/span/span'
p260
F2.1699250014423126
sS'/html/body/div/div/div/div/div/div/div/div/div/div/div/ul/li'
p261
F5.62935662007961
sS'/html/body/div/div/div/div/div/div/div/div/p/span'
p262
F3.8220016980220057
sS'/html/body/div/div/div/div/div/div/span/script'
p263
F2.1699250014423126
sS'/html/body/div/div/div/div/div/div/label/input'
p264
F5.044394119358453
sS'/html/body/div/div/div/div/div/ul/li/div/a/span'
p265
F6.6293566200796095
sS'/html/body/div/div/div/div/div/div/table/tr/td'
p266
F5.044394119358453
sS'/html/body/div/div/div/div/div/form/div/div'
p267
F6.6293566200796095
sS'/html/body/div/div/div/div/div/div/div/ul/li/span'
p268
F2.722466024471091
sS'/html/body/div/div/div/div/style'
p269
F0.25431718873268483
sS'/html/body/div/div/div/div/div/div/a/div/b'
p270
F6.6293566200796095
sS'/html/body/div/div/div/div/div/ul/li/div/div'
p271
F2.3814291066360243
sS'/html/body/div/div/div/div/div/ul/li/p'
p272
F5.044394119358453
sS'/html/body/div/div/ul/li/a'
p273
F5.044394119358453
sS'/html/body/div/div/div/div/div/form/div/span'
p274
F6.6293566200796095
sS'/html/body/div/div/div/div/div/div/style'
p275
F5.044394119358453
sS'/html/body/div/div/div/div/div/ul/li/a'
p276
F1.1057946640225966
sS'/html/body/div/div/div/div/div'
p277
F0.5632674296218373
sS'/html/body/div/div/div/div/div/div/ul/li/span/div'
p278
F6.6293566200796095
sS'/html/body/div/div/div/div/div/div/div/div/div/div/div/ul/li/a'
p279
F2.0443941193584534
sS'/html/body/div/div/div/div/div/div/br'
p280
F4.044394119358453
sS'/html/body/div/div/div/div/div/form/div/div/span'
p281
F6.6293566200796095
sS'/html/body/div/div/div/div/div/div/div/div/p/span/a'
p282
F5.044394119358453
sS'/html/body/div/div/div/div/div/div/div/div/div/div/span/div'
p283
F6.6293566200796095
sS'/html/body/div/div/div/div/div/div/ul/li/p/span'
p284
F6.6293566200796095
sS'/html/body/div/div/div/div/div/div/div/div/div/div/div/span/form/input'
p285
F2.8220016980220057
sS'/html/body/div/div/div/div/div/div/div/table/tbody/tr/td'
p286
F5.044394119358453
sS'/html/body/div/div/div/div/div/ul/li/h3/a'
p287
F4.62935662007961
sS'/html/body/div/div/div/div/div/div/div/a/img'
p288
F1.7713756249520376
sS'/html/body/div/div/div/div/div/span/a'
p289
F2.722466024471091
sS'/html/body/div/div/span'
p290
F0.15362318911321193
sS'/html/body/div/div/div/div/div/div/div/div/div/span/form/input'
p291
F4.62935662007961
sS'/html/body/div/div/div/div/div/a/img'
p292
F3.62935662007961
sS'/html/body/rss/channel/item/title'
p293
F4.62935662007961
sS'/html/body/div/div/div/div/div/div/span/link'
p294
F5.62935662007961
sS'/html/body/div/div/div/div/div/span/span/a'
p295
F5.044394119358453
sS'/html/body/rss/channel/item/encoded/a'
p296
F4.62935662007961
sS'/html/body/div/div/div/div/div/div/div/div/form/input'
p297
F4.62935662007961
sS'/html/body/div/div/div/div/div/div/span/span/a'
p298
F4.62935662007961
sS'/html/body/div/div/div/form/div/p/a'
p299
F5.044394119358453
sS'/html/body/rss/channel/title'
p300
F4.62935662007961
sS'/html/body/div/div/div/div/div/span/script'
p301
F5.044394119358453
sS'/html/body/div/div/div/div/div/div/div/div/div/div/ul/script'
p302
F5.044394119358453
sS'/html/head/style'
p303
F0.15362318911321193
sS'/html/body/header/div/img'
p304
F6.6293566200796095
sS'/html/body/div/div/div/div/div/div/div/div/div/div/div/a'
p305
F1.5849625007211563
sS'/html/body/div/div/div/div/div/div/table/tbody/tr/td/div/div'
p306
F6.6293566200796095
sS'/html/body/div/div/div/div/div/div/div/div/div/div/h3/span/input'
p307
F2.1699250014423126
sS'/html/body/div/div/div/div/div/div/div/div/p'
p308
F4.307428525192248
sS'/html/body/div/div/div/div/div/ul/li/a/span'
p309
F2.3814291066360243
sS'/html/body/div/div/div/div/div/div/div/div/input'
p310
F5.044394119358453
sS'/html/body/div/div/div/div/div/div/div/div/div/span/div'
p311
F2.2370391973008497
sS'/html/body/div/div/div/div/div/table/tbody/tr/td'
p312
F5.62935662007961
sS'/html/body/div/div/div'
p313
F0.20309186537751173
sS'/html/body/div/div/div/div/div/div/div/div/h2/span/a'
p314
F6.6293566200796095
sS'/html/body/header/div/a'
p315
F4.62935662007961
sS'/html/body/div/div/div/div/div/script'
p316
F1.5000736031346433
sS'/html/body/div/div/div/div/a/h2'
p317
F6.6293566200796095
sS'/html/body/div/div/div/div/h1/img'
p318
F4.62935662007961
sS'/html/body/div/div/div/div/div/div/div/div/dl/dd/span/a'
p319
F4.62935662007961
sS'/html/body/div/div/a/img'
p320
F5.044394119358453
sS'/html/body/header/div/a/img'
p321
F4.62935662007961
sS'/html/body/div/div/div/div/div/div/div/div/h3/a'
p322
F2.0443941193584534
sS'/html/body/div/div/div/div/div/ul/li/div/span/div'
p323
F6.6293566200796095
sS'/html/body/div/div/div/div/div/div/ul/li/div/div/div/a/h3'
p324
F5.044394119358453
sS'/html/body/div'
p325
F4.307428525192248
sS'/html/body/div/div/div/div/div/div/div/div/div/div/div/div/div/span/a'
p326
F6.6293566200796095
sS'/html/body/rss/channel/pubdate'
p327
F4.62935662007961
sS'/html/body/div/div/div/form/div/p/input'
p328
F5.044394119358453
sS'/html/body/div/div/div/div/div/div/div/div/div/div/p/a/img'
p329
F3.8220016980220057
sS'/html/body/div/div/div/div/div/div/div/div/div/h3/a'
p330
F6.6293566200796095
sS'/html/body/div/div/div/div/div/div/table/tbody/tr/td/div/div/div'
p331
F6.6293566200796095
sS'/html/body/div/div/div/div/div/div/div/h2/span/a'
p332
F5.044394119358453
sS'/html/body/div/div/div/form/div/img'
p333
F5.044394119358453
sS'/html/body/div/div/div/div/div/div/div/div/h3/a/img'
p334
F2.2370391973008497
sS'/html/body/div/div/div/div/div/div/div/div/dl/dd/span'
p335
F6.6293566200796095
sS'/html/body/div/div/div/div/p/br'
p336
F1.9289169019385175
sS'/html/body/div/div/div/div/div/button'
p337
F5.044394119358453
sS'/html/body/div/div/div/div/ul/li/span'
p338
F4.307428525192248
sS'/html/body/div/div/div/div/div/div/span/p/a'
p339
F3.4594316186372978
sS'/html/body/div/div/div/div/div/div/ul'
p340
F4.307428525192248
sS'/html/body/div/div/div/ul/li/a/span'
p341
F0.20309186537751173
sS'/html/body/div/div/div/div/div/ul/li/div/div/span'
p342
F2.4594316186372973
sS'/html/body/div/div/div/div/div/div/div/div/span/form/input'
p343
F5.044394119358453
sS'/html/body/div/div/div/div/div/div/a/img'
p344
F2.8220016980220057
sS'/html/body/div/div/div/div/div/div/div/div/form/textarea'
p345
F4.62935662007961
sS'/html/body/div/div/div/div/h2'
p346
F2.5418937788292704
sS'/html/body/div/div/div/div/form/div/div/input'
p347
F6.6293566200796095
sS'/html/body/div/div/div/div/h1'
p348
F5.044394119358453
sS'/html/body/div/div/div/div/form/fieldset/div/input'
p349
F0.20309186537751173
sS'/html/body/div/div/div/div/div/div/div/div/dl/dd/a'
p350
F6.6293566200796095
sS'/html/body/div/div/div/div/div/div/span/span/br'
p351
F6.6293566200796095
sS'/html/head/title'
p352
F0.05950101174866165
sS'/html/body/div/div/div/div/div/h2'
p353
F1.41990325445066
sS'/html/body/div/div/div/div/ul/li/a'
p354
F4.307428525192248
sS'/html/body/div/div/div/div/div/div/div/div/div/div/h3/span/a'
p355
F2.1699250014423126
sS'/html/body/div/div/div/div/ul/li'
p356
F4.307428525192248
sS'/html/body/div/div/div/div/div/div/p/span/a'
p357
F5.044394119358453
sS'/html/body/div/div/div/div/div/div/div/h3/span/span'
p358
F6.6293566200796095
sS'/html/body/div/div/div/div/div/div/div/span/a'
p359
F2.9289169019385173
sS'/html/body/div/div/div/div/div/div/div/form/div/div/label/input'
p360
F4.307428525192248
sS'/html/body/rss/channel/description'
p361
F4.62935662007961
sS'/html/body/div/div/div/div/div/div/div/form/div/input'
p362
F4.307428525192248
sS'/html/body/div/div/div/div/div/div/ul/li/span/a'
p363
F2.1699250014423126
sS'/html/body/div/div/div/div/div/h1/a'
p364
F5.044394119358453
sS'/html/body/div/div/div/div/script'
p365
F1.381429106636024
sS'/html/body/div/div/div/div/div/h2/a'
p366
F5.044394119358453
sS'/html/body/div/div/div/div/div/div/div/form/div/p/strong'
p367
F4.307428525192248
sS'/html/body/div/div/div/div/div/ul'
p368
F5.62935662007961
sS'/html/body/div/div/div/div/div/h2/i'
p369
F2.0443941193584534
sS'/html/body/div/div/div/div/div/div/div/div/div/div/div/a/span'
p370
F1.7224660244710912
sS'/html/body/div/div/div/div/div/div/div/div/h4/a'
p371
F4.62935662007961
sS'/html/body/div/div/div/div/div/div/div/h3'
p372
F5.044394119358453
sS'/html/body/div/div/div/div/div/div/div/h2'
p373
F2.9289169019385173
sS'/html/body/link'
p374
F0.20309186537751173
sS'/html/body/script'
p375
F0.05950101174866165
sS'/html/body/div/div/img'
p376
F3.8220016980220057
sS'/html/body/div/div/div/div/div/div/ul/li/a/strong/em'
p377
F6.6293566200796095
sS'/html/body/rss/channel/item/guid'
p378
F4.62935662007961
sS'/html/body/div/div/div/div/div/div/div/ul/li/a/img'
p379
F5.044394119358453
sS'/html/body/div/div/div/div/div/div/div/p/br'
p380
F6.6293566200796095
sS'/html/body/div/div/div/div/div/div/div/div/div/span/a'
p381
F2.5418937788292704
sS'/html/body/header/div/div/div/div/script'
p382
F4.62935662007961
sS'/html/body/div/div/div/div/div/div/a/div'
p383
F6.6293566200796095
sS'/html/body/div/div/div/div/div/div/ul/li/div/div'
p384
F5.044394119358453
sS'/html/body/div/div/div/div/div/h3/img'
p385
F5.044394119358453
sS'/html/body/div/div/div/div/div/div/div/div/div/div/div'
p386
F1.5000736031346433
sS'/html/body/div/div/div/div/form/div/div'
p387
F6.6293566200796095
sS'/html/body/div/div/div/div/div/p'
p388
F3.8220016980220057
sS'/html/body/div/div/div/div/div/div/div/p/span'
p389
F2.8220016980220057
sS'/html/body/div/div/div/div/div/div/div/div/div'
p390
F1.1375035237499351
sS'/html/body/div/div/div/div/div/div/h5'
p391
F6.6293566200796095
sS'/html/body/div/div/div/div/div/a'
p392
F0.20309186537751173
sS'/html/body/div/div/div/div/div/div/h3'
p393
F5.044394119358453
sS'/html/body/div/div/div/div/div/div/h2'
p394
F3.1699250014423126
sS'/html/body/div/div/div/div/div/div/div/div/ul/li/a/img'
p395
F4.62935662007961
sS'/html/body/div/div/div/div/div/div/div/div/div/div'
p396
F1.5000736031346433
sS'/html/body/div/div/div/div/div/div/div/p/a'
p397
F5.62935662007961
sS'/html/body/div/div/div/div/div/img'
p398
F4.62935662007961
sS'/html/body/div/div/div/div/form/a'
p399
F4.62935662007961
sS'/html/body/div/div/div/div/div/a/div/span'
p400
F5.62935662007961
sS'/html/body/div/div/div/div/div/div/div/div/div/div/div/div/ul/script'
p401
F6.6293566200796095
sS'/html/body/div/div/div/div/div/div/div/div/script'
p402
F4.62935662007961
s.