(dp0
S'/html/body/div/div/div/div/div/div/div/div/div/div/div/ol/li/ol/li/ul/li/span/div/div/div/div'
p1
F8.965784284662087
sS'/html/body/div/div/div/div/div/div/div/div/div/div/button/span/span/span/span'
p2
F5.442222328605075
sS'/html/body/div/div/div/div/div/div/div/div/div/div/ul/li/div/div/div/section/div/div/div/div/div'
p3
F5.965784284662088
sS'/html/body/div/div/div/div/div/div/div/div/div/div/div/button/span/span'
p4
F0.010134377133713133
sS'/html/body/div/footer/div/ul/li/a'
p5
F9.965784284662087
sS'/html/body/div/div/div/div/div/div/div/div/div/div/ul/li/div/div/div/ul/li/div/div/span/a/span/span/span/img'
p6
F9.965784284662087
sS'/html/body/div/div/div/div/div/div/div/div/div/div/div/div/div/div/span/span/span/img'
p7
F9.965784284662087
sS'/html/body/div/div/div/div/div/div/div/div/div/p'
p8
F5.795859283219775
sS'/html/body/div/div/div/div/div/div/div/div/div/div/div/div/ul/li/a'
p9
F3.265344566520995
sS'/html/body/div/div/div/div/div/div/div/div/div/div/h3'
p10
F0.010134377133713133
sS'/html/body/div/div/div/div/div/div/div/div/div/div'
p11
F0.6574452545226798
sS'/html/body/div/div/div/div/div/div/div/div/div/div/ul/li/div/table/tbody/tr/td/span/button'
p12
F3.265344566520995
sS'/html/body/div/div/div/div/div/div/div/div/div/div/div/h1/span/span/span/a'
p13
F1.158429362604483
sS'/html/body/div/div/div/div/div/div/div/div/div/div/h2'
p14
F7.643856189774724
sS'/html/body/iframe'
p15
F4.158429362604483
sS'/html/body/div/div/div/div/div/div/div/div/div/div/ul/li/div/div/div/div/div/br'
p16
F3.0469210473874924
sS'/html/body/div/div/div/div/div/div/div/div/div/div/div/div/div/div/div/p/span'
p17
F8.965784284662087
sS'/html/body/div/div/div/div/form/div/div/div/span'
p18
F9.965784284662087
sS'/html/body/div/div/div/div/div/div/div/div/div/div/ul/li/span'
p19
F4.756330919033137
sS'/html/body/div/div/div/div/div/div/div/div/div/span/button/span/span'
p20
F6.158429362604484
sS'/html/body/div/div/div/div/div/div/div/div/div/div/ul/li/div/div/div/div/div/div/div/ul/li/div/div/div/span/a/span/span/span/span'
p21
F2.4035418604410146
sS'/html/body/div/div/div/div/div/div/div/div/ul/li/div/form/span/input'
p22
F1.446148031818874
sS'/html/body/div/div/div/div/div/div/div/div/div/div/div/div/div/div/h2'
p23
F9.965784284662087
sS'/html/body/div/div/div/p/span'
p24
F0.010134377133713133
sS'/html/body/div/div/div/div/div/div/div/div/div/div/ul/li/div/div/div/div/div/div/div/ul/li/div/div/div/h3/a'
p25
F2.272297327162762
sS'/html/body/div/div/div/div/div/div/div/div/div/div/ul/li/a/span/span'
p26
F3.380821783940931
sS'/html/body/div/div/div/div/div/div/div/div/div/div/div/div/ol/li/ol/li/div/div/div/div/h2/span'
p27
F9.965784284662087
sS'/html/body/div/div/div/div/div/div/div/div/div/div/div/div/span/span'
p28
F1.1616532634787695
sS'/html/body/div/div/div/div/div/link'
p29
F9.965784284662087
sS'/html/body/div/div/div/div/div/div/div/div/div/div/ul/li/div/div/div/div/div/div/a'
p30
F5.878321443411747
sS'/html/body/div/div/div/div/div/div/div/div/div/div/div/div/div/div/div/div/span/button'
p31
F7.965784284662087
sS'/html/body/div/div/div/img'
p32
F9.965784284662087
sS'/html/body/div/div/div/div/div/div/div/div/div/div/ul/li/div/div/div/div/div/ul/li/div/div/div/a/span/span/span/span/span'
p33
F5.158429362604483
sS'/html/body/div/div/div/div/div/div/div/div/div/div/div/script'
p34
F1.9827907099677768
sS'/html/body/div/div/div/a/span/img'
p35
F9.965784284662087
sS'/html/body/div/div/div/div/div/div/div/div/div/div/div/div/ol/li/ol/li/div/div/div/div/div/a/span'
p36
F9.965784284662087
sS'/html/body/div/div/div/div/div/div/div/div/div/div/div/div/h3/span/span'
p37
F7.643856189774724
sS'/html/body/div/div/div/div/div/div/div/div/div/div/ul/li/ul/li/div/div/div/a/span/span/span/span/span'
p38
F5.795859283219775
sS'/html/body/div/div/div/div/div/div/div/div/div/div/div/div/div/div/div/div/div/div/div/span/span/button/span'
p39
F9.965784284662087
sS'/html/body/div/div/div/div/form/div/div/div/div/div/input'
p40
F9.965784284662087
sS'/html/body/div/div/div/div/div/div/div/div/div/div/ul/li/ul/li/div/div/div/span/span'
p41
F9.965784284662087
sS'/html/body/div/div/div/div/div/div/div/div/div/div/div/div/ol/li/ol/li/div/div/div/div/ul/li/div/div/div/span/button/span'
p42
F9.965784284662087
sS'/html/head/meta'
p43
F0.0
sS'/html/body/div/div/div/div/form/div/div/div/div/div/label'
p44
F9.965784284662087
sS'/html/body/div/div/div/div/div/div/div/div/div/div/ul/li/ul/li/div/div/span/button/span/span'
p45
F5.717856771218502
sS'/html/body/div/div/div/div/div/div/div/div/div/div/div/ol/li/ol/li/ul/li/span/div/div/div/div/div/div/p/span'
p46
F8.965784284662087
sS'/html/body/div/div/div/div/div/div/div/div/div/div/ul/li/div/div/div/div/div/wbr/a'
p47
F6.795859283219775
sS'/html/body/div/div/div/div/div/div/div/ul/li/button'
p48
F8.380821783940931
sS'/html/body/div/div/div/div/div/div/div/div/h1/img'
p49
F9.965784284662087
sS'/html/body/div/div/div/div/div/div/div/div/div/div/ul/li/div/div/div/div/div/div/button/span/span'
p50
F2.2108967824986188
sS'/html/body/div/div/div/div/div/div/div/div/div/ul/li/span/div/h3/a/span/span'
p51
F2.272297327162762
sS'/html/body/div/div/div/div/div/div/div/div/div/div/ul/li/div/div/div/div/div/ul/li/div/div/div/div/wbr'
p52
F8.965784284662087
sS'/html/body/div/div/div/div/div/div/div/div/div/div/div/div/ul/li/a/span/span/span/button/ul/li/span'
p53
F2.1202942337177118
sS'/html/body/div/div/div/div/div/div/div/div/div/div/div/div/div/div/div/div/span/button/span/span'
p54
F7.965784284662087
sS'/html/body/div/div/div/div/div/div/div/div/div/div/div/div/div/ul/li/div/span'
p55
F1.446148031818874
sS'/html/body/div/div/div/div/div/div/div/div/div/strong'
p56
F9.965784284662087
sS'/html/body/div/div/div/div/div/div/div/div/div/div/ul/li/div/div/div/button/span'
p57
F4.608232280044003
sS'/html/body/span/meta'
p58
F1.539519529959989
sS'/html/body/div/div/div/div/div/div/div/div/div/div/ul/li/div/div/div/div/div/ul/li/div/div/div/a/span/span/span/button/ul/li/span'
p59
F5.158429362604483
sS'/html/body/div/div/div/button/span'
p60
F0.004334590263891124
sS'/html/body/div/div/div/div/div/div/div/div/div/div/ul/li/div/div/div/div/div/ul/li/div/div/h3/span'
p61
F8.380821783940931
sS'/html/body/div/div/div/div/div/div/div/div/div/div/ul/li/div/div'
p62
F2.0291463456595165
sS'/html/body/div/div/div/div/div/div/div/div/div/div/ul/li/div/div/div/div/div/div/br'
p63
F5.717856771218502
sS'/html/body/div/div/div/div/div/div/div/div/div/div/div/p/span'
p64
F0.9050883529745332
sS'/html/body/div/div/div/div/div/div/div/div/div/div/ul/li/div/table/tbody/tr/td/span/span/button/span'
p65
F3.265344566520995
sS'/html/body/div/div/div/div/div/div/div/div/div/div/div/div/span'
p66
F0.010134377133713133
sS'/html/body/div/div/div/div/div/div/div/div/div/div/div/div/ol/li/ol/li/div/div/div/div/div/div/a/span'
p67
F9.965784284662087
sS'/html/body/div/div/div/div/div/div/div/div/div/div/span/span/span'
p68
F0.9241251330248724
sS'/html/body/div/div/div/nav/nav/div/button'
p69
F9.965784284662087
sS'/html/head/script'
p70
F0.001443416869668845
sS'/html/body/div/div/div/div/div/form/div/input'
p71
F0.010134377133713133
sS'/html/body/div/div/div/div/div/div/div/div/div/div/div/div/ol/li/ol/li/div/div/div/div/ul/li/div/div/div/h3/a'
p72
F9.965784284662087
sS'/html/body/div/div/div/div/div/div/div/div/div/div/div/div/a/span/span/span/span'
p73
F6.965784284662088
sS'/html/body/div/div/div/div/div/div/div/div/div/div/ul/li/div/div/div/div/div/div/span/button'
p74
F8.965784284662087
sS'/html/body/div/section/div/article/div/div/div/div'
p75
F9.965784284662087
sS'/html/body/div/div/div/div/div/div/div/div/div/ol/li/a/div/h4'
p76
F2.6711635357704604
sS'/html/body/div/div/div/div/div/div/div/div/div/div/ul/li/div/table/tbody/tr/td/div/a'
p77
F3.457989644463391
sS'/html/body/div/div/div/div/div/div/div/div/div/div/span/span/div/div/div/div/div/div/div/p/span'
p78
F0.9050883529745332
sS'/html/body/div/div/div/div/div/div/div/div/div/div/div'
p79
F0.02620507034739392
sS'/html/body/div/div/div/div/div/div/div/div/div/div/ul/li/ul/li/div/div/a/span/span/span/img'
p80
F5.717856771218502
sS'/html/body/div/div/div/div/div/div/div/div/div/div/span/span/div/div/div/div/div/div/div'
p81
F0.9050883529745332
sS'/html/body/div/div/div/div/div/button/span/span'
p82
F0.010134377133713133
sS'/html/body/div/header/div/form/button'
p83
F9.965784284662087
sS'/html/body/div/div/div/div/div/div/div/div/div/ol/li/span'
p84
F2.6711635357704604
sS'/html/body/div/div/div/div/div/div/div/div/div/div/div/div/div/div/div/div/div/span/div/div/div/div/div/div/div'
p85
F9.965784284662087
sS'/html/body/div/div/div/div/div/div/div/div/div/div/div/ol/li/ol/li/ul/li/span/div/div/div/div/div/button/span'
p86
F8.965784284662087
sS'/html/body/div/div/div/div/div/div/div/div/div/div/ul/li/ul/li/div/div/div/div/ul/li'
p87
F4.411195432984449
sS'/html/body/div/div/div/div/div/div/div/div/div/div/ul/li/div/div/div/section/div/div/div/div/button'
p88
F6.058893689053569
sS'/html/body/div/div/div/div/div/div/div/div/div/div/div/div/span/button/span/span'
p89
F1.1616532634787695
sS'/html/body/div/div/div/div/div/div/div/div/div/div/div/div/p'
p90
F6.795859283219775
sS'/html/body/div/div/div/div/div/div/div/div/div/div/ul/li/div/div/div/section/div/div/div/button'
p91
F5.717856771218502
sS'/html/body/div/section/div/div/div/nav/div/h4/a'
p92
F9.965784284662087
sS'/html/body/div/div/div/div/div/div/div/div/div/div/div/div/ol/li/ol/li/div/div/div/div/div/button/span'
p93
F9.965784284662087
sS'/html/body/div/div/div/div/div/div/div/div/div/div/div/div/div/div/span/div/div/div/div/div/div/div/p/span'
p94
F9.965784284662087
sS'/html/body/div/div/div/div/div/div/div/div/div/div/div/div/div/div/div/div/div/div/div/span/button'
p95
F9.965784284662087
sS'/html/body/div/div/div/div/div/div/div/div/div/a'
p96
F9.965784284662087
sS'/html/body/div/div/div/div/div/div/div/div/div/div/ul/li/div/div/div/section/div/div/div/div/b'
p97
F7.380821783940932
sS'/html/body/div/div/div/div/div/div/div/div/div/div/ul/li/div/div/div/div/div/ul/li/div/div/div/ul/li/span/span'
p98
F9.965784284662087
sS'/html/body/div/div/div/div/div/div/div/div/div/div/div/div/ul/li/a/span'
p99
F1.7612131404128835
sS'/html/body/div/div/div/div/div/div/div/div/div/div/div/div/div/div/span/span/span/span'
p100
F9.965784284662087
sS'/html/body/div/div/div/div/div/div/div/div/div/div/ul/li/div/div/div/div/div/h2/a/span/span/span/span'
p101
F4.411195432984449
sS'/html/body/div/div/div/div/div/div/div/div/div/div/div/div/div/div/span/span'
p102
F9.965784284662087
sS'/html/body/div/div/div/div/div/div/div/div/div/div/ul/li/div/div/div/div/div/ul/li/div/div/div/span/a/span/span/span/span'
p103
F4.083141235300245
sS'/html/body/div/div/div/div/div/div/div/div/div/div/div/div/ol/li/ol/li/div/div/div/div/div/div/span/span'
p104
F9.965784284662087
sS'/html/body/div/div/div/div/div/div/div/div/div/div/ul/li/div/div/div'
p105
F2.643856189774725
sS'/html/body/div/div/div/div/div/div/div/div/style'
p106
F1.158429362604483
sS'/html/body/div/div/div/div/div/div/div/div/div/div/ul/li/div/div/div/section/div/div/div/div/span/a'
p107
F6.058893689053569
sS'/html/body/div/div/div/div/div/div/div/div/div/div/img'
p108
F2.2515387669959646
sS'/html/body/div/div/div/div/div/div/div/div/div/div/ul/li/div/div/h3'
p109
F8.380821783940931
sS'/html/body/div/div/div/div/div/div/div/div/div/div/div/div/ol/li/ol/li/div/div/div/div/ul/li/div/div/div/h3/span'
p110
F9.965784284662087
sS'/html/body/div/div/div/div/div/div/div/div/div/div/ul/li/div/div/div/div/div/div/h3/span'
p111
F8.965784284662087
sS'/html/body/div/div/div/div/div/div/div/div/div/div/div/div/div/div/div/div/div/span/div/div/div/span'
p112
F9.965784284662087
sS'/html/body/div/div/div/div/div/div/div/div/div/div/div/div/form/div/span/input'
p113
F7.643856189774724
sS'/html/body/div/div/div/div/div/div/div/div/div/div/div/div/div/div/div/div/div/div'
p114
F9.965784284662087
sS'/html/body/div/div/div/div/div/div/div/div/div/div/ul/li/div/table/tbody/tr/td/span/a/span/span/span/img'
p115
F3.265344566520995
sS'/html/body/div/div/div/div/div/div/div/div/div/div/ul/li/div/div/div/ul/li/div/div/h3/a'
p116
F9.965784284662087
sS'/html/body/div/div/div/div/div/div/div/div/span/a'
p117
F9.965784284662087
sS'/html/body/div/div/div/div/div/div/div/div/div/div/ul/li/div/table/tbody/tr/td/span/a/span/span/span/span'
p118
F3.265344566520995
sS'/html/body/div/div/div/div/div/div/div/div/div/div/ul/li/div/div/div/div/div/ul/li/div/div/div/a/span/span/span/span'
p119
F5.158429362604483
sS'/html/body/div/div/div/div/div/div/div/div/div/div/ul/li/div/div/div/div/div/ul/li/div/div/div/ul/li/h4/a'
p120
F5.795859283219775
sS'/html/body/div/div/div/div/div/div/div/div/ol/li'
p121
F9.965784284662087
sS'/html/body/div/div/div/div/div/div/div/div/div/div/ul/li/div/div/div/div/div/div/div/ul/li/div/div/div/div/a'
p122
F2.5228407888133586
sS'/html/body/div/div/div/div/div/div/div/div/div/div/ul/li/div/div/div/section/div/div/div'
p123
F6.058893689053569
sS'/html/body/div/div/div/div/div/div/div/div/div/ul/li/span/div/h3/a'
p124
F2.698997743967186
sS'/html/body/div/div/div/div/div/div/div/div/div/div/div/div/ol/li/ol/li/div/div/div/div/div/div/a'
p125
F9.965784284662087
sS'/html/body/div/div/div/div/div/div/div/div/div/div/ul/li/div/div/div/section/div/div/div/div/div/div/button'
p126
F6.158429362604484
sS'/html/body/div/div/div/div/div/div/div/div/div/div/ul/li/div/div/h2/span'
p127
F5.717856771218502
sS'/html/body/div/div/div/div/div/div/div/div/div/div/ul/li/ul/li/div/div/div/h3/span'
p128
F4.293358942690592
sS'/html/body/div/div/div/div/div/div/div/div/div/div/ul/li/div/div/div/div/div/div/div/ul/li/div/div/a/span/button/span'
p129
F8.965784284662087
sS'/html/body/div/div/div/div/div/div/div/div/div/div/div/div/div/div/div/div/div'
p130
F7.380821783940932
sS'/html/body/div/div/div/div/div/div/div/div/div/div/div/div/div/div/span/div/div/div/div/div/div/div/div/p/span'
p131
F9.965784284662087
sS'/html/body/div/div/div/div/div/span/link'
p132
F9.965784284662087
sS'/html/body/div/div/div/div/div/div/div/div/ol/li/address/br'
p133
F9.965784284662087
sS'/html/body/div/div/div/div/div/div/div/div/div/div/ul/li/div/div/div/ul/li/div/div/div/a'
p134
F9.965784284662087
sS'/html/body/div/div/div/div/div/div/div/div/div/div/ul/li/div/div/div/ul/li/div/div/span/button'
p135
F9.965784284662087
sS'/html/body/div/div/div/div/div/div/div/div/div/div/ul/li/div/div/div/section/div/div/div/div/div/button/span'
p136
F5.717856771218502
sS'/html/body/div/div/div/div/div/div/div/div/div/div/div/div/ol/li/ol/li/div/div/div/div/div/div/h3/span'
p137
F9.965784284662087
sS'/html/body/div/div/div/div/div/div/div/div/div/div/ul/li/div/div/button/span/span/span/span'
p138
F5.795859283219775
sS'/html/body/div/div/div/div/div/div/div/div/div/div/ul/li/div/div/span/button/span'
p139
F9.965784284662087
sS'/html/body/div/div/div/a/span/span'
p140
F0.004334590263891124
sS'/html/body/div/div/div/div/div/div/div/div/div/div/ul/li/div/table/tbody/tr/td/span/button/span'
p141
F3.265344566520995
sS'/html/body/div/div/div/div/div/div/div/div/div/div/ul/li/ul/li/div/div/div/a/span/span/span/span/img'
p142
F5.795859283219775
sS'/html/body/div/div/div/div/div/div/div/div/div/div/span/span/div/div/div/span'
p143
F0.9050883529745332
sS'/html/body/div/div/div/div/div/div/div/ul/li/div/ul/li/a/span/span/span'
p144
F1.1297339296040172
sS'/html/body/div/div/div/div/div/div/div/div/div/div/div/div/div/div/div/div/div/div/div'
p145
F9.965784284662087
sS'/html/body/div/div/div/div/div/div/div/div/div/div/div/div/div/div/div/div/div/h1/span/span/span/a'
p146
F9.965784284662087
sS'/html/body/div/div/div/div/div/div/div/div/div/div/ul/li/div/div/div/div/div/wbr/wbr/a'
p147
F8.965784284662087
sS'/html/body/div/div/div/div/div/div/div/div/div/div/div/div/div/ul/li/span/div/h3'
p148
F0.9050883529745332
sS'/html/body/div/div/div/div/div/div/div/div/div/div/ul/li/a/span'
p149
F1.5777669993169523
sS'/html/body/div/div/div/div/div/div/div/div/div/div/div/div/div/div/span/div/div/div/div/div/div/div/div'
p150
F9.965784284662087
sS'/html/body/div/div/div/div/div/div/div/div/div/div/div/ol/li/ol/li/div/div/div/ul/li/div/div/div/div/button'
p151
F9.965784284662087
sS'/html/body/div/div/div/div/div/div/div/div/div/div/div/div/ol/li/ol/li/div/div/div/div/div/div/span/button/span/span'
p152
F9.965784284662087
sS'/html/body/div/div/div/div/div/div/div/div/div/div/ul/li/div/div/div/ul/li/div/div/span/button/span'
p153
F9.965784284662087
sS'/html/body/div/div/div/div/div/a/span'
p154
F0.010134377133713133
sS'/html/body/div/div/div/div/div/div/div/div/div/div/ul/li/div/div/div/div/div/div/div/ul/li/div/div/div/div/span'
p155
F2.6711635357704604
sS'/html/body/div/div/div/div/div/div/div/div/div/div/ul/li/div/div/div/div/div/ul/li/div/div/div/h3/span'
p156
F3.6438561897747253
sS'/html/body/div/div/div/div/div/div/img'
p157
F0.9132162338579335
sS'/html/body/div/div/div/div/div/div/div/div/div/div/ul/li/div/div/div/div/div/div/div/ul/li/div/div/h3/a'
p158
F4.965784284662088
sS'/html/body/div/div/div/div/div/div/div/div/div/div/div/strong'
p159
F0.9050883529745332
sS'/html/body/div/div/div/div/div/div/div/div/div/div/div/div/div/span/button/span/span'
p160
F6.965784284662088
sS'/html/body/div/div/div/div/div/div/div/div/div/div/div/div/ol/li/ol/li/div/div/div/div/ul/li/div/div/div/div/ul/li'
p161
F9.965784284662087
sS'/html/body/div/div/div/div/div/div/div/div/div/div/ul/li/div/div/div/div/div/div/div/ul/li/div/div/div/a/span/span/span/span/span/img'
p162
F9.965784284662087
sS'/html/body/div/div/div/div/div/div/div/div/div/div/ul/li/ul/li/div/div/div/div/span'
p163
F6.50635266602479
sS'/html/body/div/span/meta'
p164
F1.539519529959989
sS'/html/body/div/div/div/div/div/div/div/div/div/div/div/div/ol/li/ol/li/div/div/div/div/div/div/button/span'
p165
F9.965784284662087
sS'/html/body/div/div/div/div/div/div/div/div/div/div/ul/li/div/div/div/section/div/div/div/div/a/span/span/span/img'
p166
F6.158429362604484
sS'/html/body/div/div/div/div/div/div/div/div/div/div/div/div/div/a/span'
p167
F3.265344566520995
sS'/html/body/div/div/div/div/div/div/div/div/div/div/ul/li/div/div/div/div/div/button/span'
p168
F3.7563309190331378
sS'/html/body/div/div/div/div/div/div/div/div/div/div/ul/li/div/div/div/section/div/div/div/div'
p169
F5.717856771218502
sS'/html/body/span/link'
p170
F1.539519529959989
sS'/html/body/div/div/div/div/div/div/div/div/div/div/span/button/ul/li/span'
p171
F0.010134377133713133
sS'/html/body/div/div/div/div/div/div/div/div/div/div/ul/li/div/div/div/div/div/ul/li/div/div/div/span/span'
p172
F6.50635266602479
sS'/html/body/div/div/div/div/div/div/div/div/div/div/button/span'
p173
F8.965784284662087
sS'/html/body/div/div/div/div/div/div/div/div/span/meta'
p174
F0.9050883529745332
sS'/html/body/div/div/div/div/div/div/div/div/div/div/div/div/div/div/div/div/div/div/span/a/span/span/span/img'
p175
F9.965784284662087
sS'/html/body/div/div/div/div/div/div/div/div/div/div/ul/li/div/div/div/div/div/wbr/wbr/br'
p176
F9.965784284662087
sS'/html/body/div/div/div/div/div/div/div/div/div/div/ul/li/span/div/h3/span'
p177
F7.643856189774724
sS'/html/body/div/div/div/div/div/div/div/div/div/div/ul/li/div/div/div/div/div/ul/li/div/div'
p178
F3.6082322800440036
sS'/html/body/div/header/div/div/ul/li/a/span'
p179
F9.965784284662087
sS'/html/body/div/div/div/div/div/div/div/div/div/div/ul/li/div/div/div/div/div/div/div/ul/li/div/div/div/span/span/span'
p180
F2.4035418604410146
sS'/html/body/div/div/div/div/div/div/div/div/div/div/span/span/button/span/span'
p181
F0.9050883529745332
sS'/html/body/div/div/div/div/div/div/div/div/div/div/ul/li/div/div/div/div/div/ul/li/div/div/div/h3/a'
p182
F3.6082322800440036
sS'/html/body/div/div/div/div/div/div/div/div/div/div/ul/li/div/div/div/div/div/ul/li/div/div/div/div/ul/li'
p183
F3.857259827883918
sS'/html/body/div/div/div/div/div/div/div/div/div/div/div/span/span/div/div'
p184
F0.9050883529745332
sS'/html/body/div/div/div/div/div/div/div/div/div/div/div/div/ol/li/ol/li/div/div/div/div/div/div/button'
p185
F9.965784284662087
sS'/html/body/div/div/div/div/div/div/div/div/div/button'
p186
F0.9050883529745332
sS'/html/body/div/div/div/div/div/div/div/div/p/a'
p187
F7.965784284662087
sS'/html/body/div/div/div/div/div/div/div'
p188
F0.8862995008352719
sS'/html/body/div/div/div/div/div/div/div/div/div/div/ul/li/div/div/div/section/div/div/div/div/a/span/span/span/span'
p189
F6.158429362604484
sS'/html/body/div/div/div/div/div/div/div/div/div/div/div/div/div/div/div/div/span/b'
p190
F9.965784284662087
sS'/html/body/div/div/div/div/div/div/div/div/div/div/div/img'
p191
F6.643856189774725
sS'/html/body/div/div/div/nav/nav/div/a'
p192
F9.965784284662087
sS'/html/body/div/div/div/div'
p193
F0.008682243099800773
sS'/html/body/div/header/div/div/button/svg/path'
p194
F9.965784284662087
sS'/html/body/div/div/div/div/div/div/ul/li/h3'
p195
F9.965784284662087
sS'/html/body/div/div/div/div/div/div/ul/li/h2'
p196
F1.5311560570253624
sS'/html/body/div/div/div/div/div/div/div/div/div/div/div/div/ul/li/a/span/span'
p197
F2.899695094204315
sS'/html/body/div/div/div/div/div/div/div/div/div/div/ul/li/ul/li/div/div/div/span/button'
p198
F4.9213901653036345
sS'/html/body/div/div/div/div/div/div/div/div/div/div/div/div/div/p/a'
p199
F1.0528949484321257
sS'/html/body/div/div/div/div/div/div/div/div/div/ol/li/ul/li'
p200
F9.965784284662087
sS'/html/body/div/div/div/div/div/div/div/div/div/div/ul/li/ul/li/div/div'
p201
F4.293358942690592
sS'/html/body/div/div/div/div/div/div/div/div/div/div/div/div/div/p/span'
p202
F9.965784284662087
sS'/html/body/div/div/div/div/div/div/div/div/div/div/ul/li/button/span'
p203
F3.4266254735540556
sS'/html/body/div/div/div/div/div/div/div/div/div/div/div/div/div/div/div/div/div/span/div/div/div/div/div/div/div/p/span'
p204
F9.965784284662087
sS'/html/body/div/div/div/div/div/div/div/div/div/div/ul/li/div/div/div/div/div/div/div/ul/li/div/div/div/span/span'
p205
F6.158429362604484
sS'/html/body/div/div/div/div/div/div/div/div/div/div/div/div/ol/li/ol/li/div/div/div/div/ul/li/div/div/div/a/div/span/img'
p206
F9.965784284662087
sS'/html/body/div/div/div/div/div/div/div/ul/li/p'
p207
F1.1297339296040172
sS'/html/body/div/div/div/div/div/div/div/div/div/div/div/div/div/div/h3/span'
p208
F9.965784284662087
sS'/html/body/div/div/div/div/div/div/div/div/div/div/div/div/div/div/div/div/span/span'
p209
F7.965784284662087
sS'/html/body/div/div/div/div/div/div/div/div/div/div/ul/li/ul/li/div/div/h3/a/span/span'
p210
F5.795859283219775
sS'/html/body/div/div/div/div/div/div/div/ul/li/div/ul/li/a/span/span'
p211
F1.1297339296040172
sS'/html/body/div/header/div/form/input'
p212
F9.965784284662087
sS'/html/body/div/div/div/div/div/div/ul/li/img'
p213
F9.965784284662087
sS'/html/body/div/div/div/div/div/div/div/div/div/div/ul/li/div/button/span/span'
p214
F5.321928094887363
sS'/html/body/div/div/div/div/div/div/div/div/div/ol/li/a/span/span/span/img'
p215
F2.6711635357704604
sS'/html/body/div/div/div/div/div/div/div/div/div/div/div/div/script'
p216
F9.965784284662087
sS'/html/body/div/div/div/div/div/div/p'
p217
F9.965784284662087
sS'/html/body/div/div/div/div/div/div/div/div/div/div/div/div/p/a'
p218
F9.965784284662087
sS'/html/body/div/div/div/div/div/div/div/div/div/div/ul/li/div/div/div/section/div/div/div/span/span'
p219
F7.158429362604482
sS'/html/body/div/div/div/div/div/div/div/div/div/div/div/ol/li/ol/li/ul/li/span/div/div/div/div/div/div/button/span'
p220
F8.965784284662087
sS'/html/body/div/div/div/div/div/div/div/div/div/div/span'
p221
F0.010134377133713133
sS'/html/body/div/div/div/div/div/div/div/div/div/div/ul/li/div/div/div/div/div/div/div/ul/li/div/div/div/span/span/button/span'
p222
F2.4035418604410146
sS'/html/body/div/div/div/div/div/div/div/button/span/span'
p223
F0.9023892033735779
sS'/html/body/div/div/div/div/div/div/div/div/div/div/ul/li/div/div/div/div/button/span'
p224
F5.717856771218502
sS'/html/body/div/div/div/div/div/div/div/div/div/div/ul/li/div/div/div/div/div/ul/li/div/div/div/span/button/span'
p225
F4.083141235300245
sS'/html/body/div/div/div/div/div/div/div/div/div/div/div/div/div/div/div/div/span/span/button/ul/li/span'
p226
F7.965784284662087
sS'/html/body/div/div/div/div/div/div/div/ul/li/div/a/span'
p227
F1.1297339296040172
sS'/html/body/div/div/div/div/div/div/div/div/div/div/div/div/div/div/span/div/div/div/div/div'
p228
F9.965784284662087
sS'/html/body/div/div/div/div/div/div/div/div/div/div/ul/li/div/div/div/section/div/div/a/span/span/span/span'
p229
F6.058893689053569
sS'/html/body/div/section/div/article/section/h1'
p230
F9.965784284662087
sS'/html/body/div/div/div/div/div/div/div/div/div/div/ul/li/div/div/div/div/div/div/span/span/button/ul/li/span'
p231
F8.965784284662087
sS'/html/body/div/div/div/div/div/div/div/div/div/ol/li/a'
p232
F9.965784284662087
sS'/html/body/div/div/div/div/div/div/div/div/div/div/ul/li/div/div/div/div/div/ul/li/div/div/div/div/br'
p233
F4.411195432984449
sS'/html/body/div/div/div/div/div/div/div/div/div/div/div/div/button/span/span/span/span'
p234
F9.965784284662087
sS'/html/body/div/div/div/div/div/div/div/div/div/div/ul/li/div/div/div/div/div/div/div/ul/li/a/h4/span'
p235
F2.4035418604410146
sS'/html/body/div/div/div/div/div/div/div/div/div/div/div/div/div/div/div/div/div/div/span/button/span'
p236
F9.965784284662087
sS'/html/body/div/div/div/div/div/div/div/div/div/div/ul/li/div/div/ul/li/b'
p237
F8.380821783940931
sS'/html/body/div/section/div/script'
p238
F9.965784284662087
sS'/html/body/div/div/div/div/div/div/div/div/div/div/ul/li/div/div/ul/li/a/span'
p239
F5.643856189774724
sS'/html/body/div/div/div/div/div/div/div/span'
p240
F0.9023892033735779
sS'/html/body/div/div/div/div/div/div/div/div/div/div/ul/li/div/div/div/div/div/div/div/ul/li/div/div/div/a/span/span/button'
p241
F4.107803289534515
sS'/html/body/div/section/div/article/section/div/div/p/strong'
p242
F9.965784284662087
sS'/html/body/div/div/div/div/div/div/div/div/div/div/ul/li/div/div/div/div/div/div/div/ul/li/div/div/a/button/span'
p243
F8.965784284662087
sS'/html/body/div/div/div/div/div/div/div/div/div/div/div/div/ol/li/ol/li/div/div/div/div/div/div/div/ul/li'
p244
F9.965784284662087
sS'/html/body/div/div/div/div/div/div/div/div/div/div/ul/li/div/div/div/div/div/div/div/ul/li'
p245
F8.965784284662087
sS'/html/body/div/div/div/div/div/div/div/div/div/div/div/div/ol/li/ol/li/div/div/div/div/h2/a/span'
p246
F9.965784284662087
sS'/html/body/div/div/div/div/div/div/div/div/div/div/div/div/ol/li/ol/li/div/div/div/div/div/a/div/span/img'
p247
F9.965784284662087
sS'/html/body/div/footer/div/form/select/option'
p248
F9.965784284662087
sS'/html/body/div/div/div/div/div/div/div/div/div/div/div/div/button/span/span'
p249
F9.965784284662087
sS'/html/body/div/div/div/div/div/div/div/div/div/div/ul/li/div/div/div/div/div/div/div/ul/li/div/div/h3/a/span/span'
p250
F5.107803289534515
sS'/html/body/div/div/div/div/div/div/div/div/div/div/pre'
p251
F8.965784284662087
sS'/html/body/div/div/div/div/div/div/div/div/div/div/ul/li/div/div/div/div/div/ul/li/div/div/div/div'
p252
F4.643856189774724
sS'/html/body/div/div/div/div/div/div/div/div/div/div/ul/li/div/div/div/div/div/div/span/a/span/span/span/img'
p253
F8.965784284662087
sS'/html/body/div/div/div/div/span/span'
p254
F9.965784284662087
sS'/html/body/div/div/div/div/div/div/div/div/div/div/ul/li/div/div/div/div/div/ul/li/div/div/h3/a'
p255
F8.380821783940931
sS'/html/body/div/div/div/div/div/div/div/div/ul/li/a'
p256
F9.965784284662087
sS'/html/body/div/div/div/div/div/div/div/div/ul/li'
p257
F8.965784284662087
sS'/html/body/div/div/div/div/div/div/div/div/div/div/div/div/ol/li/ol/li/div/div/div/div/ul/li/div/div/div/a/span'
p258
F9.965784284662087
sS'/html/body/div/div/div/div/div/div/div/div/ol/li/p/a'
p259
F9.965784284662087
sS'/html/body/div/div/div/div/div/div/div/div/div/div/a/span/span/span/img'
p260
F0.9050883529745332
sS'/html/body/div/div/div/div/div/div/div/div/div/div/ul/li/div/div/div/div/div/div/div/ul/li/div/div/a/button'
p261
F8.965784284662087
sS'/html/body/div/div/div/div/div/div/div/div/ul/li/p'
p262
F9.965784284662087
sS'/html/head/link'
p263
F0.001443416869668845
sS'/html/body/div/div/div/div/div/div/div/div/div/div/ul/li/ul/li/div/div/h3/span'
p264
F5.717856771218502
sS'/html/body/div/div/div/div/div/div/div/div/div/div/div/div/ol/li/ol/li/div/div/div/div/ul/li/div/div/div/button'
p265
F9.965784284662087
sS'/html/body/div/div/div/div/div/div/div/div/div/div/div/div/div/div/span/div/div/div/div/div/div/div'
p266
F9.965784284662087
sS'/html/body/div/div/div/div/div/div/div/div/ul/li/div/button/span'
p267
F1.446148031818874
sS'/html/body/div/div/div/div/div/div/div/div/div/div/div/span'
p268
F0.010134377133713133
sS'/html/body/div/div/div/div/div/div/div/div/div/div/ul/li/div/div/ul/li/a/img'
p269
F5.643856189774724
sS'/html/body/div/div/div/div/div/div/div/div/div/div/div/h1/span/a/span'
p270
F1.780908941753803
sS'/html/body/div/div/div/div/div/div/div/ul/li/hr'
p271
F1.1297339296040172
sS'/html/body/div/div/div/div/div/div/div/div/div/div/ul/li/div/div/div/div/div/div'
p272
F3.3510744405468786
sS'/html/body/div/div/div/div/div/div/div/div/div/p/a'
p273
F4.237863830098888
sS'/html/body/div/div/div/div/div/div/div/div/div/div/ul/li/div/div/div/div/div/div/div/ul/li/div/div/a/span/span/span/span'
p274
F4.573466861883327
sS'/html/body/div/div/div/div/div/div/div/div/div/div/div/div/div/div/div/div/a/span/span/span/span'
p275
F9.965784284662087
sS'/html/body/div/div/div/div/label'
p276
F9.965784284662087
sS'/html/body/div/header/div/div/div/div/span/a/svg/path'
p277
F9.965784284662087
sS'/html/body/div/div/div/div/div/div/div/div/div/div/ul/li/div/div/div/div/div/h2/a/span'
p278
F2.3147325934831584
sS'/html/body/div/div/div/div/div/div/div/div/div/div/ul/li/div/div/div/div/div/ul/li/div/div/a/span/span/span/span'
p279
F8.380821783940931
sS'/html/body/div/div/div/div/div/div/div/div/div/div/ul/li/div/div/div/div/div/div/div/ul/li/div/div/div/div/ul'
p280
F3.816037165157405
sS'/html/body/div/div/div/div/div/div/div/div/div/div/div/div/ul/li/a/span/span/span/span/span/b'
p281
F1.7710274302398394
sS'/html/body/div/div/div/div/div/div/div/div/div/div/ul/li/ul/li/div/div/div/span/span/button/span'
p282
F4.9213901653036345
sS'/html/body/div/section/div/article/div/div/div/form/div/textarea'
p283
F9.965784284662087
sS'/html/body/div/div/div/div/div/div/div/div/div/div/div/div/ul/li/div/a/span/img'
p284
F0.9105018491608974
sS'/html/body/div/section/div/article/div/div/div/form/button'
p285
F9.965784284662087
sS'/html/body/div/div/div/div/div/div/div/div/div/div/ul/li/div/div/div/div/div/div/div/ul/li/div/div/span/button/span/span'
p286
F4.643856189774724
sS'/html/body/div/div/div/div/div/div/div/div/div/div/ul/li/div/div/div/ul/li/div/div/span/span/button/ul/li/span'
p287
F9.965784284662087
sS'/html/body/div/div/div/div/div/div/div/div/div/div/div/span/span/button/span'
p288
F0.9077925619029114
sS'/html/body/div/div/div/div/div/div/div/div/div/div/ul/li/div/div/div/section/div/div/div/div/button/span'
p289
F6.058893689053569
sS'/html/body/div/div/div/div/div/div/div/div/div/div/div/div/div/div/div'
p290
F7.380821783940932
sS'/html/body/div/div/div/div/div/div/div/div/div/div/div/div/ul/button/span'
p291
F0.9378782880922025
sS'/html/body/div/div/div/div/div/div/div/div/div/div/div/div/ol/li/ol/li/div/div/div/div/div/div/a/div/span/img'
p292
F9.965784284662087
sS'/html/body/div/div/div/div/link'
p293
F8.965784284662087
sS'/html/body/div/div/div/div/div/div/div/div/div/div/ul/li/ul/li/div/div/div/span/button/span'
p294
F4.9213901653036345
sS'/html/body/div/div/div/div/div/div/div/div/div/div/div/h1/span/span/span'
p295
F3.7178567712185013
sS'/html/body/div/div/div/div/div/div/div/div/div/div/ul/li/ul/li/div/div/div/div/a'
p296
F6.265344566520995
sS'/html/body/div/div/div/div/div/div/div/div/div/div/ul/li/div/table/tbody/tr/td'
p297
F3.265344566520995
sS'/html/body/div/div/div/div/div/div/div/div/div/div/ul/li/ul/li/div/div/div/span/a/span/span/span/span'
p298
F4.9213901653036345
sS'/html/body/div/div/div/div/div/div/div/div'
p299
F0.8970060066766744
sS'/html/body/div/div/div/div/div/div/div/div/div/div/div/div/ol/li/ol/li/div/div/div/div/ul/li/div/div/div/div/a'
p300
F9.965784284662087
sS'/html/body/div/div/div/div/div/div/div/div/div/div/div/div/div/div/div/div/div/div/span/span'
p301
F9.965784284662087
sS'/html/body/div/div/div/div/div/div/div/div/div/h3'
p302
F6.058893689053569
sS'/html/body/div/div/div/div/div/div/div/div/div/h2'
p303
F2.244685095954902
sS'/html/body/div/div/div/div/div/div/div/div/div/div/ul/li/button/ul/li/span'
p304
F3.4266254735540556
sS'/html/body/div/div/div/div/div/div/div/div/div/div/ul/li/div/div/div/div/div/div/div/ul/li/div/div/div/span/a/span/span/span/img'
p305
F2.4035418604410146
sS'/html/body/div/div/div/div/div/div/div/div/div/div/div/div/div/div/div/div/div/div/div/span/a/span/span/span/img'
p306
F9.965784284662087
sS'/html/body/div/div/div/div/div/div/div/div/div/div/div/div/div/div/div/div/div/h1/span/a/span'
p307
F9.965784284662087
sS'/html/body/div/div/div/div/div/div/div/div/div/ul/li/span/div/div/span/span'
p308
F2.244685095954902
sS'/html/body/div/div/div/div/div/div/div/div/div/div/div/div/div/div/div/div/span/a/span/span/span/img'
p309
F7.965784284662087
sS'/html/body/div/span/link'
p310
F1.539519529959989
sS'/html/body/div/meta'
p311
F1.539519529959989
sS'/html/body/div/div/div/div/div/div/div/div/div/div/div/ol/li/ol/li/ul/li/span/div/div/div/div/div/div'
p312
F8.965784284662087
sS'/html/body/div/div/div/div/div/div/div/div/div/div/div/ol/li/ol/li/ul/li/span/div/div/div/div/div/p'
p313
F8.965784284662087
sS'/html/body/div/div/a'
p314
F0.004334590263891124
sS'/html/body/div/div/div/div/div/div/div/div/div/div/div/div'
p315
F0.3437324652057108
sS'/html/body/style'
p316
F1.7759597257820698
sS'/html/body/div/div/div/div/div/div/div/div/ul/li/a/span'
p317
F1.1746213961070688
sS'/html/body/div/div/div/div/div/div/div/div/div/div/div/div/ul/li/div/a/span/span'
p318
F0.9105018491608974
sS'/html/body/div/div/div/div/div/div/div/div/div/ul/li/span/div/a/span/span/span/span'
p319
F2.244685095954902
sS'/html/body/div/div/div/div/div/div/div/div/div/ol/li/a/div/span'
p320
F6.643856189774725
sS'/html/body/div/div/div/div/div/div/div/ul/li/div/ul/li/a/span/span/span/span/span/img'
p321
F1.1297339296040172
sS'/html/body/div/div/div/div/div/div/div/div/ol/li/address/span'
p322
F9.965784284662087
sS'/html/body/div/div/div/div/div/div/div/div/div/div/ul/li/div/table/tbody/tr/td/div/span'
p323
F9.965784284662087
sS'/html/body/div/div/div/div/div/div/div/div/div/div/ul/li/ul/li/div/div/div/a/span/span/span/span/span/b'
p324
F5.795859283219775
sS'/html/body/div/div/div/div/div/div/div/div/div/div/ul/li/div/div/div/div/div/div/span/a/span/span/span/span'
p325
F8.965784284662087
sS'/html/body/div/div/div/div/div/div/ul/li/span'
p326
F9.965784284662087
sS'/html/body/div/div/div/div/div/div/div/div/div/div/ul/li/div/div/div/ul/li/div/div/div/ul/li/span'
p327
F9.965784284662087
sS'/html/body/div/div/div/div/div/div/div/div/div/div/ul/li/div/div/div/div/div/ul/li/div/div/div/div/ul'
p328
F5.643856189774724
sS'/html/body/div/div/div/div/div/div/div/div/div/div/div/div/div/div/div/a/span/span/span/img'
p329
F9.965784284662087
sS'/html/body/div/div/div/div/div/div/div/div/div/div/div/div/ul/li/div/a/span'
p330
F0.9105018491608974
sS'/html/body/div/div/div/div/div/div/div/div/div/div/ul/li/div/div/div/div/div/ul/li/div/div/div/ul/li'
p331
F8.380821783940931
sS'/html/body/div/section/div/article/section/div/p/a'
p332
F9.965784284662087
sS'/html/body/div/div/div/div/div/div/div/div/div/ol/li/a/span/span/span/span'
p333
F2.6711635357704604
sS'/html/body/div/div/div/div/div/div/div/div/div/div/div/div/div/span/input'
p334
F1.446148031818874
sS'/html/body/div/div/div/div/div/form/button/span'
p335
F0.010134377133713133
sS'/html/body/div/div/div/button'
p336
F0.010134377133713133
sS'/html/body/div/div/div/div/div/div/div/div/div/div/div/div/ol/li/ol/li/div/div/div/div/ul/li/div/div/div/button/span'
p337
F9.965784284662087
sS'/html/body/div/div/div/div/div/div/div/div/div/div/ul/li/div/div/div/span/span'
p338
F8.965784284662087
sS'/html/body/div/div/div/div/form/input'
p339
F9.965784284662087
sS'/html/body/div/div/div/div/div/div/div/div/div/div/ul/li/div/div/div/div/div/ul/li/div/div/div/span/span/button/ul/li/span'
p340
F4.083141235300245
sS'/html/body/div/div/div/h3'
p341
F0.010134377133713133
sS'/html/body/div/div/div/div/div/div/div/div/div/div/ul/script'
p342
F1.539519529959989
sS'/html/body/div/div/div/h1'
p343
F9.965784284662087
sS'/html/body/div/div/div/div/div/div/div/div/div/div/ul/li/div/div/div/section/div/div/div/div/div/div/div/b'
p344
F9.965784284662087
sS'/html/body/div/div/div/div/div/div/div/div/div/div/div/div/ol/li/ol/li/div/div/div/div/div/h3/span'
p345
F9.965784284662087
sS'/html/body/div/div/div/div/div/div/div/div/div/div/ul/li/div/div/div/section/div/div/div/div/div/div/div/a'
p346
F7.643856189774724
sS'/html/body/div/div/div/div/div/div/div/div/div/div/ul/li/div/div/div/ul/li/div/div/div/ul/li'
p347
F9.965784284662087
sS'/html/body/div/div/div/div/div/div/div/div/div/div/div/ol/li/ol/li/div/div/div/ul/li/div/div/div/div/div/br'
p348
F9.965784284662087
sS'/html/body/div/div/div/div/div/div'
p349
F0.008682243099800773
sS'/html/body/div/div/div/ul/li'
p350
F0.005782352594006179
sS'/html/body/div/div/div/div/div/div/div/div/div/div/ul/li/div/div/div/div/div/div/div/ul/li/div/div/div/span/span/button/ul/li/span'
p351
F2.4035418604410146
sS'/html/body/div/section/div/article/div/div/span'
p352
F9.965784284662087
sS'/html/body/div/div/div/div/div/div/div/div/div/div/ul/li/ul/li/div/div/a/span/span/span/span'
p353
F5.717856771218502
sS'/html/body/div/div/div/div/div/div/div/div/div/div/div/div/div/div/div/div/span/button/span'
p354
F7.965784284662087
sS'/html/body/div/div/div/div/div/div/div/div/div/div/ul/li/div/div/div/section/div/div/div/div/div/div/div/div/button/span'
p355
F6.158429362604484
sS'/html/body/div/div/div/div/div/div/div/div/div/div/ul/li/ul/li/div/div/div/a/span/span/span/span'
p356
F5.795859283219775
sS'/html/body/div/script'
p357
F9.965784284662087
sS'/html/body/div/div/div/div/div/div/div/div/div/div/div/div/ul/li/a/span/span/span/span/img'
p358
F1.7710274302398394
sS'/html/body/div/div/div/div/div/div/div/div/div/ol/li/a/div/span/span'
p359
F2.6711635357704604
sS'/html/body/div/div/div/div/div/div/div/div/div/div/ul/li/div/div/div/div/div/ul/li/div/div/a/span/span/span/img'
p360
F8.380821783940931
sS'/html/body/div/div/div/div/div/div/div/div/div/div/h4/strong'
p361
F6.795859283219775
sS'/html/body/div/div/div/ul/li/span'
p362
F9.965784284662087
sS'/html/body/div/div/div/div/div/div/div/div/div/div/div/div/ol/li/ol/li/div/div/div/button/span/span'
p363
F9.965784284662087
sS'/html/body/div/div/div/div/div/div/div/div/div/div/ul/li/div/div/div/div/div/div/div/ul/li/div/div/div/ul'
p364
F8.965784284662087
sS'/html/body/div/div/div/div/div/div/div/div/div/div/div/ol/li/ol/li/div/div/div/ul/li/div/div/div/div/h3/span'
p365
F9.965784284662087
sS'/html/body/div/div/div/div/div/div/div/div/div/div/ul/li/div/div/div/section/div/div/div/button/span'
p366
F5.717856771218502
sS'/html/body/div/div/div/div/div/div/div/div/div/div/ul/li/div'
p367
F8.965784284662087
sS'/html/body/div/div/div/div/div/div/div/div/div/div/ul/li/div/div/div/div/div/div/div/ul/li/div/div/a/span'
p368
F8.965784284662087
sS'/html/body/div/div/div/div/div/div/div/div/div/div/ul/li/div/div/div/div/div/div/div/ul/li/div/div/a/span/button/ul/li/span'
p369
F8.965784284662087
sS'/html/body/div/div/div/div/div/div/div/div/div/div/div/ol/li/ol/li/ul/li/button/span'
p370
F8.965784284662087
sS'/html/body/div/div/div/div/div/div/div/div/div/div/div/div/div/div/div/div/div/p/span'
p371
F7.643856189774724
sS'/html/body/div/div/div/div/div/div/div/div/div/div/div/div/div/div/div/div/p'
p372
F9.965784284662087
sS'/html/body/div/div/div/ul/li/a'
p373
F0.001443416869668845
sS'/html/body/div/header/div/div/form/input'
p374
F9.965784284662087
sS'/html/body/div/div/div/button/span/span'
p375
F0.004334590263891124
sS'/html/body/div/div/div/div/div/div/div/div/div/div/ul/li/div/div/div/div/div/div/h3/a'
p376
F8.965784284662087
sS'/html/body/div/div/div/div/div/div/div/div/div/div/ul/li/div/div/div/div/div/ul/li/div/div/div/a/span/span/span/span/span/b'
p377
F5.158429362604483
sS'/html/body/div/div/div/div/div/div/div/div/div/div/div/button/span'
p378
F0.9050883529745332
sS'/html/body/div/header/div/a/img'
p379
F9.965784284662087
sS'/html/body/div/div/div/div/div/div/div/div/div/div/div/div/ol/li/ol/li/div/div/div/div/div/div/span/button/ul/li/span'
p380
F9.965784284662087
sS'/html/body/div/div/div/div/div/div/div/div/div/div/div/div/h3/a/span'
p381
F7.965784284662087
sS'/html/body/div/div/div/div/div/div/div/div/div/div/ul/li/ul/li/div/div/div/span/span/button/ul/li/span'
p382
F4.9213901653036345
sS'/html/body/div/div/div/div/div/div/div/div/link'
p383
F0.9050883529745332
sS'/html/body/div/div/div/div/div/div/div/h2'
p384
F9.965784284662087
sS'/html/body/div/div/div/div/div/div/p/span'
p385
F0.010134377133713133
sS'/html/body/div/div/div/div/div/div/div/div/div/div/div/h3'
p386
F4.836501267717121
sS'/html/body/div/div/div/div/div/div/div/div/div/div/div/h2'
p387
F2.2042330522176075
sS'/html/body/div/div/div/div/div/div/div/div/div/div/ul/li/span/div/h3/a'
p388
F7.643856189774724
sS'/html/body/div/div/div/div/div/div/div/div/div/div/ul/li/span/div/a/span/span/span/span'
p389
F7.643856189774724
sS'/html/body/div/div/div/div/div/span/a/span'
p390
F0.7883647466728504
sS'/html/body/div/div/div/div/div/div/div/div/meta'
p391
F0.9050883529745332
sS'/html/body/div/div/div/div/div/div/div/div/div/div/div/div/div/div/div/div/a/span/span/span/img'
p392
F9.965784284662087
sS'/html/body/div/div/div/div/div/div/div/div/div/div/div/div/ul/li'
p393
F3.265344566520995
sS'/html/body/div/div/div/div/div/div/div/div/div/div/div/div/div/p/wbr/wbr/br'
p394
F8.965784284662087
sS'/html/body/div/div/div/div/div/div/div/div/div/div/div/div/ol/li/ol/li/div/div'
p395
F9.965784284662087
sS'/html/body/div/div/div/div/div/div/div/div/div/div/ul/li/div/div/div/div/div/ul/li/div/div/div/a/span/span/button'
p396
F5.158429362604483
sS'/html/body/div/div/div/div/div/div/div/div/div/div/div/div/ol/li/ol/li/div/div/div/div/ul/li/div/div/div/span/button/ul/li/span'
p397
F9.965784284662087
sS'/html/body/div/div/div/div/div/div/div/div/div/div/ul/li/div/div/div/div/span'
p398
F2.6529013293777317
sS'/html/body/div/div/div/div/div/div/div/div/div/div/div/div/ul/li/button'
p399
F9.965784284662087
sS'/html/body/div/div/div/div/div/div/div/div/div/div/span/span/div/div/div/div/div'
p400
F0.9050883529745332
sS'/html/body/div/div/div/div/div/div/div/div/div/div/div/span/div/h3'
p401
F0.9050883529745332
sS'/html/body/div/div/div/div/div/div/div/div/div/div/div/ul/li/span'
p402
F3.011587974275212
sS'/html/body/div/div/div/div/div/div/div/div/div/div/ul/li/div/div/div/div/div/div/span/span/button/span'
p403
F8.965784284662087
sS'/html/body/div/div/div/div/div/div/div/div/div/div/div/ol/li/ol/li/div/div/div/ul/li/div/div/div/div/div/span'
p404
F9.965784284662087
sS'/html/body/div/div/div/div/div/div/div/div/div/div/ul/li/div/div/div/div/div/ul/li/div/div/div/div/a'
p405
F3.9657842846620874
sS'/html/body/script'
p406
F0.0
sS'/html/body/div/div/div/div/div/div/div/div/div/div/ul/li/div/div/div/div/div/div/span/button/span'
p407
F8.965784284662087
sS'/html/body/div/div/div/div/div/div/div/div/div/div/div/ol/li/ol/li/div/div'
p408
F9.965784284662087
sS'/html/body/div/div/div/div/div/div/div/div/h4'
p409
F9.965784284662087
sS'/html/body/div/div/div/div/div/div/div/div/h2'
p410
F8.380821783940931
sS'/html/body/div/div/div/div/div/div/div/div/div/div/ul/li/div/div/div/span/b/a'
p411
F8.965784284662087
sS'/html/body/div/div/div/div/div/div/div/div/div/div/ul/li/div/div/div/section/div/div/div/button/span/span'
p412
F6.158429362604484
sS'/html/body/div/form/input'
p413
F0.004334590263891124
sS'/html/body/div/div/div/div/div/div/div/div/div/div/div/hr'
p414
F1.4150374992788437
sS'/html/body/div/div/div/div/div/div/div/div/div/div/ul/li/div/div/a/span/span/span/span/img'
p415
F8.965784284662087
sS'/html/body/div/div/div/div/div/div/div/div/div/div/div/ol/li/ol/li/ul/li/span/div/div/div/div/div/div/div/p/span'
p416
F8.965784284662087
sS'/html/body/div/div/div/div/div/div/div/div/div/div/div/div/div/ul/li/span/div/div'
p417
F0.9050883529745332
sS'/html/body/div/div/div/div/div/div/div/div/div/div/div/div/ol/li/ol/li/div/div/div/div/div/span/button/ul/li/span'
p418
F9.965784284662087
sS'/html/body/div/div/div/ul/li/button/span'
p419
F0.004334590263891124
sS'/html/body/div/div/div/div/div/div/div/div/div/div/ul/li/div/div/div/div/div/div/div/ul/li/div/div/div/span'
p420
F8.965784284662087
sS'/html/body/div/div/div/div/div/div/div/img'
p421
F1.0028882793248264
sS'/html/body/div/div/div/div/div/div/div/div/ul/li/div/p/a'
p422
F9.965784284662087
sS'/html/body/div/div/div/div/div/div/div/div/div/div/div/div/ol/li/ol/li/div/div/div/div/div'
p423
F9.965784284662087
sS'/html/body/div/div/div/div/div/div/div/button/span'
p424
F0.9023892033735779
sS'/html/body/div/div/div/div/div/div/div/div/div/div/ul/li/div/div/div/div/div/div/div/ul/li/div/div'
p425
F2.272297327162762
sS'/html/body/div/div/div/div/div/div/div/div/div/ol/li'
p426
F9.965784284662087
sS'/html/body/div/div/div/div/div/div/div/div/div/div/div/div/div/div/button/span'
p427
F9.965784284662087
sS'/html/body/div/div/div/div/div/div/div/div/div/div/ul/li/div/div/button/span/span'
p428
F5.795859283219775
sS'/html/body/div/div/div/div/div/div/div/div/div/div/ul/li/div/div/div/div/div'
p429
F2.0350469470992008
sS'/html/body/div/div/div/div/div/div/div/div/div/script'
p430
F2.6711635357704604
sS'/html/body/div/div/div/div/div/div/div/div/div/div/div/ol/li/ol/li/div/div/div/ul/li/div/div/div/div/div/a'
p431
F9.965784284662087
sS'/html/body/div/div/div/div/div/div/div/div/div/div/div/div/h4'
p432
F1.446148031818874
sS'/html/body/div/div/div/div/div/div/div/div/div/div/div/div/h3'
p433
F9.965784284662087
sS'/html/body/div/div/div/div/div/div/div/div/div/div/div/div/h1'
p434
F3.265344566520995
sS'/html/body/div/div/div/div/div/div/div/div/div/div/ul/li/div/div/div/div'
p435
F2.465938397578882
sS'/html/body/div/section/div/article/div/div/button/span'
p436
F9.965784284662087
sS'/html/body/div/div/div/div/div/div/div/div/div/div/ul/li/div/div/div/div/div/ul/li/div/div/div/span/span/span'
p437
F4.132894270497346
sS'/html/body/div/div/div/div/div/div/div/div/div/div/ul/li/div/div/div/ul/li/div/div/div/br'
p438
F9.965784284662087
sS'/html/body/div/div/div/div/form/label/input'
p439
F9.965784284662087
sS'/html/body/div/div/div/div/div/span/meta'
p440
F9.965784284662087
sS'/html/body/div/div/div/div/div/div/div/div/div/a/img'
p441
F1.158429362604483
sS'/html/body/div/div/div/div/div/div/div/div/div/div/div/div/ol/li/ol/li/div/div/div/div/h2/span/b/a'
p442
F9.965784284662087
sS'/html/body/div/div/button'
p443
F7.965784284662087
sS'/html/body/div/div/div/div/div/div/div/div/div/div/ul/li/div/div/div/section/div/a/span/span/span/img'
p444
F5.717856771218502
sS'/html/body/div/div/div/div/div/div/div/div/div/div/div/div/a'
p445
F3.265344566520995
sS'/html/body/div/div/div/div/div/div/div/div/div/div/div/div/div/div/div/div/div/span/div/div/div/div/div/div/div/div'
p446
F9.965784284662087
sS'/html/body/div/div/div/div/div/div/div/div/div/div/div/ol/li/ol/li/div/div/div/ul/li/div/div/div/div/span/button/ul/li/span'
p447
F9.965784284662087
sS'/html/body/div/div/div/div/div/div/div/div/div/div/ul/li/ul/li/div/div/div/a/span/span/span/button/ul/li/span'
p448
F5.795859283219775
sS'/html/body/div/div/div/div/div/div/div/div/div/div/div/div/ul/li/a/span/span/span/span'
p449
F1.7710274302398394
sS'/html/body/div/div/div/div/div/div/div/div/div/div/ul/li/div/div/div/section/div/div/div/span'
p450
F5.717856771218502
sS'/html/body/div/div/div/div/img'
p451
F9.965784284662087
sS'/html/body/div/div/div/div/div/div/div/div/div/div/ul/li/div/button/span/span/span/span'
p452
F5.321928094887363
sS'/html/body/div/div/div/div/div/div/div/div/div/div/div/div/div/div/div/div/div/div/div/span/span'
p453
F9.965784284662087
sS'/html/body/div/div/div/div/p/span'
p454
F0.004334590263891124
sS'/html/body/div/div/div/div/div/div/div/div/div/div/div/ol/li/ol/li/div/div/div/div/h2/span'
p455
F9.965784284662087
sS'/html/body/div/div/div/div/div/div/div/div/div/div/div/div/div/div/div/div/div/div/div/span/button/span'
p456
F9.965784284662087
sS'/html/body/div/div/div/div/div/div/div/div/div/div/div/div/div/div/p'
p457
F7.965784284662087
sS'/html/body/div/div/div/div/div/div/div/div/div/div/div/div/ol/li/ol/li/div/div/div/div/div/div/ul/li'
p458
F9.965784284662087
sS'/html/body/div/div/div/div/div/div/div/div/div/div/div/div/div/strong'
p459
F0.9050883529745332
sS'/html/body/div/div/div/div/div/div/div/div/div/div/ul/li/div/div/div/section/div/div/div/button/span/span/span/span'
p460
F6.158429362604484
sS'/html/body/div/div/div/div/div/div/div/div/div/div/div/div/div/ul/li/ul/li'
p461
F0.9050883529745332
sS'/html/body/div/div/div/div/div/div/div/div/div/div/span/span/div/div/div/div/div/div/div/div'
p462
F0.9050883529745332
sS'/html/body/div/div/div/div/div/div/div/div/div/div/ul/li/div/div/div/div/div/ul/li/a/h4/span'
p463
F4.184424571137428
sS'/html/body/div/div/div/div/div/div/div/div/div/div/ul/li/div/div/div/section/div/div/div/div/div/a'
p464
F7.965784284662087
sS'/html/body/div/div/div/div/div/div/div/div/div/div/div/div/div/span/div/h3'
p465
F3.265344566520995
sS'/html/body/div/div/div/div/div/div/div/div/div/div/div/div/span/div/div/div/span'
p466
F1.4305089080412836
sS'/html/body/div/div/div/div/div/div/div/div/span'
p467
F7.380821783940932
sS'/html/body/div/div/div/div/div/div/div/div/div/div/div/div/div/div/div/div/span/span/button/span'
p468
F7.965784284662087
sS'/html/body/div/div/div/div/div/div/div/div/div/div/ul/li/div/div/div/section/div/div/div/div/div/div/span/a'
p469
F6.158429362604484
sS'/html/body/div/div/div/div/div/div/div/div/div/div/div/div/span/div/div/div/div/div/div/div'
p470
F1.4305089080412836
sS'/html/body/div/div/div/div/div/div/div/div/div/div/div/div/h3/span/a/span'
p471
F9.965784284662087
sS'/html/body/div/div/div/div/div/div/div/div/div/div/ul/li/button/span/span/span/span'
p472
F4.50635266602479
sS'/html/body/div/div/div/div/div/div/div/ol/li/a'
p473
F8.380821783940931
sS'/html/body/div/div/div/div/div/div/div/div/div/ul/li/span/div/h3/span'
p474
F2.244685095954902
sS'/html/body/div/header/div/div/div/span/a/span'
p475
F9.965784284662087
sS'/html/body/div/div/div/div/div/div/div/div/div/div/div/div/div/ul/li/span/a/img'
p476
F6.795859283219775
sS'/html/body/div/div/div/div/div/div/div/div/div/div/div/div/div/div/div/div/div/div/span/button'
p477
F9.965784284662087
sS'/html/body/div/div/div/span/a/img'
p478
F9.965784284662087
sS'/html/body/div/div/div/div/div/div/div/div/div/div/div/div/span/div/div/div/div/div/div/div/p/span'
p479
F1.4305089080412836
sS'/html/body/div/div/div/div/div/div/div/div/div/div/ul/li/div/div/span'
p480
F4.608232280044003
sS'/html/body/div/div/div/div/div/div/div/div/p/span'
p481
F7.965784284662087
sS'/html/body/div/div/div/div/div/div/div/div/div/div/div/div/div/div/div/div'
p482
F7.965784284662087
sS'/html/body/div/div/div/div/div/div/div/div/div/button/span'
p483
F0.9132162338579335
sS'/html/body/div/div/div/div/div/div/div/div/div/div/div/div/div/div/div/a/span/span/span/span'
p484
F9.965784284662087
sS'/html/body/div/div/div/div/div/div/div/div/div/div/ul/li/ul/li/div/div/div/div/ul/li/span'
p485
F5.965784284662088
sS'/html/body/div/div/div/div/a/img'
p486
F9.965784284662087
sS'/html/body/div/div/div/div/div/div/div/div/div/div/ul/li/div/div/div/div/div/div/div/ul/li/div/div/div/div/ul/li/span'
p487
F3.1456053222468996
sS'/html/body/div/div/div/div/div/div/div/div/div/div/ul/li/ul/li/div/div/div/span/a/span/span/span/img'
p488
F4.9213901653036345
sS'/html/body/div/div/div/div/div/div/div/div/div/div/div/div/p/strong'
p489
F6.965784284662088
sS'/html/body/div/div/div/div/div/div/div/div/div/div/ul/li/div/div/div/div/div/div/div/ul/li/div/div/div/a/span/span/span/span/span/span'
p490
F9.965784284662087
sS'/html/body/div/div/div/div/div/div/div/div/div/div/div/div/div/div/div/div/p/span'
p491
F9.965784284662087
sS'/html/body/div/div/div/div/div/div/div/div/div/div/ul/li/div/div/div/div/div/ul/li/div/div/div/div/span'
p492
F4.643856189774724
sS'/html/body/div/div/div/div/div/div/div/div/div/div/div/ol/li/ol/li/ul/li/span/div/div/div/div/div/h2'
p493
F8.965784284662087
sS'/html/body/div/div/div/div/div/div/div/div/div/div/div/div/div/span/div/div/p/span'
p494
F3.265344566520995
sS'/html/body/div/div/div/div/div/div/div/div/div/div/div/div/div/p'
p495
F4.380821783940931
sS'/html/body/div/div/div/div/div/div/div/div/div/div/div/div/div/div/div/div/div/div/div/span/a/span/span/span/span'
p496
F9.965784284662087
sS'/html/body/div/footer/div/ul/li'
p497
F9.965784284662087
sS'/html/body/div/div/div/div/div/div/div/div/div/div/div/div/button/span'
p498
F0.8916428219095817
sS'/html/body/div/div/div/div/div/div/div/div/div/div/ul/li/ul/li/div/div/span/span'
p499
F5.717856771218502
sS'/html/body/div/div/div/div/div/div/div/div/div/div/ul/li/div/div/div/section/div/div/div/span/a'
p500
F5.717856771218502
sS'/html/body/div/div/div/div/div/div/div/div/div/div/div/div/ol/li/ol/li/div/div/div/div/div/h3/a'
p501
F9.965784284662087
sS'/html/body/div/div/div/div/div'
p502
F0.004334590263891124
sS'/html/body/div/div/div/div/div/div/div/div/div/div/ul/li/div/div/div/div/div/ul/li/div/div/div/div/ul/li/span'
p503
F5.795859283219775
sS'/html/body/div/div/div/div/div/div/div/div/div/div/div/ul/li/a'
p504
F3.011587974275212
sS'/html/body/div/div/div/div/div/div/div/div/div/div/ul/li/div/div/div/ul/li/div'
p505
F9.965784284662087
sS'/html/body/div/div/div/div/div/div/div/div/div/div/div/ol/li/ol/li/div/div/div/ul/li/div/div/div/div/button/span'
p506
F9.965784284662087
sS'/html/body/div/div/div/div/div/div/div/div/div/div/div/div/p/span'
p507
F0.9050883529745332
sS'/html/body/div/div/div/div/div/div/div/div/div/div/div/div/ol/li/ol/li/div/div/div/div/div/div/span/button/span'
p508
F9.965784284662087
sS'/html/body/div/div/div/div/div/div/div/div/div/div/ul/li/div/div/div/section/div/div/div/div/div/div/button/span'
p509
F5.965784284662088
sS'/html/body/div/div/div/ul/li/button/span/span'
p510
F0.004334590263891124
sS'/html/body/div/div/div/div/div/div/div/div/div/div/div/div/div/div'
p511
F0.9050883529745332
sS'/html/body/div/div/div/div/div/div/div/div/div/div/div/div/div/p/br'
p512
F1.0588936890535687
sS'/html/body/div/div/div/div/div/div/div/div/div/div/ul/li/div/div/div/section/div/div/div/a'
p513
F5.717856771218502
sS'/html/body/div/div/div/div/div/div/div/div/div/div/div/div/ul/li/div/span'
p514
F0.9105018491608974
sS'/html/body/div/div/div/div/div/div/div/div/div/div/ul/li/div/div/div/div/ul/li/button/span'
p515
F5.717856771218502
sS'/html/body/div/div/div/div/div/div/div/div/ul/li/div/ul/li'
p516
F9.965784284662087
sS'/html/body/div/div/div/div/div/div/div/div/div/div/div/div/div/div/p/a'
p517
F9.965784284662087
sS'/html/body/div/div/div/div/div/div/div/div/div/div/ul/li/div/div/div/div/div/ul/li/div/div/div/a/span/span/span/button/span'
p518
F5.158429362604483
sS'/html/body/div/div/div/div/div/div/div/div/div/div/div/span/span/button'
p519
F2.698997743967186
sS'/html/body/div/section/div/article/div/div/div/button'
p520
F9.965784284662087
sS'/html/body/div/div/div/div/div/div/div/div/div/div/ul/li/div/div/div/div/div/div/div/ul/li/div/div/div/a/span/span/span/button/ul/li/span'
p521
F4.107803289534515
sS'/html/body/div/div/div/div/div/div/div/div/div/div/ul/li/div/div/div/div/div/div/span/span/span'
p522
F8.965784284662087
sS'/html/body/div/div/div/div/div/div/div/div/div/div/div/ol/li/ol/li/div/div/div/ul/li/div/div/div/div/a/span'
p523
F9.965784284662087
sS'/html/body/div/div/div/div/div/div/div/div/div/div/ul/li/div/div/div/div/div/div/div/ul/li/div/div/div/div/ul/li'
p524
F2.41119543298445
sS'/html/body/div/div/div/div/div/div/ul/li/a/span'
p525
F1.15200309344505
sS'/html/body/div/div/div/div/div/div/div/div/div/div/div/div/div/p/wbr/br'
p526
F8.380821783940931
sS'/html/body/div/div/div/div/div/div/div/div/div/div/div/span/div/a/span'
p527
F0.9050883529745332
sS'/html/body/div/div/div/div/div/div/div/div/div/div/ul/li/div/div/div/div/button'
p528
F5.717856771218502
sS'/html/body/div/div/div/div/div/div/div/div/div/div/ul/li/span/div/div/span/button/span/span'
p529
F7.643856189774724
sS'/html/body/div/div/div/div/div/div/div/div/div/div/div/div/div/div/div/div/div/span/button/span/span'
p530
F9.965784284662087
sS'/html/body/div/div/span'
p531
F0.010134377133713133
sS'/html/body/div/div/div/div/div/div/div/div/div/div/div/div/ol/li/ol/li/div/div/div/div/div/div/div/a'
p532
F9.965784284662087
sS'/html/body/div/div/div/div/div/div/div/div/div/div/ul/li/ul/li/div/div/div/a/span/span/span/button/span'
p533
F5.795859283219775
sS'/html/body/div/div/div/div/div/div/div/div/div/div/div/div/div/span/div/div'
p534
F3.265344566520995
sS'/html/body/div/div/div/div/div/div/div/div/div/ul/li/span/div/div/span/button/span/span'
p535
F2.244685095954902
sS'/html/body/div/div/div/div/div/div/div/div/div/div/div/div/ol/li/ol/li/div/div/div/div/ul/li/div/div/div/div/span'
p536
F9.965784284662087
sS'/html/body/div/div/div/div/div/div/div/div/div/div/div/div/ol/li/ol/li/div/div/div/div/div/span/button/span'
p537
F9.965784284662087
sS'/html/body/div/div/div/div/div/div/div/div/div/div/ul/li/div/div/div/ul/li/div/div/div/span'
p538
F9.965784284662087
sS'/html/body/div/div/div/div/div/a/img'
p539
F9.965784284662087
sS'/html/body/div/div/div/div/div/div/div/div/div/div/ul/li/div/table/tbody/tr/td/span/span/button/ul/li/span'
p540
F3.265344566520995
sS'/html/body/div/div/div/div/div/div/div/div/div/div/div/div/ol/li/ol/li/div/div/div/div/h2/a/div/div/span/img'
p541
F9.965784284662087
sS'/html/body/div/div/div/div/div/div/div/div/div/div/div/ul/li'
p542
F4.9213901653036345
sS'/html/body/div/div/div/div/div/div/div/div/div/div/span/button/span'
p543
F0.010134377133713133
sS'/html/body/div/div/div/div/div/div/div/div/div/div/div/div/div/div/div/div/div/span/div/div/div/div/div/div/div/div/p/span'
p544
F9.965784284662087
sS'/html/body/div/div/div/div/div/div/div/div/ul/li/h2'
p545
F1.560642821525743
sS'/html/body/div/div/div/div/div/div/div/div/div/div/ul/li/div/div/div/section/div/div/div/div/div/div/a'
p546
F6.158429362604484
sS'/html/body/div/div/div/div/div/div/div/div/div/div/div/div/ol/li/ol/li/div/div/div/div/div/div/h3/a'
p547
F9.965784284662087
sS'/html/body/div/div/div/div/div/div/div/div/div/div/ul/li/div/div/div/div/div/ul/li/div/div/div/a/span/span/span/span/img'
p548
F5.158429362604483
sS'/html/body/div/div/div/h2'
p549
F9.965784284662087
sS'/html/head/style'
p550
F0.001443416869668845
sS'/html/body/div/div/div/div/div/div/div/div/div/div/div/div/div/div/div/h1/span/span/span/a'
p551
F7.965784284662087
sS'/html/body/div/div/div/div/div/div/div/ul/li/div/h3'
p552
F1.1297339296040172
sS'/html/body/div/div/div/div/div/div/div/div/div/div/ul/li/div/div/div/span/a'
p553
F9.965784284662087
sS'/html/body/div/div/div/div/div/div/div/div/div/div/div/div/div/p/wbr/wbr/a'
p554
F8.965784284662087
sS'/html/body/div/div/div/div/div/div/div/div/div/div/ul/li/div/div/div/section/div/div/div/div/div/div/div'
p555
F6.158429362604484
sS'/html/body/div/div/div/div/div/div/div/div/div/div/div/div/ol/li/ol/li/div/div/div/div/div/button'
p556
F9.965784284662087
sS'/html/body/div/div/div/div/div/div/div/div/div/div/div/ol/li/ol/li/div/div/div/ul/li/div/div/div/div/div'
p557
F9.965784284662087
sS'/html/body/div/div/div/div/div/div/div/div/div/div/div/div/div/div/div/div/div/p'
p558
F9.965784284662087
sS'/html/body/div/div/div/div/div/div/div/div/div/div/ul/li/div/div/div/div/div/h2/a/span/span'
p559
F2.1648843847417822
sS'/html/body/div/div/div/div/div/div/div/div/div/div/ul/li/ul/li/div/div/div/div/ul'
p560
F5.965784284662088
sS'/html/body/div/div/div/div/div/div/div/div/div/div/button/span/span'
p561
F5.442222328605075
sS'/html/body/div/div/div/div/div/div/div/div/div/div/ul/li/div/div/div/div/div/div/div/ul/li/div/div/div/a/span/span/span/span/span/b'
p562
F4.107803289534515
sS'/html/body/div/div/div/div/div/div/div/div/div/div/div/div/ul/li/a/span/span/span/button/span'
p563
F2.1202942337177118
sS'/html/body/div/div/div/div/div/div/div/div/div/div/div/div/img'
p564
F3.265344566520995
sS'/html/body/div/div/div/div/div/div/div/div/p'
p565
F7.965784284662087
sS'/html/body/div/div/div/div/div/div/div/div/div/div/ul/li/div/div/div/div/div/div/div/a'
p566
F8.965784284662087
sS'/html/body/div/div/div/div/div/div/div/div/div/div/ul/li/span/div/a/span/span/span/img'
p567
F7.643856189774724
sS'/html/body/div/div/div/div/div/div/div/div/div/div/ul/li/div/div/div/br'
p568
F5.50635266602479
sS'/html/body/div/div/div/div/div/div/div/div/div/div/div/div/div/div/h3/b'
p569
F9.965784284662087
sS'/html/body/div/div/div/div/div/div/div/div/a'
p570
F7.965784284662087
sS'/html/body/div/div/div'
p571
F0.008682243099800773
sS'/html/body/div/div/div/div/div/div/div/ol/li/ol/li/a'
p572
F8.380821783940931
sS'/html/body/div/div/div/div/div/div/div/div/div/div/div/h1/span'
p573
F0.9050883529745332
sS'/html/body/div/div/div/div/div/div/div/div/div/div/div/div/div/ul/li/ul/li/a'
p574
F0.9050883529745332
sS'/html/body/div/div/div/span'
p575
F7.965784284662087
sS'/html/body/div/header/div/div/form/span/svg/path'
p576
F9.965784284662087
sS'/html/body/div/div/div/div/div/div/div/div/div/div/div/ol/li/ol/li/div/div/div/ul/li/div/div/div/div/div/ul/li'
p577
F9.965784284662087
sS'/html/body/div/div/div/div/div/div/div/div/div/div/div/div/div/div/div/div/div/div/div/span/span/button/ul/li/span'
p578
F9.965784284662087
sS'/html/body/div/div/div/div/div/div/div/div/div/div/ul/li/div/div/div/a/span/span/span/span'
p579
F5.717856771218502
sS'/html/body/div/div/div/a/span'
p580
F0.0028882793248263526
sS'/html/body/div/div/div/div/div/div/div/div/div/div/ul/li/div/div/div/div/div/div/div/ul/li/div/div/div/a/span/span/span/button/span'
p581
F4.107803289534515
sS'/html/body/div/div/div/div/div/div/div/div/div/div/ul/li/div/div/div/div/div/div/div/ul/li/div/div/a/span/span/span/img'
p582
F4.573466861883327
sS'/html/body/div/div/div/div/div/script'
p583
F0.0232697793228473
sS'/html/body/div/div/div/div/div/div/div/div/div/div/ul/li/a/img'
p584
F1.5228407888133588
sS'/html/body/div/div/div/div/div/div/div/div/div/div/div/ol/li/ol/li/ul/li/span/span/button/span'
p585
F8.965784284662087
sS'/html/body/div/div/div/div/div/div/div/div/div/div/ul/li/div/div/div/div/div/ul/li/div/div/div/span/span/button/span'
p586
F4.083141235300245
sS'/html/body/div/div/div/div/form/div/div/a'
p587
F9.965784284662087
sS'/html/body/div/div/div/div/div/div/div/div/div/div/ul/li/div/div/div/div/div/div/div/span'
p588
F8.965784284662087
sS'/html/body/div/div'
p589
F0.001443416869668845
sS'/html/body/div/div/div/div/div/div/div/div/div/div/div/ol/li/ol/li/div'
p590
F9.965784284662087
sS'/html/body/div/div/div/div/div/div/div/div/div/div/ul/li/span/div/div/span/span'
p591
F7.643856189774724
sS'/html/body/div/div/div/div/div/div/div/div/div/div/div/div/div/ul/li/div/a/span/span'
p592
F1.446148031818874
sS'/html/body/div/div/div/div/div/div/div/div/div/div/div/a'
p593
F0.9050883529745332
sS'/html/body/div/div/div/div/div/div/div/div/div/div/ul/li/div/div/div/a/span/span/span/img'
p594
F5.717856771218502
sS'/html/body/div/div/div/div/div/div/div/div/div/div/div/div/div/div/div/div/div/h1/span/span/span'
p595
F9.965784284662087
sS'/html/body/div/div/div/div/div/div/div/div/ul/li/div/p'
p596
F9.965784284662087
sS'/html/body/div/div/div/div/div/div/div/div/div/div/div/div/div/div/div/div/div/div/h1/span/span/span/a'
p597
F9.965784284662087
sS'/html/body/div/div/div/div/div/div/div/div/div/div/ul/li/div/div/div/span'
p598
F4.608232280044003
sS'/html/body/div/div/div/div/div/div/div/div/div/div/div/div/div/div/div/div/div/div/h1/span/a/span'
p599
F9.965784284662087
sS'/html/body/div/header/div/div/ul/li/svg/path'
p600
F9.965784284662087
sS'/html/body/div/div/div/div/div/div/div/div/div/div/div/div/div/div/div/div/div/div/span/a/span/span/span/span'
p601
F9.965784284662087
sS'/html/body/div/div/div/div/form/button/span'
p602
F7.643856189774724
sS'/html/body/div/div/div/div/div/div/div/div/div/div/ul/li/div/div/div/ul/li/div/div/span/span/button/span'
p603
F9.965784284662087
sS'/html/body/div'
p604
F0.010134377133713133
sS'/html/body/div/div/div/div/div/div/div/div/div/div/ul/li/div/div/div/section/div/div/div/div/span'
p605
F6.058893689053569
sS'/html/body/div/div/div/div/div/div/div/div/div/div/div/div/div/ul/li/div/a/span/img'
p606
F1.446148031818874
sS'/html/body/div/div/div/div/div/div/div/div/div/div/ul/li/div/table/tbody/tr/td/div'
p607
F3.265344566520995
sS'/html/body/div/div/div/div/div/div/div/div/div/div/div/div/span/div/div/div/div/div'
p608
F1.4305089080412836
sS'/html/body/div/div/div/div/div/div/div/div/div/div/ul/li/div/div/div/div/div/ul/li/div/div/div/ul/li/span'
p609
F5.717856771218502
sS'/html/body/div/div/div/div/div/div/div/div/div/div/span/span/div/div/div/div/div/div/div/div/p/span'
p610
F0.9050883529745332
sS'/html/body/div/div/div/div/div/div/div/div/div/div/ul/li/div/div/div/span/b'
p611
F5.50635266602479
sS'/html/body/div/div/div/div/div/div/div/div/div/div/ul/li/div/div/div/div/div/div/div/ul/li/div/div/div/span/button/span'
p612
F2.4035418604410146
sS'/html/body/div/div/div/div/div/div/div/div/div/div/ul/li/div/div/div/div/div/wbr/br'
p613
F6.965784284662088
sS'/html/body/div/header/div/a'
p614
F9.965784284662087
sS'/html/body/div/div/div/div/div/div/div/div/div/div/div/div/div/div/div/div/span/a/span/span/span/span'
p615
F7.965784284662087
sS'/html/body/div/div/div/div/div/div/div/div/div/div/div/div/div/span/div/a/span'
p616
F3.265344566520995
sS'/html/body/div/div/div/div/div/div/div/div/div/div/ul/li/div/div/div/div/div/a'
p617
F2.888968687611256
sS'/html/body/div/div/div/div/div/div/div/div/div/div/ul/li/p'
p618
F6.965784284662088
sS'/html/body/div/div/div/div/div/div/div/ul/li/div/ul/li/a/span/span/span/span/span/span'
p619
F1.1297339296040172
sS'/html/body/div/div/div/div/div/div/div/div/div/div/div/div/div'
p620
F0.6597225952337458
sS'/html/body/div/div/div/div/div/div/div/div/div/div/ul/li/div/div/div/div/div/ul/li/div/div/div/span/button'
p621
F4.083141235300245
sS'/html/body/div/div/div/div/div/div/div/div/p/strong'
p622
F8.965784284662087
sS'/html/body/div/div/div/div/div/div/div/div/button/span'
p623
F6.965784284662088
sS'/html/body/div/div/div/div/a/span'
p624
F0.004334590263891124
sS'/html/body/div/div/div/div/div/div/div/div/div/div/ul/li/ul/li/div/div/div/h3/a'
p625
F4.293358942690592
sS'/html/body/div/div/div/div/div/div/div/div/div/div/div/ol/li/ol/li/ul/li/span/div/div/span'
p626
F8.965784284662087
sS'/html/body/div/div/div/div/div/div/div/div/div/div/ul/li/div/table/tbody/tr/td/div/div'
p627
F3.265344566520995
sS'/html/body/div/div/div/div/div/div/div/p/span'
p628
F0.004334590263891124
sS'/html/body/div/div/div/div/div/div/div/div/div/div/ul/li/div/div/div/section/div/div/a/span/span/span/img'
p629
F6.058893689053569
sS'/html/body/div/div/div/div/div/div/div/div/div/div/div/span/span/div/h3'
p630
F0.9050883529745332
sS'/html/body/div/div/div/div/div/meta'
p631
F9.965784284662087
sS'/html/body/div/section/div/div/div/nav/div/ul/li/a'
p632
F9.965784284662087
sS'/html/body/div/div/div/div/div/div/div/div/div/div/ul/li/div/div/div/div/a'
p633
F2.8572598278839183
sS'/html/body/div/link'
p634
F1.539519529959989
sS'/html/body/div/div/div/div/div/div/div/div/div/div/div/div/div/span/label/span'
p635
F1.446148031818874
sS'/html/body/div/div/div/div/div/div/a/img'
p636
F1.1746213961070688
sS'/html/body/div/div/div/div/div/div/div/div/div/div/div/div/div/div/div/div/div/span/div/div/div/div/div'
p637
F9.965784284662087
sS'/html/body/div/div/div/div/div/div/div/div/div/div/div/div/div/ul/li/button/span'
p638
F1.2042330522176077
sS'/html/body/div/div/div/div/div/div/div/div/div/div/ul/li/div/div/div/div/div/ul/li/div/div/div/span/button/span/span'
p639
F8.380821783940931
sS'/html/body/div/header/div/div/div/div/span/a/span'
p640
F9.965784284662087
sS'/html/body/div/div/div/div/div/div/div/div/div/div/ul/li/div/div/div/div/div/div/div/ul/li/div/div/div/a/span/span/span/span/img'
p641
F4.107803289534515
sS'/html/body/div/div/div/div/div/div/div/div/div/div/div/div/div/div/div/div/div/div/h1/span/span/span'
p642
F9.965784284662087
sS'/html/body/div/div/div/div/div/div/div/div/div/div/ul/li/div/div/div/section/div/div/div/div/a'
p643
F5.878321443411747
sS'/html/body/div/div/div/div/form/div/div/input'
p644
F9.965784284662087
sS'/html/body/div/div/div/div/div/div/div/div/div/div/div/div/ul/div/li'
p645
F0.9378782880922025
sS'/html/body/div/div/div/div/div/div/div/div/div/div/ul/li/div/div/div/div/div/div/div/ul/li/div/div/div/div/span/button/span'
p646
F7.643856189774724
sS'/html/body/div/div/div/div/div/div/div/div/div/div/ul/li/div/div/div/ul/li/div/div/span/a/span/span/span/span'
p647
F9.965784284662087
sS'/html/body/div/div/div/div/div/div/div/div/div/div/div/div/div/ul/li/span/div/a/span'
p648
F0.9050883529745332
sS'/html/body/div/div/div/div/div/div/div/div/div/div/div/div/div/div/div/div/div/div/span/span/button/ul/li/span'
p649
F9.965784284662087
sS'/html/head/title'
p650
F0.0
sS'/html/body/div/div/div/div/div/div/div/div/div/div/ul/li/div/div/div/div/div/div/div/ul/li/div/div/div/span/button'
p651
F2.4035418604410146
sS'/html/body/div/div/div/div/form/div/input'
p652
F7.965784284662087
sS'/html/body/div/div/div/div/div/div/div/div/div/div/div/div/div/div/div/div/div/div/div/span/button/span/span'
p653
F9.965784284662087
sS'/html/body/div/div/div/div/div/div/div/div/div/div/ul/li/div/div/div/div/div/div/div/ul/li/div/div/div/a/span/span/span/span/span'
p654
F4.107803289534515
sS'/html/body/div/div/div/div/div/div/p/span/a'
p655
F9.965784284662087
sS'/html/body/div/div/div/div/div/div/div/div/span/link'
p656
F0.9050883529745332
sS'/html/body/div/div/div/div/div/div/div/div/div/div/div/div/div/p/wbr/wbr/wbr/wbr/br'
p657
F9.965784284662087
sS'/html/body/div/div/ul/li/a'
p658
F7.965784284662087
sS'/html/body/div/div/div/div/div/div/div/div/div/div/ul/li/div/div/div/div/div/div/div/ul/li/div/div/span/span'
p659
F4.573466861883327
sS'/html/body/div/div/div/div/div/div/div/div/a/span'
p660
F8.965784284662087
sS'/html/body/div/div/div/div/div/div/div/div/div/div/ul/li/div/div/div/h3/a'
p661
F2.8365012677171206
sS'/html/body/div/div/div/div/div/div/ul/li/span/a'
p662
F9.965784284662087
sS'/html/body/div/div/div/div/div/div/div/div/div/div/ul/li/div/div/div/section/div/div/div/div/div/div/span'
p663
F6.158429362604484
sS'/html/body/div/div/div/div/div/button/span'
p664
F7.965784284662087
sS'/html/body/div/div/div/div/div/div/div/div/div/div/ul/li/div/div/div/div/div/div/div'
p665
F8.965784284662087
sS'/html/body/div/div/div/div/div/div/div/div/div/div/div/ol/li/ol/li/div/a'
p666
F9.965784284662087
sS'/html/body/div/div/div/div/div/div/div/div/div/div/div/div/div/p/wbr/wbr/wbr/a'
p667
F9.965784284662087
sS'/html/body/div/div/div/div/div/div/div/div/div/div/div/ol/li/ol/li/div/div/div/div/div'
p668
F9.965784284662087
sS'/html/body/div/div/div/div/div/div/div/div/div/div/div/div/div/div/div/div/div/span/span'
p669
F9.965784284662087
sS'/html/body/div/div/div/div/div/div/div/div/div/div/div/div/div/p/wbr/a'
p670
F8.965784284662087
sS'/html/body/div/div/div/div/div/div/div/div/div/div/div/div/div/span/span/button/span'
p671
F3.265344566520995
sS'/html/body/div/div/div/div/div/div/div/div/div/div/div/span/button/span'
p672
F0.9050883529745332
sS'/html/body/div/div/div/div/div/div/div/div/div/div/div/div/div/a'
p673
F6.795859283219775
sS'/html/body/div/div/div/div/div/div/div/div/div/div/ul/li/div/div/pre'
p674
F5.643856189774724
sS'/html/body/div/div/div/div/div/div/div/div/div/div/ul/li/div/div/div/div/div/div/div/ul/li/div/div/div/a/span/span/span/span'
p675
F4.107803289534515
sS'/html/body/div/div/div/div/div/div/div/div/div/div/ul/li/div/div/div/section/div/a/span/span/span/span'
p676
F5.717856771218502
sS'/html/body/div/div/div/div/div/div/div/div/div/div/div/div/div/p/wbr/wbr/wbr/br'
p677
F8.965784284662087
sS'/html/body/div/div/div/div/div/div/div/div/div/div/div/span/span/div/a/span'
p678
F0.9050883529745332
sS'/html/body/div/div/div/div/div/div/div/div/div/div/div/div/div/ul/li/div/a/span/ul/li/span'
p679
F6.795859283219775
sS'/html/body/div/div/div/div/div/div/div/div/div/div/div/div/div/a/span/span/span/img'
p680
F7.965784284662087
sS'/html/body/div/div/div/div/div/div/div/div/div/div/ul/li/div/div/div/div/div/div/div/ul/li/div/div/div/ul/li/span'
p681
F8.965784284662087
sS'/html/body/div/div/div/div/div/div/div/div/div/div/ul/li/ul/li/div/div/div/span/span/span'
p682
F4.9213901653036345
sS'/html/body/div/div/div/div/div/div/div/div/div/div/ul/li/div/div/a/span/span/span/span/span'
p683
F8.965784284662087
sS'/html/body/div/div/div/div/div/div/div/div/ol/li/address/div/br'
p684
F9.965784284662087
sS'/html/body/div/div/div/div/div/div/div/div/div/div/p/span'
p685
F9.965784284662087
sS'/html/body/div/div/div/div/div/div/div/div/div/div/div/div/ul/li/a/span/span/button'
p686
F2.1202942337177118
sS'/html/body/div/div/div/div/div/div/div/div/div/div/div/div/ul/li/a/span/span/span/span/span'
p687
F1.7710274302398394
sS'/html/body/div/div/div/div/div/div/div/h3'
p688
F8.380821783940931
sS'/html/body/div/div/div/div/div/div/div/div/div/div/ul/li/div/div/div/div/div/ul/li/div/div/div'
p689
F9.965784284662087
sS'/html/body/div/div/div/div/div/div/div/h1'
p690
F0.8943219221054628
sS'/html/body/div/div/div/div/div/div/div/div/div/div/div/div/span/div/div/div/div/div/div/div/div/p/span'
p691
F1.4305089080412836
sS'/html/body/div/div/div/div/div/div/div/div/div/div/ul/li/button/span/span'
p692
F4.50635266602479
sS'/html/body/link'
p693
F1.539519529959989
sS'/html/body/div/div/div/div/div/div/div/div/div/div/ul/li/div/div/div/div/div/div/div/ul/li/div/div/div/h3/span'
p694
F2.272297327162762
sS'/html/body/div/div/div/div/div/div/div/div/div/div/ul/li/div/div/div/div/div/div/div/br'
p695
F8.965784284662087
sS'/html/body/div/div/div/div/div/div/div/div/div/div/div/div/div/ul/li/div/a/span'
p696
F1.446148031818874
sS'/html/body/div/div/div/div/div/div/div/div/div/div/div/a/span/span'
p697
F2.6711635357704604
sS'/html/body/div/div/div/div/div/div/div/div/div/div/ul/li/div/div/div/div/div/div/div/ul/li/div/div/h3/span'
p698
F4.573466861883327
sS'/html/body/div/div/div/div/div/div/div/div/div/div/ul/li/div/table/tbody/tr/td/div/div/span'
p699
F3.265344566520995
sS'/html/body/div/div/div/div/div/div/div/div/div/div/div/div/h3/img'
p700
F7.965784284662087
sS'/html/body/div/div/div/div/div/div/div/div/div/div/div/div/div/button'
p701
F9.965784284662087
sS'/html/body/div/div/div/div/div/div/div/div/div/div/ul/li/ul/li/div/div/h3/a'
p702
F6.50635266602479
sS'/html/body/div/div/div/div/div/div/div/div/div/div/div/ol/li/ol/li/div/div/div/ul/li/div/div/div/div/span/button/span'
p703
F9.965784284662087
sS'/html/body/div/div/div/div/div/div/div/div/div/div/ul/li/div/div/div/section/div'
p704
F5.717856771218502
sS'/html/body/div/div/div/div/div/div/div/div/div/div/div/div/div/ul/li/span/button/span'
p705
F0.9050883529745332
sS'/html/body/div/div/div/div/div/div/div/div/div/div/div/div/ul/li/h2'
p706
F8.965784284662087
sS'/html/body/div/div/div/div/div/div/div/div/div/div/ul/li/div/table/tbody/tr/td/span/span'
p707
F9.965784284662087
sS'/html/body/div/div/div/div/div/div/div/div/div/div/ul/li/div/div/div/div/div/ul/li/div/div/div/div/span/button/span'
p708
F9.965784284662087
sS'/html/body/div/div/div/div/div/div/div/div/div/div/div/a/span'
p709
F0.9050883529745332
sS'/html/body/div/div/div/div/div/div/div/div/div/div/div/div/div/button/span'
p710
F9.965784284662087
sS'/html/body/div/div/div/div/div/div/div/div/div/div/div/div/div/ul/li/ul/li/span/a'
p711
F6.965784284662088
sS'/html/body/textarea'
p712
F9.965784284662087
sS'/html/body/div/div/div/div/div/div/div/div/div/div/div/ol/li/ol/li/div/div/div/ul/li/div/div/div/div/h3/a'
p713
F9.965784284662087
sS'/html/body/div/div/div/div/div/div/div/div/div/div/div/div/div/div/div/h1/span/a/span'
p714
F7.965784284662087
sS'/html/body/div/div/div/div/div/div/div/div/div/div/a/span/span/span/span'
p715
F0.9050883529745332
sS'/html/body/div/div/div/div/div/div/div/div/ul/li/button/span'
p716
F9.965784284662087
sS'/html/body/div/div/div/div/div/div/div/div/div/ol/p/span'
p717
F0.010134377133713133
sS'/html/body/div/div/div/div/div/div/div/div/div/div/ul/li/div/div/div/section/div/div'
p718
F5.717856771218502
sS'/html/body/meta'
p719
F1.539519529959989
sS'/html/body/div/div/div/div/div/div/div/div/div/div/div/div/ul/li/div/a/span/ul/li/span'
p720
F4.035046947099201
sS'/html/body/div/div/div/div/div/div/div/div/div/div/div/div/div/div/div/div/div/div/p/span'
p721
F7.643856189774724
sS'/html/body/div/div/div/div/div/div/div/div/div/div/div/div/div/div/span/div/div/div/span'
p722
F9.965784284662087
sS'/html/body/div/div/div/div/div/div/div/div/div/ul/li/span/div/a/span/span/span/img'
p723
F2.244685095954902
sS'/html/body/div/div/div/div/div/div/div/div/div/div/div/div/span/div/div/div/div/div/div/div/div'
p724
F1.4305089080412836
sS'/html/body/div/div/div/div/div/div/div/div/div/div/div/div/div/div/div/div/div/div/span/span/button/span'
p725
F9.965784284662087
sS'/html/body/div/div/div/div/div/div/div/div/div/h2/a'
p726
F4.321928094887363
sS'/html/body/div/div/div/div/div/div/div/div/div/div/div/div/a/span/span/span/img'
p727
F6.965784284662088
sS'/html/body/div/div/div/div/div/div/div/div/div/div/div/span/div/div'
p728
F0.9050883529745332
sS'/html/body/div/section/div/article/section/div/a'
p729
F9.965784284662087
sS'/html/body/div/div/div/div/span/select/option'
p730
F9.965784284662087
sS'/html/body/div/div/div/div/div/div/div/div/div/div/ul/li/div/div/div/div/div/ul/li/div/div/div/span/a/span/span/span/img'
p731
F4.083141235300245
sS'/html/body/div/div/div/div/div/div/div/div/ol/li/address/div/span'
p732
F9.965784284662087
sS'/html/body/div/div/div/div/div/div/div/div/div'
p733
F0.008682243099800773
sS'/html/body/div/div/div/div/div/div/div/div/div/div/div/div/div/ul/li/h4'
p734
F0.9050883529745332
sS'/html/body/div/div/div/div/div/div/div/div/div/div/div/h3/a'
p735
F3.0350469470992008
sS'/html/body/div/div/div/div/div/div/button/span'
p736
F0.010134377133713133
sS'/html/body/div/div/div/div/div/div/h1'
p737
F9.965784284662087
sS'/html/body/div/div/div/div/div/div/div/div/div/div/ul/li/ul/li/div/div/div/a/span/span/button'
p738
F5.795859283219775
sS'/html/body/div/div/div/div/div/div/div/div/div/div/div/div/div/div/div/div/div/div/span/button/span/span'
p739
F9.965784284662087
sS'/html/body/div/section/div/article/section/div/p'
p740
F9.965784284662087
sS'/html/body/div/div/div/div/div/div/div/div/div/div/div/div/div/a/span/span/span/span'
p741
F7.965784284662087
sS'/html/body/div/div/div/div/div/div/div/div/div/div/div/div/div/label'
p742
F1.446148031818874
sS'/html/body/div/div/div/div/div/div/div/div/div/div/div/div/div/div/div/div/div/img'
p743
F7.643856189774724
sS'/html/body/div/div/div/div/div/div/div/div/div/div/ul/li/div/div/div/div/div/h2/a/span/span/span/img'
p744
F4.411195432984449
sS'/html/body/div/div/div/div/div/div/div/div/div/div/ul/li/div/div/h2/b'
p745
F5.717856771218502
sS'/html/body/div/div/div/div/div/div/div/div/div/div/div/div/div/span'
p746
F4.442222328605075
sS'/html/body/div/div/div/div/div/div/div/div/div/div/ul/li/span/div/h3/a/span/span'
p747
F7.643856189774724
sS'/html/body/div/div/div/div/div/div/div/div/div/div/div/div/div/div/span/button/span/span'
p748
F9.965784284662087
sS'/html/body/div/div/div/div/div/div/div/div/div/div/ul/li/div/table/tbody/tr/td/a'
p749
F3.265344566520995
sS'/html/body/div/div/div/div/div/div/div/div/ol/li/address/strong'
p750
F9.965784284662087
sS'/html/body/div/div/div/div/div/div/div/div/div/div/div/div/div/span/span'
p751
F1.446148031818874
sS'/html/body/div/div/div/div/div/div/div/div/div/div/div/ol/li/ol/li/div/div/div/ul/li/div/div/div/div/a/div/span/img'
p752
F9.965784284662087
s.