(dp0
S'/html/body/div/div/div/div/form/div/div/div/a'
p1
F5.338364984698036
sS'/html/body/div/div/div/noscript/div/img'
p2
F1.8626315537316382
sS'/html/body/div/div/div/div/div/div/div/div/div/a'
p3
F0.5613837116839508
sS'/html/body/div/div/div/form/div/div/div/p/br'
p4
F8.923327485419193
sS'/html/body/div/div/div/form/script'
p5
F4.565775480801109
sS'/html/body/div/div/div/div/div/table/tr/td/div/table/tr/td/div/div/div/span'
p6
F1.8626315537316382
sS'/html/body/div/div/div/div/ul/li/ul/li/a'
p7
F6.601399390531831
sS'/html/body/div/div/div/div/p/kbd'
p8
F9.923327485419193
sS'/html/body/div/div/div/div/div/p/i'
p9
F4.463895866781895
sS'/html/body/div/div/div/div/ul/li/ul/li/a/strong'
p10
F7.115972563361589
sS'/html/body/div/div/div/div/div/div/p/br'
p11
F4.713874119790242
sS'/html/body/div/div/div/div/div/div/table/tr/td/table/tr/td/div/br'
p12
F8.923327485419193
sS'/html/body/div/div/div/div/div/p/a'
p13
F3.9925901478563057
sS'/html/body/div/div/div/div/div/p/b'
p14
F4.090437471254451
sS'/html/body/div/div/div/div/div/div/table/tr/td/div/h1'
p15
F8.338364984698037
sS'/html/body/div/div/div/div/div/div/table/tr/td/div/h2'
p16
F9.923327485419193
sS'/html/body/div/div/div/div/div/div/p/code'
p17
F9.923327485419193
sS'/html/body/div/div/div/div/form/div/div/noscript/p/a'
p18
F3.9691311750323175
sS'/html/body/div/div/div/div/div/div/table/tr/td/div/p/a'
p19
F3.497062730717094
sS'/html/body/div/div/div/div/table/tr/td/div/div/span'
p20
F6.601399390531831
sS'/html/body/div/div/div/div/div/div/div/div/div/div/ul/li/span'
p21
F2.6287067365275654
sS'/html/body/div/div/div/form/div/div/div/blockquote/p'
p22
F9.923327485419193
sS'/html/body/div/div/div/div/div/form/input'
p23
F2.2090819677530695
sS'/html/body/div/div/div/div/div/div/div/div/div/div/div/div/span/span'
p24
F9.923327485419193
sS'/html/body/div/div/div/div/div/div/table/tr/td/div/ul/li/ul/li/em'
p25
F9.923327485419193
sS'/html/body/div/div/div/div/div/table/tr/td/div/div/p/strong'
p26
F4.168439983255724
sS'/html/body/div/div/div/div/div/div/table/tr/td/div/p/sub/em'
p27
F9.923327485419193
sS'/html/body/div/div/div/a'
p28
F0.03915696631075723
sS'/html/body/div/div/div/div/div/div/table/tbody/tr/td/a'
p29
F5.531010062640432
sS'/html/body/div/div/div/div/div/table/tr/td/div/div/p/img'
p30
F6.016436889810674
sS'/html/body/div/div/div/div/div/div/div/div/div/span'
p31
F0.9233274854191922
sS'/html/body/div/div/div/div/div/div/div/div/h2/span/a/b'
p32
F7.115972563361589
sS'/html/body/div/div/div/div/table/tr/td/div/div/div/div/p'
p33
F7.601399390531831
sS'/html/body/div/div/div/div/div/div/table/tr/td/div/blockquote/ul/li'
p34
F8.923327485419193
sS'/html/body/div/div/div/div/div/table/tr/td/span'
p35
F6.2228877672781
sS'/html/body/div/div/div/div/table/tr/td/div/div/h1'
p36
F7.923327485419192
sS'/html/body/div/div/div/div/form/div/div/div/div/div/input'
p37
F4.675399971975607
sS'/html/body/div/div/div/div/div/table/tr/td/div/div'
p38
F6.338364984698036
sS'/html/body/div/div/div/div/div/div/table/tr/td/div/hr'
p39
F7.115972563361589
sS'/html/head/meta'
p40
F0.03915696631075723
sS'/html/body/div/div/div/div/div/div/table/tr/td/div/ol/li'
p41
F6.463895866781895
sS'/html/body/div/div/div/div/form/p/span'
p42
F9.923327485419193
sS'/html/body/div/div/div/div/p/em'
p43
F8.338364984698037
sS'/html/body/div/div/div/div/div/div/div/div/div/p'
p44
F2.7138741197902427
sS'/html/body/div/div/div/div/div/div/div/div/div/div/div/span'
p45
F8.338364984698037
sS'/html/body/div/div/div/div/ul/li/p/em'
p46
F9.923327485419193
sS'/html/body/div/div/div/form/table/tr/td/input'
p47
F5.338364984698036
sS'/html/body/div/div/div/div/div/div/div/ul/li/a/span'
p48
F2.6195467372420893
sS'/html/body/div/div/div/div/div/div/div/form/input'
p49
F8.338364984698037
sS'/html/body/div/div/div/div/p/a'
p50
F4.090437471254451
sS'/html/body/div/div/div/div/p/b'
p51
F7.338364984698036
sS'/html/body/div/div/div/div/h1/span'
p52
F8.338364984698037
sS'/html/body/div/div/div/div/p/i'
p53
F8.338364984698037
sS'/html/body/div/div/div/div/form/label'
p54
F5.338364984698036
sS'/html/body/div/div/div/div/div/div/div/div/div/div/div/div/span'
p55
F2.723655140582828
sS'/html/head/script'
p56
F0.03915696631075723
sS'/html/body/div/div/div/div/div/form/div/input'
p57
F2.2159683533383094
sS'/html/body/div/div/div/div/div/div/table/tr/td/div/ul/li/a'
p58
F7.338364984698036
sS'/html/body/div/div/div/div/b/a'
p59
F0.03915696631075723
sS'/html/body/div/div/div/div/div/div/ol/li'
p60
F1.8518651228625684
sS'/html/body/div/div/div/div/div/table/tbody/tr/td/a'
p61
F8.923327485419193
sS'/html/body/div/div/br'
p62
F0.03915696631075723
sS'/html/body/feed/subtitle'
p63
F5.222887767278101
sS'/html/body/div/div/div/div/div/table'
p64
F6.2228877672781
sS'/html/body/div/div/div/div/table/tr/td/div/div/div/p/strong'
p65
F8.338364984698037
sS'/html/body/div/div/div/div/div/p/br'
p66
F4.4970627307170945
sS'/html/body/div/div/div/div/div/div/table/tr/td/div/ul/li/p'
p67
F8.923327485419193
sS'/html/body/div/div/div/div/div/table/tr/td/div/table/tbody/tr/td/div/span/code'
p68
F5.399765529362179
sS'/html/body/div/div/div/form/div/input'
p69
F4.565775480801109
sS'/html/body/div/div/div/div/div/table/tr/td/div/table/tbody/tr/td/div/a/span'
p70
F5.279471295644468
sS'/html/body/div/div/div/div/form/p/br'
p71
F9.923327485419193
sS'/html/body/div/div/div/div/div/table/tr/td/div/div/pre'
p72
F9.923327485419193
sS'/html/body/div/div/div/form/div/div/div/div/div'
p73
F9.923327485419193
sS'/html/body/div/div/div/div/div/div/div/div/div/p/img'
p74
F8.923327485419193
sS'/html/body/div/div/div/table/tr/td/a'
p75
F7.923327485419192
sS'/html/body/div/div/div/div/div/div/div/p/em/a'
p76
F8.923327485419193
sS'/html/body/iframe'
p77
F9.923327485419193
sS'/html/body/div/div/div/div/div/table/tr/td/div/div/p/em'
p78
F4.675399971975607
sS'/html/body/div/div/div/div/div/table/tr/td/div/div/ul/li/p/code'
p79
F7.338364984698036
sS'/html/body/div/div/div/div/div/div/div/div/div/div/i'
p80
F5.60139939053183
sS'/html/body/div/div/div/div/div/div/div/div/div/div/a'
p81
F2.743418395404258
sS'/html/body/div/div/div/div/div/div/h3/span'
p82
F5.463895866781895
sS'/html/body/div/div/div/div/div/table/tr/td/div/div/ul/li/p/a'
p83
F7.601399390531831
sS'/html/body/div/div/div/div/table/tr/td/span'
p84
F7.338364984698036
sS'/html/body/div/div/div/div/table/tr/td/div/div/div/p/em'
p85
F9.923327485419193
sS'/html/body/div/div/div/div/div/div/div/div/div/div/p'
p86
F9.923327485419193
sS'/html/body/div/div/div/div/div/ul/li/ul/li/a'
p87
F9.923327485419193
sS'/html/body/div/div/div/div/div/table/tr/td/div/div/p/br'
p88
F6.338364984698036
sS'/html/body/div/div/div/div/table/tr/td/div/div/div/h1'
p89
F9.923327485419193
sS'/html/body/div/div/div/div/div/div/div/div/div/h1'
p90
F8.338364984698037
sS'/html/body/div/div/div/div/div/div/table/tr/td/div/table/tbody/tr/td/div/span'
p91
F3.384168674311161
sS'/html/body/div/div/div/div/div/table/tr/td/div/div/ul/li/ul/li/strong'
p92
F9.923327485419193
sS'/html/body/div/div/div/div/form/p/select/option'
p93
F9.923327485419193
sS'/html/body/div/div/div/form/div/div/div/ul/li/p'
p94
F9.923327485419193
sS'/html/body/div/div/div/div/table/tr/td/select/option'
p95
F5.60139939053183
sS'/html/body/feed/entry/link'
p96
F5.222887767278101
sS'/html/body/div/div/div/div/a/div/div/i'
p97
F9.923327485419193
sS'/html/body/div/div/div/div/div/div/div/div/div/span/strong'
p98
F1.8844084961268899
sS'/html/body/div/div/div/div/div/div/div/div/a/div'
p99
F4.195407030855994
sS'/html/body/div/div/div/div/div/div/table/tr/td/div/h2/strong'
p100
F9.923327485419193
sS'/html/body/div/div/div/div/h3/em'
p101
F9.923327485419193
sS'/html/body/div/div/div/div/div/table/tr/td/div/h2/a'
p102
F4.835864644168853
sS'/html/body/div/div/div/div/div/div/div/a/span'
p103
F4.637925266556944
sS'/html/body/div/div/div/div/div/div/div/h3/span'
p104
F2.6287067365275654
sS'/html/body/feed/entry/category'
p105
F5.222887767278101
sS'/html/body/div/div/div/div/div/div/div/div/div/h1/strong'
p106
F9.923327485419193
sS'/html/body/div/div/div/div/table/tr/td/span/span'
p107
F7.601399390531831
sS'/html/body/div/div/div/div/table/tr/td/div/div/a/div/img'
p108
F6.601399390531831
sS'/html/body/feed/entry/updated'
p109
F5.222887767278101
sS'/html/body/div/div/div/div/div/p/a/img'
p110
F9.923327485419193
sS'/html/body/div/div/div/table/tr/td/hr'
p111
F9.923327485419193
sS'/html/body/div/div/div/div/div/form/div/a'
p112
F2.2159683533383094
sS'/html/body/div/div/div/div/div/div/table/tr/td/div/ol/li/ol/li/em'
p113
F9.923327485419193
sS'/html/body/div/div/div/div/table/tr/td/div/div/div/ul/li'
p114
F9.923327485419193
sS'/html/body/div/div/div/div/div/form/div/div/div/div/div/table/tr/td/div/input'
p115
F2.2159683533383094
sS'/html/body/div/div/div/div/div/div/table/tr/td/div/a'
p116
F2.3012756659628164
sS'/html/body/div/div/div/div/p/code'
p117
F8.923327485419193
sS'/html/body/div/div/div/div/div/table/tr/td/div/div/div/ul/li/a'
p118
F7.115972563361589
sS'/html/body/div/div/div/div/div/div/div/div/div/div/span/span'
p119
F1.9925901478563062
sS'/html/body/div/div/div/div/div/div/table/tr/td/div/p'
p120
F2.4557219353361948
sS'/html/body/div/div/div/div/div/table/tr/td/div/h2/span/span'
p121
F4.835864644168853
sS'/html/body/div/div/div/div/div/table/tr/td/div/div/div/ul/li/span'
p122
F7.115972563361589
sS'/html/body/div/div/div/div/div/div/span'
p123
F3.9691311750323175
sS'/html/body/div/div/div/div/table/tr/td/div/div/div/div/ul/li/span'
p124
F9.923327485419193
sS'/html/body/div/div/div/div/div/div/div/div/div/p/br'
p125
F8.923327485419193
sS'/html/body/div/div/div/div/div/table/tr/td/div/div/br'
p126
F9.923327485419193
sS'/html/body/div/div/div/div/div/div/table/tr/td/div/ul/li/ul/li/a'
p127
F8.923327485419193
sS'/html/body/div/div/div/div/span'
p128
F1.9866895464166219
sS'/html/body/div/div/div/div/table/tr/td/label'
p129
F5.60139939053183
sS'/html/body/div/div/div/div/div/a/span'
p130
F0.926148004481571
sS'/html/body/div/div/div/div/form/div/div/div/div/p'
p131
F5.338364984698036
sS'/html/body/div/div/div/div/div/div/img'
p132
F8.338364984698037
sS'/html/body/div/div/div/div/table/tr/td/div/div/div/span/span'
p133
F7.601399390531831
sS'/html/body/div/div/div/div/div/table/tr/td/br'
p134
F9.923327485419193
sS'/html/body/div/div/div/div/div/div/table/tr/td/div/ol/li/code'
p135
F8.923327485419193
sS'/html/body/div/div/div/div/table/tr/td/ol/li/a'
p136
F0.03915696631075723
sS'/html/body/div/div/div/div/div/div/table/tbody/tr/td/span'
p137
F5.531010062640432
sS'/html/body/div/div/div/div/div/ol/li/strong'
p138
F9.923327485419193
sS'/html/body/div/div/div/div/table/tr/td/div/div/div/h1/span/span'
p139
F9.923327485419193
sS'/html/body/div/div/div/div/table/tr/td/div/span'
p140
F7.601399390531831
sS'/html/body/div/div/div/div/div/div/div/table/tbody/tr/td/a/span'
p141
F9.923327485419193
sS'/html/body/div/div/div/div/div/div/table/tr/td/div/ol/li/ol/li/ul/li/strong'
p142
F9.923327485419193
sS'/html/body/div/div/div/div/div/table/tr/td/div/table/tr/td/div/div/a'
p143
F1.8626315537316382
sS'/html/body/div/div/div/div/div/div/table/tr/td/div/table/tbody/tr/td/div/a'
p144
F3.2794712956444676
sS'/html/body/div/div/div/div/div/div/a/div/img'
p145
F4.39976552936218
sS'/html/body/div/div/div/div/div/div/div/p'
p146
F3.6195467372420893
sS'/html/body/div/div/div/form/div/div/noscript/h3'
p147
F9.923327485419193
sS'/html/body/div/div/div/div/div/div/table/tr/td/div/h1/a'
p148
F9.923327485419193
sS'/html/body/div/div/div/table/thead/tr/th'
p149
F8.338364984698037
sS'/html/body/div/div/div/form/div/div/div/p/a'
p150
F7.338364984698036
sS'/html/body/div/div/div/div/div/div/div/div/div/div/div/div/br'
p151
F9.923327485419193
sS'/html/body/div/div/div/div/div/table/tr/td/div/div/blockquote/p/br'
p152
F9.923327485419193
sS'/html/body/div/div/div/form/div/div'
p153
F4.565775480801109
sS'/html/body/div/div/div/div/div/div/div/div/p/b/i'
p154
F9.923327485419193
sS'/html/body/div/div/div/div/div/table/tr/td/div/table/tbody/tr/td/div/span/span'
p155
F2.531010062640432
sS'/html/body/div/div/div/div/div/div/table/tbody/tr/td/span/span'
p156
F5.675399971975607
sS'/html/body/div/div/div/div/div/div/div/h3/span/span/i'
p157
F5.463895866781895
sS'/html/body/div/div/div/div/ol/li'
p158
F9.923327485419193
sS'/html/body/div/div/div/div/div/div/div/div/div/span/span'
p159
F2.4234815983359868
sS'/html/body/div/div/div/form/div/div/div/div/label'
p160
F9.923327485419193
sS'/html/body/div/div/div/div/ol/li/em'
p161
F9.923327485419193
sS'/html/body/div/div/div/div/form/div/a'
p162
F4.675399971975607
sS'/html/body/div/div/div/div/div/table/tr/td/div/div/p/sup'
p163
F8.923327485419193
sS'/html/body/div/div/div/div/table/tr/td/div'
p164
F5.75340248397688
sS'/html/body/div/div/div/link'
p165
F1.8626315537316382
sS'/html/body/div/div/div/div/table/tr/td/div/div/div/div/div/div'
p166
F9.923327485419193
sS'/html/body/div/div/div/div/div/div/table/tr/td/div/ul/li/p/code'
p167
F9.923327485419193
sS'/html/body/div/div/div/div/div/div/div'
p168
F1.5181860222828483
sS'/html/body/div/div/div/div/div/div/div/div/p/i'
p169
F9.923327485419193
sS'/html/body/div/div/div/div/div/div/div/div/br'
p170
F6.753402483976879
sS'/html/body/div/div/div/div'
p171
F1.5657754808011088
sS'/html/body/div/div/div/div/form/div/br'
p172
F4.675399971975607
sS'/html/body/div/div/div/div/div/div/h3/a'
p173
F2.004464248144598
sS'/html/body/div/div/div/div/div/div/h2/b'
p174
F4.713874119790242
sS'/html/body/div/div/div/div/div/div/table/tr/td/table/tr/td/div/div/a/br'
p175
F8.923327485419193
sS'/html/body/div/div/div/div/div/ul/li/div/a'
p176
F0.03915696631075723
sS'/html/body/div/div/div/div/div/ul/li/div'
p177
F1.8626315537316382
sS'/html/body/div/div/div/form/div/div/script'
p178
F9.923327485419193
sS'/html/body/div/div/div/form/div/div/input'
p179
F4.565775480801109
sS'/html/body/div/div/div/div/div/div/script'
p180
F9.923327485419193
sS'/html/body/div/div/div/form/div/div/div/table/tr/td/label'
p181
F5.399765529362179
sS'/html/body/div/div/div/div/div/div/h2/span/span'
p182
F4.713874119790242
sS'/html/body/div/div/div/div/form/div/div/div/div/label'
p183
F5.338364984698036
sS'/html/body/div/div/div/div/div/table/tr/td/div/p/span/a'
p184
F8.338364984698037
sS'/html/body/div/div/div/div/div/div/table/tr/td/div/p/em'
p185
F5.115972563361589
sS'/html/body/div/div/div/div/div/div/table/tr/td/div/ol/li/p'
p186
F8.923327485419193
sS'/html/body/div/div/div/div/div/table/tr/td/div/div/blockquote/p/a'
p187
F8.923327485419193
sS'/html/body/div/div/div/div/div/span/span'
p188
F2.0591413407649117
sS'/html/body/div/div/div/div/ul/li/a/em'
p189
F9.923327485419193
sS'/html/body/div/div/div/p'
p190
F7.923327485419192
sS'/html/body/div/div/div/div/div/div/div/div/div/a/span'
p191
F4.75340248397688
sS'/html/body/div/div/div/div/form/div/div/div/div/a'
p192
F4.675399971975607
sS'/html/body/div/div/div/div/div/div/p'
p193
F2.1354249260277607
sS'/html/body/div/div/div/div/ul/li/div'
p194
F1.9233274854191924
sS'/html/body/div/div/div/form/div/div/div/p/strong'
p195
F7.338364984698036
sS'/html/body/div/div/div/div/div/div/div/div/div/div/span'
p196
F1.9749602538345148
sS'/html/body/div/div/div/div/div/div/span/span'
p197
F4.969131175032317
sS'/html/body/div/div/div/div/div/div/b'
p198
F1.85723829496142
sS'/html/body/div/div/div/div/div/div/a'
p199
F0.03915696631075723
sS'/html/body/div/div/div/div/div/hr'
p200
F2.9233274854191924
sS'/html/body/div/div/div/a/span'
p201
F0.03915696631075723
sS'/html/body/div/div/div/div/div/form/div/noscript/div/table/tr/td/div/label'
p202
F2.2159683533383094
sS'/html/body/div/div/div/div/div/form/div/script'
p203
F2.2159683533383094
sS'/html/body/div/div/div/div/table/tr/td/div/div/div/span'
p204
F6.601399390531831
sS'/html/body/div/div/div/div/div/table/tr/td/div/div/p/a/img'
p205
F5.923327485419192
sS'/html/body/div/div/div/div/table/tr/td/p/b/a'
p206
F7.115972563361589
sS'/html/body/div/div/div/div/div/div/div/div/div/ol/li/a'
p207
F9.923327485419193
sS'/html/body/div/div/div/div/div/div/div/a'
p208
F0.7710426431126104
sS'/html/body/div/div/div/form/div/script'
p209
F5.399765529362179
sS'/html/body/div/div/div/div/div/div/div/table/thead/tr/th'
p210
F9.923327485419193
sS'/html/body/div/div/div/div/div/form/div/noscript/div/table/tr/td/div/input'
p211
F2.2159683533383094
sS'/html/body/div/div/div/form/div/div/div/div/input'
p212
F9.923327485419193
sS'/html/body/div/div/div/div/div/div/div/span'
p213
F2.77358036591451
sS'/html/body/div/div/div/div/div/div/table/tr/td/div/span'
p214
F2.3012756659628164
sS'/html/body/div/div/div/div/table/tr/td/div/div'
p215
F6.601399390531831
sS'/html/body/div/div/div/div/div/div/div/div/h2/span'
p216
F4.279471295644468
sS'/html/body/div/div/div/div/div/div/table/tr/td/div/table/tbody/tr/td/table/tbody/tr/td/span'
p217
F4.835864644168853
sS'/html/body/div/div/div/div/div/div/pre/span'
p218
F9.923327485419193
sS'/html/body/div/div/div/div/div/div/div/table/tr/td/div/span'
p219
F2.9233274854191924
sS'/html/body/div/div/div/div/div/h4'
p220
F1.651864457514818
sS'/html/body/div/div/div/div/div/h3'
p221
F0.03915696631075723
sS'/html/body/div/div/div/div/div/h2'
p222
F5.338364984698036
sS'/html/body/div/div/div/div/div/form/div/div/div/div/script'
p223
F2.2159683533383094
sS'/html/body/div/div/div/form/div/div/div/label'
p224
F5.463895866781895
sS'/html/body/div/div/div/script'
p225
F0.7559093395874548
sS'/html/body/div/div/div/div/form/div/div/div/div/noscript/p'
p226
F5.338364984698036
sS'/html/body/div/div/div/div/div/table/tr/td/div/div/blockquote/p'
p227
F6.338364984698036
sS'/html/body/div/div/div/div/div/table/tr/td/b/a'
p228
F9.923327485419193
sS'/html/body/div/div/div/div/table/tr/td/a/span'
p229
F7.923327485419192
sS'/html/body/div/div/div/div/div/div/div/div/div/div/div/div/div/div/img'
p230
F9.923327485419193
sS'/html/body/div/div/div/div/p/span/a'
p231
F6.338364984698036
sS'/html/body/div/div/div/div/h2/span'
p232
F5.399765529362179
sS'/html/body/div/div/div/div/form/div/div/div/input'
p233
F5.338364984698036
sS'/html/body/div/div/div/div/div/table/tr/td/div/table/tbody/tr/td/table/tbody/tr/td/span'
p234
F3.923327485419193
sS'/html/body/div/div/div/div/div/form/h2'
p235
F2.2159683533383094
sS'/html/body/div/div/div/table/tr/td'
p236
F7.923327485419192
sS'/html/head/link'
p237
F0.03915696631075723
sS'/html/body/div/div/div/form/div/style'
p238
F5.675399971975607
sS'/html/body/div/div/div/table/tr/th'
p239
F9.923327485419193
sS'/html/body/div/div/div/div/table/tr/td/h1'
p240
F6.338364984698036
sS'/html/body/div/div/div/div/div/div/div/div/div/a/br'
p241
F7.115972563361589
sS'/html/body/div/div/div/div/div/div/div/table/tr/td/a/span'
p242
F9.923327485419193
sS'/html/body/div/div/div/div/div/table/tr/td/div/table/tr/td/div/div/a/span'
p243
F2.704158964957031
sS'/html/body/div/div/div/div/div/div/div/div/div/p/a'
p244
F6.016436889810674
sS'/html/body/div/div/div/div/div/div/div/div/p/code/span'
p245
F9.923327485419193
sS'/html/body/div/div/div/div/div/table/tr/td/div/div/b'
p246
F1.8626315537316382
sS'/html/body/div/div/div/div/div/table/tr/td/div/div/a'
p247
F1.7992061735900045
sS'/html/body/div/div/div/div/table/tr/td/div/div/div/p/span'
p248
F7.923327485419192
sS'/html/body/div/div/div/div/div/table/tr/td/div/table/tr/td/div/div'
p249
F4.168439983255724
sS'/html/body/div/div/div/div/div/ul/li/code'
p250
F8.923327485419193
sS'/html/body/div/div/div/div/div/div/div/div/span/a/span'
p251
F8.338364984698037
sS'/html/body/div/div/div/div/div/form/div/noscript/h3'
p252
F2.2159683533383094
sS'/html/body/div/div/div/div/div/table/tr/td/div/div/p'
p253
F1.8899044838817418
sS'/html/body/div/div/div/div/div/form/div/div/div/input'
p254
F2.2159683533383094
sS'/html/body/div/div/div/div/div/pre/span'
p255
F9.923327485419193
sS'/html/body/div/div/div/div/div/div/div/div/div/div/div/span/span'
p256
F8.923327485419193
sS'/html/body/div/div/div/div/div/div/div/div/div/p/strong/em'
p257
F9.923327485419193
sS'/html/body/div/div/div/div/div/div/div/table/tr/td/div/h4'
p258
F2.9233274854191924
sS'/html/body/div/div/div/div/table/tr/td/div/div/div/div/p/a/span'
p259
F9.923327485419193
sS'/html/body/div/div/div/div/div/div/table/tr/td/table/tr/td/div/div/a/div/img'
p260
F2.315997171669582
sS'/html/body/div/div/div/div/div/h3/a'
p261
F0.03915696631075723
sS'/html/body/div/div/div/div/div/div/table/tr/td/div/div/span'
p262
F8.338364984698037
sS'/html/body/div/div/div/div/div/span'
p263
F4.168439983255724
sS'/html/body/div/div/div/div/div/ol/li/em'
p264
F9.923327485419193
sS'/html/body/div/div/div/div/div/p/b/a'
p265
F8.923327485419193
sS'/html/body/div/div/div/div/div/ol/li/a'
p266
F9.923327485419193
sS'/html/body/div/div/div/div/div/div/div/div/div/ul/li/em'
p267
F9.923327485419193
sS'/html/body/div/div/div/div/form/br'
p268
F3.946047561919276
sS'/html/body/div/div/div/div/div/table/tr/td/div/div/div/p'
p269
F7.115972563361589
sS'/html/body/div/div/div/div/div/div/div/div'
p270
F3.7735803659145106
sS'/html/body/div/div/div/div/div/div/table/tr/td/div/table/tbody/tr/td/div/a/span'
p271
F5.531010062640432
sS'/html/body/div/div/div/div/span/a'
p272
F0.03915696631075723
sS'/html/body/div/div/div/div/div/div/div/div/div/h2'
p273
F9.923327485419193
sS'/html/body/div/div/div/div/div/table/tr/td/div/div/ul/li/a'
p274
F8.923327485419193
sS'/html/body/div/div/div/div/div/div/p/a/img'
p275
F9.923327485419193
sS'/html/body/div/div/div/div/div/div/div/div/h2/script'
p276
F4.794044468474226
sS'/html/body/div/div/div/div/div/div/table/tr/td/table/tr/td/div/span'
p277
F2.3012756659628164
sS'/html/body/div/div/div/div/div/table/tr/td/div/div/ul/li/p'
p278
F7.338364984698036
sS'/html/body/div/div/div/div/div/p/span'
p279
F4.531010062640433
sS'/html/body/div/div/div/div/div/div/table/tr/td/table/tr/td/div/div/a/span'
p280
F3.7335029265391753
sS'/html/body/div/div/div/div/div/div/table/tr/td/div/table/tbody/tr/td/div/span/span'
p281
F3.195407030855993
sS'/html/body/div/div/div/div/div/div/div/div/div/div/div/div'
p282
F7.115972563361589
sS'/html/body/div/div/div/div/div/table/tr/td/div/div/p/sub/a'
p283
F9.923327485419193
sS'/html/body/div/div/div/div/form/div/div/div/div/div/p'
p284
F4.675399971975607
sS'/html/head/style'
p285
F4.531010062640433
sS'/html/body/div/div/div/div/div/table/tr/td/div/ul/li/b'
p286
F7.338364984698036
sS'/html/body/div/div/div/div/div/table/tr/td/div/ul/li/a'
p287
F6.463895866781895
sS'/html/body/div/div/div/div/div/table/tr/td/div/div/ul/li/p/em'
p288
F7.601399390531831
sS'/html/body/div/div/div/div/div/div/div/div/div/div/a/span'
p289
F6.463895866781895
sS'/html/body/div/div/div/div/div/div/div/div/div/hr'
p290
F7.923327485419192
sS'/html/body/div/div/div/div/p'
p291
F1.50126271924638
sS'/html/body/div/div/div/div/div/table/tbody/tr/td/div'
p292
F8.923327485419193
sS'/html/body/div/div/script'
p293
F1.783776133020399
sS'/html/body/div/div/div/div/table/tr/td/div/div/div/div/p/span'
p294
F7.923327485419192
sS'/html/body/div/div/div/div/div/div/table/tbody/tr/td/div'
p295
F5.531010062640432
sS'/html/body/div/div/div/div/div/form/div/div/input'
p296
F2.2159683533383094
sS'/html/body/div/div/div/form/div/div/noscript/div/table/tr/td/div/input'
p297
F9.923327485419193
sS'/html/body/div/div/div/div/div/div/p/i'
p298
F9.923327485419193
sS'/html/body/div/div/div/div/div/br'
p299
F7.923327485419192
sS'/html/body/div/div/div/table/thead/tr/th/span'
p300
F8.338364984698037
sS'/html/body/div/div/div/div/div/div/p/a'
p301
F1.8680450499180028
sS'/html/body/div/div/div/div/div/div/p/b'
p302
F8.923327485419193
sS'/html/body/div/div/div/div/hr'
p303
F9.923327485419193
sS'/html/body/div/div/div/div/div/ol/li'
p304
F7.923327485419192
sS'/html/body/div/div/div/div/div/div/table/tr/td/table/tr/td/div/div/div/span/span'
p305
F2.4475940544527943
sS'/html/body/div/div/div/div/form/input'
p306
F0.03915696631075723
sS'/html/body/div/div/div/div/div/table/tr/td/div/div/h1'
p307
F7.338364984698036
sS'/html/body/div/div/div/div/div/table/tr/td/div/div/h2'
p308
F8.923327485419193
sS'/html/body/div/div/div/div/div/table/tr/td/div/div/h3'
p309
F7.115972563361589
sS'/html/body/div/div/div/div/div/div/div/div/p/code'
p310
F9.923327485419193
sS'/html/body/div/div/div/h2'
p311
F9.923327485419193
sS'/html/body/div/div/div/h1'
p312
F7.601399390531831
sS'/html/body/div/div/div/div/div/div'
p313
F0.03915696631075723
sS'/html/body/div/div/div/div/div/div/table/tr/td/div/pre/code'
p314
F5.338364984698036
sS'/html/body/div/div/div/div/h1/a'
p315
F1.5834774825345677
sS'/html/body/div/div/div/div/div/table/tr/td/div/p'
p316
F5.399765529362179
sS'/html/body/div/div/div/form/div/div/div/div/div/h3/a'
p317
F9.923327485419193
sS'/html/body/div/div/div/div/h4'
p318
F1.8465118883683616
sS'/html/body/div/div/div/div/h3'
p319
F8.338364984698037
sS'/html/body/div/div/div/div/div/form/div/div/div/textarea'
p320
F2.2159683533383094
sS'/html/body/div/div/div/div/h1'
p321
F1.5924106073045754
sS'/html/body/div/div/div/div/div/table/tr/td/div/div/ul/li/ul/li'
p322
F9.923327485419193
sS'/html/body/div/div/div/div/div/table/tr/td/div/a'
p323
F1.8626315537316382
sS'/html/body/div/div/div/div/div/p/code'
p324
F8.338364984698037
sS'/html/body/div/div/style'
p325
F8.923327485419193
sS'/html/body/div/div/div/div/div/div/ul/li/a'
p326
F9.923327485419193
sS'/html/body/feed/title'
p327
F5.222887767278101
sS'/html/body/div/div/div/div/div/table/tr/td/div/div/hr'
p328
F6.753402483976879
sS'/html/body/div/div/div/div/div/div/div/span/span'
p329
F6.115972563361589
sS'/html/body/div/div/div/div/div/table/tr/td/div/table/tr/td/div/div/div'
p330
F4.115972563361588
sS'/html/body/div/div/div/div/div/div/h2/a'
p331
F4.713874119790242
sS'/html/body/div/div/div/hr'
p332
F9.923327485419193
sS'/html/body/div/div/div/form/div/a'
p333
F4.565775480801109
sS'/html/body/div/div/div/div/div/div/div/a/div/svg'
p334
F5.279471295644468
sS'/html/body/div/div/div/div/p/strong'
p335
F8.338364984698037
sS'/html/body/div/div/div/div/div/form/script'
p336
F2.2159683533383094
sS'/html/body/div/div/div/div/ul/li/em'
p337
F9.923327485419193
sS'/html/body/div/div/div/div/table/tr/td/div/div/div/div/pre/code/span'
p338
F8.923327485419193
sS'/html/body/div/div/div/div/div/div/table/tr/td/div/table/tbody/tr/td/div/span/code'
p339
F5.675399971975607
sS'/html/body/div/div/div/div/div/table/tr/td/p/b'
p340
F1.8626315537316382
sS'/html/body/feed/license'
p341
F5.222887767278101
sS'/html/body/div/div/div/div/table/tr/td/div/div/div/ul/li/span'
p342
F9.923327485419193
sS'/html/body/div/div/div/div/form/p/input'
p343
F9.923327485419193
sS'/html/body/div/div/div/div/div/div/table/tr/td/div/p/a/code'
p344
F8.923327485419193
sS'/html/body/div/div/div/div/div/table/tr/td/div/table/tbody/tr/td/div/span/b'
p345
F6.753402483976879
sS'/html/body/div/div/div/p/a'
p346
F5.338364984698036
sS'/html/body/div/div/div/form/div/div/div/table/tr/td/input'
p347
F5.399765529362179
sS'/html/body/div/div/div/div/div/table/tr/td/div/a/b'
p348
F5.279471295644468
sS'/html/body/div/div/div/div/table/tr/td/div/div/div'
p349
F7.923327485419192
sS'/html/body/div/div/div/form/div/div/div/p/a/img'
p350
F9.923327485419193
sS'/html/body/div/div/div/div/div/div/table/tr/td/div/input'
p351
F2.3012756659628164
sS'/html/body/div/div/div/div/div/div/div/script'
p352
F2.704158964957031
sS'/html/body/div/div/div/div/div/div/ul/li/p/a'
p353
F9.923327485419193
sS'/html/body/feed/entry/rank'
p354
F5.222887767278101
sS'/html/body/div/div/div/div/div/div/div/div/div/p/em'
p355
F7.923327485419192
sS'/html/body/div/div/div/div/span/div/div/ul/li/a/span'
p356
F0.03915696631075723
sS'/html/body/div/div/div/div/div/div/table/tr/td/div/ul/li/br'
p357
F9.923327485419193
sS'/html/body/div/div/div/div/div/div/div/table/tr/td/div/ul/li/span'
p358
F2.9233274854191924
sS'/html/body/div/div/div/div/div/table/tr/td/div/h2/b'
p359
F4.835864644168853
sS'/html/body/div/div/div/div/div/div/table/tr/td/table/tr/td/div/div/div'
p360
F4.0653464902916205
sS'/html/body/div/div/div/div/div/div/h2/span'
p361
F4.794044468474226
sS'/html/body/div/div/div/div/div/ol/li/strong/em'
p362
F9.923327485419193
sS'/html/body/div/div/div/div/div/table/tr/td/div/input'
p363
F1.8626315537316382
sS'/html/body/div/div/div/div/div/div/div/div/h3'
p364
F9.923327485419193
sS'/html/body/div/div/div/div/div/div/table/tr/td/div/ol/li/ol/li/strong'
p365
F9.923327485419193
sS'/html/body/div/div/div/div/div/div/div/div/h1'
p366
F9.923327485419193
sS'/html/body/div/div/div/div/a'
p367
F0.03915696631075723
sS'/html/body/div/div/div/div/div/div/table/tr/td/div/table/tbody/tr/td/table/tbody/tr/td'
p368
F3.195407030855993
sS'/html/body/div/div/div/form/div/div/div/p/code'
p369
F8.338364984698037
sS'/html/body/div/div/div/div/div/div/table/tr/td/div/ol/li/p/strong'
p370
F9.923327485419193
sS'/html/body/div/div/div/div/div/table/tbody/tr/td/span/span'
p371
F8.338364984698037
sS'/html/body/div/div/div/div/div/table/tr/td/div/div/div/span'
p372
F6.338364984698036
sS'/html/body/div/div/div/div/div/table/tr/td/div/div/p/strong/em'
p373
F9.923327485419193
sS'/html/body/div/div/div/div/div/p/em'
p374
F8.338364984698037
sS'/html/body/div/div/div/div/table/tr/td/div/div/div/h1/span'
p375
F9.923327485419193
sS'/html/body/div/div/div/div/div/div/div/div/div/div/a/div/img'
p376
F8.923327485419193
sS'/html/body/div/div/div/div/p/img'
p377
F8.923327485419193
sS'/html/body/div/div/div/div/a/div/div'
p378
F9.923327485419193
sS'/html/body/div/div/div/div/div/div/div/h3/a'
p379
F7.923327485419192
sS'/html/body/div/div/div/div/div/div/table/tr/td/div/ul/li/strong/a'
p380
F9.923327485419193
sS'/html/body/div/div/div/div/div/table/tr/td/div/table/tr/td/div/div/span'
p381
F1.8626315537316382
sS'/html/body/div/div/div/div/div/div/div/a/div'
p382
F1.6897078086594903
sS'/html/body/div/div/div/div/div/div/table/tr/td/div/ul/li/strong'
p383
F8.338364984698037
sS'/html/body/div/div/div/div/table/tr/td/div/div/div/div/h1/span'
p384
F9.923327485419193
sS'/html/body/div/div/div/div/table/tr/td/div/div/div/p/code/span'
p385
F9.923327485419193
sS'/html/body/feed/entry/summary'
p386
F5.222887767278101
sS'/html/body/div/div/div/div/div/div/div/a/div/ul/li'
p387
F4.969131175032317
sS'/html/body/div/div/div/div/div/table/tr/td/div/div/blockquote/p/strong'
p388
F9.923327485419193
sS'/html/body/div/div/div/div/div/ul/li/span/span'
p389
F4.969131175032317
sS'/html/body/div/div/div/div/div/div/div/table/tbody/tr/td/b'
p390
F9.923327485419193
sS'/html/body/div/div/div/br'
p391
F1.7735803659145104
sS'/html/body/div/div/div/div/div/div/div/table/tr/td/a'
p392
F9.923327485419193
sS'/html/body/div/div/div/div/div/table/tr/td/div/div/ul/li'
p393
F5.0653464902916205
sS'/html/body/div/div/div/div/img'
p394
F3.9691311750323175
sS'/html/body/div/div/div/div/div/a/div'
p395
F2.3687386337415552
sS'/html/body/div/div/div/div/p/span'
p396
F4.675399971975607
sS'/html/body/div/div/div/div/div/div/div/div/div/p/strong/a'
p397
F9.923327485419193
sS'/html/body/div/div/div/div/div/table/tr/td/div/div/a/div/img'
p398
F6.338364984698036
sS'/html/body/div/div/div/div/table/tr/td/div/a'
p399
F6.601399390531831
sS'/html/body/feed/entry/author/name'
p400
F5.222887767278101
sS'/html/body/div/div/div/div/h4/i'
p401
F9.923327485419193
sS'/html/body/div/div/div/div/div/table/tr/td/p'
p402
F1.8626315537316382
sS'/html/body/div/div/div/div/h4/a'
p403
F1.9233274854191924
sS'/html/body/div/div/div/div/div/div/div/div/p/span'
p404
F9.923327485419193
sS'/html/body/div/div/div/div/table/tr/td/div/div/div/div/h3/span'
p405
F9.923327485419193
sS'/html/body/div/div/div/div/div/p/strong/code'
p406
F9.923327485419193
sS'/html/body/div/div/div/div/table/tr/td/p'
p407
F6.115972563361589
sS'/html/body/div/div/div/div/div/div/table/tr/td/div/p/br'
p408
F6.2228877672781
sS'/html/body/div/div/div/form/div/div/div/ul/li/p/a'
p409
F9.923327485419193
sS'/html/body/div/div/div/div/div/ul/li'
p410
F7.338364984698036
sS'/html/body/div/div/div/div/div/div/div/div/span'
p411
F3.7735803659145106
sS'/html/body/div/div/div/div/div/div/div/div/div/br'
p412
F9.923327485419193
sS'/html/body/div/div/div/div/div/table/tr/td/div/div/p/code'
p413
F4.60139939053183
sS'/html/body/div/div/div/div/table/tr/td/b'
p414
F8.338364984698037
sS'/html/body/div/div/div/div/table/tr/td/a'
p415
F6.338364984698036
sS'/html/body/div/div/div/div/p/a/img'
p416
F9.923327485419193
sS'/html/body/div/div/div/form/input'
p417
F4.431474389089518
sS'/html/body/div/div/div/div/div/table/tr/td/div/div/p/a'
p418
F4.195407030855994
sS'/html/body/div/div/div/div/div/div/table/tr/td/div/h3'
p419
F9.923327485419193
sS'/html/body/div/div/div/form/div/div/div/ul/li/p/em'
p420
F9.923327485419193
sS'/html/body/div/div/div/div/div/table/tr/td/p/b/a'
p421
F2.3012756659628164
sS'/html/body/div/div/div/div/div/div/div/table/tbody/tr/th'
p422
F9.923327485419193
sS'/html/body/div/div/div/form/div/div/div/p/img'
p423
F8.923327485419193
sS'/html/body/div/div/div/div/div/div/div/table/tbody/tr/td'
p424
F9.923327485419193
sS'/html/body/div/div/div/div/div/div/div/div/span/span'
p425
F8.338364984698037
sS'/html/body/div/div/div/div/div/div/table/tr/td/div/p/sup/strong'
p426
F9.923327485419193
sS'/html/body/div/div/div/div/div/table/tr/td/div/table/tbody/tr/td/table/tbody/tr/td'
p427
F2.531010062640432
sS'/html/body/div/div/div/div/div/div/br'
p428
F1.3123026881118403
sS'/html/body/div/div/div/div/div/div/div/div/a/span'
p429
F7.923327485419192
sS'/html/body/div/div/div/div/div/div/table/tbody/tr/td/a/span'
p430
F5.835864644168853
sS'/html/body/div/div/div/div/form/div/div/div/div/input'
p431
F3.9691311750323175
sS'/html/body/div/div/div/div/div/div/table/tr/td'
p432
F2.0904374712544507
sS'/html/body/feed/entry/published'
p433
F5.222887767278101
sS'/html/body/div/div/div/div/div/div/div/a/div/svg/g/polyline'
p434
F7.338364984698036
sS'/html/body/div/div/div/div/div/form/div/div'
p435
F2.2159683533383094
sS'/html/body/div/div/div/div/style'
p436
F6.115972563361589
sS'/html/body/div/div/div/div/div/table/tr/td/div/div/ol/li'
p437
F7.923327485419192
sS'/html/body/div/div/div/div/div/div/table/tr/td/table/tr/td/div/a'
p438
F2.3012756659628164
sS'/html/body/div/div/div/div/div/div/div/ul/li'
p439
F9.923327485419193
sS'/html/body/div/div/div/div/div/ul/li/p'
p440
F9.923327485419193
sS'/html/body/div/div/div/div/div/blockquote/p/a'
p441
F9.923327485419193
sS'/html/body/div/div/div/form/div/h2/a'
p442
F5.675399971975607
sS'/html/body/div/div/div/div/div/div/a/span'
p443
F9.923327485419193
sS'/html/body/noscript/div/img'
p444
F0.03915696631075723
sS'/html/body/div/div/div/div/div/ul/li/a'
p445
F1.809585319370004
sS'/html/body/div/div/div/div/div'
p446
F0.7812204281166422
sS'/html/body/div/div/div/form/div/div/div/p'
p447
F5.675399971975607
sS'/html/body/div/div/div/div/table/tr/td/div/div/div/div/pre/code'
p448
F9.923327485419193
sS'/html/body/div/div/div/div/div/div/table/tr/td/div/table/tbody/tr/td/div/span/i'
p449
F6.016436889810674
sS'/html/body/feed/updated'
p450
F5.222887767278101
sS'/html/body/div/div/div/form/div/div/div/p/em'
p451
F7.923327485419192
sS'/html/body/div/div/div/div/div/table/tr/td/div/div/ul/li/br'
p452
F9.923327485419193
sS'/html/body/div/div/div/div/div/div/table/tr/td/div/table/tbody/tr/td/div/span/b'
p453
F8.338364984698037
sS'/html/body/div/div/div/div/div/div/table/tr/td/div/table/tbody/tr/td/div/span/a'
p454
F5.60139939053183
sS'/html/body/div/div/div/form/div/div/div/a'
p455
F9.923327485419193
sS'/html/body/div/div/div/div/div/div/div/div/div/ul/li/strong/a'
p456
F9.923327485419193
sS'/html/body/div/div/div/div/table/tr/td/div/div/div/a/span'
p457
F9.923327485419193
sS'/html/body/div/div/noscript/div/img'
p458
F2.3687386337415552
sS'/html/body/div/div/div/div/div/p/strong'
p459
F7.115972563361589
sS'/html/body/div/div/div/div/div/table/tr/td/div/div/ul/li/em'
p460
F9.923327485419193
sS'/html/body/div/div/div/div/div/table/tr/td/div/span/a'
p461
F6.463895866781895
sS'/html/body/div/div/div/div/div/div/div/table/tr/td/div/ul/li/a/span'
p462
F2.9233274854191924
sS'/html/body/div/div/div/div/div/p/strong/a'
p463
F9.923327485419193
sS'/html/body/div/div/div/div/div/form/br'
p464
F9.923327485419193
sS'/html/body/div/div/div/form/div/div/div/ul/li'
p465
F8.338364984698037
sS'/html/body/div/div/div/div/div/div/div/br'
p466
F4.1419677718945325
sS'/html/body/div/div/div/div/div/div/table/tr/td/div/blockquote/h2'
p467
F9.923327485419193
sS'/html/body/div/div/div/div/p/a/strong'
p468
F9.923327485419193
sS'/html/body/div/div/div/form/div/h2'
p469
F5.675399971975607
sS'/html/body/div/div/div/div/table/tr/td/div/div/div/pre/code/span'
p470
F8.923327485419193
sS'/html/body/div/div/div/div/div/div/table/tr/td/div/blockquote/p/em'
p471
F9.923327485419193
sS'/html/body/div/div/div/div/div/table/tr/td/div/span'
p472
F1.8626315537316382
sS'/html/body/div/div/div/div/form/span'
p473
F9.923327485419193
sS'/html/body/div/div/div/div/div/div/table/tr/td/div/ol/li/ol/li'
p474
F9.923327485419193
sS'/html/body/div/div/div/form/div/div/div/div/div/h3'
p475
F9.923327485419193
sS'/html/body/div/div/div/div/table/tr/td/div/div/div/div/p/a/img'
p476
F9.923327485419193
sS'/html/body/div/div/div/div/div/table/tr/td/div/div/div/span/span'
p477
F6.338364984698036
sS'/html/body/div/div/div/form/div/div/div/ul/li/p/code'
p478
F9.923327485419193
sS'/html/body/div/div/div/form/div/div/div/div/div/div/table/tr/td/div/input'
p479
F9.923327485419193
sS'/html/body/div/div/div/div/div/table/tbody/tr/td/a/span'
p480
F9.923327485419193
sS'/html/body/div/div/div/div/table/tr/th'
p481
F0.03915696631075723
sS'/html/body/div/div/div/div/table/tr/td'
p482
F5.463895866781895
sS'/html/body/div/div/div/div/div/p/sup/a'
p483
F9.923327485419193
sS'/html/body/div/div/div/div/div/div/div/ul/li/div'
p484
F2.6287067365275654
sS'/html/body/div/div/div/div/table/tr/td/div/div/div/p/strong/span'
p485
F8.923327485419193
sS'/html/body/div/div/div/div/noscript/div/img'
p486
F6.115972563361589
sS'/html/body/div/div/div/div/div/div/ul/li/p/code'
p487
F9.923327485419193
sS'/html/body/div/div/div/div/div/div/div/div/h2'
p488
F3.2228877672781002
sS'/html/body/div/div/div/div/div/div/table/tr/td/div/blockquote/p'
p489
F6.753402483976879
sS'/html/body/div/div/div/div/div/div/table/tr/td/div/ul/li/ul/li/p/a'
p490
F9.923327485419193
sS'/html/body/div/div/div/div/h2/a'
p491
F4.60139939053183
sS'/html/body/div/div/div/div/form/div/div/div/div'
p492
F3.9691311750323175
sS'/html/body/div/div/div/div/div/form/div/div/div/div/h3'
p493
F2.2159683533383094
sS'/html/body/div/div/div/div/div/div/div/div/div/p/sup'
p494
F8.923327485419193
sS'/html/body/div/div/div/form/div/div/div/textarea'
p495
F4.565775480801109
sS'/html/body/div/div/div/div/form/div/div/div/div/div/label'
p496
F4.675399971975607
sS'/html/body/div/div/div/div/div/div/div/div/div/div/div/b'
p497
F9.923327485419193
sS'/html/body/div/div/div/div/div/div/div/h2/span'
p498
F2.3012756659628164
sS'/html/body/div/div/div/form/div/div/label'
p499
F4.565775480801109
sS'/html/body/div/div/div/div/form/p/label'
p500
F9.923327485419193
sS'/html/body/div/div/div/div/div/table/tr/td/div/p/a'
p501
F6.463895866781895
sS'/html/body/div/div/div/div/div/div/table/tr/td/div/p/a/img'
p502
F5.923327485419192
sS'/html/body/div/div/div/div/div/table/tr/td/div/table/tr/td/div/span'
p503
F1.8626315537316382
sS'/html/body/div/div/div/div/div/div/table/tr/td/div/ol/li/p/a'
p504
F9.923327485419193
sS'/html/body/div/div/div/div/table/tr/td/div/div/div/p/a/img'
p505
F9.923327485419193
sS'/html/body/div/div/div/div/div/div/div/div/p'
p506
F9.923327485419193
sS'/html/body/div/div/div/div/div/ul/li/a/span'
p507
F9.923327485419193
sS'/html/body/div/div/div/div/div/div/div/ul/li/a/span/span'
p508
F2.647203080144955
sS'/html/body/div/div/div/div/div/table/tr/td/div/table/tbody/tr/td'
p509
F3.293970865339583
sS'/html/body/div/div/div/div/div/div/div/div/b'
p510
F7.923327485419192
sS'/html/body/div/div/div/form/label'
p511
F8.338364984698037
sS'/html/body/div/div/div/div/div/div/div/div/a'
p512
F2.7335029265391753
sS'/html/body/div/div/div'
p513
F0.03915696631075723
sS'/html/body/div/div/div/form/div/div/div/input'
p514
F5.399765529362179
sS'/html/body/div/div/div/div/div/div/div/div/i'
p515
F9.923327485419193
sS'/html/body/feed/id'
p516
F5.222887767278101
sS'/html/body/div/div/div/div/div/div/table/thead/tr/th'
p517
F6.923327485419192
sS'/html/body/div/div/div/form/div/div/div/pre/code'
p518
F8.338364984698037
sS'/html/body/div/div/div/div/form/div/div/div/hr'
p519
F3.9691311750323175
sS'/html/body/div/div/div/div/table/tr/td/p/b'
p520
F6.115972563361589
sS'/html/body/div/div/div/div/div/p/a/span'
p521
F8.338364984698037
sS'/html/body/noscript/div'
p522
F0.03915696631075723
sS'/html/body/div/div/div/div/div/table/tr/td/div/div/p/sup/code'
p523
F9.923327485419193
sS'/html/body/div/div/div/div/div/script'
p524
F1.85723829496142
sS'/html/body/div/div/div/div/div/table/tr/td/span/a'
p525
F6.338364984698036
sS'/html/body/div/div/div/div/div/div/table/tr/td/div/p/sub'
p526
F7.338364984698036
sS'/html/body/div/div/div/div/div/table/tr/td/div/table/tr/td/div/div/div/span/span'
p527
F1.969131175032317
sS'/html/body/div/div/div/div/div/table/tr/td/div'
p528
F9.923327485419193
sS'/html/body/div/div/div/div/div/table/tr/td/div/div/p/s/a'
p529
F9.923327485419193
sS'/html/body/div/div/div/div/div/div/table/tr/td/div/p/sup'
p530
F7.115972563361589
sS'/html/body/div/div/div/div/table/tr/td/div/div/div/div/p/strong/span'
p531
F8.923327485419193
sS'/html/body/div/div/div/div/div/div/div/div/h3/a'
p532
F8.338364984698037
sS'/html/body/div/div/div/form/div/div/noscript/div/table/tr/td/div/label'
p533
F9.923327485419193
sS'/html/body/div/div/div/div/div/div/table/tr/td/table/tr/td/div/div'
p534
F4.0653464902916205
sS'/html/body/div/div/div/div/div/div/div/div/div/p/a/img'
p535
F8.923327485419193
sS'/html/body/div/div/div/div/div/div/div/div/div/ul/li/a'
p536
F7.338364984698036
sS'/html/body/div'
p537
F0.03915696631075723
sS'/html/body/div/div/div/div/div/table/tr/td/div/div/ul/li/code'
p538
F9.923327485419193
sS'/html/body/div/div/div/div/div/table/tr/td/div/div/pre/code'
p539
F5.0653464902916205
sS'/html/body/div/div/div/form/div/div/div/div/div/script'
p540
F9.923327485419193
sS'/html/body/div/div/div/div/blockquote/p/img'
p541
F9.923327485419193
sS'/html/body/div/div/div/form/div/div/div/h3'
p542
F9.923327485419193
sS'/html/body/div/div/div/div/table/tr/td/div/div/div/pre/code'
p543
F9.923327485419193
sS'/html/body/div/div/div/div/div/table/tr/td'
p544
F1.8626315537316382
sS'/html/body/div/div/div/div/div/ul/li/strong'
p545
F8.923327485419193
sS'/html/body/div/div/div/div/div/div/table/tr/td/div/ul/li/p/a'
p546
F8.923327485419193
sS'/html/body/div/div/div/div/table/tr/td/div/div/div/h3/span'
p547
F9.923327485419193
sS'/html/body/div/div/div/div/div/div/table/tr/td/table/tr/td/div/div/div/span'
p548
F2.315997171669582
sS'/html/body/div/div/div/div/div/table/tr/td/div/table/tbody/tr/td/div/span'
p549
F2.5657754808011086
sS'/html/body/div/div/div/div/div/div/div/div/div/div'
p550
F1.723655140582828
sS'/html/body/div/div/div/div/div/form/div/div/div/div/div/p/span'
p551
F2.2159683533383094
sS'/html/body/div/div/div/div/br'
p552
F4.4970627307170945
sS'/html/body/div/div/div/form/div/div/div/div/textarea'
p553
F9.923327485419193
sS'/html/body/div/div/div/table/tr/td/br'
p554
F7.923327485419192
sS'/html/body/div/div/div/div/div/div/table/tbody/tr/td'
p555
F7.115972563361589
sS'/html/body/div/div/div/div/div/blockquote/p'
p556
F9.923327485419193
sS'/html/body/div/div/div/div/div/table/tr/td/div/div/span'
p557
F6.338364984698036
sS'/html/body/div/div/div/div/table/tr/td/div/div/br'
p558
F7.601399390531831
sS'/html/body/div/div/div/div/form/p/label/span'
p559
F9.923327485419193
sS'/html/body/div/div/div/div/div/p/a/em'
p560
F8.923327485419193
sS'/html/body/div/div/div/table/tr/td/span'
p561
F8.338364984698037
sS'/html/body/div/div/div/div/div/ul/li/ul/li/strong'
p562
F9.923327485419193
sS'/html/body/div/div/div/div/div/form/div/p/a'
p563
F2.2159683533383094
sS'/html/body/div/div/div/div/table/tr/td/div/div/div/p/a/span'
p564
F9.923327485419193
sS'/html/body/div/div/div/div/h2'
p565
F6.338364984698036
sS'/html/body/div/div/div/div/div/div/div/ul/li/a/span/span/span'
p566
F2.77358036591451
sS'/html/body/div/div/div/div/blockquote/p/strong'
p567
F9.923327485419193
sS'/html/body/div/div/div/div/div/div/table/tr/td/div/p/strong'
p568
F4.4970627307170945
sS'/html/body/div/div/div/div/a/span'
p569
F1.9633255533511116
sS'/html/body/div/div/div/div/div/form/div/div/div/div/h3/a'
p570
F2.2159683533383094
sS'/html/body/div/div/div/div/table/tr/td/div/div/div/div/ul/li'
p571
F9.923327485419193
sS'/html/body/feed/link'
p572
F5.222887767278101
sS'/html/body/div/div/div/div/ul/li/p'
p573
F9.923327485419193
sS'/html/head/title'
p574
F0.03915696631075723
sS'/html/body/div/div/div/div/div/div/table/tr/td/div/ul/li/em'
p575
F9.923327485419193
sS'/html/body/div/div/div/div/div/div/table/tr/td/div/a/b'
p576
F7.923327485419192
sS'/html/body/div/div/div/div/div/blockquote/p/strong/a'
p577
F9.923327485419193
sS'/html/body/div/div/div/table/tr/td/span/span/span'
p578
F8.338364984698037
sS'/html/body/div/div/div/div/form/div/input'
p579
F3.9691311750323175
sS'/html/body/div/div/div/div/ul/li/a'
p580
F0.03915696631075723
sS'/html/body/div/div/div/div/ul/li'
p581
F7.923327485419192
sS'/html/body/div/div/div/div/form/div/label'
p582
F4.675399971975607
sS'/html/body/div/div/div/div/div/div/div/a/div/svg/g/line'
p583
F7.338364984698036
sS'/html/body/div/div/div/div/div/div/div/span/a'
p584
F5.531010062640432
sS'/html/body/div/div/div/div/div/div/div/h3/span/span/a'
p585
F2.7335029265391753
sS'/html/body/div/div/div/div/ul/li/a/strong'
p586
F4.279471295644468
sS'/html/body/div/div/div/div/div/ul/li/span/a'
p587
F6.463895866781895
sS'/html/body/div/div/div/div/div/table/tr/td/div/table/tbody/tr/td/div/span/i'
p588
F4.60139939053183
sS'/html/body/div/div/div/div/span/a/span'
p589
F0.03915696631075723
sS'/html/body/div/div/div/div/table/tr/td/div/div/a'
p590
F6.115972563361589
sS'/html/body/div/div/div/div/div/div/table/tr/td/div/table/tbody/tr/td/div/span/a/code'
p591
F9.923327485419193
sS'/html/body/div/div/div/div/div/div/div/ul/li/a'
p592
F3.368738633741555
sS'/html/body/div/div/div/div/div/div/table/tr/td/div/ul/li/code'
p593
F8.923327485419193
sS'/html/body/div/div/div/div/div/div/div/div/a/div/img'
p594
F5.0653464902916205
sS'/html/body/div/div/div/div/div/div/div/span/span/a/span'
p595
F5.399765529362179
sS'/html/body/div/div/div/div/div/table/tr/td/div/table/tbody/tr/td/div/a'
p596
F2.5834774825345677
sS'/html/body/div/div/div/div/table/tr/td/div/div/div/div/p/strong'
p597
F9.923327485419193
sS'/html/body/div/div/div/div/table/tr/td/div/div/div/a'
p598
F7.923327485419192
sS'/html/body/div/div/div/div/script'
p599
F0.8385190976148308
sS'/html/body/div/div/div/div/div/h2/a'
p600
F1.8680450499180028
sS'/html/body/div/div/div/div/div/div/table/tr/td/table/tr/td/div/div/span'
p601
F2.3012756659628164
sS'/html/body/div/div/div/div/div/div/div/div/div/a/div/img'
p602
F1.275869058964272
sS'/html/body/div/div/div/div/table/tr/td/div/div/div/p'
p603
F7.601399390531831
sS'/html/body/div/div/div/div/div/div/table/tr/td/table/tr/td/div/div/a'
p604
F2.3012756659628164
sS'/html/body/div/div/div/div/p/br'
p605
F6.923327485419192
sS'/html/body/div/div/div/div/div/form/div/div/div/div'
p606
F2.2159683533383094
sS'/html/body/div/div/div/div/div/div/div/div/div/div/ul/li/a'
p607
F4.75340248397688
sS'/html/body/div/div/div/div/ul/li/p/a'
p608
F9.923327485419193
sS'/html/body/div/div/div/div/table/tr/td/div/div/div/div/h1/span/span'
p609
F9.923327485419193
sS'/html/body/div/div/div/div/div/div/table/tr/td/div/p/code'
p610
F4.565775480801109
sS'/html/body/div/div/div/form/div/div/div'
p611
F9.923327485419193
sS'/html/body/div/div/div/div/div/div/div/h3'
p612
F2.6195467372420893
sS'/html/body/div/div/div/div/div/div/div/h2'
p613
F3.7335029265391753
sS'/html/body/div/div/div/div/div/table/tr/td/div/table/tbody/tr/td/div/span/a'
p614
F3.794044468474226
sS'/html/body/div/div/div/div/div/ul/li/div/span'
p615
F0.03915696631075723
sS'/html/body/script'
p616
F0.03915696631075723
sS'/html/body/div/div/div/div/div/div/table/tr/td/div/p/img'
p617
F9.923327485419193
sS'/html/body/div/div/div/div/div/h4/a'
p618
F1.8626315537316382
sS'/html/body/div/div/div/div/table/tr/td/div/div/div/div/span'
p619
F8.338364984698037
sS'/html/body/div/div/div/form/div/div/div/div/div/div/table/tr/td/div/label'
p620
F9.923327485419193
sS'/html/body/div/div/div/div/div/table/tr/td/div/table/tr/td/div/div/a/div/img'
p621
F1.8626315537316382
sS'/html/body/div/div/div/div/form/div/div/div/div/div/noscript/p'
p622
F4.675399971975607
sS'/html/body/div/div/div/div/ol/li/ol/li'
p623
F9.923327485419193
sS'/html/body/div/div/div/div/div/div/table/tr/td/div/table/tbody/tr/td'
p624
F2.980812980079952
sS'/html/body/div/div/div/div/table/tr/td/input'
p625
F6.601399390531831
sS'/html/body/div/div/div/div/div/div/div/span/a/b'
p626
F7.923327485419192
sS'/html/body/div/div/div/div/div/div/table/tr/td/div/blockquote/p/a'
p627
F9.923327485419193
sS'/html/body/div/div/div/div/div/div/hr'
p628
F4.195407030855994
sS'/html/body/div/div/div/div/table/tr/td/div/div/div/div/div'
p629
F9.923327485419193
sS'/html/body/div/div/div/div/div/div/h3/a/span'
p630
F5.463895866781895
sS'/html/body/div/div/div/div/div/div/div/div/div/ul/li'
p631
F7.115972563361589
sS'/html/body/div/div/div/div/div/table/tr/td/div/h2/span'
p632
F5.675399971975607
sS'/html/body/div/div/div/div/div/div/a/div'
p633
F6.753402483976879
sS'/html/body/div/div/div/div/form/p/textarea'
p634
F9.923327485419193
sS'/html/body/div/div/div/div/div/div/p/span'
p635
F2.0904374712544507
sS'/html/body/div/div/div/div/div/table/tr/td/div/div/ol/li/p'
p636
F7.923327485419192
sS'/html/body/div/div/div/form/div/div/div/div'
p637
F4.531010062640433
sS'/html/body/feed/entry/title'
p638
F5.222887767278101
sS'/html/body/div/div/div/div/div/div/div/div/div/div/div'
p639
F7.115972563361589
sS'/html/body/div/div/div/div/div/ul/li/a/div'
p640
F0.03915696631075723
sS'/html/body/div/div/div/div/div/div/table/tr/td/span'
p641
F5.399765529362179
sS'/html/body/div/div/div/div/div/div/table/tr/td/div/ol/li/br'
p642
F9.923327485419193
sS'/html/body/div/div/div/div/div/ul/li/em'
p643
F8.923327485419193
sS'/html/body/div/div/div/div/div/p'
p644
F3.694508794923312
sS'/html/body/div/div/div/div/div/div/div/div/div/p/strong'
p645
F7.115972563361589
sS'/html/body/div/div/div/div/span/span'
p646
F5.222887767278101
sS'/html/body/div/div/div/div/div/div/div/a/b'
p647
F8.923327485419193
sS'/html/body/div/div/div/div/div/div/pre'
p648
F9.923327485419193
sS'/html/body/div/div/div/div/div/div/div/div/div'
p649
F4.431474389089518
sS'/html/body/div/div/div/div/table/tr/td/div/div/div/div/p/code/span'
p650
F9.923327485419193
sS'/html/body/div/div/div/div/div/b'
p651
F7.923327485419192
sS'/html/body/feed/entry/id'
p652
F5.222887767278101
sS'/html/body/div/div/div/div/div/a'
p653
F0.03915696631075723
sS'/html/body/div/div/div/div/div/div/h3'
p654
F8.923327485419193
sS'/html/body/div/div/div/div/div/div/h2'
p655
F9.923327485419193
sS'/html/body/div/div/div/div/div/ul/li/ul/li/a/strong'
p656
F9.923327485419193
sS'/html/body/div/div/div/div/div/div/div/div/strong'
p657
F1.9009596723907378
sS'/html/body/div/div/div/div/div/div/div/div/div/p/code'
p658
F9.923327485419193
sS'/html/body/div/div/div/div/div/div/table/tr/td/div/ul/li'
p659
F5.675399971975607
sS'/html/body/div/div/div/div/div/div/div/div/div/div/div/div/div/span'
p660
F2.77358036591451
sS'/html/body/div/div/div/table/tr/td/a/img'
p661
F9.923327485419193
sS'/html/body/div/div/div/div/div/table/tr/td/div/table/tr/td/div/a'
p662
F1.8626315537316382
sS'/html/body/feed/entry/author/uri'
p663
F5.222887767278101
sS'/html/body/div/div/div/form/div/div/div/div/div/div/p/span'
p664
F9.923327485419193
sS'/html/body/div/div/div/div/div/div/div/p/a'
p665
F7.923327485419192
sS'/html/body/div/div/div/div/div/img'
p666
F9.923327485419193
sS'/html/body/div/div/div/div/div/div/div/p/b'
p667
F9.923327485419193
sS'/html/body/div/div/div/div/form/a'
p668
F5.338364984698036
sS'/html/body/div/div/div/div/div/form/div/div/div/div/div/table/tr/td/div/label'
p669
F2.2159683533383094
sS'/html/body/div/div/div/div/div/h1/span'
p670
F6.753402483976879
s.