(dp0
S'/html/body/div/div/div/p/a'
p1
F2.2103598658415513
sS'/html/body/div/nav/div/ul/li/div/div/ul/li/a'
p2
F0.09746580943561736
sS'/html/body/div/div/div/div/ul/li/a/span'
p3
F2.2103598658415513
sS'/html/body/div/div/div/form/div/div/input'
p4
F2.7297340249351305
sS'/html/body/div/div/ul/li/div/h3/a'
p5
F1.9087041659804496
sS'/html/body/div/div/div/div/div/div/div/div/a/img'
p6
F7.636624620543649
sS'/html/body/div/div/div/div/div/table/tbody/tr/td'
p7
F2.5073416035986824
sS'/html/body/div/div/div/div/div/div/h4'
p8
F2.778643625416077
sS'/html/body/div/header/div/div/a/svg/circle'
p9
F0.09746580943561736
sS'/html/body/div/footer/div/ul/li/a'
p10
F0.09746580943561736
sS'/html/body/div/div/div/div/table/tbody/tr/td/h4/a'
p11
F5.63662462054365
sS'/html/body/div/div/ul/li/div/div/table/tbody/tr/th'
p12
F7.636624620543649
sS'/html/body/div/div/div'
p13
F1.1936811246949208
sS'/html/body/div/div/div/div/table/tbody/tr/td/p/a'
p14
F2.3886971071000636
sS'/html/body/div/div/ul/li/div/div/p/em/strong/a'
p15
F7.636624620543649
sS'/html/body/div/header/div/a/svg/g/g/path'
p16
F0.09746580943561736
sS'/html/body/div/div/div/span'
p17
F2.2103598658415513
sS'/html/body/div/div/ul/li/div/div/table/tbody/tr/td'
p18
F7.636624620543649
sS'/html/body/div/div/ul/li/div/p/a'
p19
F1.9087041659804496
sS'/html/body/div/div/div/div/ul/li'
p20
F2.5491617792933092
sS'/html/body/div/div/div/div/div/div/table/thead/tr/th'
p21
F2.5491617792933092
sS'/html/body/div/div/ul/li/div/div/br'
p22
F6.051662119822492
sS'/html/body/div/nav/div/a'
p23
F0.09746580943561736
sS'/html/body/div/div/div/div/div/h2/span/a'
p24
F2.5491617792933092
sS'/html/body/div/div/div/div/form/p/input'
p25
F7.636624620543649
sS'/html/body/div/div/div/div/div/div/a'
p26
F1.3698380798487475
sS'/html/body/div/div/div/div/span'
p27
F4.829269698486045
sS'/html/body/rss/channel/item/link'
p28
F3.9361849024025566
sS'/html/body/div/div/div/div/form/div/p/label'
p29
F3.3146965256562866
sS'/html/body/div/div/div/div/table/tbody/tr/td/div'
p30
F2.3886971071000636
sS'/html/body/div/form/input'
p31
F0.3512224016814004
sS'/html/body/div/div'
p32
F0.3512224016814004
sS'/html/body/div/div/ul/li/div/p/span/span'
p33
F1.9087041659804496
sS'/html/body/div/div/div/a'
p34
F1.210359865841551
sS'/html/body/div/div/div/div/form/div/p/input'
p35
F3.3146965256562866
sS'/html/body/div/div/div/p'
p36
F5.051662119822493
sS'/html/body/div/div/div/div/div/table/tbody/tr/th'
p37
F2.5491617792933092
sS'/html/body/div/div/div/div/select/optgroup/option'
p38
F4.829269698486045
sS'/html/head/meta'
p39
F0.09746580943561736
sS'/html/body/div/div/div/div/table/tbody/tr/td/h2/a'
p40
F2.3886971071000636
sS'/html/body/div'
p41
F0.3512224016814004
sS'/html/body/div/div/ul/li/div/img'
p42
F5.314696525656286
sS'/html/body/div/div/ul/li/div'
p43
F5.314696525656286
sS'/html/body/div/div/ul/li/div/div/blockquote/h4'
p44
F3.5491617792933092
sS'/html/body/div/div/ul/li/div/p/b/i'
p45
F7.636624620543649
sS'/html/body/div/div/div/div/div/div/table/tbody/tr/td'
p46
F2.5491617792933092
sS'/html/body/div/div/div/div/div/h2'
p47
F1.6593446970437324
sS'/html/body/div/div/ul/li/div/b'
p48
F5.63662462054365
sS'/html/body/div/header/div/div/input'
p49
F0.09746580943561736
sS'/html/body/div/div/ul/li/div/div/pre/strong/em/span'
p50
F6.636624620543649
sS'/html/body/div/div/div/div/form/div/select/option'
p51
F3.3146965256562866
sS'/html/body/div/div/div/div/p/br'
p52
F5.63662462054365
sS'/html/body/div/div/div/h1/a'
p53
F2.592230501185196
sS'/html/body/div/div/div/div/div/table/thead/tr/th'
p54
F7.636624620543649
sS'/html/body/div/div/div/form/div/div/button'
p55
F2.7297340249351305
sS'/html/body/div/div/div/div/p/a'
p56
F6.636624620543649
sS'/html/body/div/div/div/div/table/tbody/tr/td/br'
p57
F5.63662462054365
sS'/html/body/div/div/ul/li/div/p'
p58
F1.9087041659804496
sS'/html/body/div/div/div/div/p/b'
p59
F7.636624620543649
sS'/html/body/div/div/h1'
p60
F2.7297340249351305
sS'/html/body/div/div/ul/li/div/p/span/a'
p61
F1.9087041659804496
sS'/html/body/div/div/ul/li/div/div/p/em/strong'
p62
F6.636624620543649
sS'/html/body/div/a'
p63
F2.5491617792933092
sS'/html/head/script'
p64
F0.09746580943561736
sS'/html/body/div/div/div/div/form/div/div/p/label'
p65
F3.3146965256562866
sS'/html/body/div/div/div/form/div/br'
p66
F2.7297340249351305
sS'/html/body/div/div/div/div/p'
p67
F1.4666996191013366
sS'/html/body/div/div/div/div/div/table/tbody/tr/td/a'
p68
F2.5491617792933092
sS'/html/head/link'
p69
F0.09746580943561736
sS'/html/body/div/footer/div/div'
p70
F0.09746580943561736
sS'/html/body/div/noscript/img'
p71
F2.7297340249351305
sS'/html/body/div/div/div/form/div/input'
p72
F2.7297340249351305
sS'/html/body/div/nav/div/ul/li/div/div/h2'
p73
F0.09746580943561736
sS'/html/body/div/div/ul/li/div/div/p/img'
p74
F6.051662119822492
sS'/html/body/div/div/div/div/table/tbody/tr/td/p/b/a/img'
p75
F5.051662119822493
sS'/html/body/div/div/div/div/form/div/div/label'
p76
F3.3146965256562866
sS'/html/body/div/div/div/div/form/div/div/input'
p77
F3.3146965256562866
sS'/html/body/div/div/div/div/a/img'
p78
F7.636624620543649
sS'/html/body/div/footer/div/ul/li/span'
p79
F0.09746580943561736
sS'/html/body/div/div/div/form/input'
p80
F2.7297340249351305
sS'/html/body/div/div/div/div/form/div/h4'
p81
F3.3146965256562866
sS'/html/head/title'
p82
F0.09746580943561736
sS'/html/body/div/div/ul/li/div/div/p/strong/a'
p83
F7.636624620543649
sS'/html/body/div/div/div/div/div/div/h3/span'
p84
F2.778643625416077
sS'/html/body/div/div/div/div/form/div/input'
p85
F3.3146965256562866
sS'/html/body/div/div/div/div/ul/li/a'
p86
F1.3146965256562864
sS'/html/body/noscript/img'
p87
F0.3512224016814004
sS'/html/body/div/footer/div/ul/li/h2/a/svg/path'
p88
F0.09746580943561736
sS'/html/body/div/div/div/div/div/div/h2'
p89
F2.021914776428441
sS'/html/body/div/div/ul/li/div/div/blockquote/a'
p90
F7.636624620543649
sS'/html/body/noscript/a/img'
p91
F0.3512224016814004
sS'/html/body/div/div/div/div/form/h2/a'
p92
F3.3146965256562866
sS'/html/body/div/div/ul/li/div/div/ol/li'
p93
F5.63662462054365
sS'/html/body/div/div/ul/li/div/div/pre/strong'
p94
F6.636624620543649
sS'/html/body/div/div/ul/li/div/div/blockquote/p/i'
p95
F7.636624620543649
sS'/html/body/div/div/div/div/form/h3/a'
p96
F3.3146965256562866
sS'/html/body/div/div/ul/li/div/a/img'
p97
F1.9087041659804496
sS'/html/body/div/div/ul/li/div/div/blockquote/p'
p98
F5.63662462054365
sS'/html/body/div/div/ul/li/div/a'
p99
F1.9087041659804496
sS'/html/body/div/div/h1/a'
p100
F2.2103598658415513
sS'/html/body/div/div/ul/li/div/div/pre/br'
p101
F5.63662462054365
sS'/html/body/div/div/div/div/br'
p102
F7.636624620543649
sS'/html/body/div/div/ul/li/div/div/p/b/a'
p103
F7.636624620543649
sS'/html/body/div/div/ul/li/div/strong'
p104
F6.636624620543649
sS'/html/body/div/div/ul/li/div/div/ul/li'
p105
F6.636624620543649
sS'/html/body/div/div/div/div/table/tbody'
p106
F6.636624620543649
sS'/html/body/div/div/ul/li/div/div/pre/em/span/strong'
p107
F6.636624620543649
sS'/html/body/div/div/div/div/select/option'
p108
F4.829269698486045
sS'/html/body/div/div/ul/li/div/div/pre/span/em/strong'
p109
F6.636624620543649
sS'/html/body/div/div/ul/li/div/div/table/tbody/tr/td/p/span'
p110
F7.636624620543649
sS'/html/body/div/div/div/div/div/div/a/span'
p111
F2.2103598658415513
sS'/html/body/div/div/ul/li/div/b/a'
p112
F5.314696525656286
sS'/html/body/div/div/ul/li/div/br'
p113
F2.636624620543649
sS'/html/body/div/div/div/div/div/ul/li/a'
p114
F1.7058872829807625
sS'/html/body/div/header/div/a'
p115
F0.09746580943561736
sS'/html/body/div/div/ul/li/div/div/p/a/span'
p116
F7.636624620543649
sS'/html/body/div/header/div/a/svg/g/g/defs/rect'
p117
F0.09746580943561736
sS'/html/body/rss/channel/item/description'
p118
F3.9361849024025566
sS'/html/body/div/div/h1/span'
p119
F4.466699619101337
sS'/html/body/div/div/a'
p120
F0.113062664486636
sS'/html/head/style'
p121
F0.09746580943561736
sS'/html/body/div/div/div/ul/li'
p122
F2.3886971071000636
sS'/html/body/div/div/div/div'
p123
F1.4078059300477679
sS'/html/body/div/div/div/div/table/tbody/tr/td'
p124
F2.3512224016814005
sS'/html/body/script'
p125
F0.3512224016814004
sS'/html/body/div/div/ul/li/div/div/p/strong'
p126
F4.466699619101337
sS'/html/body/div/div/ul/li/div/h3'
p127
F1.9087041659804496
sS'/html/body/div/div/ul/li/div/div/p'
p128
F1.936184902402557
sS'/html/body/div/div/div/div/a'
p129
F4.829269698486045
sS'/html/body/div/div/div/div/div/div/span'
p130
F2.5491617792933092
sS'/html/body/div/div/div/div/table/tbody/tr/td/a'
p131
F5.314696525656286
sS'/html/body/div/header/div/div/div/a'
p132
F0.09746580943561736
sS'/html/body/div/div/div/div/div'
p133
F1.5073416035986824
sS'/html/body/rss/channel/id'
p134
F3.9361849024025566
sS'/html/body/div/div/div/div/table/tbody/tr/td/p/span'
p135
F5.314696525656286
sS'/html/body/div/div/ul/li/div/div/blockquote/span/em/strong'
p136
F6.636624620543649
sS'/html/body/div/div/ul/li/div/div'
p137
F1.9087041659804496
sS'/html/body/div/div/div/form/h2'
p138
F2.7297340249351305
sS'/html/body/rss/channel/item/guid'
p139
F3.9361849024025566
sS'/html/body/div/footer/div/ul/li/h2'
p140
F0.09746580943561736
sS'/html/body/div/div/div/div/div/div/ul/li/span'
p141
F2.778643625416077
sS'/html/body/div/div/ul/li/div/div/pre/span'
p142
F6.051662119822492
sS'/html/body/div/div/div/div/div/h2/span'
p143
F2.8817371183801805
sS'/html/body/div/div/div/div/div/div/div/div/p/strong'
p144
F7.636624620543649
sS'/html/body/div/div/ul/li/div/div/p/a/strong'
p145
F7.636624620543649
sS'/html/body/div/div/ul/li/div/div/p/span/a'
p146
F7.636624620543649
sS'/html/body/div/header/div/a/svg/path'
p147
F0.09746580943561736
sS'/html/body/div/div/div/div/form/h3/span'
p148
F3.3146965256562866
sS'/html/body/rss/channel/item/updated'
p149
F3.9361849024025566
sS'/html/body/div/div/div/div/div/div/p/strong'
p150
F2.5491617792933092
sS'/html/body/div/div/ul/li/div/p/span'
p151
F6.051662119822492
sS'/html/body/rss/channel/link'
p152
F3.9361849024025566
sS'/html/body/div/div/ul/li/div/div/blockquote/pre'
p153
F6.051662119822492
sS'/html/body/div/div/div/h2/span'
p154
F7.636624620543649
sS'/html/body/div/div/ul/li/div/div/p/span/span'
p155
F6.636624620543649
sS'/html/body/div/div/div/form/p/input'
p156
F2.3886971071000636
sS'/html/body/div/div/div/h1/span'
p157
F2.144771524213974
sS'/html/body/div/div/div/h2'
p158
F0.8951576341425019
sS'/html/body/div/div/div/h1'
p159
F1.7786436254160767
sS'/html/body/div/div/span'
p160
F0.3512224016814004
sS'/html/body/div/header/div/div/a/svg/path'
p161
F0.09746580943561736
sS'/html/body/div/nav/div/ul/li/a'
p162
F0.09746580943561736
sS'/html/body/div/div/div/div/form/div/div/h4'
p163
F3.3146965256562866
sS'/html/body/div/div/div/div/form/div/div/p/input'
p164
F3.3146965256562866
sS'/html/body/div/div/div/div/div/div'
p165
F7.636624620543649
sS'/html/body/rss/channel/item/title'
p166
F3.9361849024025566
sS'/html/body/div/div/div/div/div/div/div/div/h4/a'
p167
F7.636624620543649
sS'/html/body/div/div/div/div/form/div/div'
p168
F3.3146965256562866
sS'/html/body/div/div/ul/li/div/div/p/i'
p169
F6.636624620543649
sS'/html/body/rss/channel/lastbuilddate'
p170
F3.9361849024025566
sS'/html/body/div/script'
p171
F2.7297340249351305
sS'/html/body/div/div/ul/li/div/div/p/a'
p172
F2.9927684307689244
sS'/html/body/div/div/ul/li/div/div/p/b'
p173
F7.636624620543649
sS'/html/body/div/div/ul/li/div/div/blockquote/span'
p174
F3.5491617792933092
sS'/html/body/div/div/div/div/h2'
p175
F0.8817371183801803
sS'/html/body/rss/channel/description'
p176
F3.9361849024025566
sS'/html/body/div/div/div/div/div/img'
p177
F2.5491617792933092
sS'/html/body/div/div/ul/li/ul/li/a'
p178
F1.9087041659804496
sS'/html/body/div/div/div/div/div/div/h3'
p179
F2.5491617792933092
sS'/html/body/rss/channel/title'
p180
F3.9361849024025566
sS'/html/body/div/div/ul/li/div/div/pre'
p181
F3.3146965256562866
sS'/html/body/div/div/div/div/div/div/h3/span/a'
p182
F2.778643625416077
sS'/html/body/div/div/ul/li/div/div/p/br'
p183
F3.9361849024025566
sS'/html/body/div/div/div/div/div/div/ul/li/a'
p184
F2.021914776428441
sS'/html/body/div/div/div/div/table/thead/tr/th'
p185
F3.6366246205436488
sS'/html/body/div/div/ul/li/div/div/h3/a'
p186
F7.636624620543649
sS'/html/body/div/div/h2'
p187
F2.5491617792933092
sS'/html/body/div/div/ul/li/div/div/p/b/span'
p188
F7.636624620543649
sS'/html/body/div/div/div/div/div/div/div'
p189
F2.5491617792933092
sS'/html/body/div/div/div/form/div/label'
p190
F2.7297340249351305
sS'/html/body/div/div/div/form/div/a'
p191
F2.7297340249351305
sS'/html/body/div/div/div/form/div/div/label'
p192
F2.7297340249351305
sS'/html/body/div/div/div/div/table/tbody/tr/td/p/br'
p193
F5.051662119822493
sS'/html/body/div/div/ul/li/div/div/table/tbody/tr/td/a'
p194
F7.636624620543649
sS'/html/body/div/div/ul/li/div/div/p/em'
p195
F6.051662119822492
sS'/html/body/div/div/ul/li/div/div/ul/li/em'
p196
F6.636624620543649
sS'/html/body/div/div/ul/li/div/div/p/span'
p197
F4.829269698486045
sS'/html/body/rss/channel/item/pubdate'
p198
F5.63662462054365
sS'/html/body/div/header/div/a/svg/g/g/clippath/use'
p199
F0.09746580943561736
sS'/html/body/div/div/div/div/table/thead/tr/th/a'
p200
F2.2443071977648885
sS'/html/body/div/div/ul/li/div/div/table/tbody/tr/td/p'
p201
F7.636624620543649
s.