(dp0
S'/html/body/div/div/div/div/div/div/div/div/a/img'
p1
F9.957102041562287
sS'/html/body/div/footer/div/ul/li/a'
p2
F0.05925658555677472
sS'/html/body/div/div/div/div/table/tbody/tr/td/p/a'
p3
F2.7091745281187007
sS'/html/body/div/div/ul/li/div/div/p/strong/img'
p4
F9.957102041562287
sS'/html/body/div/div/ul/li/div/p/a'
p5
F1.3910480033911945
sS'/html/body/div/div/ul/li/div/div/ol/li/ol/li/ol/li/span/span/p/span'
p6
F8.37213954084113
sS'/html/body/div/div/ul/li/div/div/p/strong/em/br'
p7
F9.957102041562287
sS'/html/body/p/script'
p8
F9.957102041562287
sS'/html/body/rss/channel/item/link'
p9
F4.635173946674924
sS'/html/body/div/div/ul/li/div/div/ul/li/strong/a'
p10
F7.149747119504682
sS'/html/body/div/div/div/div/form/div/p/label'
p11
F3.7091745281187007
sS'/html/body/div/div/ul/li/div/div/p/font/font/font/font/font'
p12
F8.37213954084113
sS'/html/body/div/div/ul/li/div/div/font/table/tbody/tr/td/pre/font'
p13
F9.957102041562287
sS'/html/body/div/div/ul/li/div/div/table/tbody/tr/td/br'
p14
F9.957102041562287
sS'/html/body/div/div/div/a'
p15
F0.9514774923684081
sS'/html/body/div/div/ul/li/div/div/p/strong/span'
p16
F5.787177040119974
sS'/html/body/div/div/ul/li/div/div/em/p/font/b'
p17
F9.957102041562287
sS'/html/body/div/div/ul/li/div/div/blockquote/pre/span'
p18
F9.957102041562287
sS'/html/body/div/div/div/p'
p19
F6.256662323421194
sS'/html/body/div/div/ul/li/div/div/ol/li/ol/li/ol/li/span/span/p/span/span/span'
p20
F9.957102041562287
sS'/html/head/meta'
p21
F0.05925658555677472
sS'/html/body/div/div/ul/li/div/div/p/b/font/font/span/font/font/font'
p22
F9.957102041562287
sS'/html/body/div/header/div/div/input'
p23
F0.05925658555677472
sS'/html/body/div/div/ul/li/div/div/pre/strong/em/span'
p24
F6.787177040119974
sS'/html/body/div/div/ul/li/div/div/span/font/p/b/font'
p25
F9.957102041562287
sS'/html/body/div/div/ul/li/div/div/p/span/span/span/span/a/span'
p26
F9.957102041562287
sS'/html/body/div/div/ul/li/div/div/p/span/a/span'
p27
F7.635173946674924
sS'/html/body/div/div/ul/li/div/div/p/font/font/span/font/font/font'
p28
F9.957102041562287
sS'/html/body/div/div/div/div/div/table/thead/tr/th'
p29
F9.957102041562287
sS'/html/body/div/div/div/div/p/a'
p30
F9.957102041562287
sS'/html/body/div/div/ul/li/div/div/ol/li/ol/li'
p31
F8.37213954084113
sS'/html/body/div/div/ul/li/div/p/span/a'
p32
F1.3910480033911945
sS'/html/body/div/div/ul/li/div/div/p/a/em/strong/span'
p33
F9.957102041562287
sS'/html/body/div/div/ul/li/div/div/h1'
p34
F7.37213954084113
sS'/html/body/div/div/ul/li/div/div/pre/pre/span'
p35
F8.957102041562287
sS'/html/head/script'
p36
F0.060769637652344256
sS'/html/body/div/div/div/div/table/tbody/tr/td/p/span'
p37
F7.149747119504682
sS'/html/body/div/div/ul/li/div/div/ol/li/ol/li/p/span/span'
p38
F8.957102041562287
sS'/html/body/div/div/div/div/div/table/tbody/tr/td/a'
p39
F2.44930740136359
sS'/html/body/div/div/ul/li/div/div/p/a/em/strong'
p40
F7.957102041562287
sS'/html/body/div/footer/div/div'
p41
F0.05925658555677472
sS'/html/body/div/div/ul/li/div/div/p/a/font'
p42
F7.957102041562287
sS'/html/body/div/div/div/form/div/input'
p43
F2.777192951547352
sS'/html/body/div/div/ul/li/div/div/p/img'
p44
F4.709174528118701
sS'/html/body/div/div/div/div/table/tbody/tr/td/p/b/a/img'
p45
F6.37213954084113
sS'/html/body/div/div/ul/li/div/div/font/hr'
p46
F8.37213954084113
sS'/html/body/div/div/div/div/div/div/h3/span'
p47
F3.465248945232611
sS'/html/body/div/div/ul/li/div/div/p/font/table/tbody/tr/td/pre/pre'
p48
F8.37213954084113
sS'/html/body/div/div/ul/li/div/div/p/em/em'
p49
F8.37213954084113
sS'/html/body/div/div/div/div/form/h2/a'
p50
F3.7091745281187007
sS'/html/body/div/div/ul/li/div/div/p/span/strong/br'
p51
F8.957102041562287
sS'/html/body/div/div/div/div/form/h3/a'
p52
F3.7091745281187007
sS'/html/body/div/div/ul/li/div/div/blockquote/blockquote/h4'
p53
F7.957102041562287
sS'/html/body/div/div/ul/li/div/div/blockquote/p'
p54
F4.709174528118701
sS'/html/body/div/div/ul/li/div/div/ol/li/ol/li/ol/li/p/span/span'
p55
F8.37213954084113
sS'/html/body/div/div/ul/li/div/div/font/table/tbody/tr/td/pre/font/br'
p56
F8.957102041562287
sS'/html/body/div/div/div/div/br'
p57
F9.957102041562287
sS'/html/body/div/div/ul/li/div/div/h2/strong/span'
p58
F9.957102041562287
sS'/html/body/div/div/ul/li/div/div/span/span/span/span/font'
p59
F8.957102041562287
sS'/html/body/div/div/ul/li/div/div/span/h1/hr'
p60
F8.957102041562287
sS'/html/body/div/div/ul/li/div/div/ol/li/span/span/p/span/span/font'
p61
F8.37213954084113
sS'/html/body/div/div/ul/li/div/div/p/font/table/tbody/tr/td/pre'
p62
F8.957102041562287
sS'/html/body/div/div/ul/li/div/div/p/span/span/em'
p63
F9.957102041562287
sS'/html/body/rss/channel/item/description'
p64
F4.635173946674924
sS'/html/body/div/div/ul/li/div/div/blockquote/font'
p65
F8.957102041562287
sS'/html/body/div/div/ul/li/div/div/blockquote/p/font/font/a'
p66
F8.957102041562287
sS'/html/body/div/div/ul/li/div/div/ol/li/ol/li/ol/li/span/span/p/span/font'
p67
F8.37213954084113
sS'/html/body/div/div/div/div/div/div/span'
p68
F2.44930740136359
sS'/html/body/div/div/ul/li/div/div/blockquote/span/span'
p69
F8.957102041562287
sS'/html/body/div/div/div/form/h2'
p70
F2.777192951547352
sS'/html/body/div/footer/div/ul/li/h2'
p71
F0.05925658555677472
sS'/html/body/div/div/ul/li/div/div/pre/pre/harry'
p72
F9.957102041562287
sS'/html/body/div/div/ul/li/div/div/p/span/span/span/span/span/br'
p73
F9.957102041562287
sS'/html/body/div/div/ul/li/div/div/font/table/tbody/tr/td/pre/pre'
p74
F7.957102041562287
sS'/html/body/div/div/ul/li/div/div/p/span/b'
p75
F7.37213954084113
sS'/html/body/div/div/ul/li/div/div/p/span/a'
p76
F6.050211445953767
sS'/html/body/div/header/div/a/svg/path'
p77
F0.05925658555677472
sS'/html/body/rss/channel/item/updated'
p78
F4.635173946674924
sS'/html/body/div/div/ul/li/div/div/font/strong/font/em/blockquote/span'
p79
F9.957102041562287
sS'/html/body/div/div/ul/li/div/p/span'
p80
F4.957102041562286
sS'/html/body/div/div/div/h2/span'
p81
F6.149747119504682
sS'/html/body/div/div/ul/li/div/div/p/span/span/i'
p82
F8.37213954084113
sS'/html/body/div/div/ul/li/div/div/ol/li/ol/li/span/span/p/span/span'
p83
F8.37213954084113
sS'/html/body/div/div/ul/li/div/div/p/span/span/a'
p84
F8.957102041562287
sS'/html/body/div/div/ul/li/div/div/p/span/span/b'
p85
F7.37213954084113
sS'/html/body/div/header/div/div/a/svg/path'
p86
F0.05925658555677472
sS'/html/body/div/nav/div/ul/li/a'
p87
F0.05925658555677472
sS'/html/body/div/div/div/div/ul/li/a'
p88
F1.0087348099776086
sS'/html/body/div/div/ul/li/div/div/p/em/strong/em'
p89
F9.957102041562287
sS'/html/body/div/div/ul/li/div/div/font/br'
p90
F7.37213954084113
sS'/html/body/div/div/ul/li/div/p/span/span'
p91
F1.3910480033911945
sS'/html/body/noscript/img'
p92
F0.29710614913230865
sS'/html/body/div/div/ul/li/div/div/font/strong/font'
p93
F9.957102041562287
sS'/html/body/div/div/ul/li/div/div/blockquote/p/font/font/font/font/font'
p94
F8.957102041562287
sS'/html/body/div/div/ul/li/div/div/p/font/em/strong'
p95
F9.957102041562287
sS'/html/body/div/div/ul/li/div/div/font/p/font/br'
p96
F8.37213954084113
sS'/html/body/div/div/ul/li/div/div/p/strong/br'
p97
F7.635173946674924
sS'/html/body/div/div/ul/li/div/div/p/font/font/strong'
p98
F9.957102041562287
sS'/html/body/div/div/ul/li/div/div/pre'
p99
F2.644219086277931
sS'/html/body/div/div/ul/li/div/div/blockquote/p/br'
p100
F6.256662323421194
sS'/html/body/div/div/ul/li/div/b/a'
p101
F9.957102041562287
sS'/html/body/div/div/div/div/div/div/div'
p102
F2.44930740136359
sS'/html/body/div/div/div/div/form/div/select/option'
p103
F3.7091745281187007
sS'/html/body/div/div/ul/li/div/div/blockquote/blockquote/span/span/a'
p104
F9.957102041562287
sS'/html/body/div/div/ul/li/div/a/b'
p105
F5.635173946674924
sS'/html/body/div/div/div/div'
p106
F1.5604972603804277
sS'/html/body/div/div/ul/li/div/div/table/tbody/tr/td/b'
p107
F8.957102041562287
sS'/html/body/div/div/ul/li/div/div/p/span'
p108
F3.7476486759333363
sS'/html/body/rss/channel/item/pubdate'
p109
F7.37213954084113
sS'/html/body/div/div/div/div/form/h3/span'
p110
F3.7091745281187007
sS'/html/body/div/div/ul/li/div/div/table/tbody/tr/td/p'
p111
F6.957102041562287
sS'/html/body/div/div/ul/li/div/div/font/b/font'
p112
F8.37213954084113
sS'/html/body/div/div/div/form/div/div/input'
p113
F2.777192951547352
sS'/html/body/div/div/ul/li/div/h3/a'
p114
F1.3910480033911945
sS'/html/body/div/div/div/div/div/h2/span/a'
p115
F2.44930740136359
sS'/html/body/div/div/ul/li/div/div/strong/strong/h1/em/a'
p116
F9.957102041562287
sS'/html/body/rss/channel/description'
p117
F4.635173946674924
sS'/html/body/div/div/div/div/div/div/a'
p118
F1.5266494898967549
sS'/html/body/div/div/ul/li/div/div/em/p/font/table/tbody/tr/td/pre/pre'
p119
F9.957102041562287
sS'/html/body/div/div/ul/li/div/div/font/strong/font/em/blockquote/h4'
p120
F9.957102041562287
sS'/html/body/div/div/div/div/form/div/p/input'
p121
F3.7091745281187007
sS'/html/body/div/div/ul/li/div/a/img'
p122
F1.3910480033911945
sS'/html/body/div/div/ul/li/div/div/p/span/span/span/a/span'
p123
F9.957102041562287
sS'/html/body/div/div/ul/li/div/p/b/i'
p124
F9.957102041562287
sS'/html/body/div/div/div/div/div/h2'
p125
F1.8696392003119469
sS'/html/body/div/div/ul/li/div/b'
p126
F5.099121046434714
sS'/html/body/div/div/ul/li/div/div/p/span/a/span/span'
p127
F9.957102041562287
sS'/html/body/div/div/ul/li/div/a'
p128
F1.3910480033911945
sS'/html/body/div/div/ul/li/div/div/p/strong/em'
p129
F6.4976704229249895
sS'/html/body/div/div/ul/li/div/div/ol/li/br'
p130
F9.957102041562287
sS'/html/body/div/div/ul/li/div/i'
p131
F5.202214539398818
sS'/html/body/div/div/div/h1/a'
p132
F2.8802864445114555
sS'/html/body/div/div/div/div/table/tbody/tr/td/br'
p133
F6.957102041562287
sS'/html/body/div/div/ul/li/div/p'
p134
F1.3910480033911945
sS'/html/body/div/div/ul/li/div/div/p/span/span'
p135
F5.564784618783526
sS'/html/body/div/div/ul/li/div/div/p/em/strong'
p136
F5.709174528118701
sS'/html/body/div/div/ul/li/div/div/p/span/span/a/span'
p137
F9.957102041562287
sS'/html/body/div/a'
p138
F2.44930740136359
sS'/html/body/div/div/ul/li/div/div/ol/li/ol/li/p/span/span/br'
p139
F8.957102041562287
sS'/html/body/div/div/ul/li/div/div/ol/li/span/span/span/span'
p140
F9.957102041562287
sS'/html/head/link'
p141
F0.05925658555677472
sS'/html/body/div/div/ul/li/div/div/h2/em'
p142
F9.957102041562287
sS'/html/body/div/div/ul/li/div/div/blockquote/p/a/font'
p143
F8.957102041562287
sS'/html/body/div/nav/div/ul/li/div/div/h2'
p144
F0.05925658555677472
sS'/html/body/div/div/ul/li/div/div/blockquote/span/em'
p145
F9.957102041562287
sS'/html/body/div/footer/div/ul/li/span'
p146
F0.05925658555677472
sS'/html/body/div/div/div/div/table/tbody'
p147
F9.957102041562287
sS'/html/body/div/div/ul/li/div/div/p/i/span'
p148
F9.957102041562287
sS'/html/body/div/div/ul/li/div/div/ol/li/ol/li/span/span/p/span/span/font'
p149
F8.37213954084113
sS'/html/body/div/div/ul/li/div/div/p/span/span/span'
p150
F6.957102041562287
sS'/html/body/div/div/h1/a'
p151
F1.8175506891634927
sS'/html/body/div/div/ul/li/div/div/pre/br'
p152
F5.050211445953768
sS'/html/body/div/div/ul/li/div/div/em/p/font/table/tbody/tr/td/pre/br'
p153
F9.957102041562287
sS'/html/body/div/div/ul/li/div/div/blockquote/blockquote/p'
p154
F8.37213954084113
sS'/html/body/div/div/div/form/p/input'
p155
F2.7091745281187007
sS'/html/body/div/div/div/div/select/option'
p156
F6.37213954084113
sS'/html/body/div/div/ul/li/div/div/pre/strong'
p157
F5.433540085505273
sS'/html/body/div/div/ul/li/div/br'
p158
F2.4335400855052733
sS'/html/body/div/div/ul/li/div/div/p/font'
p159
F7.37213954084113
sS'/html/body/div/div/ul/li/div/div/ul/li/strong'
p160
F8.957102041562287
sS'/html/body/div/div/a'
p161
F0.05925658555677472
sS'/html/head/style'
p162
F0.060769637652344256
sS'/html/body/div/div/ul/li/div/div/blockquote/br'
p163
F8.957102041562287
sS'/html/body/div/div/ul/li/div/div/p/font/font'
p164
F7.957102041562287
sS'/html/body/div/div/div/div/a'
p165
F6.37213954084113
sS'/html/body/div/div/div/div/table/tbody/tr/td/a'
p166
F6.256662323421194
sS'/html/body/div/div/div/form/div/div/button'
p167
F2.777192951547352
sS'/html/body/div/div/ul/li/div/div/span/h2/em'
p168
F9.957102041562287
sS'/html/body/div/div/div/div/p'
p169
F1.5777236744910241
sS'/html/body/div/div/ul/li/div/div/blockquote/p/b'
p170
F8.37213954084113
sS'/html/body/div/div/ul/li/div/div'
p171
F1.3910480033911945
sS'/html/body/div/div/ul/li/div/div/p/span/u/strong'
p172
F9.957102041562287
sS'/html/body/div/div/div/div/div/div/ul/li/span'
p173
F3.5995500369442026
sS'/html/body/div/div/ul/li/div/div/blockquote/p/em'
p174
F9.957102041562287
sS'/html/body/div/div/div/div/table/tbody/tr/td'
p175
F2.6624812926706594
sS'/html/body/div/div/div/div/form/div/div/h4'
p176
F3.7091745281187007
sS'/html/body/div/div/ul/li/div/div/ol/li/strong/span'
p177
F9.957102041562287
sS'/html/body/div/div/ul/li/div/div/table/tbody/tr/td/a'
p178
F8.957102041562287
sS'/html/body/div/div/ul/li/div/div/font/blockquote/span'
p179
F9.957102041562287
sS'/html/body/div/div/ul/li/div/div/p/em/span'
p180
F9.957102041562287
sS'/html/body/div/div/div/h2'
p181
F0.7068036236559538
sS'/html/body/div/div/h1'
p182
F2.777192951547352
sS'/html/body/div/div/ul/li/div/div/ol/li/ol/li/span/span/p/span/font/br'
p183
F8.957102041562287
sS'/html/body/div/div/ul/li/div/div/table/tbody/tr/td/pre'
p184
F6.37213954084113
sS'/html/body/div/div/div/div/form/div/div/p/input'
p185
F3.7091745281187007
sS'/html/body/div/div/div/div/div/div'
p186
F9.957102041562287
sS'/html/body/div/div/ul/li/div/div/p/span/em/strong'
p187
F8.957102041562287
sS'/html/body/div/div/ul/li/div/div/p/i'
p188
F8.37213954084113
sS'/html/body/div/div/ul/li/div/div/pre/pre'
p189
F6.4976704229249895
sS'/html/body/div/script'
p190
F2.777192951547352
sS'/html/body/div/div/ul/li/div/div/p/a'
p191
F2.4813686105958883
sS'/html/body/div/div/ul/li/div/div/span/span'
p192
F8.957102041562287
sS'/html/body/div/div/ul/li/div/div/em/p/font/b/font'
p193
F9.957102041562287
sS'/html/body/div/div/ul/li/div/div/p/b'
p194
F6.149747119504682
sS'/html/body/div/div/div/div/h2'
p195
F0.6396894277974168
sS'/html/body/div/div/ul/li/div/div/blockquote/blockquote/span'
p196
F7.957102041562287
sS'/html/body/div/div/ul/li/div/div/p/span/span/span/span/span'
p197
F9.957102041562287
sS'/html/body/div/div/div/div/div/div/h3/span/a'
p198
F3.465248945232611
sS'/html/body/div/div/ul/li/div/div/p/span/span/span/em'
p199
F9.957102041562287
sS'/html/body/div/div/div/div/div/div/ul/li/a'
p200
F2.530837286860188
sS'/html/body/div/div/ul/li/div/div/p/u'
p201
F8.957102041562287
sS'/html/body/div/div/div/div/table/thead/tr/th'
p202
F4.635173946674924
sS'/html/body/div/div/div/form/div/label'
p203
F2.777192951547352
sS'/html/body/div/div/ul/li/div/div/pre/a'
p204
F8.957102041562287
sS'/html/body/div/div/div/form/div/a'
p205
F2.777192951547352
sS'/html/body/div/div/div/div/table/tbody/tr/td/p/br'
p206
F6.37213954084113
sS'/html/body/div/div/div/div/form/p/input'
p207
F9.957102041562287
sS'/html/body/div/div/ul/li/div/div/ol/li/span'
p208
F9.957102041562287
sS'/html/body/div/div/div/p/a'
p209
F1.8175506891634927
sS'/html/body/div/nav/div/ul/li/div/div/ul/li/a'
p210
F0.05925658555677472
sS'/html/body/div/div/div/div/ul/li/a/span'
p211
F1.8175506891634927
sS'/html/body/div/div/ul/li/div/div/p/i/i'
p212
F9.957102041562287
sS'/html/body/div/header/div/div/a/svg/circle'
p213
F0.05925658555677472
sS'/html/body/div/div/ul/li/div/div/h2/a'
p214
F9.957102041562287
sS'/html/body/div/div/ul/li/div/div/ol/li/ol/li/ol/li/span/span/p/span/span/font'
p215
F9.957102041562287
sS'/html/body/div/div/ul/li/div/div/span'
p216
F9.957102041562287
sS'/html/body/div/div/ul/li/div/div/h3'
p217
F7.957102041562287
sS'/html/body/div/div/ul/li/div/div/h2'
p218
F9.957102041562287
sS'/html/body/div/div/ul/li/div/div/p/span/span/span/span/br'
p219
F9.957102041562287
sS'/html/body/div/header/div/a/svg/g/g/path'
p220
F0.05925658555677472
sS'/html/body/div/div/ul/li/div/div/font/table/tbody/tr/td/pre/br'
p221
F8.37213954084113
sS'/html/body/div/div/ul/li/div/div/blockquote/em/strong'
p222
F9.957102041562287
sS'/html/body/p/meta'
p223
F9.957102041562287
sS'/html/body/div/nav/div/a'
p224
F0.05925658555677472
sS'/html/body/div/div/ul/li/div/div/font'
p225
F7.635173946674924
sS'/html/body/rss/channel/id'
p226
F4.635173946674924
sS'/html/body/div/div/ul/li/div/div/table/tbody/tr/td/span'
p227
F9.957102041562287
sS'/html/body/div/div/ul/li/div/div/font/font/font/font'
p228
F9.957102041562287
sS'/html/body/div/div/ul/li/div/div/ol/li/pre/span/span/br'
p229
F9.957102041562287
sS'/html/body/div/div/div/div/span'
p230
F6.37213954084113
sS'/html/body/p/style'
p231
F9.957102041562287
sS'/html/body/div/form/input'
p232
F0.29710614913230865
sS'/html/body/div/div/ul/li/div/div/span/font/br'
p233
F9.957102041562287
sS'/html/body/rss/channel/lastbuilddate'
p234
F4.635173946674924
sS'/html/body/div/div/ul/li/div/div/ol/li/ol/li/span/span/p/span'
p235
F8.957102041562287
sS'/html/body/div/div/ul/li/div/div/hr'
p236
F6.787177040119974
sS'/html/body/div/div/ul/li/div/div/blockquote/h2'
p237
F9.957102041562287
sS'/html/body/div/div/div/form/div/br'
p238
F2.777192951547352
sS'/html/body/div/div/ul/li/div/div/blockquote/h4'
p239
F3.2156350551611395
sS'/html/body/div/div/div/div/div/div/table/tbody/tr/td'
p240
F2.44930740136359
sS'/html/body/div/div/ul/li/div/div/ul/li/b'
p241
F8.957102041562287
sS'/html/body/div/div/ul/li/div/div/ul/li/a'
p242
F9.957102041562287
sS'/html/body/div/div/h1/span'
p243
F3.086737321978882
sS'/html/body/div/div/ul/li/div/h3'
p244
F1.3910480033911945
sS'/html/body/div/header/div/div/div/a'
p245
F0.05925658555677472
sS'/html/body/div/div/ul/li/div/div/em/p/font/br'
p246
F9.957102041562287
sS'/html/body/div/div/ul/li/div/div/span/font/p/br'
p247
F9.957102041562287
sS'/html/body/div/div/ul/li/div/div/p/style'
p248
F8.957102041562287
sS'/html/body/div/div/ul/li/div/div/pre/span/strong/em'
p249
F6.787177040119974
sS'/html/body/div/div/ul/li/div/div/p/span/br'
p250
F6.957102041562287
sS'/html/body/div/div/div/div/a/img'
p251
F6.149747119504682
sS'/html/body/div/div/ul/li/div/div/blockquote/blockquote/span/a'
p252
F9.957102041562287
sS'/html/body/div/div/ul/li/div/div/table/colgroup/col'
p253
F6.787177040119974
sS'/html/body/div/div/ul/li/div/div/p/font/br'
p254
F7.957102041562287
sS'/html/body/div/div/ul/li/div/div/blockquote/p/a'
p255
F7.37213954084113
sS'/html/body/div/div/ul/li/div/div/font/font/br'
p256
F9.957102041562287
sS'/html/body/div/div/ul/li/div/img'
p257
F7.37213954084113
sS'/html/body/div/div/ul/li/div/div/p/strong/a'
p258
F7.149747119504682
sS'/html/body/rss/channel/link'
p259
F4.635173946674924
sS'/html/body/div/div/ul/li/div/div/p/span/em'
p260
F8.37213954084113
sS'/html/body/div/div/ul/li/div/div/ul/li'
p261
F8.957102041562287
sS'/html/body/div/div/ul/li/div/div/strong/br'
p262
F9.957102041562287
sS'/html/body/div/div/ul/li/div/div/p/font/em'
p263
F9.957102041562287
sS'/html/body/div/div/ul/li/div/div/p/strong/u'
p264
F8.957102041562287
sS'/html/body/div/div/ul/li/div/div/p/span/span/font'
p265
F8.957102041562287
sS'/html/body/div/div/ul/li/div/div/pre/em/strong'
p266
F9.957102041562287
sS'/html/body/div/div/div/div/div/table/tbody/tr/td'
p267
F2.441402203278244
sS'/html/body/div/div/ul/li/div/div/blockquote/p/strong'
p268
F6.787177040119974
sS'/html/body/div/div/div/div/div/h2/span'
p269
F3.5141585457135576
sS'/html/body/div/div/ul/li/div/div/blockquote/p/i'
p270
F9.957102041562287
sS'/html/body/div/div/ul/li/div/div/font/em/blockquote/h4'
p271
F9.957102041562287
sS'/html/body/div/div/ul/li/div/div/pre/pre/actor'
p272
F9.957102041562287
sS'/html/body/div/div/ul/li/div/div/ol/li/ol/li/span/span/p/span/font'
p273
F8.957102041562287
sS'/html/body/div/div/ul/li/div/strong'
p274
F7.635173946674924
sS'/html/body/div/div/ul/li/div/div/pre/em/span/strong'
p275
F9.957102041562287
sS'/html/body/div/div/div/div/table/tbody/tr/td/div'
p276
F2.7091745281187007
sS'/html/body/div/div/ul/li/div/div/table/tbody/tr/td/p/span'
p277
F9.957102041562287
sS'/html/body/div/div/div/div/div/div/a/span'
p278
F2.608373887331209
sS'/html/body/div/div/div/div/div/ul/li/a'
p279
F1.8856396790056622
sS'/html/body/div/div/div/div/div'
p280
F1.923679040024836
sS'/html/body/div/div/ul/li/div/div/p/a/span'
p281
F8.37213954084113
sS'/html/body/div/header/div/a/svg/g/g/defs/rect'
p282
F0.05925658555677472
sS'/html/body/div/div/ul/li/div/div/ol/li/ol/li/p/span/br'
p283
F8.957102041562287
sS'/html/body/div/div/ul/li/div/div/p/span/font/font/strong'
p284
F9.957102041562287
sS'/html/body/div/div/ul/li/div/div/h1/span'
p285
F9.957102041562287
sS'/html/body/div/div/ul/li/div/div/h1/br'
p286
F9.957102041562287
sS'/html/body/div/div/ul/li/div/div/p/span/font'
p287
F7.957102041562287
sS'/html/body/div/div/ul/li/div/div/pre/span/span'
p288
F9.957102041562287
sS'/html/body/div/div/ul/li/div/div/blockquote/pre/br'
p289
F8.37213954084113
sS'/html/body/div/div/ul/li/div/div/em/h2/i'
p290
F9.957102041562287
sS'/html/body/div/div/ul/li/div/div/font/a'
p291
F9.957102041562287
sS'/html/body/div/div/ul/li/div/div/font/b'
p292
F7.37213954084113
sS'/html/body/div/div/ul/li/div/div/p/span/span/span/span/span/span'
p293
F9.957102041562287
sS'/html/body/div/div/ul/li/div/div/font/p'
p294
F7.635173946674924
sS'/html/body/div/div/span'
p295
F0.29710614913230865
sS'/html/body/div/div/ul/li/div/div/ol/li/ol/li/p/span/span/font'
p296
F8.37213954084113
sS'/html/body/div/div/ul/li/div/div/blockquote/pre'
p297
F6.787177040119974
sS'/html/body/div/div/ul/li/div/div/pre/pre/age'
p298
F9.957102041562287
sS'/html/body/div/div/ul/li/div/div/p/span/b/span'
p299
F9.957102041562287
sS'/html/body/rss/channel/item/title'
p300
F4.635173946674924
sS'/html/body/div/div/ul/li/div/div/p/span/strong'
p301
F6.37213954084113
sS'/html/body/div/div/ul/li/div/div/p/a/font/strong'
p302
F8.957102041562287
sS'/html/body/div/div/ul/li/div/div/p/font/a'
p303
F9.957102041562287
sS'/html/body/div/div/ul/li/div/div/p/font/b'
p304
F7.957102041562287
sS'/html/body/div/div/ul/li/div/div/blockquote/span'
p305
F3.256662323421194
sS'/html/body/div/div/div/div/div/img'
p306
F2.44930740136359
sS'/html/body/rss/channel/title'
p307
F4.635173946674924
sS'/html/body/div/div/ul/li/div/div/ol/li/span/span/span/br'
p308
F9.957102041562287
sS'/html/body/div/div/ul/li/div/div/p/br'
p309
F2.644219086277931
sS'/html/body/div/div/ul/li/div/div/span/h2/i'
p310
F8.37213954084113
sS'/html/body/div/div/h2'
p311
F2.44930740136359
sS'/html/body/div/div/ul/li/div/div/p/b/span'
p312
F8.37213954084113
sS'/html/body/div/div/div/h1'
p313
F1.9018196060610966
sS'/html/body/div/div/ul/li/div/div/font/p/font'
p314
F9.957102041562287
sS'/html/body/div/div/div/form/div/div/label'
p315
F2.777192951547352
sS'/html/body/div/div/ul/li/div/div/b/br'
p316
F8.957102041562287
sS'/html/body/div/div/ul/li/div/div/p/em'
p317
F5.050211445953768
sS'/html/body/div/div/ul/li/div/div/ul/li/em'
p318
F8.957102041562287
sS'/html/body/div/div/ul/li/div/div/font/table/tbody/tr/td/pre'
p319
F9.957102041562287
sS'/html/body/div/div/ul/li/div/div/blockquote/span/span/a'
p320
F9.957102041562287
sS'/html/body/div/div/div/div/table/thead/tr/th/a'
p321
F2.635173946674924
sS'/html/body/div/div/div/div/table/tbody/tr/td/h4/a'
p322
F6.957102041562287
sS'/html/body/div/div/ul/li/div/div/blockquote'
p323
F9.957102041562287
sS'/html/body/div/div/div'
p324
F0.8252450809534934
sS'/html/body/div/div/div/span'
p325
F1.8175506891634927
sS'/html/body/div/div/ul/li/div/div/table/tbody/tr/td'
p326
F6.37213954084113
sS'/html/body/div/div/div/div/div/div/table/thead/tr/th'
p327
F2.44930740136359
sS'/html/body/div/div/ul/li/div/div/br'
p328
F5.050211445953768
sS'/html/body/noscript/a/img'
p329
F0.29710614913230865
sS'/html/body/div/div/ul/li/div/div/h1/hr'
p330
F7.635173946674924
sS'/html/body/div/div/div/div/div/div/div/div/p/strong'
p331
F9.957102041562287
sS'/html/body/div/div'
p332
F0.29710614913230865
sS'/html/body/div/div/ul/li/div/div/ol/li/ol/li/span/span/p/span/br'
p333
F8.957102041562287
sS'/html/body/div/div/ul/li/div/div/h2/font'
p334
F9.957102041562287
sS'/html/body/div/div/div/div/div/table/tbody/tr/th'
p335
F2.44930740136359
sS'/html/body/div/div/ul/li/div/div/font/p/font/a'
p336
F8.957102041562287
sS'/html/body/div/div/div/div/select/optgroup/option'
p337
F6.37213954084113
sS'/html/body/div/div/div/div/table/tbody/tr/td/h2/a'
p338
F2.7091745281187007
sS'/html/body/div/div/ul/li/div/div/blockquote/blockquote/span/span'
p339
F9.957102041562287
sS'/html/body/div'
p340
F0.29710614913230865
sS'/html/body/div/noscript/img'
p341
F2.777192951547352
sS'/html/body/div/div/div/div/p/br'
p342
F6.050211445953767
sS'/html/body/p/link'
p343
F9.957102041562287
sS'/html/body/div/div/ul/li/div/div/p/span/span/span/br'
p344
F9.957102041562287
sS'/html/body/div/div/ul/li/div/div/pre/span/strong'
p345
F9.957102041562287
sS'/html/body/div/div/ul/li/ul/li/a'
p346
F1.3910480033911945
sS'/html/body/div/div/div/div/form/div/div/p/label'
p347
F3.7091745281187007
sS'/html/body/div/div/ul/li/div/div/font/em/blockquote/span'
p348
F9.957102041562287
sS'/html/body/div/div/ul/li/div'
p349
F3.934734228533832
sS'/html/body/div/div/ul/li/div/div/p/span/span/span/span/em'
p350
F9.957102041562287
sS'/html/body/div/div/ul/li/div/div/table/tbody/tr/td/p/br'
p351
F8.957102041562287
sS'/html/body/div/div/ul/li/div/div/font/p/b/font'
p352
F9.957102041562287
sS'/html/body/div/div/div/div/form/div/div/label'
p353
F3.7091745281187007
sS'/html/body/div/div/div/div/form/div/div/input'
p354
F3.7091745281187007
sS'/html/body/div/div/ul/li/div/div/ul/li/a/strong'
p355
F7.957102041562287
sS'/html/body/div/div/ul/li/div/div/blockquote/strong'
p356
F7.957102041562287
sS'/html/head/title'
p357
F0.05925658555677472
sS'/html/body/div/div/ul/li/div/div/span/font/b'
p358
F9.957102041562287
sS'/html/body/div/div/ul/li/div/div/span/font/table/tbody/tr/td/pre/pre'
p359
F9.957102041562287
sS'/html/body/div/div/div/div/form/div/input'
p360
F3.7091745281187007
sS'/html/body/div/div/ul/li/div/div/blockquote/blockquote/span/em'
p361
F9.957102041562287
sS'/html/body/div/div/div/div/ul/li'
p362
F2.44930740136359
sS'/html/body/div/div/ul/li/div/div/ol/li/ol/li/ol/li/p/span'
p363
F8.37213954084113
sS'/html/body/div/div/ul/li/div/div/span/font/p'
p364
F9.957102041562287
sS'/html/body/div/footer/div/ul/li/h2/a/svg/path'
p365
F0.05925658555677472
sS'/html/body/div/div/ul/li/div/div/pre/pre/strong/span'
p366
F9.957102041562287
sS'/html/body/div/div/ul/li/div/div/blockquote/span/a'
p367
F9.957102041562287
sS'/html/body/div/div/ul/li/div/div/ol/li'
p368
F6.635173946674924
sS'/html/body/div/div/ul/li/div/div/h2/i'
p369
F5.869639200311947
sS'/html/body/div/div/ul/li/div/div/p/strong/font'
p370
F9.957102041562287
sS'/html/body/div/div/div/div/form/div/h4'
p371
F3.7091745281187007
sS'/html/body/div/div/ul/li/div/div/p/span/span/span/span/font'
p372
F8.957102041562287
sS'/html/body/div/div/ul/li/div/div/ol/li/ol/li/ol/li/span/span/p/span/span'
p373
F8.37213954084113
sS'/html/body/div/div/ul/li/div/div/ol/li/span/strong/span'
p374
F9.957102041562287
sS'/html/body/div/div/ul/li/div/div/pre/span/em/strong'
p375
F6.787177040119974
sS'/html/body/div/header/div/a'
p376
F0.05925658555677472
sS'/html/body/div/div/ul/li/div/div/p/span/a/font'
p377
F9.957102041562287
sS'/html/body/div/div/div/div/div/div/div/div/h4/a'
p378
F9.957102041562287
sS'/html/body/div/div/ul/li/div/div/table/tbody/tr/td/img'
p379
F8.957102041562287
sS'/html/body/div/div/ul/li/div/div/blockquote/p/span/strong'
p380
F8.37213954084113
sS'/html/body/div/div/ul/li/div/div/font/font/p'
p381
F8.957102041562287
sS'/html/body/div/div/div/ul/li'
p382
F2.7091745281187007
sS'/html/body/div/div/ul/li/div/div/p/font/span'
p383
F9.957102041562287
sS'/html/body/div/div/ul/li/div/div/font/font/font'
p384
F9.957102041562287
sS'/html/body/div/div/ul/li/div/div/table/tbody/tr/td/pre/pre'
p385
F7.635173946674924
sS'/html/body/script'
p386
F0.29710614913230865
sS'/html/body/div/div/ul/li/div/div/p/strong'
p387
F3.7672774826822693
sS'/html/body/div/div/ul/li/div/div/p/font/strong'
p388
F9.957102041562287
sS'/html/body/div/div/ul/li/div/div/p'
p389
F1.4453493877949068
sS'/html/body/div/div/ul/li/div/div/font/blockquote/h4'
p390
F9.957102041562287
sS'/html/body/div/div/ul/li/div/div/b'
p391
F8.37213954084113
sS'/html/body/div/div/ul/li/div/div/a'
p392
F7.957102041562287
sS'/html/body/div/div/ul/li/div/div/ol/li/ol/li/span/span'
p393
F8.957102041562287
sS'/html/body/rss/channel/item/guid'
p394
F4.635173946674924
sS'/html/body/div/div/ul/li/div/div/pre/span'
p395
F6.149747119504682
sS'/html/body/div/div/ul/li/div/div/ol/li/ol/li/p/span'
p396
F8.957102041562287
sS'/html/body/div/div/ul/li/div/div/p/a/strong'
p397
F7.635173946674924
sS'/html/body/div/div/ul/li/div/div/p/font/b/font'
p398
F8.957102041562287
sS'/html/body/div/div/ul/li/div/div/p/span/span/br'
p399
F6.635173946674924
sS'/html/body/div/div/div/div/div/div/p/strong'
p400
F2.44930740136359
sS'/html/body/div/div/ul/li/div/div/font/font'
p401
F7.957102041562287
sS'/html/body/div/div/div/h1/span'
p402
F2.5995500369442026
sS'/html/body/div/div/ul/li/div/div/span/p'
p403
F9.957102041562287
sS'/html/body/div/div/ul/li/div/div/font/strong'
p404
F9.957102041562287
sS'/html/body/div/div/ul/li/div/div/p/b/font'
p405
F8.37213954084113
sS'/html/body/div/div/ul/li/div/div/table/tbody/tr/td/a/font'
p406
F9.957102041562287
sS'/html/body/div/div/div/div/form/div/div'
p407
F3.7091745281187007
sS'/html/body/div/header/div/a/svg/g/g/clippath/use'
p408
F0.05925658555677472
sS'/html/body/div/div/ul/li/div/div/blockquote/p/font/font/br'
p409
F8.957102041562287
sS'/html/body/div/div/ul/li/div/div/p/span/span/em/strong'
p410
F9.957102041562287
sS'/html/body/div/div/div/div/div/div/h4'
p411
F3.465248945232611
sS'/html/body/div/div/div/div/div/div/h3'
p412
F2.44930740136359
sS'/html/body/div/div/div/div/div/div/h2'
p413
F2.530837286860188
sS'/html/body/div/div/ul/li/div/div/ol/li/ol/li/span/span/p/span/span/br'
p414
F8.957102041562287
sS'/html/body/div/div/ul/li/div/div/h3/a'
p415
F6.635173946674924
sS'/html/body/div/div/ul/li/div/div/ol/li/span/span'
p416
F9.957102041562287
sS'/html/body/div/div/ul/li/div/div/p/span/span/span/span'
p417
F7.37213954084113
sS'/html/body/div/div/ul/li/div/div/span/span/p/span/span/font'
p418
F8.957102041562287
sS'/html/body/div/div/ul/li/div/div/pre/span/br'
p419
F8.37213954084113
sS'/html/body/div/div/div/form/input'
p420
F2.777192951547352
sS'/html/body/div/div/ul/li/div/div/table/tbody/tr/td/pre/span'
p421
F7.635173946674924
sS'/html/body/div/div/ul/li/div/div/h2/br'
p422
F9.957102041562287
sS'/html/body/div/div/ul/li/div/div/blockquote/em'
p423
F9.957102041562287
sS'/html/body/div/div/ul/li/div/div/ol/li/p/span/span/font'
p424
F8.957102041562287
s.